
benos.elf:     file format elf64-littleriscv


Disassembly of section .text.boot:

0000000000022000 <_start>:
   22000:	10401073          	csrw	sie,zero
   22004:	5bd020ef          	jal	ra,24dc0 <__init_uart>
   22008:	00000097          	auipc	ra,0x0
   2200c:	01c080e7          	jalr	28(ra) # 22024 <print_asm>
   22010:	00004117          	auipc	sp,0x4
   22014:	ff010113          	addi	sp,sp,-16 # 26000 <stacks_start>
   22018:	000012b7          	lui	t0,0x1
   2201c:	00510133          	add	sp,sp,t0
   22020:	77c0006f          	j	2279c <kernel_main>

0000000000022024 <print_asm>:
   22024:	00008493          	mv	s1,ra
   22028:	00003517          	auipc	a0,0x3
   2202c:	22050513          	addi	a0,a0,544 # 25248 <boot_string>
   22030:	651020ef          	jal	ra,24e80 <put_string_uart>
   22034:	00048093          	mv	ra,s1
   22038:	00008067          	ret

Disassembly of section .text:

0000000000022040 <print_func_name>:
   22040:	fc010113          	addi	sp,sp,-64
   22044:	02113c23          	sd	ra,56(sp)
   22048:	02813823          	sd	s0,48(sp)
   2204c:	04010413          	addi	s0,sp,64
   22050:	fca43423          	sd	a0,-56(s0)
   22054:	fe042623          	sw	zero,-20(s0)
   22058:	0300006f          	j	22088 <print_func_name+0x48>
   2205c:	00003717          	auipc	a4,0x3
   22060:	cc470713          	addi	a4,a4,-828 # 24d20 <func_addr>
   22064:	fec42783          	lw	a5,-20(s0)
   22068:	00379793          	slli	a5,a5,0x3
   2206c:	00f707b3          	add	a5,a4,a5
   22070:	0007b783          	ld	a5,0(a5)
   22074:	fc843703          	ld	a4,-56(s0)
   22078:	02f70663          	beq	a4,a5,220a4 <print_func_name+0x64>
   2207c:	fec42783          	lw	a5,-20(s0)
   22080:	0017879b          	addiw	a5,a5,1
   22084:	fef42623          	sw	a5,-20(s0)
   22088:	fec42703          	lw	a4,-20(s0)
   2208c:	00003797          	auipc	a5,0x3
   22090:	cc478793          	addi	a5,a5,-828 # 24d50 <func_num_syms>
   22094:	0007b783          	ld	a5,0(a5)
   22098:	fcf762e3          	bltu	a4,a5,2205c <print_func_name+0x1c>
   2209c:	00000793          	li	a5,0
   220a0:	0880006f          	j	22128 <print_func_name+0xe8>
   220a4:	00000013          	nop
   220a8:	00003797          	auipc	a5,0x3
   220ac:	c9078793          	addi	a5,a5,-880 # 24d38 <func_string>
   220b0:	fef43023          	sd	a5,-32(s0)
   220b4:	fec42783          	lw	a5,-20(s0)
   220b8:	0007879b          	sext.w	a5,a5
   220bc:	00079863          	bnez	a5,220cc <print_func_name+0x8c>
   220c0:	fe043783          	ld	a5,-32(s0)
   220c4:	fcf43c23          	sd	a5,-40(s0)
   220c8:	0480006f          	j	22110 <print_func_name+0xd0>
   220cc:	fe043783          	ld	a5,-32(s0)
   220d0:	00178793          	addi	a5,a5,1
   220d4:	fef43023          	sd	a5,-32(s0)
   220d8:	fe043783          	ld	a5,-32(s0)
   220dc:	0007c783          	lbu	a5,0(a5)
   220e0:	00079863          	bnez	a5,220f0 <print_func_name+0xb0>
   220e4:	fec42783          	lw	a5,-20(s0)
   220e8:	fff7879b          	addiw	a5,a5,-1
   220ec:	fef42623          	sw	a5,-20(s0)
   220f0:	fec42783          	lw	a5,-20(s0)
   220f4:	0007879b          	sext.w	a5,a5
   220f8:	fc079ae3          	bnez	a5,220cc <print_func_name+0x8c>
   220fc:	fe043783          	ld	a5,-32(s0)
   22100:	00178793          	addi	a5,a5,1
   22104:	fef43023          	sd	a5,-32(s0)
   22108:	fe043783          	ld	a5,-32(s0)
   2210c:	fcf43c23          	sd	a5,-40(s0)
   22110:	fd843603          	ld	a2,-40(s0)
   22114:	fc843583          	ld	a1,-56(s0)
   22118:	00003517          	auipc	a0,0x3
   2211c:	da850513          	addi	a0,a0,-600 # 24ec0 <_etext+0x4>
   22120:	664010ef          	jal	ra,23784 <printk>
   22124:	00000793          	li	a5,0
   22128:	00078513          	mv	a0,a5
   2212c:	03813083          	ld	ra,56(sp)
   22130:	03013403          	ld	s0,48(sp)
   22134:	04010113          	addi	sp,sp,64
   22138:	00008067          	ret

000000000002213c <my_memcpy_asm_test1>:
   2213c:	fc010113          	addi	sp,sp,-64
   22140:	02813c23          	sd	s0,56(sp)
   22144:	04010413          	addi	s0,sp,64
   22148:	fca43c23          	sd	a0,-40(s0)
   2214c:	fcb43823          	sd	a1,-48(s0)
   22150:	fcc43423          	sd	a2,-56(s0)
   22154:	fe043423          	sd	zero,-24(s0)
   22158:	fd843703          	ld	a4,-40(s0)
   2215c:	fc843783          	ld	a5,-56(s0)
   22160:	00f707b3          	add	a5,a4,a5
   22164:	fef43023          	sd	a5,-32(s0)
   22168:	fe043603          	ld	a2,-32(s0)
   2216c:	fd043683          	ld	a3,-48(s0)
   22170:	fe843703          	ld	a4,-24(s0)
   22174:	fd843783          	ld	a5,-40(s0)
   22178:	0007b703          	ld	a4,0(a5)
   2217c:	00e6b023          	sd	a4,0(a3)
   22180:	00868693          	addi	a3,a3,8
   22184:	00878793          	addi	a5,a5,8
   22188:	fec7c8e3          	blt	a5,a2,22178 <my_memcpy_asm_test1+0x3c>
   2218c:	fcd43823          	sd	a3,-48(s0)
   22190:	fee43423          	sd	a4,-24(s0)
   22194:	fcf43c23          	sd	a5,-40(s0)
   22198:	00000013          	nop
   2219c:	03813403          	ld	s0,56(sp)
   221a0:	04010113          	addi	sp,sp,64
   221a4:	00008067          	ret

00000000000221a8 <my_memcpy_asm_test2>:
   221a8:	fc010113          	addi	sp,sp,-64
   221ac:	02813c23          	sd	s0,56(sp)
   221b0:	04010413          	addi	s0,sp,64
   221b4:	fca43c23          	sd	a0,-40(s0)
   221b8:	fcb43823          	sd	a1,-48(s0)
   221bc:	fcc43423          	sd	a2,-56(s0)
   221c0:	fe043423          	sd	zero,-24(s0)
   221c4:	fd843703          	ld	a4,-40(s0)
   221c8:	fc843783          	ld	a5,-56(s0)
   221cc:	00f707b3          	add	a5,a4,a5
   221d0:	fef43023          	sd	a5,-32(s0)
   221d4:	fe043603          	ld	a2,-32(s0)
   221d8:	fd043683          	ld	a3,-48(s0)
   221dc:	fe843703          	ld	a4,-24(s0)
   221e0:	fd843783          	ld	a5,-40(s0)
   221e4:	0007b703          	ld	a4,0(a5)
   221e8:	00e6b023          	sd	a4,0(a3)
   221ec:	00868693          	addi	a3,a3,8
   221f0:	00878793          	addi	a5,a5,8
   221f4:	fec7c8e3          	blt	a5,a2,221e4 <my_memcpy_asm_test2+0x3c>
   221f8:	fcd43823          	sd	a3,-48(s0)
   221fc:	fee43423          	sd	a4,-24(s0)
   22200:	fcf43c23          	sd	a5,-40(s0)
   22204:	00000013          	nop
   22208:	03813403          	ld	s0,56(sp)
   2220c:	04010113          	addi	sp,sp,64
   22210:	00008067          	ret

0000000000022214 <my_asm_orr>:
   22214:	fd010113          	addi	sp,sp,-48
   22218:	02813423          	sd	s0,40(sp)
   2221c:	03010413          	addi	s0,sp,48
   22220:	fca43c23          	sd	a0,-40(s0)
   22224:	fcb43823          	sd	a1,-48(s0)
   22228:	fe043423          	sd	zero,-24(s0)
   2222c:	fd843683          	ld	a3,-40(s0)
   22230:	fd043703          	ld	a4,-48(s0)
   22234:	fe843783          	ld	a5,-24(s0)
   22238:	00073783          	ld	a5,0(a4)
   2223c:	00d7e7b3          	or	a5,a5,a3
   22240:	00f73023          	sd	a5,0(a4)
   22244:	fce43823          	sd	a4,-48(s0)
   22248:	fef43423          	sd	a5,-24(s0)
   2224c:	00000013          	nop
   22250:	02813403          	ld	s0,40(sp)
   22254:	03010113          	addi	sp,sp,48
   22258:	00008067          	ret

000000000002225c <my_asm_and>:
   2225c:	fd010113          	addi	sp,sp,-48
   22260:	02813423          	sd	s0,40(sp)
   22264:	03010413          	addi	s0,sp,48
   22268:	fca43c23          	sd	a0,-40(s0)
   2226c:	fcb43823          	sd	a1,-48(s0)
   22270:	fe043423          	sd	zero,-24(s0)
   22274:	fd843683          	ld	a3,-40(s0)
   22278:	fd043703          	ld	a4,-48(s0)
   2227c:	fe843783          	ld	a5,-24(s0)
   22280:	00073783          	ld	a5,0(a4)
   22284:	00d7f7b3          	and	a5,a5,a3
   22288:	00f73023          	sd	a5,0(a4)
   2228c:	fce43823          	sd	a4,-48(s0)
   22290:	fef43423          	sd	a5,-24(s0)
   22294:	00000013          	nop
   22298:	02813403          	ld	s0,40(sp)
   2229c:	03010113          	addi	sp,sp,48
   222a0:	00008067          	ret

00000000000222a4 <my_asm_add>:
   222a4:	fd010113          	addi	sp,sp,-48
   222a8:	02813423          	sd	s0,40(sp)
   222ac:	03010413          	addi	s0,sp,48
   222b0:	fca43c23          	sd	a0,-40(s0)
   222b4:	fcb43823          	sd	a1,-48(s0)
   222b8:	fe043423          	sd	zero,-24(s0)
   222bc:	fd843683          	ld	a3,-40(s0)
   222c0:	fd043703          	ld	a4,-48(s0)
   222c4:	fe843783          	ld	a5,-24(s0)
   222c8:	00073783          	ld	a5,0(a4)
   222cc:	00d787b3          	add	a5,a5,a3
   222d0:	00f73023          	sd	a5,0(a4)
   222d4:	fce43823          	sd	a4,-48(s0)
   222d8:	fef43423          	sd	a5,-24(s0)
   222dc:	00000013          	nop
   222e0:	02813403          	ld	s0,40(sp)
   222e4:	03010113          	addi	sp,sp,48
   222e8:	00008067          	ret

00000000000222ec <my_ops_test>:
   222ec:	fe010113          	addi	sp,sp,-32
   222f0:	00113c23          	sd	ra,24(sp)
   222f4:	00813823          	sd	s0,16(sp)
   222f8:	02010413          	addi	s0,sp,32
   222fc:	00f00793          	li	a5,15
   22300:	fef43423          	sd	a5,-24(s0)
   22304:	fe840793          	addi	a5,s0,-24
   22308:	00078593          	mv	a1,a5
   2230c:	00200513          	li	a0,2
   22310:	f4dff0ef          	jal	ra,2225c <my_asm_and>
   22314:	fe843783          	ld	a5,-24(s0)
   22318:	00078593          	mv	a1,a5
   2231c:	00003517          	auipc	a0,0x3
   22320:	bb450513          	addi	a0,a0,-1100 # 24ed0 <_etext+0x14>
   22324:	460010ef          	jal	ra,23784 <printk>
   22328:	08000793          	li	a5,128
   2232c:	fef43423          	sd	a5,-24(s0)
   22330:	fe840793          	addi	a5,s0,-24
   22334:	00078593          	mv	a1,a5
   22338:	00300513          	li	a0,3
   2233c:	ed9ff0ef          	jal	ra,22214 <my_asm_orr>
   22340:	fe843783          	ld	a5,-24(s0)
   22344:	00078593          	mv	a1,a5
   22348:	00003517          	auipc	a0,0x3
   2234c:	ba050513          	addi	a0,a0,-1120 # 24ee8 <_etext+0x2c>
   22350:	434010ef          	jal	ra,23784 <printk>
   22354:	00300793          	li	a5,3
   22358:	fef43423          	sd	a5,-24(s0)
   2235c:	fe840793          	addi	a5,s0,-24
   22360:	00078593          	mv	a1,a5
   22364:	00200513          	li	a0,2
   22368:	f3dff0ef          	jal	ra,222a4 <my_asm_add>
   2236c:	fe843783          	ld	a5,-24(s0)
   22370:	00078593          	mv	a1,a5
   22374:	00003517          	auipc	a0,0x3
   22378:	b8c50513          	addi	a0,a0,-1140 # 24f00 <_etext+0x44>
   2237c:	408010ef          	jal	ra,23784 <printk>
   22380:	00000013          	nop
   22384:	01813083          	ld	ra,24(sp)
   22388:	01013403          	ld	s0,16(sp)
   2238c:	02010113          	addi	sp,sp,32
   22390:	00008067          	ret

0000000000022394 <test_sysregs>:
   22394:	fe010113          	addi	sp,sp,-32
   22398:	00113c23          	sd	ra,24(sp)
   2239c:	00813823          	sd	s0,16(sp)
   223a0:	02010413          	addi	s0,sp,32
   223a4:	100027f3          	csrr	a5,sstatus
   223a8:	00078093          	mv	ra,a5
   223ac:	00008793          	mv	a5,ra
   223b0:	fef43423          	sd	a5,-24(s0)
   223b4:	fe843583          	ld	a1,-24(s0)
   223b8:	00003517          	auipc	a0,0x3
   223bc:	b6050513          	addi	a0,a0,-1184 # 24f18 <_etext+0x5c>
   223c0:	3c4010ef          	jal	ra,23784 <printk>
   223c4:	00000013          	nop
   223c8:	01813083          	ld	ra,24(sp)
   223cc:	01013403          	ld	s0,16(sp)
   223d0:	02010113          	addi	sp,sp,32
   223d4:	00008067          	ret

00000000000223d8 <test_asm_goto>:
   223d8:	fe010113          	addi	sp,sp,-32
   223dc:	00113c23          	sd	ra,24(sp)
   223e0:	00813823          	sd	s0,16(sp)
   223e4:	02010413          	addi	s0,sp,32
   223e8:	00050793          	mv	a5,a0
   223ec:	fef42623          	sw	a5,-20(s0)
   223f0:	fec42783          	lw	a5,-20(s0)
   223f4:	fff78793          	addi	a5,a5,-1
   223f8:	00078663          	beqz	a5,22404 <test_asm_goto+0x2c>
   223fc:	00000793          	li	a5,0
   22400:	0240006f          	j	22424 <test_asm_goto+0x4c>
   22404:	fec42783          	lw	a5,-20(s0)
   22408:	00078613          	mv	a2,a5
   2240c:	00003597          	auipc	a1,0x3
   22410:	d0c58593          	addi	a1,a1,-756 # 25118 <__func__.0>
   22414:	00003517          	auipc	a0,0x3
   22418:	b1450513          	addi	a0,a0,-1260 # 24f28 <_etext+0x6c>
   2241c:	368010ef          	jal	ra,23784 <printk>
   22420:	00100793          	li	a5,1
   22424:	00078513          	mv	a0,a5
   22428:	01813083          	ld	ra,24(sp)
   2242c:	01013403          	ld	s0,16(sp)
   22430:	02010113          	addi	sp,sp,32
   22434:	00008067          	ret

0000000000022438 <inline_asm_test>:
   22438:	fe010113          	addi	sp,sp,-32
   2243c:	00113c23          	sd	ra,24(sp)
   22440:	00813823          	sd	s0,16(sp)
   22444:	02010413          	addi	s0,sp,32
   22448:	02000613          	li	a2,32
   2244c:	000285b7          	lui	a1,0x28
   22450:	00020537          	lui	a0,0x20
   22454:	ce9ff0ef          	jal	ra,2213c <my_memcpy_asm_test1>
   22458:	02000613          	li	a2,32
   2245c:	000285b7          	lui	a1,0x28
   22460:	00020537          	lui	a0,0x20
   22464:	d45ff0ef          	jal	ra,221a8 <my_memcpy_asm_test2>
   22468:	03000613          	li	a2,48
   2246c:	05500593          	li	a1,85
   22470:	000287b7          	lui	a5,0x28
   22474:	00278513          	addi	a0,a5,2 # 28002 <_ebss+0xdea>
   22478:	5d8000ef          	jal	ra,22a50 <memset>
   2247c:	e71ff0ef          	jal	ra,222ec <my_ops_test>
   22480:	f15ff0ef          	jal	ra,22394 <test_sysregs>
   22484:	00100793          	li	a5,1
   22488:	fef42623          	sw	a5,-20(s0)
   2248c:	fec42783          	lw	a5,-20(s0)
   22490:	00078513          	mv	a0,a5
   22494:	f45ff0ef          	jal	ra,223d8 <test_asm_goto>
   22498:	00050793          	mv	a5,a0
   2249c:	00078713          	mv	a4,a5
   224a0:	00100793          	li	a5,1
   224a4:	00f71863          	bne	a4,a5,224b4 <inline_asm_test+0x7c>
   224a8:	00003517          	auipc	a0,0x3
   224ac:	a9050513          	addi	a0,a0,-1392 # 24f38 <_etext+0x7c>
   224b0:	2d4010ef          	jal	ra,23784 <printk>
   224b4:	fe042423          	sw	zero,-24(s0)
   224b8:	fe842783          	lw	a5,-24(s0)
   224bc:	00078513          	mv	a0,a5
   224c0:	f19ff0ef          	jal	ra,223d8 <test_asm_goto>
   224c4:	00050793          	mv	a5,a0
   224c8:	00079863          	bnez	a5,224d8 <inline_asm_test+0xa0>
   224cc:	00003517          	auipc	a0,0x3
   224d0:	a8450513          	addi	a0,a0,-1404 # 24f50 <_etext+0x94>
   224d4:	2b0010ef          	jal	ra,23784 <printk>
   224d8:	00000013          	nop
   224dc:	01813083          	ld	ra,24(sp)
   224e0:	01013403          	ld	s0,16(sp)
   224e4:	02010113          	addi	sp,sp,32
   224e8:	00008067          	ret

00000000000224ec <asm_test>:
   224ec:	fe010113          	addi	sp,sp,-32
   224f0:	00113c23          	sd	ra,24(sp)
   224f4:	00813823          	sd	s0,16(sp)
   224f8:	02010413          	addi	s0,sp,32
   224fc:	6c4020ef          	jal	ra,24bc0 <load_store_test>
   22500:	6f4020ef          	jal	ra,24bf4 <shift_test>
   22504:	738020ef          	jal	ra,24c3c <add_sub_test>
   22508:	784020ef          	jal	ra,24c8c <branch_test>
   2250c:	7a4020ef          	jal	ra,24cb0 <my_memcpy_test>
   22510:	02800613          	li	a2,40
   22514:	05500593          	li	a1,85
   22518:	00028537          	lui	a0,0x28
   2251c:	534000ef          	jal	ra,22a50 <memset>
   22520:	00900593          	li	a1,9
   22524:	00a00513          	li	a0,10
   22528:	7ac020ef          	jal	ra,24cd4 <compare_and_return>
   2252c:	fea43423          	sd	a0,-24(s0)
   22530:	fe843783          	ld	a5,-24(s0)
   22534:	00079863          	bnez	a5,22544 <asm_test+0x58>
   22538:	00003517          	auipc	a0,0x3
   2253c:	a3050513          	addi	a0,a0,-1488 # 24f68 <_etext+0xac>
   22540:	01c020ef          	jal	ra,2455c <uart_send_string>
   22544:	00a00593          	li	a1,10
   22548:	00900513          	li	a0,9
   2254c:	788020ef          	jal	ra,24cd4 <compare_and_return>
   22550:	fea43023          	sd	a0,-32(s0)
   22554:	fe043703          	ld	a4,-32(s0)
   22558:	fff00793          	li	a5,-1
   2255c:	00f71863          	bne	a4,a5,2256c <asm_test+0x80>
   22560:	00003517          	auipc	a0,0x3
   22564:	a0850513          	addi	a0,a0,-1528 # 24f68 <_etext+0xac>
   22568:	7f5010ef          	jal	ra,2455c <uart_send_string>
   2256c:	00900593          	li	a1,9
   22570:	00000513          	li	a0,0
   22574:	778020ef          	jal	ra,24cec <sel_test>
   22578:	fea43423          	sd	a0,-24(s0)
   2257c:	00200593          	li	a1,2
   22580:	00500513          	li	a0,5
   22584:	768020ef          	jal	ra,24cec <sel_test>
   22588:	fea43023          	sd	a0,-32(s0)
   2258c:	778020ef          	jal	ra,24d04 <bl_test>
   22590:	00003517          	auipc	a0,0x3
   22594:	9f850513          	addi	a0,a0,-1544 # 24f88 <_etext+0xcc>
   22598:	7c5010ef          	jal	ra,2455c <uart_send_string>
   2259c:	00500593          	li	a1,5
   225a0:	00500513          	li	a0,5
   225a4:	7c4020ef          	jal	ra,24d68 <macro_test_1>
   225a8:	fea43423          	sd	a0,-24(s0)
   225ac:	fe843703          	ld	a4,-24(s0)
   225b0:	00a00793          	li	a5,10
   225b4:	00f71863          	bne	a4,a5,225c4 <asm_test+0xd8>
   225b8:	00003517          	auipc	a0,0x3
   225bc:	9e850513          	addi	a0,a0,-1560 # 24fa0 <_etext+0xe4>
   225c0:	79d010ef          	jal	ra,2455c <uart_send_string>
   225c4:	00500593          	li	a1,5
   225c8:	00500513          	li	a0,5
   225cc:	7c4020ef          	jal	ra,24d90 <macro_test_2>
   225d0:	fea43023          	sd	a0,-32(s0)
   225d4:	fe043783          	ld	a5,-32(s0)
   225d8:	00079863          	bnez	a5,225e8 <asm_test+0xfc>
   225dc:	00003517          	auipc	a0,0x3
   225e0:	9e450513          	addi	a0,a0,-1564 # 24fc0 <_etext+0x104>
   225e4:	779010ef          	jal	ra,2455c <uart_send_string>
   225e8:	00000013          	nop
   225ec:	01813083          	ld	ra,24(sp)
   225f0:	01013403          	ld	s0,16(sp)
   225f4:	02010113          	addi	sp,sp,32
   225f8:	00008067          	ret

00000000000225fc <print_mem>:
   225fc:	ff010113          	addi	sp,sp,-16
   22600:	00113423          	sd	ra,8(sp)
   22604:	00813023          	sd	s0,0(sp)
   22608:	01010413          	addi	s0,sp,16
   2260c:	00003517          	auipc	a0,0x3
   22610:	9d450513          	addi	a0,a0,-1580 # 24fe0 <_etext+0x124>
   22614:	170010ef          	jal	ra,23784 <printk>
   22618:	00000597          	auipc	a1,0x0
   2261c:	9e858593          	addi	a1,a1,-1560 # 22000 <_start>
   22620:	00000617          	auipc	a2,0x0
   22624:	a1c60613          	addi	a2,a2,-1508 # 2203c <_etext_boot>
   22628:	00000717          	auipc	a4,0x0
   2262c:	a1470713          	addi	a4,a4,-1516 # 2203c <_etext_boot>
   22630:	00000797          	auipc	a5,0x0
   22634:	9d078793          	addi	a5,a5,-1584 # 22000 <_start>
   22638:	40f707b3          	sub	a5,a4,a5
   2263c:	00078693          	mv	a3,a5
   22640:	00003517          	auipc	a0,0x3
   22644:	9b850513          	addi	a0,a0,-1608 # 24ff8 <_etext+0x13c>
   22648:	13c010ef          	jal	ra,23784 <printk>
   2264c:	00000597          	auipc	a1,0x0
   22650:	9f058593          	addi	a1,a1,-1552 # 2203c <_etext_boot>
   22654:	00003617          	auipc	a2,0x3
   22658:	86860613          	addi	a2,a2,-1944 # 24ebc <_etext>
   2265c:	00003717          	auipc	a4,0x3
   22660:	86070713          	addi	a4,a4,-1952 # 24ebc <_etext>
   22664:	00000797          	auipc	a5,0x0
   22668:	9d878793          	addi	a5,a5,-1576 # 2203c <_etext_boot>
   2266c:	40f707b3          	sub	a5,a4,a5
   22670:	00078693          	mv	a3,a5
   22674:	00003517          	auipc	a0,0x3
   22678:	9b450513          	addi	a0,a0,-1612 # 25028 <_etext+0x16c>
   2267c:	108010ef          	jal	ra,23784 <printk>
   22680:	00003597          	auipc	a1,0x3
   22684:	83c58593          	addi	a1,a1,-1988 # 24ebc <_etext>
   22688:	00003617          	auipc	a2,0x3
   2268c:	bd360613          	addi	a2,a2,-1069 # 2525b <_data>
   22690:	00003717          	auipc	a4,0x3
   22694:	bcb70713          	addi	a4,a4,-1077 # 2525b <_data>
   22698:	00003797          	auipc	a5,0x3
   2269c:	82478793          	addi	a5,a5,-2012 # 24ebc <_etext>
   226a0:	40f707b3          	sub	a5,a4,a5
   226a4:	00078693          	mv	a3,a5
   226a8:	00003517          	auipc	a0,0x3
   226ac:	9b050513          	addi	a0,a0,-1616 # 25058 <_etext+0x19c>
   226b0:	0d4010ef          	jal	ra,23784 <printk>
   226b4:	00003597          	auipc	a1,0x3
   226b8:	ba758593          	addi	a1,a1,-1113 # 2525b <_data>
   226bc:	00005617          	auipc	a2,0x5
   226c0:	94460613          	addi	a2,a2,-1724 # 27000 <g_record>
   226c4:	00005717          	auipc	a4,0x5
   226c8:	93c70713          	addi	a4,a4,-1732 # 27000 <g_record>
   226cc:	00003797          	auipc	a5,0x3
   226d0:	b8f78793          	addi	a5,a5,-1137 # 2525b <_data>
   226d4:	40f707b3          	sub	a5,a4,a5
   226d8:	00078693          	mv	a3,a5
   226dc:	00003517          	auipc	a0,0x3
   226e0:	9ac50513          	addi	a0,a0,-1620 # 25088 <_etext+0x1cc>
   226e4:	0a0010ef          	jal	ra,23784 <printk>
   226e8:	00005597          	auipc	a1,0x5
   226ec:	92058593          	addi	a1,a1,-1760 # 27008 <print_buf>
   226f0:	00005617          	auipc	a2,0x5
   226f4:	b2860613          	addi	a2,a2,-1240 # 27218 <_ebss>
   226f8:	00005717          	auipc	a4,0x5
   226fc:	b2070713          	addi	a4,a4,-1248 # 27218 <_ebss>
   22700:	00005797          	auipc	a5,0x5
   22704:	90878793          	addi	a5,a5,-1784 # 27008 <print_buf>
   22708:	40f707b3          	sub	a5,a4,a5
   2270c:	00078693          	mv	a3,a5
   22710:	00003517          	auipc	a0,0x3
   22714:	9a850513          	addi	a0,a0,-1624 # 250b8 <_etext+0x1fc>
   22718:	06c010ef          	jal	ra,23784 <printk>
   2271c:	00000013          	nop
   22720:	00813083          	ld	ra,8(sp)
   22724:	00013403          	ld	s0,0(sp)
   22728:	01010113          	addi	sp,sp,16
   2272c:	00008067          	ret

0000000000022730 <clean_bss>:
   22730:	fd010113          	addi	sp,sp,-48
   22734:	02113423          	sd	ra,40(sp)
   22738:	02813023          	sd	s0,32(sp)
   2273c:	03010413          	addi	s0,sp,48
   22740:	00005797          	auipc	a5,0x5
   22744:	8c878793          	addi	a5,a5,-1848 # 27008 <print_buf>
   22748:	fef43423          	sd	a5,-24(s0)
   2274c:	00005797          	auipc	a5,0x5
   22750:	acc78793          	addi	a5,a5,-1332 # 27218 <_ebss>
   22754:	fef43023          	sd	a5,-32(s0)
   22758:	fe043783          	ld	a5,-32(s0)
   2275c:	0007871b          	sext.w	a4,a5
   22760:	fe843783          	ld	a5,-24(s0)
   22764:	0007879b          	sext.w	a5,a5
   22768:	40f707bb          	subw	a5,a4,a5
   2276c:	fcf42e23          	sw	a5,-36(s0)
   22770:	fe843783          	ld	a5,-24(s0)
   22774:	fdc46703          	lwu	a4,-36(s0)
   22778:	00070613          	mv	a2,a4
   2277c:	00000593          	li	a1,0
   22780:	00078513          	mv	a0,a5
   22784:	2cc000ef          	jal	ra,22a50 <memset>
   22788:	00000013          	nop
   2278c:	02813083          	ld	ra,40(sp)
   22790:	02013403          	ld	s0,32(sp)
   22794:	03010113          	addi	sp,sp,48
   22798:	00008067          	ret

000000000002279c <kernel_main>:
   2279c:	ff010113          	addi	sp,sp,-16
   227a0:	00113423          	sd	ra,8(sp)
   227a4:	00813023          	sd	s0,0(sp)
   227a8:	01010413          	addi	s0,sp,16
   227ac:	f85ff0ef          	jal	ra,22730 <clean_bss>
   227b0:	251010ef          	jal	ra,24200 <uart_init>
   227b4:	00003517          	auipc	a0,0x3
   227b8:	93450513          	addi	a0,a0,-1740 # 250e8 <_etext+0x22c>
   227bc:	5a1010ef          	jal	ra,2455c <uart_send_string>
   227c0:	729000ef          	jal	ra,236e8 <init_printk_done>
   227c4:	00003517          	auipc	a0,0x3
   227c8:	93c50513          	addi	a0,a0,-1732 # 25100 <_etext+0x244>
   227cc:	7b9000ef          	jal	ra,23784 <printk>
   227d0:	d1dff0ef          	jal	ra,224ec <asm_test>
   227d4:	c65ff0ef          	jal	ra,22438 <inline_asm_test>
   227d8:	008017b7          	lui	a5,0x801
   227dc:	88078513          	addi	a0,a5,-1920 # 800880 <_ebss+0x7d9668>
   227e0:	861ff0ef          	jal	ra,22040 <print_func_name>
   227e4:	008017b7          	lui	a5,0x801
   227e8:	86078513          	addi	a0,a5,-1952 # 800860 <_ebss+0x7d9648>
   227ec:	855ff0ef          	jal	ra,22040 <print_func_name>
   227f0:	008017b7          	lui	a5,0x801
   227f4:	80078513          	addi	a0,a5,-2048 # 800800 <_ebss+0x7d95e8>
   227f8:	849ff0ef          	jal	ra,22040 <print_func_name>
   227fc:	e01ff0ef          	jal	ra,225fc <print_mem>
   22800:	0000006f          	j	22800 <kernel_main+0x64>

0000000000022804 <__memset_16bytes_inline_asm>:
   22804:	fc010113          	addi	sp,sp,-64
   22808:	02813c23          	sd	s0,56(sp)
   2280c:	04010413          	addi	s0,sp,64
   22810:	fca43c23          	sd	a0,-40(s0)
   22814:	fcb43823          	sd	a1,-48(s0)
   22818:	00060793          	mv	a5,a2
   2281c:	fcf42623          	sw	a5,-52(s0)
   22820:	fe042623          	sw	zero,-20(s0)
   22824:	fd043603          	ld	a2,-48(s0)
   22828:	fd843683          	ld	a3,-40(s0)
   2282c:	fcc42703          	lw	a4,-52(s0)
   22830:	fec42783          	lw	a5,-20(s0)
   22834:	00c6b023          	sd	a2,0(a3)
   22838:	00c6b423          	sd	a2,8(a3)
   2283c:	01078793          	addi	a5,a5,16
   22840:	fee7cae3          	blt	a5,a4,22834 <__memset_16bytes_inline_asm+0x30>
   22844:	fcd43c23          	sd	a3,-40(s0)
   22848:	fce42623          	sw	a4,-52(s0)
   2284c:	fef42623          	sw	a5,-20(s0)
   22850:	00000013          	nop
   22854:	03813403          	ld	s0,56(sp)
   22858:	04010113          	addi	sp,sp,64
   2285c:	00008067          	ret

0000000000022860 <__memset_1bytes>:
   22860:	fc010113          	addi	sp,sp,-64
   22864:	02813c23          	sd	s0,56(sp)
   22868:	04010413          	addi	s0,sp,64
   2286c:	fca43c23          	sd	a0,-40(s0)
   22870:	00058793          	mv	a5,a1
   22874:	fcc43423          	sd	a2,-56(s0)
   22878:	fcf42a23          	sw	a5,-44(s0)
   2287c:	fd843783          	ld	a5,-40(s0)
   22880:	fef43423          	sd	a5,-24(s0)
   22884:	01c0006f          	j	228a0 <__memset_1bytes+0x40>
   22888:	fe843783          	ld	a5,-24(s0)
   2288c:	00178713          	addi	a4,a5,1
   22890:	fee43423          	sd	a4,-24(s0)
   22894:	fd442703          	lw	a4,-44(s0)
   22898:	0ff77713          	andi	a4,a4,255
   2289c:	00e78023          	sb	a4,0(a5)
   228a0:	fc843783          	ld	a5,-56(s0)
   228a4:	fff78713          	addi	a4,a5,-1
   228a8:	fce43423          	sd	a4,-56(s0)
   228ac:	fc079ee3          	bnez	a5,22888 <__memset_1bytes+0x28>
   228b0:	fd843783          	ld	a5,-40(s0)
   228b4:	00078513          	mv	a0,a5
   228b8:	03813403          	ld	s0,56(sp)
   228bc:	04010113          	addi	sp,sp,64
   228c0:	00008067          	ret

00000000000228c4 <__memset>:
   228c4:	f9010113          	addi	sp,sp,-112
   228c8:	06113423          	sd	ra,104(sp)
   228cc:	06813023          	sd	s0,96(sp)
   228d0:	07010413          	addi	s0,sp,112
   228d4:	faa43423          	sd	a0,-88(s0)
   228d8:	00058793          	mv	a5,a1
   228dc:	f8c43c23          	sd	a2,-104(s0)
   228e0:	faf42223          	sw	a5,-92(s0)
   228e4:	fa843783          	ld	a5,-88(s0)
   228e8:	fef43423          	sd	a5,-24(s0)
   228ec:	01000793          	li	a5,16
   228f0:	fcf43423          	sd	a5,-56(s0)
   228f4:	f9843783          	ld	a5,-104(s0)
   228f8:	fef43023          	sd	a5,-32(s0)
   228fc:	fe843783          	ld	a5,-24(s0)
   22900:	fcf43023          	sd	a5,-64(s0)
   22904:	fc043823          	sd	zero,-48(s0)
   22908:	fc042e23          	sw	zero,-36(s0)
   2290c:	0340006f          	j	22940 <__memset+0x7c>
   22910:	fa442783          	lw	a5,-92(s0)
   22914:	0ff7f793          	andi	a5,a5,255
   22918:	fdc42703          	lw	a4,-36(s0)
   2291c:	0037171b          	slliw	a4,a4,0x3
   22920:	0007071b          	sext.w	a4,a4
   22924:	00e797b3          	sll	a5,a5,a4
   22928:	fd043703          	ld	a4,-48(s0)
   2292c:	00f767b3          	or	a5,a4,a5
   22930:	fcf43823          	sd	a5,-48(s0)
   22934:	fdc42783          	lw	a5,-36(s0)
   22938:	0017879b          	addiw	a5,a5,1
   2293c:	fcf42e23          	sw	a5,-36(s0)
   22940:	fdc42783          	lw	a5,-36(s0)
   22944:	0007871b          	sext.w	a4,a5
   22948:	00700793          	li	a5,7
   2294c:	fce7d2e3          	bge	a5,a4,22910 <__memset+0x4c>
   22950:	fc843783          	ld	a5,-56(s0)
   22954:	fff78713          	addi	a4,a5,-1
   22958:	fc043783          	ld	a5,-64(s0)
   2295c:	00f777b3          	and	a5,a4,a5
   22960:	04078e63          	beqz	a5,229bc <__memset+0xf8>
   22964:	fc843783          	ld	a5,-56(s0)
   22968:	fff78793          	addi	a5,a5,-1
   2296c:	fc043703          	ld	a4,-64(s0)
   22970:	00f777b3          	and	a5,a4,a5
   22974:	faf43c23          	sd	a5,-72(s0)
   22978:	fc843703          	ld	a4,-56(s0)
   2297c:	fb843783          	ld	a5,-72(s0)
   22980:	40f707b3          	sub	a5,a4,a5
   22984:	faf43c23          	sd	a5,-72(s0)
   22988:	fa442783          	lw	a5,-92(s0)
   2298c:	fb843603          	ld	a2,-72(s0)
   22990:	00078593          	mv	a1,a5
   22994:	fe843503          	ld	a0,-24(s0)
   22998:	ec9ff0ef          	jal	ra,22860 <__memset_1bytes>
   2299c:	fe843703          	ld	a4,-24(s0)
   229a0:	fb843783          	ld	a5,-72(s0)
   229a4:	00f707b3          	add	a5,a4,a5
   229a8:	fef43423          	sd	a5,-24(s0)
   229ac:	f9843703          	ld	a4,-104(s0)
   229b0:	fb843783          	ld	a5,-72(s0)
   229b4:	40f707b3          	sub	a5,a4,a5
   229b8:	fef43023          	sd	a5,-32(s0)
   229bc:	fe043703          	ld	a4,-32(s0)
   229c0:	fc843783          	ld	a5,-56(s0)
   229c4:	06e7fa63          	bgeu	a5,a4,22a38 <__memset+0x174>
   229c8:	fe043703          	ld	a4,-32(s0)
   229cc:	fc843783          	ld	a5,-56(s0)
   229d0:	02f757b3          	divu	a5,a4,a5
   229d4:	faf42a23          	sw	a5,-76(s0)
   229d8:	fe043703          	ld	a4,-32(s0)
   229dc:	fc843783          	ld	a5,-56(s0)
   229e0:	02f777b3          	remu	a5,a4,a5
   229e4:	fef43023          	sd	a5,-32(s0)
   229e8:	fb442783          	lw	a5,-76(s0)
   229ec:	0047979b          	slliw	a5,a5,0x4
   229f0:	0007879b          	sext.w	a5,a5
   229f4:	00078613          	mv	a2,a5
   229f8:	fd043583          	ld	a1,-48(s0)
   229fc:	fe843503          	ld	a0,-24(s0)
   22a00:	e05ff0ef          	jal	ra,22804 <__memset_16bytes_inline_asm>
   22a04:	fe043783          	ld	a5,-32(s0)
   22a08:	02078863          	beqz	a5,22a38 <__memset+0x174>
   22a0c:	fb442783          	lw	a5,-76(s0)
   22a10:	0047979b          	slliw	a5,a5,0x4
   22a14:	0007879b          	sext.w	a5,a5
   22a18:	00078713          	mv	a4,a5
   22a1c:	fe843783          	ld	a5,-24(s0)
   22a20:	00e787b3          	add	a5,a5,a4
   22a24:	fa442703          	lw	a4,-92(s0)
   22a28:	fe043603          	ld	a2,-32(s0)
   22a2c:	00070593          	mv	a1,a4
   22a30:	00078513          	mv	a0,a5
   22a34:	e2dff0ef          	jal	ra,22860 <__memset_1bytes>
   22a38:	fa843783          	ld	a5,-88(s0)
   22a3c:	00078513          	mv	a0,a5
   22a40:	06813083          	ld	ra,104(sp)
   22a44:	06013403          	ld	s0,96(sp)
   22a48:	07010113          	addi	sp,sp,112
   22a4c:	00008067          	ret

0000000000022a50 <memset>:
   22a50:	fd010113          	addi	sp,sp,-48
   22a54:	02113423          	sd	ra,40(sp)
   22a58:	02813023          	sd	s0,32(sp)
   22a5c:	03010413          	addi	s0,sp,48
   22a60:	fea43423          	sd	a0,-24(s0)
   22a64:	00058793          	mv	a5,a1
   22a68:	fcc43c23          	sd	a2,-40(s0)
   22a6c:	fef42223          	sw	a5,-28(s0)
   22a70:	fe442783          	lw	a5,-28(s0)
   22a74:	fd843603          	ld	a2,-40(s0)
   22a78:	00078593          	mv	a1,a5
   22a7c:	fe843503          	ld	a0,-24(s0)
   22a80:	e45ff0ef          	jal	ra,228c4 <__memset>
   22a84:	00050793          	mv	a5,a0
   22a88:	00078513          	mv	a0,a5
   22a8c:	02813083          	ld	ra,40(sp)
   22a90:	02013403          	ld	s0,32(sp)
   22a94:	03010113          	addi	sp,sp,48
   22a98:	00008067          	ret

0000000000022a9c <scan_number>:
   22a9c:	fd010113          	addi	sp,sp,-48
   22aa0:	02813423          	sd	s0,40(sp)
   22aa4:	03010413          	addi	s0,sp,48
   22aa8:	fca43c23          	sd	a0,-40(s0)
   22aac:	fcb43823          	sd	a1,-48(s0)
   22ab0:	fe042623          	sw	zero,-20(s0)
   22ab4:	0440006f          	j	22af8 <scan_number+0x5c>
   22ab8:	fec42703          	lw	a4,-20(s0)
   22abc:	00070793          	mv	a5,a4
   22ac0:	0027979b          	slliw	a5,a5,0x2
   22ac4:	00e787bb          	addw	a5,a5,a4
   22ac8:	0017979b          	slliw	a5,a5,0x1
   22acc:	fef42623          	sw	a5,-20(s0)
   22ad0:	fd843783          	ld	a5,-40(s0)
   22ad4:	00178713          	addi	a4,a5,1
   22ad8:	fce43c23          	sd	a4,-40(s0)
   22adc:	0007c783          	lbu	a5,0(a5)
   22ae0:	0007879b          	sext.w	a5,a5
   22ae4:	fd07879b          	addiw	a5,a5,-48
   22ae8:	0007879b          	sext.w	a5,a5
   22aec:	fec42703          	lw	a4,-20(s0)
   22af0:	00f707bb          	addw	a5,a4,a5
   22af4:	fef42623          	sw	a5,-20(s0)
   22af8:	fd843783          	ld	a5,-40(s0)
   22afc:	0007c783          	lbu	a5,0(a5)
   22b00:	00078713          	mv	a4,a5
   22b04:	02f00793          	li	a5,47
   22b08:	00e7fc63          	bgeu	a5,a4,22b20 <scan_number+0x84>
   22b0c:	fd843783          	ld	a5,-40(s0)
   22b10:	0007c783          	lbu	a5,0(a5)
   22b14:	00078713          	mv	a4,a5
   22b18:	03900793          	li	a5,57
   22b1c:	f8e7fee3          	bgeu	a5,a4,22ab8 <scan_number+0x1c>
   22b20:	fd043783          	ld	a5,-48(s0)
   22b24:	fec42703          	lw	a4,-20(s0)
   22b28:	00e7a023          	sw	a4,0(a5)
   22b2c:	fd843783          	ld	a5,-40(s0)
   22b30:	00078513          	mv	a0,a5
   22b34:	02813403          	ld	s0,40(sp)
   22b38:	03010113          	addi	sp,sp,48
   22b3c:	00008067          	ret

0000000000022b40 <number>:
   22b40:	f2010113          	addi	sp,sp,-224
   22b44:	0c813c23          	sd	s0,216(sp)
   22b48:	0e010413          	addi	s0,sp,224
   22b4c:	f2a43c23          	sd	a0,-200(s0)
   22b50:	f2b43823          	sd	a1,-208(s0)
   22b54:	00060593          	mv	a1,a2
   22b58:	00068613          	mv	a2,a3
   22b5c:	00070693          	mv	a3,a4
   22b60:	00078713          	mv	a4,a5
   22b64:	00058793          	mv	a5,a1
   22b68:	f2f42623          	sw	a5,-212(s0)
   22b6c:	00060793          	mv	a5,a2
   22b70:	f2f42423          	sw	a5,-216(s0)
   22b74:	00068793          	mv	a5,a3
   22b78:	f2f42223          	sw	a5,-220(s0)
   22b7c:	00070793          	mv	a5,a4
   22b80:	f2f42023          	sw	a5,-224(s0)
   22b84:	fe0407a3          	sb	zero,-17(s0)
   22b88:	00002797          	auipc	a5,0x2
   22b8c:	5a078793          	addi	a5,a5,1440 # 25128 <__func__.0+0x10>
   22b90:	fef43023          	sd	a5,-32(s0)
   22b94:	f2042783          	lw	a5,-224(s0)
   22b98:	0407f793          	andi	a5,a5,64
   22b9c:	0007879b          	sext.w	a5,a5
   22ba0:	00078863          	beqz	a5,22bb0 <number+0x70>
   22ba4:	00002797          	auipc	a5,0x2
   22ba8:	5ac78793          	addi	a5,a5,1452 # 25150 <__func__.0+0x38>
   22bac:	fef43023          	sd	a5,-32(s0)
   22bb0:	f2042783          	lw	a5,-224(s0)
   22bb4:	0107f793          	andi	a5,a5,16
   22bb8:	0007879b          	sext.w	a5,a5
   22bbc:	00078863          	beqz	a5,22bcc <number+0x8c>
   22bc0:	f2042783          	lw	a5,-224(s0)
   22bc4:	ffe7f793          	andi	a5,a5,-2
   22bc8:	f2f42023          	sw	a5,-224(s0)
   22bcc:	f2c42783          	lw	a5,-212(s0)
   22bd0:	0007871b          	sext.w	a4,a5
   22bd4:	00100793          	li	a5,1
   22bd8:	00e7da63          	bge	a5,a4,22bec <number+0xac>
   22bdc:	f2c42783          	lw	a5,-212(s0)
   22be0:	0007871b          	sext.w	a4,a5
   22be4:	02400793          	li	a5,36
   22be8:	00e7d663          	bge	a5,a4,22bf4 <number+0xb4>
   22bec:	00000793          	li	a5,0
   22bf0:	3400006f          	j	22f30 <number+0x3f0>
   22bf4:	f2042783          	lw	a5,-224(s0)
   22bf8:	0017f793          	andi	a5,a5,1
   22bfc:	0007879b          	sext.w	a5,a5
   22c00:	00078663          	beqz	a5,22c0c <number+0xcc>
   22c04:	03000793          	li	a5,48
   22c08:	0080006f          	j	22c10 <number+0xd0>
   22c0c:	02000793          	li	a5,32
   22c10:	fcf40da3          	sb	a5,-37(s0)
   22c14:	f2042783          	lw	a5,-224(s0)
   22c18:	0027f793          	andi	a5,a5,2
   22c1c:	0007879b          	sext.w	a5,a5
   22c20:	06078c63          	beqz	a5,22c98 <number+0x158>
   22c24:	f3043783          	ld	a5,-208(s0)
   22c28:	fcf43823          	sd	a5,-48(s0)
   22c2c:	fd043783          	ld	a5,-48(s0)
   22c30:	0007de63          	bgez	a5,22c4c <number+0x10c>
   22c34:	02d00793          	li	a5,45
   22c38:	fef407a3          	sb	a5,-17(s0)
   22c3c:	fd043783          	ld	a5,-48(s0)
   22c40:	40f007b3          	neg	a5,a5
   22c44:	f2f43823          	sd	a5,-208(s0)
   22c48:	0500006f          	j	22c98 <number+0x158>
   22c4c:	f2042783          	lw	a5,-224(s0)
   22c50:	0047f793          	andi	a5,a5,4
   22c54:	0007879b          	sext.w	a5,a5
   22c58:	00078e63          	beqz	a5,22c74 <number+0x134>
   22c5c:	02b00793          	li	a5,43
   22c60:	fef407a3          	sb	a5,-17(s0)
   22c64:	f2842783          	lw	a5,-216(s0)
   22c68:	fff7879b          	addiw	a5,a5,-1
   22c6c:	f2f42423          	sw	a5,-216(s0)
   22c70:	0280006f          	j	22c98 <number+0x158>
   22c74:	f2042783          	lw	a5,-224(s0)
   22c78:	0087f793          	andi	a5,a5,8
   22c7c:	0007879b          	sext.w	a5,a5
   22c80:	00078c63          	beqz	a5,22c98 <number+0x158>
   22c84:	02000793          	li	a5,32
   22c88:	fef407a3          	sb	a5,-17(s0)
   22c8c:	f2842783          	lw	a5,-216(s0)
   22c90:	fff7879b          	addiw	a5,a5,-1
   22c94:	f2f42423          	sw	a5,-216(s0)
   22c98:	f2042783          	lw	a5,-224(s0)
   22c9c:	0207f793          	andi	a5,a5,32
   22ca0:	0007879b          	sext.w	a5,a5
   22ca4:	04078063          	beqz	a5,22ce4 <number+0x1a4>
   22ca8:	f2c42783          	lw	a5,-212(s0)
   22cac:	0007871b          	sext.w	a4,a5
   22cb0:	01000793          	li	a5,16
   22cb4:	00f71a63          	bne	a4,a5,22cc8 <number+0x188>
   22cb8:	f2842783          	lw	a5,-216(s0)
   22cbc:	ffe7879b          	addiw	a5,a5,-2
   22cc0:	f2f42423          	sw	a5,-216(s0)
   22cc4:	0200006f          	j	22ce4 <number+0x1a4>
   22cc8:	f2c42783          	lw	a5,-212(s0)
   22ccc:	0007871b          	sext.w	a4,a5
   22cd0:	00800793          	li	a5,8
   22cd4:	00f71863          	bne	a4,a5,22ce4 <number+0x1a4>
   22cd8:	f2842783          	lw	a5,-216(s0)
   22cdc:	fff7879b          	addiw	a5,a5,-1
   22ce0:	f2f42423          	sw	a5,-216(s0)
   22ce4:	fc042e23          	sw	zero,-36(s0)
   22ce8:	f3043783          	ld	a5,-208(s0)
   22cec:	06079e63          	bnez	a5,22d68 <number+0x228>
   22cf0:	fdc42783          	lw	a5,-36(s0)
   22cf4:	0017871b          	addiw	a4,a5,1
   22cf8:	fce42e23          	sw	a4,-36(s0)
   22cfc:	ff040713          	addi	a4,s0,-16
   22d00:	00f707b3          	add	a5,a4,a5
   22d04:	03000713          	li	a4,48
   22d08:	f4e78c23          	sb	a4,-168(a5)
   22d0c:	0640006f          	j	22d70 <number+0x230>
   22d10:	f2c42783          	lw	a5,-212(s0)
   22d14:	fcf42623          	sw	a5,-52(s0)
   22d18:	fcc46783          	lwu	a5,-52(s0)
   22d1c:	f3043703          	ld	a4,-208(s0)
   22d20:	02f777b3          	remu	a5,a4,a5
   22d24:	fcf42423          	sw	a5,-56(s0)
   22d28:	fcc46783          	lwu	a5,-52(s0)
   22d2c:	f3043703          	ld	a4,-208(s0)
   22d30:	02f757b3          	divu	a5,a4,a5
   22d34:	f2f43823          	sd	a5,-208(s0)
   22d38:	fc842783          	lw	a5,-56(s0)
   22d3c:	02079793          	slli	a5,a5,0x20
   22d40:	0207d793          	srli	a5,a5,0x20
   22d44:	fe043703          	ld	a4,-32(s0)
   22d48:	00f70733          	add	a4,a4,a5
   22d4c:	fdc42783          	lw	a5,-36(s0)
   22d50:	0017869b          	addiw	a3,a5,1
   22d54:	fcd42e23          	sw	a3,-36(s0)
   22d58:	00074703          	lbu	a4,0(a4)
   22d5c:	ff040693          	addi	a3,s0,-16
   22d60:	00f687b3          	add	a5,a3,a5
   22d64:	f4e78c23          	sb	a4,-168(a5)
   22d68:	f3043783          	ld	a5,-208(s0)
   22d6c:	fa0792e3          	bnez	a5,22d10 <number+0x1d0>
   22d70:	fdc42703          	lw	a4,-36(s0)
   22d74:	f2442783          	lw	a5,-220(s0)
   22d78:	0007071b          	sext.w	a4,a4
   22d7c:	0007879b          	sext.w	a5,a5
   22d80:	00e7d663          	bge	a5,a4,22d8c <number+0x24c>
   22d84:	fdc42783          	lw	a5,-36(s0)
   22d88:	f2f42223          	sw	a5,-220(s0)
   22d8c:	f2842703          	lw	a4,-216(s0)
   22d90:	f2442783          	lw	a5,-220(s0)
   22d94:	40f707bb          	subw	a5,a4,a5
   22d98:	f2f42423          	sw	a5,-216(s0)
   22d9c:	f2042783          	lw	a5,-224(s0)
   22da0:	0117f793          	andi	a5,a5,17
   22da4:	0007879b          	sext.w	a5,a5
   22da8:	02079663          	bnez	a5,22dd4 <number+0x294>
   22dac:	0180006f          	j	22dc4 <number+0x284>
   22db0:	f3843783          	ld	a5,-200(s0)
   22db4:	00178713          	addi	a4,a5,1
   22db8:	f2e43c23          	sd	a4,-200(s0)
   22dbc:	02000713          	li	a4,32
   22dc0:	00e78023          	sb	a4,0(a5)
   22dc4:	f2842783          	lw	a5,-216(s0)
   22dc8:	fff7871b          	addiw	a4,a5,-1
   22dcc:	f2e42423          	sw	a4,-216(s0)
   22dd0:	fef040e3          	bgtz	a5,22db0 <number+0x270>
   22dd4:	fef44783          	lbu	a5,-17(s0)
   22dd8:	0ff7f793          	andi	a5,a5,255
   22ddc:	00078c63          	beqz	a5,22df4 <number+0x2b4>
   22de0:	f3843783          	ld	a5,-200(s0)
   22de4:	00178713          	addi	a4,a5,1
   22de8:	f2e43c23          	sd	a4,-200(s0)
   22dec:	fef44703          	lbu	a4,-17(s0)
   22df0:	00e78023          	sb	a4,0(a5)
   22df4:	f2042783          	lw	a5,-224(s0)
   22df8:	0207f793          	andi	a5,a5,32
   22dfc:	0007879b          	sext.w	a5,a5
   22e00:	06078463          	beqz	a5,22e68 <number+0x328>
   22e04:	f2c42783          	lw	a5,-212(s0)
   22e08:	0007871b          	sext.w	a4,a5
   22e0c:	00800793          	li	a5,8
   22e10:	00f71e63          	bne	a4,a5,22e2c <number+0x2ec>
   22e14:	f3843783          	ld	a5,-200(s0)
   22e18:	00178713          	addi	a4,a5,1
   22e1c:	f2e43c23          	sd	a4,-200(s0)
   22e20:	03000713          	li	a4,48
   22e24:	00e78023          	sb	a4,0(a5)
   22e28:	0400006f          	j	22e68 <number+0x328>
   22e2c:	f2c42783          	lw	a5,-212(s0)
   22e30:	0007871b          	sext.w	a4,a5
   22e34:	01000793          	li	a5,16
   22e38:	02f71863          	bne	a4,a5,22e68 <number+0x328>
   22e3c:	f3843783          	ld	a5,-200(s0)
   22e40:	00178713          	addi	a4,a5,1
   22e44:	f2e43c23          	sd	a4,-200(s0)
   22e48:	03000713          	li	a4,48
   22e4c:	00e78023          	sb	a4,0(a5)
   22e50:	f3843783          	ld	a5,-200(s0)
   22e54:	00178713          	addi	a4,a5,1
   22e58:	f2e43c23          	sd	a4,-200(s0)
   22e5c:	fe043703          	ld	a4,-32(s0)
   22e60:	02174703          	lbu	a4,33(a4)
   22e64:	00e78023          	sb	a4,0(a5)
   22e68:	f2042783          	lw	a5,-224(s0)
   22e6c:	0107f793          	andi	a5,a5,16
   22e70:	0007879b          	sext.w	a5,a5
   22e74:	04079263          	bnez	a5,22eb8 <number+0x378>
   22e78:	0180006f          	j	22e90 <number+0x350>
   22e7c:	f3843783          	ld	a5,-200(s0)
   22e80:	00178713          	addi	a4,a5,1
   22e84:	f2e43c23          	sd	a4,-200(s0)
   22e88:	fdb44703          	lbu	a4,-37(s0)
   22e8c:	00e78023          	sb	a4,0(a5)
   22e90:	f2842783          	lw	a5,-216(s0)
   22e94:	fff7871b          	addiw	a4,a5,-1
   22e98:	f2e42423          	sw	a4,-216(s0)
   22e9c:	fef040e3          	bgtz	a5,22e7c <number+0x33c>
   22ea0:	0180006f          	j	22eb8 <number+0x378>
   22ea4:	f3843783          	ld	a5,-200(s0)
   22ea8:	00178713          	addi	a4,a5,1
   22eac:	f2e43c23          	sd	a4,-200(s0)
   22eb0:	03000713          	li	a4,48
   22eb4:	00e78023          	sb	a4,0(a5)
   22eb8:	f2442783          	lw	a5,-220(s0)
   22ebc:	fff7871b          	addiw	a4,a5,-1
   22ec0:	f2e42223          	sw	a4,-220(s0)
   22ec4:	fdc42703          	lw	a4,-36(s0)
   22ec8:	0007071b          	sext.w	a4,a4
   22ecc:	fcf74ce3          	blt	a4,a5,22ea4 <number+0x364>
   22ed0:	0240006f          	j	22ef4 <number+0x3b4>
   22ed4:	f3843783          	ld	a5,-200(s0)
   22ed8:	00178713          	addi	a4,a5,1
   22edc:	f2e43c23          	sd	a4,-200(s0)
   22ee0:	fdc42703          	lw	a4,-36(s0)
   22ee4:	ff040693          	addi	a3,s0,-16
   22ee8:	00e68733          	add	a4,a3,a4
   22eec:	f5874703          	lbu	a4,-168(a4)
   22ef0:	00e78023          	sb	a4,0(a5)
   22ef4:	fdc42783          	lw	a5,-36(s0)
   22ef8:	fff7871b          	addiw	a4,a5,-1
   22efc:	fce42e23          	sw	a4,-36(s0)
   22f00:	fcf04ae3          	bgtz	a5,22ed4 <number+0x394>
   22f04:	0180006f          	j	22f1c <number+0x3dc>
   22f08:	f3843783          	ld	a5,-200(s0)
   22f0c:	00178713          	addi	a4,a5,1
   22f10:	f2e43c23          	sd	a4,-200(s0)
   22f14:	02000713          	li	a4,32
   22f18:	00e78023          	sb	a4,0(a5)
   22f1c:	f2842783          	lw	a5,-216(s0)
   22f20:	fff7871b          	addiw	a4,a5,-1
   22f24:	f2e42423          	sw	a4,-216(s0)
   22f28:	fef040e3          	bgtz	a5,22f08 <number+0x3c8>
   22f2c:	f3843783          	ld	a5,-200(s0)
   22f30:	00078513          	mv	a0,a5
   22f34:	0d813403          	ld	s0,216(sp)
   22f38:	0e010113          	addi	sp,sp,224
   22f3c:	00008067          	ret

0000000000022f40 <myprintf>:
   22f40:	f9010113          	addi	sp,sp,-112
   22f44:	06113423          	sd	ra,104(sp)
   22f48:	06813023          	sd	s0,96(sp)
   22f4c:	07010413          	addi	s0,sp,112
   22f50:	faa43423          	sd	a0,-88(s0)
   22f54:	00058793          	mv	a5,a1
   22f58:	f8c43c23          	sd	a2,-104(s0)
   22f5c:	f8d43823          	sd	a3,-112(s0)
   22f60:	faf42223          	sw	a5,-92(s0)
   22f64:	fa843783          	ld	a5,-88(s0)
   22f68:	fef43423          	sd	a5,-24(s0)
   22f6c:	7440006f          	j	236b0 <myprintf+0x770>
   22f70:	f9843783          	ld	a5,-104(s0)
   22f74:	0007c783          	lbu	a5,0(a5)
   22f78:	00078713          	mv	a4,a5
   22f7c:	02500793          	li	a5,37
   22f80:	02f70063          	beq	a4,a5,22fa0 <myprintf+0x60>
   22f84:	fe843783          	ld	a5,-24(s0)
   22f88:	00178713          	addi	a4,a5,1
   22f8c:	fee43423          	sd	a4,-24(s0)
   22f90:	f9843703          	ld	a4,-104(s0)
   22f94:	00074703          	lbu	a4,0(a4)
   22f98:	00e78023          	sb	a4,0(a5)
   22f9c:	7080006f          	j	236a4 <myprintf+0x764>
   22fa0:	fe042223          	sw	zero,-28(s0)
   22fa4:	f9843783          	ld	a5,-104(s0)
   22fa8:	00178793          	addi	a5,a5,1
   22fac:	f8f43c23          	sd	a5,-104(s0)
   22fb0:	f9843783          	ld	a5,-104(s0)
   22fb4:	0007c783          	lbu	a5,0(a5)
   22fb8:	0007879b          	sext.w	a5,a5
   22fbc:	fe07869b          	addiw	a3,a5,-32
   22fc0:	0006871b          	sext.w	a4,a3
   22fc4:	01000793          	li	a5,16
   22fc8:	08e7e263          	bltu	a5,a4,2304c <myprintf+0x10c>
   22fcc:	02069793          	slli	a5,a3,0x20
   22fd0:	0207d793          	srli	a5,a5,0x20
   22fd4:	00279713          	slli	a4,a5,0x2
   22fd8:	00002797          	auipc	a5,0x2
   22fdc:	1a878793          	addi	a5,a5,424 # 25180 <__func__.0+0x68>
   22fe0:	00f707b3          	add	a5,a4,a5
   22fe4:	0007a783          	lw	a5,0(a5)
   22fe8:	0007871b          	sext.w	a4,a5
   22fec:	00002797          	auipc	a5,0x2
   22ff0:	19478793          	addi	a5,a5,404 # 25180 <__func__.0+0x68>
   22ff4:	00f707b3          	add	a5,a4,a5
   22ff8:	00078067          	jr	a5
   22ffc:	fe442783          	lw	a5,-28(s0)
   23000:	0107e793          	ori	a5,a5,16
   23004:	fef42223          	sw	a5,-28(s0)
   23008:	f9dff06f          	j	22fa4 <myprintf+0x64>
   2300c:	fe442783          	lw	a5,-28(s0)
   23010:	0047e793          	ori	a5,a5,4
   23014:	fef42223          	sw	a5,-28(s0)
   23018:	f8dff06f          	j	22fa4 <myprintf+0x64>
   2301c:	fe442783          	lw	a5,-28(s0)
   23020:	0087e793          	ori	a5,a5,8
   23024:	fef42223          	sw	a5,-28(s0)
   23028:	f7dff06f          	j	22fa4 <myprintf+0x64>
   2302c:	fe442783          	lw	a5,-28(s0)
   23030:	0207e793          	ori	a5,a5,32
   23034:	fef42223          	sw	a5,-28(s0)
   23038:	f6dff06f          	j	22fa4 <myprintf+0x64>
   2303c:	fe442783          	lw	a5,-28(s0)
   23040:	0017e793          	ori	a5,a5,1
   23044:	fef42223          	sw	a5,-28(s0)
   23048:	f5dff06f          	j	22fa4 <myprintf+0x64>
   2304c:	fff00793          	li	a5,-1
   23050:	faf42a23          	sw	a5,-76(s0)
   23054:	f9843783          	ld	a5,-104(s0)
   23058:	0007c783          	lbu	a5,0(a5)
   2305c:	00078713          	mv	a4,a5
   23060:	02f00793          	li	a5,47
   23064:	02e7f863          	bgeu	a5,a4,23094 <myprintf+0x154>
   23068:	f9843783          	ld	a5,-104(s0)
   2306c:	0007c783          	lbu	a5,0(a5)
   23070:	00078713          	mv	a4,a5
   23074:	03900793          	li	a5,57
   23078:	00e7ee63          	bltu	a5,a4,23094 <myprintf+0x154>
   2307c:	fb440793          	addi	a5,s0,-76
   23080:	00078593          	mv	a1,a5
   23084:	f9843503          	ld	a0,-104(s0)
   23088:	a15ff0ef          	jal	ra,22a9c <scan_number>
   2308c:	f8a43c23          	sd	a0,-104(s0)
   23090:	0500006f          	j	230e0 <myprintf+0x1a0>
   23094:	f9843783          	ld	a5,-104(s0)
   23098:	0007c783          	lbu	a5,0(a5)
   2309c:	00078713          	mv	a4,a5
   230a0:	02a00793          	li	a5,42
   230a4:	02f71e63          	bne	a4,a5,230e0 <myprintf+0x1a0>
   230a8:	f9043783          	ld	a5,-112(s0)
   230ac:	00878713          	addi	a4,a5,8
   230b0:	f8e43823          	sd	a4,-112(s0)
   230b4:	0007a783          	lw	a5,0(a5)
   230b8:	faf42a23          	sw	a5,-76(s0)
   230bc:	fb442783          	lw	a5,-76(s0)
   230c0:	0207d063          	bgez	a5,230e0 <myprintf+0x1a0>
   230c4:	fb442783          	lw	a5,-76(s0)
   230c8:	40f007bb          	negw	a5,a5
   230cc:	0007879b          	sext.w	a5,a5
   230d0:	faf42a23          	sw	a5,-76(s0)
   230d4:	fe442783          	lw	a5,-28(s0)
   230d8:	0107e793          	ori	a5,a5,16
   230dc:	fef42223          	sw	a5,-28(s0)
   230e0:	fff00793          	li	a5,-1
   230e4:	faf42823          	sw	a5,-80(s0)
   230e8:	f9843783          	ld	a5,-104(s0)
   230ec:	0007c783          	lbu	a5,0(a5)
   230f0:	00078713          	mv	a4,a5
   230f4:	02e00793          	li	a5,46
   230f8:	08f71263          	bne	a4,a5,2317c <myprintf+0x23c>
   230fc:	f9843783          	ld	a5,-104(s0)
   23100:	00178793          	addi	a5,a5,1
   23104:	f8f43c23          	sd	a5,-104(s0)
   23108:	f9843783          	ld	a5,-104(s0)
   2310c:	0007c783          	lbu	a5,0(a5)
   23110:	00078713          	mv	a4,a5
   23114:	02f00793          	li	a5,47
   23118:	02e7f863          	bgeu	a5,a4,23148 <myprintf+0x208>
   2311c:	f9843783          	ld	a5,-104(s0)
   23120:	0007c783          	lbu	a5,0(a5)
   23124:	00078713          	mv	a4,a5
   23128:	03900793          	li	a5,57
   2312c:	00e7ee63          	bltu	a5,a4,23148 <myprintf+0x208>
   23130:	fb040793          	addi	a5,s0,-80
   23134:	00078593          	mv	a1,a5
   23138:	f9843503          	ld	a0,-104(s0)
   2313c:	961ff0ef          	jal	ra,22a9c <scan_number>
   23140:	f8a43c23          	sd	a0,-104(s0)
   23144:	02c0006f          	j	23170 <myprintf+0x230>
   23148:	f9843783          	ld	a5,-104(s0)
   2314c:	0007c783          	lbu	a5,0(a5)
   23150:	00078713          	mv	a4,a5
   23154:	02a00793          	li	a5,42
   23158:	00f71c63          	bne	a4,a5,23170 <myprintf+0x230>
   2315c:	f9043783          	ld	a5,-112(s0)
   23160:	00878713          	addi	a4,a5,8
   23164:	f8e43823          	sd	a4,-112(s0)
   23168:	0007a783          	lw	a5,0(a5)
   2316c:	faf42823          	sw	a5,-80(s0)
   23170:	fb042783          	lw	a5,-80(s0)
   23174:	0007d463          	bgez	a5,2317c <myprintf+0x23c>
   23178:	fa042823          	sw	zero,-80(s0)
   2317c:	fff00793          	li	a5,-1
   23180:	fef42023          	sw	a5,-32(s0)
   23184:	f9843783          	ld	a5,-104(s0)
   23188:	0007c783          	lbu	a5,0(a5)
   2318c:	00078713          	mv	a4,a5
   23190:	06800793          	li	a5,104
   23194:	02f70663          	beq	a4,a5,231c0 <myprintf+0x280>
   23198:	f9843783          	ld	a5,-104(s0)
   2319c:	0007c783          	lbu	a5,0(a5)
   231a0:	00078713          	mv	a4,a5
   231a4:	06c00793          	li	a5,108
   231a8:	00f70c63          	beq	a4,a5,231c0 <myprintf+0x280>
   231ac:	f9843783          	ld	a5,-104(s0)
   231b0:	0007c783          	lbu	a5,0(a5)
   231b4:	00078713          	mv	a4,a5
   231b8:	04c00793          	li	a5,76
   231bc:	04f71a63          	bne	a4,a5,23210 <myprintf+0x2d0>
   231c0:	f9843783          	ld	a5,-104(s0)
   231c4:	0007c783          	lbu	a5,0(a5)
   231c8:	fef42023          	sw	a5,-32(s0)
   231cc:	f9843783          	ld	a5,-104(s0)
   231d0:	00178793          	addi	a5,a5,1
   231d4:	f8f43c23          	sd	a5,-104(s0)
   231d8:	fe042783          	lw	a5,-32(s0)
   231dc:	0007871b          	sext.w	a4,a5
   231e0:	06c00793          	li	a5,108
   231e4:	02f71663          	bne	a4,a5,23210 <myprintf+0x2d0>
   231e8:	f9843783          	ld	a5,-104(s0)
   231ec:	0007c783          	lbu	a5,0(a5)
   231f0:	00078713          	mv	a4,a5
   231f4:	06c00793          	li	a5,108
   231f8:	00f71c63          	bne	a4,a5,23210 <myprintf+0x2d0>
   231fc:	04c00793          	li	a5,76
   23200:	fef42023          	sw	a5,-32(s0)
   23204:	f9843783          	ld	a5,-104(s0)
   23208:	00178793          	addi	a5,a5,1
   2320c:	f8f43c23          	sd	a5,-104(s0)
   23210:	f9843783          	ld	a5,-104(s0)
   23214:	0007c783          	lbu	a5,0(a5)
   23218:	0007879b          	sext.w	a5,a5
   2321c:	fa87869b          	addiw	a3,a5,-88
   23220:	0006871b          	sext.w	a4,a3
   23224:	02000793          	li	a5,32
   23228:	2ae7ec63          	bltu	a5,a4,234e0 <myprintf+0x5a0>
   2322c:	02069793          	slli	a5,a3,0x20
   23230:	0207d793          	srli	a5,a5,0x20
   23234:	00279713          	slli	a4,a5,0x2
   23238:	00002797          	auipc	a5,0x2
   2323c:	f8c78793          	addi	a5,a5,-116 # 251c4 <__func__.0+0xac>
   23240:	00f707b3          	add	a5,a4,a5
   23244:	0007a783          	lw	a5,0(a5)
   23248:	0007871b          	sext.w	a4,a5
   2324c:	00002797          	auipc	a5,0x2
   23250:	f7878793          	addi	a5,a5,-136 # 251c4 <__func__.0+0xac>
   23254:	00f707b3          	add	a5,a4,a5
   23258:	00078067          	jr	a5
   2325c:	fe442783          	lw	a5,-28(s0)
   23260:	0107f793          	andi	a5,a5,16
   23264:	0007879b          	sext.w	a5,a5
   23268:	02079a63          	bnez	a5,2329c <myprintf+0x35c>
   2326c:	0180006f          	j	23284 <myprintf+0x344>
   23270:	fe843783          	ld	a5,-24(s0)
   23274:	00178713          	addi	a4,a5,1
   23278:	fee43423          	sd	a4,-24(s0)
   2327c:	02000713          	li	a4,32
   23280:	00e78023          	sb	a4,0(a5)
   23284:	fb442783          	lw	a5,-76(s0)
   23288:	fff7879b          	addiw	a5,a5,-1
   2328c:	0007879b          	sext.w	a5,a5
   23290:	faf42a23          	sw	a5,-76(s0)
   23294:	fb442783          	lw	a5,-76(s0)
   23298:	fcf04ce3          	bgtz	a5,23270 <myprintf+0x330>
   2329c:	f9043783          	ld	a5,-112(s0)
   232a0:	00878713          	addi	a4,a5,8
   232a4:	f8e43823          	sd	a4,-112(s0)
   232a8:	0007a683          	lw	a3,0(a5)
   232ac:	fe843783          	ld	a5,-24(s0)
   232b0:	00178713          	addi	a4,a5,1
   232b4:	fee43423          	sd	a4,-24(s0)
   232b8:	0ff6f713          	andi	a4,a3,255
   232bc:	00e78023          	sb	a4,0(a5)
   232c0:	0180006f          	j	232d8 <myprintf+0x398>
   232c4:	fe843783          	ld	a5,-24(s0)
   232c8:	00178713          	addi	a4,a5,1
   232cc:	fee43423          	sd	a4,-24(s0)
   232d0:	02000713          	li	a4,32
   232d4:	00e78023          	sb	a4,0(a5)
   232d8:	fb442783          	lw	a5,-76(s0)
   232dc:	fff7879b          	addiw	a5,a5,-1
   232e0:	0007879b          	sext.w	a5,a5
   232e4:	faf42a23          	sw	a5,-76(s0)
   232e8:	fb442783          	lw	a5,-76(s0)
   232ec:	fcf04ce3          	bgtz	a5,232c4 <myprintf+0x384>
   232f0:	3b40006f          	j	236a4 <myprintf+0x764>
   232f4:	f9043783          	ld	a5,-112(s0)
   232f8:	00878713          	addi	a4,a5,8
   232fc:	f8e43823          	sd	a4,-112(s0)
   23300:	0007b783          	ld	a5,0(a5)
   23304:	fcf43c23          	sd	a5,-40(s0)
   23308:	fd843783          	ld	a5,-40(s0)
   2330c:	00079863          	bnez	a5,2331c <myprintf+0x3dc>
   23310:	00002797          	auipc	a5,0x2
   23314:	e6878793          	addi	a5,a5,-408 # 25178 <__func__.0+0x60>
   23318:	fcf43c23          	sd	a5,-40(s0)
   2331c:	fd843503          	ld	a0,-40(s0)
   23320:	5e4000ef          	jal	ra,23904 <strlen>
   23324:	00050793          	mv	a5,a0
   23328:	fcf42823          	sw	a5,-48(s0)
   2332c:	fb042783          	lw	a5,-80(s0)
   23330:	0007d863          	bgez	a5,23340 <myprintf+0x400>
   23334:	fd042783          	lw	a5,-48(s0)
   23338:	faf42823          	sw	a5,-80(s0)
   2333c:	01c0006f          	j	23358 <myprintf+0x418>
   23340:	fb042703          	lw	a4,-80(s0)
   23344:	fd042783          	lw	a5,-48(s0)
   23348:	0007879b          	sext.w	a5,a5
   2334c:	00f75663          	bge	a4,a5,23358 <myprintf+0x418>
   23350:	fb042783          	lw	a5,-80(s0)
   23354:	fcf42823          	sw	a5,-48(s0)
   23358:	fe442783          	lw	a5,-28(s0)
   2335c:	0107f793          	andi	a5,a5,16
   23360:	0007879b          	sext.w	a5,a5
   23364:	02079c63          	bnez	a5,2339c <myprintf+0x45c>
   23368:	0180006f          	j	23380 <myprintf+0x440>
   2336c:	fe843783          	ld	a5,-24(s0)
   23370:	00178713          	addi	a4,a5,1
   23374:	fee43423          	sd	a4,-24(s0)
   23378:	02000713          	li	a4,32
   2337c:	00e78023          	sb	a4,0(a5)
   23380:	fb442783          	lw	a5,-76(s0)
   23384:	fff7871b          	addiw	a4,a5,-1
   23388:	0007071b          	sext.w	a4,a4
   2338c:	fae42a23          	sw	a4,-76(s0)
   23390:	fd042703          	lw	a4,-48(s0)
   23394:	0007071b          	sext.w	a4,a4
   23398:	fcf74ae3          	blt	a4,a5,2336c <myprintf+0x42c>
   2339c:	fc042a23          	sw	zero,-44(s0)
   233a0:	0300006f          	j	233d0 <myprintf+0x490>
   233a4:	fd843703          	ld	a4,-40(s0)
   233a8:	00170793          	addi	a5,a4,1
   233ac:	fcf43c23          	sd	a5,-40(s0)
   233b0:	fe843783          	ld	a5,-24(s0)
   233b4:	00178693          	addi	a3,a5,1
   233b8:	fed43423          	sd	a3,-24(s0)
   233bc:	00074703          	lbu	a4,0(a4)
   233c0:	00e78023          	sb	a4,0(a5)
   233c4:	fd442783          	lw	a5,-44(s0)
   233c8:	0017879b          	addiw	a5,a5,1
   233cc:	fcf42a23          	sw	a5,-44(s0)
   233d0:	fd442703          	lw	a4,-44(s0)
   233d4:	fd042783          	lw	a5,-48(s0)
   233d8:	0007071b          	sext.w	a4,a4
   233dc:	0007879b          	sext.w	a5,a5
   233e0:	fcf742e3          	blt	a4,a5,233a4 <myprintf+0x464>
   233e4:	0180006f          	j	233fc <myprintf+0x4bc>
   233e8:	fe843783          	ld	a5,-24(s0)
   233ec:	00178713          	addi	a4,a5,1
   233f0:	fee43423          	sd	a4,-24(s0)
   233f4:	02000713          	li	a4,32
   233f8:	00e78023          	sb	a4,0(a5)
   233fc:	fb442783          	lw	a5,-76(s0)
   23400:	fff7871b          	addiw	a4,a5,-1
   23404:	0007071b          	sext.w	a4,a4
   23408:	fae42a23          	sw	a4,-76(s0)
   2340c:	fd042703          	lw	a4,-48(s0)
   23410:	0007071b          	sext.w	a4,a4
   23414:	fcf74ae3          	blt	a4,a5,233e8 <myprintf+0x4a8>
   23418:	28c0006f          	j	236a4 <myprintf+0x764>
   2341c:	f9043783          	ld	a5,-112(s0)
   23420:	00878713          	addi	a4,a5,8
   23424:	f8e43823          	sd	a4,-112(s0)
   23428:	0007b783          	ld	a5,0(a5)
   2342c:	faf43c23          	sd	a5,-72(s0)
   23430:	fe843703          	ld	a4,-24(s0)
   23434:	fa843783          	ld	a5,-88(s0)
   23438:	40f707b3          	sub	a5,a4,a5
   2343c:	0ff7f713          	andi	a4,a5,255
   23440:	fb843783          	ld	a5,-72(s0)
   23444:	00e78023          	sb	a4,0(a5)
   23448:	25c0006f          	j	236a4 <myprintf+0x764>
   2344c:	fb442783          	lw	a5,-76(s0)
   23450:	00078713          	mv	a4,a5
   23454:	fff00793          	li	a5,-1
   23458:	00f71c63          	bne	a4,a5,23470 <myprintf+0x530>
   2345c:	01000793          	li	a5,16
   23460:	faf42a23          	sw	a5,-76(s0)
   23464:	fe442783          	lw	a5,-28(s0)
   23468:	0017e793          	ori	a5,a5,1
   2346c:	fef42223          	sw	a5,-28(s0)
   23470:	f9043783          	ld	a5,-112(s0)
   23474:	00878713          	addi	a4,a5,8
   23478:	f8e43823          	sd	a4,-112(s0)
   2347c:	0007b783          	ld	a5,0(a5)
   23480:	00078593          	mv	a1,a5
   23484:	fb442683          	lw	a3,-76(s0)
   23488:	fb042703          	lw	a4,-80(s0)
   2348c:	fe442783          	lw	a5,-28(s0)
   23490:	01000613          	li	a2,16
   23494:	fe843503          	ld	a0,-24(s0)
   23498:	ea8ff0ef          	jal	ra,22b40 <number>
   2349c:	fea43423          	sd	a0,-24(s0)
   234a0:	2040006f          	j	236a4 <myprintf+0x764>
   234a4:	00800793          	li	a5,8
   234a8:	fcf42223          	sw	a5,-60(s0)
   234ac:	0940006f          	j	23540 <myprintf+0x600>
   234b0:	fe442783          	lw	a5,-28(s0)
   234b4:	0407e793          	ori	a5,a5,64
   234b8:	fef42223          	sw	a5,-28(s0)
   234bc:	01000793          	li	a5,16
   234c0:	fcf42223          	sw	a5,-60(s0)
   234c4:	07c0006f          	j	23540 <myprintf+0x600>
   234c8:	fe442783          	lw	a5,-28(s0)
   234cc:	0027e793          	ori	a5,a5,2
   234d0:	fef42223          	sw	a5,-28(s0)
   234d4:	00a00793          	li	a5,10
   234d8:	fcf42223          	sw	a5,-60(s0)
   234dc:	0640006f          	j	23540 <myprintf+0x600>
   234e0:	f9843783          	ld	a5,-104(s0)
   234e4:	0007c783          	lbu	a5,0(a5)
   234e8:	00078713          	mv	a4,a5
   234ec:	02500793          	li	a5,37
   234f0:	00f70c63          	beq	a4,a5,23508 <myprintf+0x5c8>
   234f4:	fe843783          	ld	a5,-24(s0)
   234f8:	00178713          	addi	a4,a5,1
   234fc:	fee43423          	sd	a4,-24(s0)
   23500:	02500713          	li	a4,37
   23504:	00e78023          	sb	a4,0(a5)
   23508:	f9843783          	ld	a5,-104(s0)
   2350c:	0007c783          	lbu	a5,0(a5)
   23510:	02078063          	beqz	a5,23530 <myprintf+0x5f0>
   23514:	fe843783          	ld	a5,-24(s0)
   23518:	00178713          	addi	a4,a5,1
   2351c:	fee43423          	sd	a4,-24(s0)
   23520:	f9843703          	ld	a4,-104(s0)
   23524:	00074703          	lbu	a4,0(a4)
   23528:	00e78023          	sb	a4,0(a5)
   2352c:	0100006f          	j	2353c <myprintf+0x5fc>
   23530:	f9843783          	ld	a5,-104(s0)
   23534:	fff78793          	addi	a5,a5,-1
   23538:	f8f43c23          	sd	a5,-104(s0)
   2353c:	00000013          	nop
   23540:	fe042783          	lw	a5,-32(s0)
   23544:	0007871b          	sext.w	a4,a5
   23548:	04c00793          	li	a5,76
   2354c:	04f71263          	bne	a4,a5,23590 <myprintf+0x650>
   23550:	fe442783          	lw	a5,-28(s0)
   23554:	0027f793          	andi	a5,a5,2
   23558:	0007879b          	sext.w	a5,a5
   2355c:	00078e63          	beqz	a5,23578 <myprintf+0x638>
   23560:	f9043783          	ld	a5,-112(s0)
   23564:	00878713          	addi	a4,a5,8
   23568:	f8e43823          	sd	a4,-112(s0)
   2356c:	0007b783          	ld	a5,0(a5)
   23570:	fcf43423          	sd	a5,-56(s0)
   23574:	1100006f          	j	23684 <myprintf+0x744>
   23578:	f9043783          	ld	a5,-112(s0)
   2357c:	00878713          	addi	a4,a5,8
   23580:	f8e43823          	sd	a4,-112(s0)
   23584:	0007b783          	ld	a5,0(a5)
   23588:	fcf43423          	sd	a5,-56(s0)
   2358c:	0f80006f          	j	23684 <myprintf+0x744>
   23590:	fe042783          	lw	a5,-32(s0)
   23594:	0007871b          	sext.w	a4,a5
   23598:	06800793          	li	a5,104
   2359c:	04f71a63          	bne	a4,a5,235f0 <myprintf+0x6b0>
   235a0:	fe442783          	lw	a5,-28(s0)
   235a4:	0027f793          	andi	a5,a5,2
   235a8:	0007879b          	sext.w	a5,a5
   235ac:	02078263          	beqz	a5,235d0 <myprintf+0x690>
   235b0:	f9043783          	ld	a5,-112(s0)
   235b4:	00878713          	addi	a4,a5,8
   235b8:	f8e43823          	sd	a4,-112(s0)
   235bc:	0007a783          	lw	a5,0(a5)
   235c0:	0107979b          	slliw	a5,a5,0x10
   235c4:	4107d79b          	sraiw	a5,a5,0x10
   235c8:	fcf43423          	sd	a5,-56(s0)
   235cc:	0b80006f          	j	23684 <myprintf+0x744>
   235d0:	f9043783          	ld	a5,-112(s0)
   235d4:	00878713          	addi	a4,a5,8
   235d8:	f8e43823          	sd	a4,-112(s0)
   235dc:	0007a783          	lw	a5,0(a5)
   235e0:	03079793          	slli	a5,a5,0x30
   235e4:	0307d793          	srli	a5,a5,0x30
   235e8:	fcf43423          	sd	a5,-56(s0)
   235ec:	0980006f          	j	23684 <myprintf+0x744>
   235f0:	fe042783          	lw	a5,-32(s0)
   235f4:	0007871b          	sext.w	a4,a5
   235f8:	06c00793          	li	a5,108
   235fc:	04f71263          	bne	a4,a5,23640 <myprintf+0x700>
   23600:	fe442783          	lw	a5,-28(s0)
   23604:	0027f793          	andi	a5,a5,2
   23608:	0007879b          	sext.w	a5,a5
   2360c:	00078e63          	beqz	a5,23628 <myprintf+0x6e8>
   23610:	f9043783          	ld	a5,-112(s0)
   23614:	00878713          	addi	a4,a5,8
   23618:	f8e43823          	sd	a4,-112(s0)
   2361c:	0007b783          	ld	a5,0(a5)
   23620:	fcf43423          	sd	a5,-56(s0)
   23624:	0600006f          	j	23684 <myprintf+0x744>
   23628:	f9043783          	ld	a5,-112(s0)
   2362c:	00878713          	addi	a4,a5,8
   23630:	f8e43823          	sd	a4,-112(s0)
   23634:	0007b783          	ld	a5,0(a5)
   23638:	fcf43423          	sd	a5,-56(s0)
   2363c:	0480006f          	j	23684 <myprintf+0x744>
   23640:	fe442783          	lw	a5,-28(s0)
   23644:	0027f793          	andi	a5,a5,2
   23648:	0007879b          	sext.w	a5,a5
   2364c:	00078e63          	beqz	a5,23668 <myprintf+0x728>
   23650:	f9043783          	ld	a5,-112(s0)
   23654:	00878713          	addi	a4,a5,8
   23658:	f8e43823          	sd	a4,-112(s0)
   2365c:	0007a783          	lw	a5,0(a5)
   23660:	fcf43423          	sd	a5,-56(s0)
   23664:	0200006f          	j	23684 <myprintf+0x744>
   23668:	f9043783          	ld	a5,-112(s0)
   2366c:	00878713          	addi	a4,a5,8
   23670:	f8e43823          	sd	a4,-112(s0)
   23674:	0007a783          	lw	a5,0(a5)
   23678:	02079793          	slli	a5,a5,0x20
   2367c:	0207d793          	srli	a5,a5,0x20
   23680:	fcf43423          	sd	a5,-56(s0)
   23684:	fb442683          	lw	a3,-76(s0)
   23688:	fb042703          	lw	a4,-80(s0)
   2368c:	fe442783          	lw	a5,-28(s0)
   23690:	fc442603          	lw	a2,-60(s0)
   23694:	fc843583          	ld	a1,-56(s0)
   23698:	fe843503          	ld	a0,-24(s0)
   2369c:	ca4ff0ef          	jal	ra,22b40 <number>
   236a0:	fea43423          	sd	a0,-24(s0)
   236a4:	f9843783          	ld	a5,-104(s0)
   236a8:	00178793          	addi	a5,a5,1
   236ac:	f8f43c23          	sd	a5,-104(s0)
   236b0:	f9843783          	ld	a5,-104(s0)
   236b4:	0007c783          	lbu	a5,0(a5)
   236b8:	8a079ce3          	bnez	a5,22f70 <myprintf+0x30>
   236bc:	fe843783          	ld	a5,-24(s0)
   236c0:	00078023          	sb	zero,0(a5)
   236c4:	fe843703          	ld	a4,-24(s0)
   236c8:	fa843783          	ld	a5,-88(s0)
   236cc:	40f707b3          	sub	a5,a4,a5
   236d0:	0007879b          	sext.w	a5,a5
   236d4:	00078513          	mv	a0,a5
   236d8:	06813083          	ld	ra,104(sp)
   236dc:	06013403          	ld	s0,96(sp)
   236e0:	07010113          	addi	sp,sp,112
   236e4:	00008067          	ret

00000000000236e8 <init_printk_done>:
   236e8:	fe010113          	addi	sp,sp,-32
   236ec:	00113c23          	sd	ra,24(sp)
   236f0:	00813823          	sd	s0,16(sp)
   236f4:	02010413          	addi	s0,sp,32
   236f8:	00004797          	auipc	a5,0x4
   236fc:	b1078793          	addi	a5,a5,-1264 # 27208 <g_printk_status>
   23700:	00100713          	li	a4,1
   23704:	00e7a023          	sw	a4,0(a5)
   23708:	fe043423          	sd	zero,-24(s0)
   2370c:	0300006f          	j	2373c <init_printk_done+0x54>
   23710:	00004717          	auipc	a4,0x4
   23714:	9f870713          	addi	a4,a4,-1544 # 27108 <log_buf>
   23718:	fe843783          	ld	a5,-24(s0)
   2371c:	00f707b3          	add	a5,a4,a5
   23720:	0007c783          	lbu	a5,0(a5)
   23724:	0007879b          	sext.w	a5,a5
   23728:	00078513          	mv	a0,a5
   2372c:	591000ef          	jal	ra,244bc <putchar>
   23730:	fe843783          	ld	a5,-24(s0)
   23734:	00178793          	addi	a5,a5,1
   23738:	fef43423          	sd	a5,-24(s0)
   2373c:	00004797          	auipc	a5,0x4
   23740:	ad478793          	addi	a5,a5,-1324 # 27210 <g_record_len>
   23744:	0007b783          	ld	a5,0(a5)
   23748:	fe843703          	ld	a4,-24(s0)
   2374c:	fcf762e3          	bltu	a4,a5,23710 <init_printk_done+0x28>
   23750:	00004797          	auipc	a5,0x4
   23754:	8b078793          	addi	a5,a5,-1872 # 27000 <g_record>
   23758:	00004717          	auipc	a4,0x4
   2375c:	9b070713          	addi	a4,a4,-1616 # 27108 <log_buf>
   23760:	00e7b023          	sd	a4,0(a5)
   23764:	00004797          	auipc	a5,0x4
   23768:	aac78793          	addi	a5,a5,-1364 # 27210 <g_record_len>
   2376c:	0007b023          	sd	zero,0(a5)
   23770:	00000013          	nop
   23774:	01813083          	ld	ra,24(sp)
   23778:	01013403          	ld	s0,16(sp)
   2377c:	02010113          	addi	sp,sp,32
   23780:	00008067          	ret

0000000000023784 <printk>:
   23784:	f9010113          	addi	sp,sp,-112
   23788:	02113423          	sd	ra,40(sp)
   2378c:	02813023          	sd	s0,32(sp)
   23790:	03010413          	addi	s0,sp,48
   23794:	fca43c23          	sd	a0,-40(s0)
   23798:	00b43423          	sd	a1,8(s0)
   2379c:	00c43823          	sd	a2,16(s0)
   237a0:	00d43c23          	sd	a3,24(s0)
   237a4:	02e43023          	sd	a4,32(s0)
   237a8:	02f43423          	sd	a5,40(s0)
   237ac:	03043823          	sd	a6,48(s0)
   237b0:	03143c23          	sd	a7,56(s0)
   237b4:	04040793          	addi	a5,s0,64
   237b8:	fcf43823          	sd	a5,-48(s0)
   237bc:	fd043783          	ld	a5,-48(s0)
   237c0:	fc878793          	addi	a5,a5,-56
   237c4:	fef43023          	sd	a5,-32(s0)
   237c8:	fe043783          	ld	a5,-32(s0)
   237cc:	00078693          	mv	a3,a5
   237d0:	fd843603          	ld	a2,-40(s0)
   237d4:	10000593          	li	a1,256
   237d8:	00004517          	auipc	a0,0x4
   237dc:	83050513          	addi	a0,a0,-2000 # 27008 <print_buf>
   237e0:	f60ff0ef          	jal	ra,22f40 <myprintf>
   237e4:	00050793          	mv	a5,a0
   237e8:	fef42423          	sw	a5,-24(s0)
   237ec:	00004797          	auipc	a5,0x4
   237f0:	a1c78793          	addi	a5,a5,-1508 # 27208 <g_printk_status>
   237f4:	0007a783          	lw	a5,0(a5)
   237f8:	06079663          	bnez	a5,23864 <printk+0xe0>
   237fc:	00004797          	auipc	a5,0x4
   23800:	80478793          	addi	a5,a5,-2044 # 27000 <g_record>
   23804:	0007b783          	ld	a5,0(a5)
   23808:	fe842703          	lw	a4,-24(s0)
   2380c:	00070613          	mv	a2,a4
   23810:	00003597          	auipc	a1,0x3
   23814:	7f858593          	addi	a1,a1,2040 # 27008 <print_buf>
   23818:	00078513          	mv	a0,a5
   2381c:	138000ef          	jal	ra,23954 <memcpy>
   23820:	fe842703          	lw	a4,-24(s0)
   23824:	00004797          	auipc	a5,0x4
   23828:	8e478793          	addi	a5,a5,-1820 # 27108 <log_buf>
   2382c:	00f70733          	add	a4,a4,a5
   23830:	00003797          	auipc	a5,0x3
   23834:	7d078793          	addi	a5,a5,2000 # 27000 <g_record>
   23838:	00e7b023          	sd	a4,0(a5)
   2383c:	fe842703          	lw	a4,-24(s0)
   23840:	00004797          	auipc	a5,0x4
   23844:	9d078793          	addi	a5,a5,-1584 # 27210 <g_record_len>
   23848:	0007b783          	ld	a5,0(a5)
   2384c:	00f70733          	add	a4,a4,a5
   23850:	00004797          	auipc	a5,0x4
   23854:	9c078793          	addi	a5,a5,-1600 # 27210 <g_record_len>
   23858:	00e7b023          	sd	a4,0(a5)
   2385c:	00000793          	li	a5,0
   23860:	0900006f          	j	238f0 <printk+0x16c>
   23864:	fe042623          	sw	zero,-20(s0)
   23868:	0680006f          	j	238d0 <printk+0x14c>
   2386c:	00003717          	auipc	a4,0x3
   23870:	79c70713          	addi	a4,a4,1948 # 27008 <print_buf>
   23874:	fec42783          	lw	a5,-20(s0)
   23878:	00f707b3          	add	a5,a4,a5
   2387c:	0007c783          	lbu	a5,0(a5)
   23880:	00078713          	mv	a4,a5
   23884:	00a00793          	li	a5,10
   23888:	00f71663          	bne	a4,a5,23894 <printk+0x110>
   2388c:	00d00513          	li	a0,13
   23890:	42d000ef          	jal	ra,244bc <putchar>
   23894:	00003717          	auipc	a4,0x3
   23898:	77470713          	addi	a4,a4,1908 # 27008 <print_buf>
   2389c:	fec42783          	lw	a5,-20(s0)
   238a0:	00f707b3          	add	a5,a4,a5
   238a4:	0007c783          	lbu	a5,0(a5)
   238a8:	0007879b          	sext.w	a5,a5
   238ac:	00078513          	mv	a0,a5
   238b0:	40d000ef          	jal	ra,244bc <putchar>
   238b4:	fec42783          	lw	a5,-20(s0)
   238b8:	00078713          	mv	a4,a5
   238bc:	10000793          	li	a5,256
   238c0:	02e7e463          	bltu	a5,a4,238e8 <printk+0x164>
   238c4:	fec42783          	lw	a5,-20(s0)
   238c8:	0017879b          	addiw	a5,a5,1
   238cc:	fef42623          	sw	a5,-20(s0)
   238d0:	fec42703          	lw	a4,-20(s0)
   238d4:	fe842783          	lw	a5,-24(s0)
   238d8:	0007071b          	sext.w	a4,a4
   238dc:	0007879b          	sext.w	a5,a5
   238e0:	f8f746e3          	blt	a4,a5,2386c <printk+0xe8>
   238e4:	0080006f          	j	238ec <printk+0x168>
   238e8:	00000013          	nop
   238ec:	fe842783          	lw	a5,-24(s0)
   238f0:	00078513          	mv	a0,a5
   238f4:	02813083          	ld	ra,40(sp)
   238f8:	02013403          	ld	s0,32(sp)
   238fc:	07010113          	addi	sp,sp,112
   23900:	00008067          	ret

0000000000023904 <strlen>:
   23904:	fd010113          	addi	sp,sp,-48
   23908:	02813423          	sd	s0,40(sp)
   2390c:	03010413          	addi	s0,sp,48
   23910:	fca43c23          	sd	a0,-40(s0)
   23914:	fd843783          	ld	a5,-40(s0)
   23918:	fef43423          	sd	a5,-24(s0)
   2391c:	0100006f          	j	2392c <strlen+0x28>
   23920:	fe843783          	ld	a5,-24(s0)
   23924:	00178793          	addi	a5,a5,1
   23928:	fef43423          	sd	a5,-24(s0)
   2392c:	fe843783          	ld	a5,-24(s0)
   23930:	0007c783          	lbu	a5,0(a5)
   23934:	fe0796e3          	bnez	a5,23920 <strlen+0x1c>
   23938:	fe843703          	ld	a4,-24(s0)
   2393c:	fd843783          	ld	a5,-40(s0)
   23940:	40f707b3          	sub	a5,a4,a5
   23944:	00078513          	mv	a0,a5
   23948:	02813403          	ld	s0,40(sp)
   2394c:	03010113          	addi	sp,sp,48
   23950:	00008067          	ret

0000000000023954 <memcpy>:
   23954:	fc010113          	addi	sp,sp,-64
   23958:	02813c23          	sd	s0,56(sp)
   2395c:	04010413          	addi	s0,sp,64
   23960:	fca43c23          	sd	a0,-40(s0)
   23964:	fcb43823          	sd	a1,-48(s0)
   23968:	fcc43423          	sd	a2,-56(s0)
   2396c:	fd843783          	ld	a5,-40(s0)
   23970:	fef43423          	sd	a5,-24(s0)
   23974:	fd043783          	ld	a5,-48(s0)
   23978:	fef43023          	sd	a5,-32(s0)
   2397c:	0240006f          	j	239a0 <memcpy+0x4c>
   23980:	fe043703          	ld	a4,-32(s0)
   23984:	00170793          	addi	a5,a4,1
   23988:	fef43023          	sd	a5,-32(s0)
   2398c:	fe843783          	ld	a5,-24(s0)
   23990:	00178693          	addi	a3,a5,1
   23994:	fed43423          	sd	a3,-24(s0)
   23998:	00074703          	lbu	a4,0(a4)
   2399c:	00e78023          	sb	a4,0(a5)
   239a0:	fc843783          	ld	a5,-56(s0)
   239a4:	fff78713          	addi	a4,a5,-1
   239a8:	fce43423          	sd	a4,-56(s0)
   239ac:	fc079ae3          	bnez	a5,23980 <memcpy+0x2c>
   239b0:	fd843783          	ld	a5,-40(s0)
   239b4:	00078513          	mv	a0,a5
   239b8:	03813403          	ld	s0,56(sp)
   239bc:	04010113          	addi	sp,sp,64
   239c0:	00008067          	ret

00000000000239c4 <read32>:
   239c4:	fe010113          	addi	sp,sp,-32
   239c8:	00813c23          	sd	s0,24(sp)
   239cc:	02010413          	addi	s0,sp,32
   239d0:	fea43423          	sd	a0,-24(s0)
   239d4:	fe843783          	ld	a5,-24(s0)
   239d8:	0007a783          	lw	a5,0(a5)
   239dc:	0007879b          	sext.w	a5,a5
   239e0:	00078513          	mv	a0,a5
   239e4:	01813403          	ld	s0,24(sp)
   239e8:	02010113          	addi	sp,sp,32
   239ec:	00008067          	ret

00000000000239f0 <write32>:
   239f0:	fe010113          	addi	sp,sp,-32
   239f4:	00813c23          	sd	s0,24(sp)
   239f8:	02010413          	addi	s0,sp,32
   239fc:	fea43423          	sd	a0,-24(s0)
   23a00:	00058793          	mv	a5,a1
   23a04:	fef42223          	sw	a5,-28(s0)
   23a08:	fe843783          	ld	a5,-24(s0)
   23a0c:	fe442703          	lw	a4,-28(s0)
   23a10:	00e7a023          	sw	a4,0(a5)
   23a14:	00000013          	nop
   23a18:	01813403          	ld	s0,24(sp)
   23a1c:	02010113          	addi	sp,sp,32
   23a20:	00008067          	ret

0000000000023a24 <sdelay>:
   23a24:	fe010113          	addi	sp,sp,-32
   23a28:	00813c23          	sd	s0,24(sp)
   23a2c:	02010413          	addi	s0,sp,32
   23a30:	fea43423          	sd	a0,-24(s0)
   23a34:	fe843783          	ld	a5,-24(s0)
   23a38:	00a79793          	slli	a5,a5,0xa
   23a3c:	fef43423          	sd	a5,-24(s0)
   23a40:	00000013          	nop
   23a44:	fe843783          	ld	a5,-24(s0)
   23a48:	fff78713          	addi	a4,a5,-1
   23a4c:	fee43423          	sd	a4,-24(s0)
   23a50:	fe079ae3          	bnez	a5,23a44 <sdelay+0x20>
   23a54:	00000013          	nop
   23a58:	00000013          	nop
   23a5c:	01813403          	ld	s0,24(sp)
   23a60:	02010113          	addi	sp,sp,32
   23a64:	00008067          	ret

0000000000023a68 <set_pll_cpux_axi>:
   23a68:	fe010113          	addi	sp,sp,-32
   23a6c:	00113c23          	sd	ra,24(sp)
   23a70:	00813823          	sd	s0,16(sp)
   23a74:	02010413          	addi	s0,sp,32
   23a78:	30100593          	li	a1,769
   23a7c:	020027b7          	lui	a5,0x2002
   23a80:	d0078513          	addi	a0,a5,-768 # 2001d00 <_ebss+0x1fdaae8>
   23a84:	f6dff0ef          	jal	ra,239f0 <write32>
   23a88:	00100513          	li	a0,1
   23a8c:	f99ff0ef          	jal	ra,23a24 <sdelay>
   23a90:	02001537          	lui	a0,0x2001
   23a94:	f31ff0ef          	jal	ra,239c4 <read32>
   23a98:	00050793          	mv	a5,a0
   23a9c:	fef42623          	sw	a5,-20(s0)
   23aa0:	fec42703          	lw	a4,-20(s0)
   23aa4:	f80007b7          	lui	a5,0xf8000
   23aa8:	fff78793          	addi	a5,a5,-1 # fffffffff7ffffff <_ebss+0xfffffffff7fd8de7>
   23aac:	00f777b3          	and	a5,a4,a5
   23ab0:	fef42623          	sw	a5,-20(s0)
   23ab4:	fec42783          	lw	a5,-20(s0)
   23ab8:	00078593          	mv	a1,a5
   23abc:	02001537          	lui	a0,0x2001
   23ac0:	f31ff0ef          	jal	ra,239f0 <write32>
   23ac4:	02001537          	lui	a0,0x2001
   23ac8:	efdff0ef          	jal	ra,239c4 <read32>
   23acc:	00050793          	mv	a5,a0
   23ad0:	fef42623          	sw	a5,-20(s0)
   23ad4:	fec42703          	lw	a4,-20(s0)
   23ad8:	400007b7          	lui	a5,0x40000
   23adc:	00f767b3          	or	a5,a4,a5
   23ae0:	fef42623          	sw	a5,-20(s0)
   23ae4:	fec42783          	lw	a5,-20(s0)
   23ae8:	00078593          	mv	a1,a5
   23aec:	02001537          	lui	a0,0x2001
   23af0:	f01ff0ef          	jal	ra,239f0 <write32>
   23af4:	00500513          	li	a0,5
   23af8:	f2dff0ef          	jal	ra,23a24 <sdelay>
   23afc:	02001537          	lui	a0,0x2001
   23b00:	ec5ff0ef          	jal	ra,239c4 <read32>
   23b04:	00050793          	mv	a5,a0
   23b08:	fef42623          	sw	a5,-20(s0)
   23b0c:	fec42703          	lw	a4,-20(s0)
   23b10:	fffc07b7          	lui	a5,0xfffc0
   23b14:	0fc78793          	addi	a5,a5,252 # fffffffffffc00fc <_ebss+0xfffffffffff98ee4>
   23b18:	00f777b3          	and	a5,a4,a5
   23b1c:	fef42623          	sw	a5,-20(s0)
   23b20:	fec42703          	lw	a4,-20(s0)
   23b24:	000037b7          	lui	a5,0x3
   23b28:	90078793          	addi	a5,a5,-1792 # 2900 <_start-0x1f700>
   23b2c:	00f767b3          	or	a5,a4,a5
   23b30:	fef42623          	sw	a5,-20(s0)
   23b34:	fec42783          	lw	a5,-20(s0)
   23b38:	00078593          	mv	a1,a5
   23b3c:	02001537          	lui	a0,0x2001
   23b40:	eb1ff0ef          	jal	ra,239f0 <write32>
   23b44:	02001537          	lui	a0,0x2001
   23b48:	e7dff0ef          	jal	ra,239c4 <read32>
   23b4c:	00050793          	mv	a5,a0
   23b50:	fef42623          	sw	a5,-20(s0)
   23b54:	fec42703          	lw	a4,-20(s0)
   23b58:	200007b7          	lui	a5,0x20000
   23b5c:	00f767b3          	or	a5,a4,a5
   23b60:	fef42623          	sw	a5,-20(s0)
   23b64:	fec42783          	lw	a5,-20(s0)
   23b68:	00078593          	mv	a1,a5
   23b6c:	02001537          	lui	a0,0x2001
   23b70:	e81ff0ef          	jal	ra,239f0 <write32>
   23b74:	02001537          	lui	a0,0x2001
   23b78:	e4dff0ef          	jal	ra,239c4 <read32>
   23b7c:	00050793          	mv	a5,a0
   23b80:	fef42623          	sw	a5,-20(s0)
   23b84:	fec42703          	lw	a4,-20(s0)
   23b88:	800007b7          	lui	a5,0x80000
   23b8c:	00f767b3          	or	a5,a4,a5
   23b90:	fef42623          	sw	a5,-20(s0)
   23b94:	fec42783          	lw	a5,-20(s0)
   23b98:	00078593          	mv	a1,a5
   23b9c:	02001537          	lui	a0,0x2001
   23ba0:	e51ff0ef          	jal	ra,239f0 <write32>
   23ba4:	00000013          	nop
   23ba8:	02001537          	lui	a0,0x2001
   23bac:	e19ff0ef          	jal	ra,239c4 <read32>
   23bb0:	00050793          	mv	a5,a0
   23bb4:	0007879b          	sext.w	a5,a5
   23bb8:	00078713          	mv	a4,a5
   23bbc:	100007b7          	lui	a5,0x10000
   23bc0:	00f777b3          	and	a5,a4,a5
   23bc4:	0007879b          	sext.w	a5,a5
   23bc8:	fe0780e3          	beqz	a5,23ba8 <set_pll_cpux_axi+0x140>
   23bcc:	01400513          	li	a0,20
   23bd0:	e55ff0ef          	jal	ra,23a24 <sdelay>
   23bd4:	02001537          	lui	a0,0x2001
   23bd8:	dedff0ef          	jal	ra,239c4 <read32>
   23bdc:	00050793          	mv	a5,a0
   23be0:	fef42623          	sw	a5,-20(s0)
   23be4:	fec42703          	lw	a4,-20(s0)
   23be8:	080007b7          	lui	a5,0x8000
   23bec:	00f767b3          	or	a5,a4,a5
   23bf0:	fef42623          	sw	a5,-20(s0)
   23bf4:	fec42783          	lw	a5,-20(s0)
   23bf8:	00078593          	mv	a1,a5
   23bfc:	02001537          	lui	a0,0x2001
   23c00:	df1ff0ef          	jal	ra,239f0 <write32>
   23c04:	02001537          	lui	a0,0x2001
   23c08:	dbdff0ef          	jal	ra,239c4 <read32>
   23c0c:	00050793          	mv	a5,a0
   23c10:	fef42623          	sw	a5,-20(s0)
   23c14:	fec42703          	lw	a4,-20(s0)
   23c18:	e00007b7          	lui	a5,0xe0000
   23c1c:	fff78793          	addi	a5,a5,-1 # ffffffffdfffffff <_ebss+0xffffffffdffd8de7>
   23c20:	00f777b3          	and	a5,a4,a5
   23c24:	fef42623          	sw	a5,-20(s0)
   23c28:	fec42783          	lw	a5,-20(s0)
   23c2c:	00078593          	mv	a1,a5
   23c30:	02001537          	lui	a0,0x2001
   23c34:	dbdff0ef          	jal	ra,239f0 <write32>
   23c38:	00100513          	li	a0,1
   23c3c:	de9ff0ef          	jal	ra,23a24 <sdelay>
   23c40:	020027b7          	lui	a5,0x2002
   23c44:	d0078513          	addi	a0,a5,-768 # 2001d00 <_ebss+0x1fdaae8>
   23c48:	d7dff0ef          	jal	ra,239c4 <read32>
   23c4c:	00050793          	mv	a5,a0
   23c50:	fef42623          	sw	a5,-20(s0)
   23c54:	fec42703          	lw	a4,-20(s0)
   23c58:	f90007b7          	lui	a5,0xf9000
   23c5c:	cf078793          	addi	a5,a5,-784 # fffffffff8fffcf0 <_ebss+0xfffffffff8fd8ad8>
   23c60:	00f777b3          	and	a5,a4,a5
   23c64:	fef42623          	sw	a5,-20(s0)
   23c68:	fec42703          	lw	a4,-20(s0)
   23c6c:	050007b7          	lui	a5,0x5000
   23c70:	10078793          	addi	a5,a5,256 # 5000100 <_ebss+0x4fd8ee8>
   23c74:	00f767b3          	or	a5,a4,a5
   23c78:	fef42623          	sw	a5,-20(s0)
   23c7c:	fec42783          	lw	a5,-20(s0)
   23c80:	00078593          	mv	a1,a5
   23c84:	020027b7          	lui	a5,0x2002
   23c88:	d0078513          	addi	a0,a5,-768 # 2001d00 <_ebss+0x1fdaae8>
   23c8c:	d65ff0ef          	jal	ra,239f0 <write32>
   23c90:	00100513          	li	a0,1
   23c94:	d91ff0ef          	jal	ra,23a24 <sdelay>
   23c98:	00000013          	nop
   23c9c:	01813083          	ld	ra,24(sp)
   23ca0:	01013403          	ld	s0,16(sp)
   23ca4:	02010113          	addi	sp,sp,32
   23ca8:	00008067          	ret

0000000000023cac <set_pll_periph0>:
   23cac:	fe010113          	addi	sp,sp,-32
   23cb0:	00113c23          	sd	ra,24(sp)
   23cb4:	00813823          	sd	s0,16(sp)
   23cb8:	02010413          	addi	s0,sp,32
   23cbc:	020017b7          	lui	a5,0x2001
   23cc0:	02078513          	addi	a0,a5,32 # 2001020 <_ebss+0x1fd9e08>
   23cc4:	d01ff0ef          	jal	ra,239c4 <read32>
   23cc8:	00050793          	mv	a5,a0
   23ccc:	0007879b          	sext.w	a5,a5
   23cd0:	0007879b          	sext.w	a5,a5
   23cd4:	1207cc63          	bltz	a5,23e0c <set_pll_periph0+0x160>
   23cd8:	020017b7          	lui	a5,0x2001
   23cdc:	51078513          	addi	a0,a5,1296 # 2001510 <_ebss+0x1fda2f8>
   23ce0:	ce5ff0ef          	jal	ra,239c4 <read32>
   23ce4:	00050793          	mv	a5,a0
   23ce8:	fef42623          	sw	a5,-20(s0)
   23cec:	fec42703          	lw	a4,-20(s0)
   23cf0:	fd0007b7          	lui	a5,0xfd000
   23cf4:	fff78793          	addi	a5,a5,-1 # fffffffffcffffff <_ebss+0xfffffffffcfd8de7>
   23cf8:	00f777b3          	and	a5,a4,a5
   23cfc:	fef42623          	sw	a5,-20(s0)
   23d00:	fec46703          	lwu	a4,-20(s0)
   23d04:	020017b7          	lui	a5,0x2001
   23d08:	51078593          	addi	a1,a5,1296 # 2001510 <_ebss+0x1fda2f8>
   23d0c:	00070513          	mv	a0,a4
   23d10:	ce1ff0ef          	jal	ra,239f0 <write32>
   23d14:	000067b7          	lui	a5,0x6
   23d18:	30078593          	addi	a1,a5,768 # 6300 <_start-0x1bd00>
   23d1c:	020017b7          	lui	a5,0x2001
   23d20:	02078513          	addi	a0,a5,32 # 2001020 <_ebss+0x1fd9e08>
   23d24:	ccdff0ef          	jal	ra,239f0 <write32>
   23d28:	020017b7          	lui	a5,0x2001
   23d2c:	02078513          	addi	a0,a5,32 # 2001020 <_ebss+0x1fd9e08>
   23d30:	c95ff0ef          	jal	ra,239c4 <read32>
   23d34:	00050793          	mv	a5,a0
   23d38:	fef42623          	sw	a5,-20(s0)
   23d3c:	fec42703          	lw	a4,-20(s0)
   23d40:	200007b7          	lui	a5,0x20000
   23d44:	00f767b3          	or	a5,a4,a5
   23d48:	fef42623          	sw	a5,-20(s0)
   23d4c:	fec42783          	lw	a5,-20(s0)
   23d50:	00078593          	mv	a1,a5
   23d54:	020017b7          	lui	a5,0x2001
   23d58:	02078513          	addi	a0,a5,32 # 2001020 <_ebss+0x1fd9e08>
   23d5c:	c95ff0ef          	jal	ra,239f0 <write32>
   23d60:	020017b7          	lui	a5,0x2001
   23d64:	02078513          	addi	a0,a5,32 # 2001020 <_ebss+0x1fd9e08>
   23d68:	c5dff0ef          	jal	ra,239c4 <read32>
   23d6c:	00050793          	mv	a5,a0
   23d70:	fef42623          	sw	a5,-20(s0)
   23d74:	fec42703          	lw	a4,-20(s0)
   23d78:	800007b7          	lui	a5,0x80000
   23d7c:	00f767b3          	or	a5,a4,a5
   23d80:	fef42623          	sw	a5,-20(s0)
   23d84:	fec42783          	lw	a5,-20(s0)
   23d88:	00078593          	mv	a1,a5
   23d8c:	020017b7          	lui	a5,0x2001
   23d90:	02078513          	addi	a0,a5,32 # 2001020 <_ebss+0x1fd9e08>
   23d94:	c5dff0ef          	jal	ra,239f0 <write32>
   23d98:	00000013          	nop
   23d9c:	020017b7          	lui	a5,0x2001
   23da0:	02078513          	addi	a0,a5,32 # 2001020 <_ebss+0x1fd9e08>
   23da4:	c21ff0ef          	jal	ra,239c4 <read32>
   23da8:	00050793          	mv	a5,a0
   23dac:	0007879b          	sext.w	a5,a5
   23db0:	00078713          	mv	a4,a5
   23db4:	100007b7          	lui	a5,0x10000
   23db8:	00f777b3          	and	a5,a4,a5
   23dbc:	0007879b          	sext.w	a5,a5
   23dc0:	fc078ee3          	beqz	a5,23d9c <set_pll_periph0+0xf0>
   23dc4:	01400513          	li	a0,20
   23dc8:	c5dff0ef          	jal	ra,23a24 <sdelay>
   23dcc:	020017b7          	lui	a5,0x2001
   23dd0:	02078513          	addi	a0,a5,32 # 2001020 <_ebss+0x1fd9e08>
   23dd4:	bf1ff0ef          	jal	ra,239c4 <read32>
   23dd8:	00050793          	mv	a5,a0
   23ddc:	fef42623          	sw	a5,-20(s0)
   23de0:	fec42703          	lw	a4,-20(s0)
   23de4:	e00007b7          	lui	a5,0xe0000
   23de8:	fff78793          	addi	a5,a5,-1 # ffffffffdfffffff <_ebss+0xffffffffdffd8de7>
   23dec:	00f777b3          	and	a5,a4,a5
   23df0:	fef42623          	sw	a5,-20(s0)
   23df4:	fec42783          	lw	a5,-20(s0)
   23df8:	00078593          	mv	a1,a5
   23dfc:	020017b7          	lui	a5,0x2001
   23e00:	02078513          	addi	a0,a5,32 # 2001020 <_ebss+0x1fd9e08>
   23e04:	bedff0ef          	jal	ra,239f0 <write32>
   23e08:	0080006f          	j	23e10 <set_pll_periph0+0x164>
   23e0c:	00000013          	nop
   23e10:	01813083          	ld	ra,24(sp)
   23e14:	01013403          	ld	s0,16(sp)
   23e18:	02010113          	addi	sp,sp,32
   23e1c:	00008067          	ret

0000000000023e20 <set_ahb>:
   23e20:	ff010113          	addi	sp,sp,-16
   23e24:	00113423          	sd	ra,8(sp)
   23e28:	00813023          	sd	s0,0(sp)
   23e2c:	01010413          	addi	s0,sp,16
   23e30:	00200593          	li	a1,2
   23e34:	020017b7          	lui	a5,0x2001
   23e38:	51078513          	addi	a0,a5,1296 # 2001510 <_ebss+0x1fda2f8>
   23e3c:	bb5ff0ef          	jal	ra,239f0 <write32>
   23e40:	020017b7          	lui	a5,0x2001
   23e44:	51078513          	addi	a0,a5,1296 # 2001510 <_ebss+0x1fda2f8>
   23e48:	b7dff0ef          	jal	ra,239c4 <read32>
   23e4c:	00050793          	mv	a5,a0
   23e50:	0007879b          	sext.w	a5,a5
   23e54:	00078713          	mv	a4,a5
   23e58:	030007b7          	lui	a5,0x3000
   23e5c:	00f767b3          	or	a5,a4,a5
   23e60:	0007879b          	sext.w	a5,a5
   23e64:	00078593          	mv	a1,a5
   23e68:	020017b7          	lui	a5,0x2001
   23e6c:	51078513          	addi	a0,a5,1296 # 2001510 <_ebss+0x1fda2f8>
   23e70:	b81ff0ef          	jal	ra,239f0 <write32>
   23e74:	00100513          	li	a0,1
   23e78:	badff0ef          	jal	ra,23a24 <sdelay>
   23e7c:	00000013          	nop
   23e80:	00813083          	ld	ra,8(sp)
   23e84:	00013403          	ld	s0,0(sp)
   23e88:	01010113          	addi	sp,sp,16
   23e8c:	00008067          	ret

0000000000023e90 <set_apb>:
   23e90:	ff010113          	addi	sp,sp,-16
   23e94:	00113423          	sd	ra,8(sp)
   23e98:	00813023          	sd	s0,0(sp)
   23e9c:	01010413          	addi	s0,sp,16
   23ea0:	10200593          	li	a1,258
   23ea4:	020017b7          	lui	a5,0x2001
   23ea8:	52078513          	addi	a0,a5,1312 # 2001520 <_ebss+0x1fda308>
   23eac:	b45ff0ef          	jal	ra,239f0 <write32>
   23eb0:	020017b7          	lui	a5,0x2001
   23eb4:	52078513          	addi	a0,a5,1312 # 2001520 <_ebss+0x1fda308>
   23eb8:	b0dff0ef          	jal	ra,239c4 <read32>
   23ebc:	00050793          	mv	a5,a0
   23ec0:	0007879b          	sext.w	a5,a5
   23ec4:	00078713          	mv	a4,a5
   23ec8:	030007b7          	lui	a5,0x3000
   23ecc:	00f767b3          	or	a5,a4,a5
   23ed0:	0007879b          	sext.w	a5,a5
   23ed4:	00078593          	mv	a1,a5
   23ed8:	020017b7          	lui	a5,0x2001
   23edc:	52078513          	addi	a0,a5,1312 # 2001520 <_ebss+0x1fda308>
   23ee0:	b11ff0ef          	jal	ra,239f0 <write32>
   23ee4:	00100513          	li	a0,1
   23ee8:	b3dff0ef          	jal	ra,23a24 <sdelay>
   23eec:	00000013          	nop
   23ef0:	00813083          	ld	ra,8(sp)
   23ef4:	00013403          	ld	s0,0(sp)
   23ef8:	01010113          	addi	sp,sp,16
   23efc:	00008067          	ret

0000000000023f00 <set_dma>:
   23f00:	ff010113          	addi	sp,sp,-16
   23f04:	00113423          	sd	ra,8(sp)
   23f08:	00813023          	sd	s0,0(sp)
   23f0c:	01010413          	addi	s0,sp,16
   23f10:	020017b7          	lui	a5,0x2001
   23f14:	70c78513          	addi	a0,a5,1804 # 200170c <_ebss+0x1fda4f4>
   23f18:	aadff0ef          	jal	ra,239c4 <read32>
   23f1c:	00050793          	mv	a5,a0
   23f20:	0007879b          	sext.w	a5,a5
   23f24:	00078713          	mv	a4,a5
   23f28:	000107b7          	lui	a5,0x10
   23f2c:	00f767b3          	or	a5,a4,a5
   23f30:	0007879b          	sext.w	a5,a5
   23f34:	00078593          	mv	a1,a5
   23f38:	020017b7          	lui	a5,0x2001
   23f3c:	70c78513          	addi	a0,a5,1804 # 200170c <_ebss+0x1fda4f4>
   23f40:	ab1ff0ef          	jal	ra,239f0 <write32>
   23f44:	01400513          	li	a0,20
   23f48:	addff0ef          	jal	ra,23a24 <sdelay>
   23f4c:	020017b7          	lui	a5,0x2001
   23f50:	70c78513          	addi	a0,a5,1804 # 200170c <_ebss+0x1fda4f4>
   23f54:	a71ff0ef          	jal	ra,239c4 <read32>
   23f58:	00050793          	mv	a5,a0
   23f5c:	0007879b          	sext.w	a5,a5
   23f60:	0017e793          	ori	a5,a5,1
   23f64:	0007879b          	sext.w	a5,a5
   23f68:	00078593          	mv	a1,a5
   23f6c:	020017b7          	lui	a5,0x2001
   23f70:	70c78513          	addi	a0,a5,1804 # 200170c <_ebss+0x1fda4f4>
   23f74:	a7dff0ef          	jal	ra,239f0 <write32>
   23f78:	00000013          	nop
   23f7c:	00813083          	ld	ra,8(sp)
   23f80:	00013403          	ld	s0,0(sp)
   23f84:	01010113          	addi	sp,sp,16
   23f88:	00008067          	ret

0000000000023f8c <set_mbus>:
   23f8c:	fe010113          	addi	sp,sp,-32
   23f90:	00113c23          	sd	ra,24(sp)
   23f94:	00813823          	sd	s0,16(sp)
   23f98:	02010413          	addi	s0,sp,32
   23f9c:	020017b7          	lui	a5,0x2001
   23fa0:	54078513          	addi	a0,a5,1344 # 2001540 <_ebss+0x1fda328>
   23fa4:	a21ff0ef          	jal	ra,239c4 <read32>
   23fa8:	00050793          	mv	a5,a0
   23fac:	fef42623          	sw	a5,-20(s0)
   23fb0:	fec42703          	lw	a4,-20(s0)
   23fb4:	400007b7          	lui	a5,0x40000
   23fb8:	00f767b3          	or	a5,a4,a5
   23fbc:	fef42623          	sw	a5,-20(s0)
   23fc0:	fec42783          	lw	a5,-20(s0)
   23fc4:	00078593          	mv	a1,a5
   23fc8:	020017b7          	lui	a5,0x2001
   23fcc:	54078513          	addi	a0,a5,1344 # 2001540 <_ebss+0x1fda328>
   23fd0:	a21ff0ef          	jal	ra,239f0 <write32>
   23fd4:	00100513          	li	a0,1
   23fd8:	a4dff0ef          	jal	ra,23a24 <sdelay>
   23fdc:	00000013          	nop
   23fe0:	01813083          	ld	ra,24(sp)
   23fe4:	01013403          	ld	s0,16(sp)
   23fe8:	02010113          	addi	sp,sp,32
   23fec:	00008067          	ret

0000000000023ff0 <set_module>:
   23ff0:	fd010113          	addi	sp,sp,-48
   23ff4:	02113423          	sd	ra,40(sp)
   23ff8:	02813023          	sd	s0,32(sp)
   23ffc:	03010413          	addi	s0,sp,48
   24000:	fca43c23          	sd	a0,-40(s0)
   24004:	fd843503          	ld	a0,-40(s0)
   24008:	9bdff0ef          	jal	ra,239c4 <read32>
   2400c:	00050793          	mv	a5,a0
   24010:	0007879b          	sext.w	a5,a5
   24014:	0007879b          	sext.w	a5,a5
   24018:	0c07c263          	bltz	a5,240dc <set_module+0xec>
   2401c:	fd843503          	ld	a0,-40(s0)
   24020:	9a5ff0ef          	jal	ra,239c4 <read32>
   24024:	00050793          	mv	a5,a0
   24028:	fef42623          	sw	a5,-20(s0)
   2402c:	fec42703          	lw	a4,-20(s0)
   24030:	c00007b7          	lui	a5,0xc0000
   24034:	00f767b3          	or	a5,a4,a5
   24038:	0007879b          	sext.w	a5,a5
   2403c:	00078593          	mv	a1,a5
   24040:	fd843503          	ld	a0,-40(s0)
   24044:	9adff0ef          	jal	ra,239f0 <write32>
   24048:	fd843503          	ld	a0,-40(s0)
   2404c:	979ff0ef          	jal	ra,239c4 <read32>
   24050:	00050793          	mv	a5,a0
   24054:	fef42623          	sw	a5,-20(s0)
   24058:	fec42703          	lw	a4,-20(s0)
   2405c:	200007b7          	lui	a5,0x20000
   24060:	00f767b3          	or	a5,a4,a5
   24064:	fef42623          	sw	a5,-20(s0)
   24068:	fec42783          	lw	a5,-20(s0)
   2406c:	00078593          	mv	a1,a5
   24070:	fd843503          	ld	a0,-40(s0)
   24074:	97dff0ef          	jal	ra,239f0 <write32>
   24078:	00000013          	nop
   2407c:	fd843503          	ld	a0,-40(s0)
   24080:	945ff0ef          	jal	ra,239c4 <read32>
   24084:	00050793          	mv	a5,a0
   24088:	0007879b          	sext.w	a5,a5
   2408c:	00078713          	mv	a4,a5
   24090:	100007b7          	lui	a5,0x10000
   24094:	00f777b3          	and	a5,a4,a5
   24098:	0007879b          	sext.w	a5,a5
   2409c:	fe0780e3          	beqz	a5,2407c <set_module+0x8c>
   240a0:	01400513          	li	a0,20
   240a4:	981ff0ef          	jal	ra,23a24 <sdelay>
   240a8:	fd843503          	ld	a0,-40(s0)
   240ac:	919ff0ef          	jal	ra,239c4 <read32>
   240b0:	00050793          	mv	a5,a0
   240b4:	fef42623          	sw	a5,-20(s0)
   240b8:	fec42703          	lw	a4,-20(s0)
   240bc:	e00007b7          	lui	a5,0xe0000
   240c0:	fff78793          	addi	a5,a5,-1 # ffffffffdfffffff <_ebss+0xffffffffdffd8de7>
   240c4:	00f777b3          	and	a5,a4,a5
   240c8:	fef42623          	sw	a5,-20(s0)
   240cc:	fec42783          	lw	a5,-20(s0)
   240d0:	00078593          	mv	a1,a5
   240d4:	fd843503          	ld	a0,-40(s0)
   240d8:	919ff0ef          	jal	ra,239f0 <write32>
   240dc:	00000013          	nop
   240e0:	02813083          	ld	ra,40(sp)
   240e4:	02013403          	ld	s0,32(sp)
   240e8:	03010113          	addi	sp,sp,48
   240ec:	00008067          	ret

00000000000240f0 <sys_clock_init>:
   240f0:	ff010113          	addi	sp,sp,-16
   240f4:	00113423          	sd	ra,8(sp)
   240f8:	00813023          	sd	s0,0(sp)
   240fc:	01010413          	addi	s0,sp,16
   24100:	969ff0ef          	jal	ra,23a68 <set_pll_cpux_axi>
   24104:	ba9ff0ef          	jal	ra,23cac <set_pll_periph0>
   24108:	d19ff0ef          	jal	ra,23e20 <set_ahb>
   2410c:	d85ff0ef          	jal	ra,23e90 <set_apb>
   24110:	df1ff0ef          	jal	ra,23f00 <set_dma>
   24114:	e79ff0ef          	jal	ra,23f8c <set_mbus>
   24118:	020017b7          	lui	a5,0x2001
   2411c:	02078513          	addi	a0,a5,32 # 2001020 <_ebss+0x1fd9e08>
   24120:	ed1ff0ef          	jal	ra,23ff0 <set_module>
   24124:	020017b7          	lui	a5,0x2001
   24128:	04078513          	addi	a0,a5,64 # 2001040 <_ebss+0x1fd9e28>
   2412c:	ec5ff0ef          	jal	ra,23ff0 <set_module>
   24130:	020017b7          	lui	a5,0x2001
   24134:	04878513          	addi	a0,a5,72 # 2001048 <_ebss+0x1fd9e30>
   24138:	eb9ff0ef          	jal	ra,23ff0 <set_module>
   2413c:	020017b7          	lui	a5,0x2001
   24140:	05878513          	addi	a0,a5,88 # 2001058 <_ebss+0x1fd9e40>
   24144:	eadff0ef          	jal	ra,23ff0 <set_module>
   24148:	020017b7          	lui	a5,0x2001
   2414c:	07878513          	addi	a0,a5,120 # 2001078 <_ebss+0x1fd9e60>
   24150:	ea1ff0ef          	jal	ra,23ff0 <set_module>
   24154:	020017b7          	lui	a5,0x2001
   24158:	08078513          	addi	a0,a5,128 # 2001080 <_ebss+0x1fd9e68>
   2415c:	e95ff0ef          	jal	ra,23ff0 <set_module>
   24160:	00000013          	nop
   24164:	00813083          	ld	ra,8(sp)
   24168:	00013403          	ld	s0,0(sp)
   2416c:	01010113          	addi	sp,sp,16
   24170:	00008067          	ret

0000000000024174 <read8>:
   24174:	fe010113          	addi	sp,sp,-32
   24178:	00813c23          	sd	s0,24(sp)
   2417c:	02010413          	addi	s0,sp,32
   24180:	fea43423          	sd	a0,-24(s0)
   24184:	fe843783          	ld	a5,-24(s0)
   24188:	0007c783          	lbu	a5,0(a5)
   2418c:	0ff7f793          	andi	a5,a5,255
   24190:	00078513          	mv	a0,a5
   24194:	01813403          	ld	s0,24(sp)
   24198:	02010113          	addi	sp,sp,32
   2419c:	00008067          	ret

00000000000241a0 <read32>:
   241a0:	fe010113          	addi	sp,sp,-32
   241a4:	00813c23          	sd	s0,24(sp)
   241a8:	02010413          	addi	s0,sp,32
   241ac:	fea43423          	sd	a0,-24(s0)
   241b0:	fe843783          	ld	a5,-24(s0)
   241b4:	0007a783          	lw	a5,0(a5)
   241b8:	0007879b          	sext.w	a5,a5
   241bc:	00078513          	mv	a0,a5
   241c0:	01813403          	ld	s0,24(sp)
   241c4:	02010113          	addi	sp,sp,32
   241c8:	00008067          	ret

00000000000241cc <write32>:
   241cc:	fe010113          	addi	sp,sp,-32
   241d0:	00813c23          	sd	s0,24(sp)
   241d4:	02010413          	addi	s0,sp,32
   241d8:	fea43423          	sd	a0,-24(s0)
   241dc:	00058793          	mv	a5,a1
   241e0:	fef42223          	sw	a5,-28(s0)
   241e4:	fe843783          	ld	a5,-24(s0)
   241e8:	fe442703          	lw	a4,-28(s0)
   241ec:	00e7a023          	sw	a4,0(a5)
   241f0:	00000013          	nop
   241f4:	01813403          	ld	s0,24(sp)
   241f8:	02010113          	addi	sp,sp,32
   241fc:	00008067          	ret

0000000000024200 <uart_init>:
   24200:	fe010113          	addi	sp,sp,-32
   24204:	00113c23          	sd	ra,24(sp)
   24208:	00813823          	sd	s0,16(sp)
   2420c:	02010413          	addi	s0,sp,32
   24210:	020007b7          	lui	a5,0x2000
   24214:	0f078793          	addi	a5,a5,240 # 20000f0 <_ebss+0x1fd8ed8>
   24218:	fef43423          	sd	a5,-24(s0)
   2421c:	fe843503          	ld	a0,-24(s0)
   24220:	f81ff0ef          	jal	ra,241a0 <read32>
   24224:	00050793          	mv	a5,a0
   24228:	fef42223          	sw	a5,-28(s0)
   2422c:	fe442703          	lw	a4,-28(s0)
   24230:	fffff7b7          	lui	a5,0xfffff
   24234:	0ff78793          	addi	a5,a5,255 # fffffffffffff0ff <_ebss+0xfffffffffffd7ee7>
   24238:	00f777b3          	and	a5,a4,a5
   2423c:	fef42223          	sw	a5,-28(s0)
   24240:	fe442783          	lw	a5,-28(s0)
   24244:	3007e793          	ori	a5,a5,768
   24248:	fef42223          	sw	a5,-28(s0)
   2424c:	fe442783          	lw	a5,-28(s0)
   24250:	00078593          	mv	a1,a5
   24254:	fe843503          	ld	a0,-24(s0)
   24258:	f75ff0ef          	jal	ra,241cc <write32>
   2425c:	fe843503          	ld	a0,-24(s0)
   24260:	f41ff0ef          	jal	ra,241a0 <read32>
   24264:	00050793          	mv	a5,a0
   24268:	fef42223          	sw	a5,-28(s0)
   2426c:	fe442703          	lw	a4,-28(s0)
   24270:	fff107b7          	lui	a5,0xfff10
   24274:	fff78793          	addi	a5,a5,-1 # fffffffffff0ffff <_ebss+0xffffffffffee8de7>
   24278:	00f777b3          	and	a5,a4,a5
   2427c:	fef42223          	sw	a5,-28(s0)
   24280:	fe442703          	lw	a4,-28(s0)
   24284:	000307b7          	lui	a5,0x30
   24288:	00f767b3          	or	a5,a4,a5
   2428c:	fef42223          	sw	a5,-28(s0)
   24290:	fe442783          	lw	a5,-28(s0)
   24294:	00078593          	mv	a1,a5
   24298:	fe843503          	ld	a0,-24(s0)
   2429c:	f31ff0ef          	jal	ra,241cc <write32>
   242a0:	020027b7          	lui	a5,0x2002
   242a4:	90c78793          	addi	a5,a5,-1780 # 200190c <_ebss+0x1fda6f4>
   242a8:	fef43423          	sd	a5,-24(s0)
   242ac:	fe843503          	ld	a0,-24(s0)
   242b0:	ef1ff0ef          	jal	ra,241a0 <read32>
   242b4:	00050793          	mv	a5,a0
   242b8:	fef42223          	sw	a5,-28(s0)
   242bc:	fe442783          	lw	a5,-28(s0)
   242c0:	0017e793          	ori	a5,a5,1
   242c4:	fef42223          	sw	a5,-28(s0)
   242c8:	fe442783          	lw	a5,-28(s0)
   242cc:	00078593          	mv	a1,a5
   242d0:	fe843503          	ld	a0,-24(s0)
   242d4:	ef9ff0ef          	jal	ra,241cc <write32>
   242d8:	020027b7          	lui	a5,0x2002
   242dc:	90c78793          	addi	a5,a5,-1780 # 200190c <_ebss+0x1fda6f4>
   242e0:	fef43423          	sd	a5,-24(s0)
   242e4:	fe843503          	ld	a0,-24(s0)
   242e8:	eb9ff0ef          	jal	ra,241a0 <read32>
   242ec:	00050793          	mv	a5,a0
   242f0:	fef42223          	sw	a5,-28(s0)
   242f4:	fe442703          	lw	a4,-28(s0)
   242f8:	000107b7          	lui	a5,0x10
   242fc:	00f767b3          	or	a5,a4,a5
   24300:	fef42223          	sw	a5,-28(s0)
   24304:	fe442783          	lw	a5,-28(s0)
   24308:	00078593          	mv	a1,a5
   2430c:	fe843503          	ld	a0,-24(s0)
   24310:	ebdff0ef          	jal	ra,241cc <write32>
   24314:	025007b7          	lui	a5,0x2500
   24318:	fef43423          	sd	a5,-24(s0)
   2431c:	fe843783          	ld	a5,-24(s0)
   24320:	00478793          	addi	a5,a5,4 # 2500004 <_ebss+0x24d8dec>
   24324:	00000593          	li	a1,0
   24328:	00078513          	mv	a0,a5
   2432c:	ea1ff0ef          	jal	ra,241cc <write32>
   24330:	fe843783          	ld	a5,-24(s0)
   24334:	00878793          	addi	a5,a5,8
   24338:	0f100593          	li	a1,241
   2433c:	00078513          	mv	a0,a5
   24340:	e8dff0ef          	jal	ra,241cc <write32>
   24344:	fe843783          	ld	a5,-24(s0)
   24348:	01078793          	addi	a5,a5,16
   2434c:	00000593          	li	a1,0
   24350:	00078513          	mv	a0,a5
   24354:	e79ff0ef          	jal	ra,241cc <write32>
   24358:	fe843783          	ld	a5,-24(s0)
   2435c:	00c78793          	addi	a5,a5,12
   24360:	00078513          	mv	a0,a5
   24364:	e3dff0ef          	jal	ra,241a0 <read32>
   24368:	00050793          	mv	a5,a0
   2436c:	fef42223          	sw	a5,-28(s0)
   24370:	fe442783          	lw	a5,-28(s0)
   24374:	0807e793          	ori	a5,a5,128
   24378:	fef42223          	sw	a5,-28(s0)
   2437c:	fe843783          	ld	a5,-24(s0)
   24380:	00c78793          	addi	a5,a5,12
   24384:	fe442703          	lw	a4,-28(s0)
   24388:	00070593          	mv	a1,a4
   2438c:	00078513          	mv	a0,a5
   24390:	e3dff0ef          	jal	ra,241cc <write32>
   24394:	00d00593          	li	a1,13
   24398:	fe843503          	ld	a0,-24(s0)
   2439c:	e31ff0ef          	jal	ra,241cc <write32>
   243a0:	fe843783          	ld	a5,-24(s0)
   243a4:	00478793          	addi	a5,a5,4
   243a8:	00000593          	li	a1,0
   243ac:	00078513          	mv	a0,a5
   243b0:	e1dff0ef          	jal	ra,241cc <write32>
   243b4:	fe843783          	ld	a5,-24(s0)
   243b8:	00c78793          	addi	a5,a5,12
   243bc:	00078513          	mv	a0,a5
   243c0:	de1ff0ef          	jal	ra,241a0 <read32>
   243c4:	00050793          	mv	a5,a0
   243c8:	fef42223          	sw	a5,-28(s0)
   243cc:	fe442783          	lw	a5,-28(s0)
   243d0:	f7f7f793          	andi	a5,a5,-129
   243d4:	fef42223          	sw	a5,-28(s0)
   243d8:	fe843783          	ld	a5,-24(s0)
   243dc:	00c78793          	addi	a5,a5,12
   243e0:	fe442703          	lw	a4,-28(s0)
   243e4:	00070593          	mv	a1,a4
   243e8:	00078513          	mv	a0,a5
   243ec:	de1ff0ef          	jal	ra,241cc <write32>
   243f0:	fe843783          	ld	a5,-24(s0)
   243f4:	00c78793          	addi	a5,a5,12
   243f8:	00078513          	mv	a0,a5
   243fc:	da5ff0ef          	jal	ra,241a0 <read32>
   24400:	00050793          	mv	a5,a0
   24404:	fef42223          	sw	a5,-28(s0)
   24408:	fe442783          	lw	a5,-28(s0)
   2440c:	fe07f793          	andi	a5,a5,-32
   24410:	fef42223          	sw	a5,-28(s0)
   24414:	fe442783          	lw	a5,-28(s0)
   24418:	0037e793          	ori	a5,a5,3
   2441c:	fef42223          	sw	a5,-28(s0)
   24420:	fe843783          	ld	a5,-24(s0)
   24424:	00c78793          	addi	a5,a5,12
   24428:	fe442703          	lw	a4,-28(s0)
   2442c:	00070593          	mv	a1,a4
   24430:	00078513          	mv	a0,a5
   24434:	d99ff0ef          	jal	ra,241cc <write32>
   24438:	00000013          	nop
   2443c:	01813083          	ld	ra,24(sp)
   24440:	01013403          	ld	s0,16(sp)
   24444:	02010113          	addi	sp,sp,32
   24448:	00008067          	ret

000000000002444c <uart_send>:
   2444c:	fd010113          	addi	sp,sp,-48
   24450:	02113423          	sd	ra,40(sp)
   24454:	02813023          	sd	s0,32(sp)
   24458:	03010413          	addi	s0,sp,48
   2445c:	00050793          	mv	a5,a0
   24460:	fcf40fa3          	sb	a5,-33(s0)
   24464:	025007b7          	lui	a5,0x2500
   24468:	fef43423          	sd	a5,-24(s0)
   2446c:	00000013          	nop
   24470:	fe843783          	ld	a5,-24(s0)
   24474:	07c78793          	addi	a5,a5,124 # 250007c <_ebss+0x24d8e64>
   24478:	00078513          	mv	a0,a5
   2447c:	d25ff0ef          	jal	ra,241a0 <read32>
   24480:	00050793          	mv	a5,a0
   24484:	0007879b          	sext.w	a5,a5
   24488:	0027f793          	andi	a5,a5,2
   2448c:	0007879b          	sext.w	a5,a5
   24490:	fe0780e3          	beqz	a5,24470 <uart_send+0x24>
   24494:	fdf44783          	lbu	a5,-33(s0)
   24498:	0007879b          	sext.w	a5,a5
   2449c:	00078593          	mv	a1,a5
   244a0:	fe843503          	ld	a0,-24(s0)
   244a4:	d29ff0ef          	jal	ra,241cc <write32>
   244a8:	00000013          	nop
   244ac:	02813083          	ld	ra,40(sp)
   244b0:	02013403          	ld	s0,32(sp)
   244b4:	03010113          	addi	sp,sp,48
   244b8:	00008067          	ret

00000000000244bc <putchar>:
   244bc:	fe010113          	addi	sp,sp,-32
   244c0:	00113c23          	sd	ra,24(sp)
   244c4:	00813823          	sd	s0,16(sp)
   244c8:	02010413          	addi	s0,sp,32
   244cc:	00050793          	mv	a5,a0
   244d0:	fef42623          	sw	a5,-20(s0)
   244d4:	fec42783          	lw	a5,-20(s0)
   244d8:	0ff7f793          	andi	a5,a5,255
   244dc:	00078513          	mv	a0,a5
   244e0:	f6dff0ef          	jal	ra,2444c <uart_send>
   244e4:	fec42783          	lw	a5,-20(s0)
   244e8:	00078513          	mv	a0,a5
   244ec:	01813083          	ld	ra,24(sp)
   244f0:	01013403          	ld	s0,16(sp)
   244f4:	02010113          	addi	sp,sp,32
   244f8:	00008067          	ret

00000000000244fc <uart_recv>:
   244fc:	fe010113          	addi	sp,sp,-32
   24500:	00113c23          	sd	ra,24(sp)
   24504:	00813823          	sd	s0,16(sp)
   24508:	02010413          	addi	s0,sp,32
   2450c:	025007b7          	lui	a5,0x2500
   24510:	fef43423          	sd	a5,-24(s0)
   24514:	00000013          	nop
   24518:	fe843783          	ld	a5,-24(s0)
   2451c:	07c78793          	addi	a5,a5,124 # 250007c <_ebss+0x24d8e64>
   24520:	00078513          	mv	a0,a5
   24524:	c7dff0ef          	jal	ra,241a0 <read32>
   24528:	00050793          	mv	a5,a0
   2452c:	0007879b          	sext.w	a5,a5
   24530:	0087f793          	andi	a5,a5,8
   24534:	0007879b          	sext.w	a5,a5
   24538:	fe0780e3          	beqz	a5,24518 <uart_recv+0x1c>
   2453c:	fe843503          	ld	a0,-24(s0)
   24540:	c35ff0ef          	jal	ra,24174 <read8>
   24544:	00050793          	mv	a5,a0
   24548:	00078513          	mv	a0,a5
   2454c:	01813083          	ld	ra,24(sp)
   24550:	01013403          	ld	s0,16(sp)
   24554:	02010113          	addi	sp,sp,32
   24558:	00008067          	ret

000000000002455c <uart_send_string>:
   2455c:	fd010113          	addi	sp,sp,-48
   24560:	02113423          	sd	ra,40(sp)
   24564:	02813023          	sd	s0,32(sp)
   24568:	03010413          	addi	s0,sp,48
   2456c:	fca43c23          	sd	a0,-40(s0)
   24570:	fe042623          	sw	zero,-20(s0)
   24574:	04c0006f          	j	245c0 <uart_send_string+0x64>
   24578:	fec42783          	lw	a5,-20(s0)
   2457c:	fd843703          	ld	a4,-40(s0)
   24580:	00f707b3          	add	a5,a4,a5
   24584:	0007c783          	lbu	a5,0(a5)
   24588:	00078713          	mv	a4,a5
   2458c:	00a00793          	li	a5,10
   24590:	00f71663          	bne	a4,a5,2459c <uart_send_string+0x40>
   24594:	00d00513          	li	a0,13
   24598:	eb5ff0ef          	jal	ra,2444c <uart_send>
   2459c:	fec42783          	lw	a5,-20(s0)
   245a0:	fd843703          	ld	a4,-40(s0)
   245a4:	00f707b3          	add	a5,a4,a5
   245a8:	0007c783          	lbu	a5,0(a5)
   245ac:	00078513          	mv	a0,a5
   245b0:	e9dff0ef          	jal	ra,2444c <uart_send>
   245b4:	fec42783          	lw	a5,-20(s0)
   245b8:	0017879b          	addiw	a5,a5,1
   245bc:	fef42623          	sw	a5,-20(s0)
   245c0:	fec42783          	lw	a5,-20(s0)
   245c4:	fd843703          	ld	a4,-40(s0)
   245c8:	00f707b3          	add	a5,a4,a5
   245cc:	0007c783          	lbu	a5,0(a5)
   245d0:	fa0794e3          	bnez	a5,24578 <uart_send_string+0x1c>
   245d4:	00000013          	nop
   245d8:	00000013          	nop
   245dc:	02813083          	ld	ra,40(sp)
   245e0:	02013403          	ld	s0,32(sp)
   245e4:	03010113          	addi	sp,sp,48
   245e8:	00008067          	ret

00000000000245ec <vpf_str_to_num>:
   245ec:	fc010113          	addi	sp,sp,-64
   245f0:	02813c23          	sd	s0,56(sp)
   245f4:	04010413          	addi	s0,sp,64
   245f8:	fca43423          	sd	a0,-56(s0)
   245fc:	fcb43023          	sd	a1,-64(s0)
   24600:	fe042223          	sw	zero,-28(s0)
   24604:	fc843783          	ld	a5,-56(s0)
   24608:	fef43423          	sd	a5,-24(s0)
   2460c:	0900006f          	j	2469c <vpf_str_to_num+0xb0>
   24610:	fe843783          	ld	a5,-24(s0)
   24614:	0007c783          	lbu	a5,0(a5)
   24618:	00078713          	mv	a4,a5
   2461c:	02f00793          	li	a5,47
   24620:	02e7f063          	bgeu	a5,a4,24640 <vpf_str_to_num+0x54>
   24624:	fe843783          	ld	a5,-24(s0)
   24628:	0007c783          	lbu	a5,0(a5)
   2462c:	00078713          	mv	a4,a5
   24630:	03900793          	li	a5,57
   24634:	00e7e663          	bltu	a5,a4,24640 <vpf_str_to_num+0x54>
   24638:	00100793          	li	a5,1
   2463c:	0080006f          	j	24644 <vpf_str_to_num+0x58>
   24640:	00000793          	li	a5,0
   24644:	fef42023          	sw	a5,-32(s0)
   24648:	fe042783          	lw	a5,-32(s0)
   2464c:	0007879b          	sext.w	a5,a5
   24650:	04078e63          	beqz	a5,246ac <vpf_str_to_num+0xc0>
   24654:	fe843783          	ld	a5,-24(s0)
   24658:	0007c783          	lbu	a5,0(a5)
   2465c:	0007879b          	sext.w	a5,a5
   24660:	fd07879b          	addiw	a5,a5,-48
   24664:	fcf42e23          	sw	a5,-36(s0)
   24668:	fe442703          	lw	a4,-28(s0)
   2466c:	00070793          	mv	a5,a4
   24670:	0027979b          	slliw	a5,a5,0x2
   24674:	00e787bb          	addw	a5,a5,a4
   24678:	0017979b          	slliw	a5,a5,0x1
   2467c:	fef42223          	sw	a5,-28(s0)
   24680:	fe442703          	lw	a4,-28(s0)
   24684:	fdc42783          	lw	a5,-36(s0)
   24688:	00f707bb          	addw	a5,a4,a5
   2468c:	fef42223          	sw	a5,-28(s0)
   24690:	fe843783          	ld	a5,-24(s0)
   24694:	00178793          	addi	a5,a5,1
   24698:	fef43423          	sd	a5,-24(s0)
   2469c:	fc843783          	ld	a5,-56(s0)
   246a0:	0007c783          	lbu	a5,0(a5)
   246a4:	f60796e3          	bnez	a5,24610 <vpf_str_to_num+0x24>
   246a8:	0080006f          	j	246b0 <vpf_str_to_num+0xc4>
   246ac:	00000013          	nop
   246b0:	fc043783          	ld	a5,-64(s0)
   246b4:	fe442703          	lw	a4,-28(s0)
   246b8:	00e7a023          	sw	a4,0(a5)
   246bc:	fe843703          	ld	a4,-24(s0)
   246c0:	fc843783          	ld	a5,-56(s0)
   246c4:	40f707b3          	sub	a5,a4,a5
   246c8:	0007879b          	sext.w	a5,a5
   246cc:	00078513          	mv	a0,a5
   246d0:	03813403          	ld	s0,56(sp)
   246d4:	04010113          	addi	sp,sp,64
   246d8:	00008067          	ret

00000000000246dc <vpf_num_to_str>:
   246dc:	fb010113          	addi	sp,sp,-80
   246e0:	04113423          	sd	ra,72(sp)
   246e4:	04813023          	sd	s0,64(sp)
   246e8:	05010413          	addi	s0,sp,80
   246ec:	00050793          	mv	a5,a0
   246f0:	00068713          	mv	a4,a3
   246f4:	faf42e23          	sw	a5,-68(s0)
   246f8:	00058793          	mv	a5,a1
   246fc:	faf42c23          	sw	a5,-72(s0)
   24700:	00060793          	mv	a5,a2
   24704:	faf42a23          	sw	a5,-76(s0)
   24708:	00070793          	mv	a5,a4
   2470c:	faf42823          	sw	a5,-80(s0)
   24710:	fe042223          	sw	zero,-28(s0)
   24714:	0280006f          	j	2473c <vpf_num_to_str+0x60>
   24718:	fb042783          	lw	a5,-80(s0)
   2471c:	0ff7f713          	andi	a4,a5,255
   24720:	fe442783          	lw	a5,-28(s0)
   24724:	ff040693          	addi	a3,s0,-16
   24728:	00f687b3          	add	a5,a3,a5
   2472c:	fce78823          	sb	a4,-48(a5)
   24730:	fe442783          	lw	a5,-28(s0)
   24734:	0017879b          	addiw	a5,a5,1
   24738:	fef42223          	sw	a5,-28(s0)
   2473c:	fe442783          	lw	a5,-28(s0)
   24740:	00078713          	mv	a4,a5
   24744:	01f00793          	li	a5,31
   24748:	fce7f8e3          	bgeu	a5,a4,24718 <vpf_num_to_str+0x3c>
   2474c:	00a00793          	li	a5,10
   24750:	fef42623          	sw	a5,-20(s0)
   24754:	fb842783          	lw	a5,-72(s0)
   24758:	0007879b          	sext.w	a5,a5
   2475c:	00078663          	beqz	a5,24768 <vpf_num_to_str+0x8c>
   24760:	01000793          	li	a5,16
   24764:	fef42623          	sw	a5,-20(s0)
   24768:	fe042423          	sw	zero,-24(s0)
   2476c:	fbc42703          	lw	a4,-68(s0)
   24770:	fec42783          	lw	a5,-20(s0)
   24774:	02f777bb          	remuw	a5,a4,a5
   24778:	0007879b          	sext.w	a5,a5
   2477c:	fef42023          	sw	a5,-32(s0)
   24780:	fe042783          	lw	a5,-32(s0)
   24784:	0007871b          	sext.w	a4,a5
   24788:	00900793          	li	a5,9
   2478c:	02e7d463          	bge	a5,a4,247b4 <vpf_num_to_str+0xd8>
   24790:	fe042783          	lw	a5,-32(s0)
   24794:	0ff7f793          	andi	a5,a5,255
   24798:	0577879b          	addiw	a5,a5,87
   2479c:	0ff7f713          	andi	a4,a5,255
   247a0:	fe842783          	lw	a5,-24(s0)
   247a4:	ff040693          	addi	a3,s0,-16
   247a8:	00f687b3          	add	a5,a3,a5
   247ac:	fce78823          	sb	a4,-48(a5)
   247b0:	0240006f          	j	247d4 <vpf_num_to_str+0xf8>
   247b4:	fe042783          	lw	a5,-32(s0)
   247b8:	0ff7f793          	andi	a5,a5,255
   247bc:	0307879b          	addiw	a5,a5,48
   247c0:	0ff7f713          	andi	a4,a5,255
   247c4:	fe842783          	lw	a5,-24(s0)
   247c8:	ff040693          	addi	a3,s0,-16
   247cc:	00f687b3          	add	a5,a3,a5
   247d0:	fce78823          	sb	a4,-48(a5)
   247d4:	fbc42703          	lw	a4,-68(s0)
   247d8:	fec42783          	lw	a5,-20(s0)
   247dc:	02f757bb          	divuw	a5,a4,a5
   247e0:	faf42e23          	sw	a5,-68(s0)
   247e4:	fe842783          	lw	a5,-24(s0)
   247e8:	0017879b          	addiw	a5,a5,1
   247ec:	fef42423          	sw	a5,-24(s0)
   247f0:	fbc42783          	lw	a5,-68(s0)
   247f4:	0007879b          	sext.w	a5,a5
   247f8:	f6079ae3          	bnez	a5,2476c <vpf_num_to_str+0x90>
   247fc:	fb442783          	lw	a5,-76(s0)
   24800:	0007879b          	sext.w	a5,a5
   24804:	02f05c63          	blez	a5,2483c <vpf_num_to_str+0x160>
   24808:	fb442783          	lw	a5,-76(s0)
   2480c:	00078713          	mv	a4,a5
   24810:	01f00793          	li	a5,31
   24814:	00e7f663          	bgeu	a5,a4,24820 <vpf_num_to_str+0x144>
   24818:	01f00793          	li	a5,31
   2481c:	faf42a23          	sw	a5,-76(s0)
   24820:	fe842703          	lw	a4,-24(s0)
   24824:	fb442783          	lw	a5,-76(s0)
   24828:	0007071b          	sext.w	a4,a4
   2482c:	0007879b          	sext.w	a5,a5
   24830:	00f75663          	bge	a4,a5,2483c <vpf_num_to_str+0x160>
   24834:	fb442783          	lw	a5,-76(s0)
   24838:	fef42423          	sw	a5,-24(s0)
   2483c:	fe842783          	lw	a5,-24(s0)
   24840:	ff040713          	addi	a4,s0,-16
   24844:	00f707b3          	add	a5,a4,a5
   24848:	fc078823          	sb	zero,-48(a5)
   2484c:	fe842783          	lw	a5,-24(s0)
   24850:	fff7879b          	addiw	a5,a5,-1
   24854:	fef42223          	sw	a5,-28(s0)
   24858:	0280006f          	j	24880 <vpf_num_to_str+0x1a4>
   2485c:	fe442783          	lw	a5,-28(s0)
   24860:	ff040713          	addi	a4,s0,-16
   24864:	00f707b3          	add	a5,a4,a5
   24868:	fd07c783          	lbu	a5,-48(a5)
   2486c:	00078513          	mv	a0,a5
   24870:	bddff0ef          	jal	ra,2444c <uart_send>
   24874:	fe442783          	lw	a5,-28(s0)
   24878:	fff7879b          	addiw	a5,a5,-1
   2487c:	fef42223          	sw	a5,-28(s0)
   24880:	fe442783          	lw	a5,-28(s0)
   24884:	0007879b          	sext.w	a5,a5
   24888:	fc07dae3          	bgez	a5,2485c <vpf_num_to_str+0x180>
   2488c:	00000013          	nop
   24890:	00000013          	nop
   24894:	04813083          	ld	ra,72(sp)
   24898:	04013403          	ld	s0,64(sp)
   2489c:	05010113          	addi	sp,sp,80
   248a0:	00008067          	ret

00000000000248a4 <vpf>:
   248a4:	fb010113          	addi	sp,sp,-80
   248a8:	04113423          	sd	ra,72(sp)
   248ac:	04813023          	sd	s0,64(sp)
   248b0:	05010413          	addi	s0,sp,80
   248b4:	faa43c23          	sd	a0,-72(s0)
   248b8:	fab43823          	sd	a1,-80(s0)
   248bc:	02000793          	li	a5,32
   248c0:	fcf42a23          	sw	a5,-44(s0)
   248c4:	fb843783          	ld	a5,-72(s0)
   248c8:	fef43423          	sd	a5,-24(s0)
   248cc:	1880006f          	j	24a54 <vpf+0x1b0>
   248d0:	fc042e23          	sw	zero,-36(s0)
   248d4:	fc042223          	sw	zero,-60(s0)
   248d8:	fe843783          	ld	a5,-24(s0)
   248dc:	0007c783          	lbu	a5,0(a5)
   248e0:	fcf42823          	sw	a5,-48(s0)
   248e4:	fe843783          	ld	a5,-24(s0)
   248e8:	fef43023          	sd	a5,-32(s0)
   248ec:	fe843783          	ld	a5,-24(s0)
   248f0:	0007c783          	lbu	a5,0(a5)
   248f4:	00078713          	mv	a4,a5
   248f8:	02500793          	li	a5,37
   248fc:	06f71863          	bne	a4,a5,2496c <vpf+0xc8>
   24900:	fe843783          	ld	a5,-24(s0)
   24904:	fef43023          	sd	a5,-32(s0)
   24908:	fe843783          	ld	a5,-24(s0)
   2490c:	00178793          	addi	a5,a5,1
   24910:	fef43423          	sd	a5,-24(s0)
   24914:	fe843783          	ld	a5,-24(s0)
   24918:	0007c783          	lbu	a5,0(a5)
   2491c:	00078713          	mv	a4,a5
   24920:	02f00793          	li	a5,47
   24924:	02e7fe63          	bgeu	a5,a4,24960 <vpf+0xbc>
   24928:	fe843783          	ld	a5,-24(s0)
   2492c:	0007c783          	lbu	a5,0(a5)
   24930:	00078713          	mv	a4,a5
   24934:	03900793          	li	a5,57
   24938:	02e7e463          	bltu	a5,a4,24960 <vpf+0xbc>
   2493c:	fc440793          	addi	a5,s0,-60
   24940:	00078593          	mv	a1,a5
   24944:	fe843503          	ld	a0,-24(s0)
   24948:	ca5ff0ef          	jal	ra,245ec <vpf_str_to_num>
   2494c:	00050793          	mv	a5,a0
   24950:	00078713          	mv	a4,a5
   24954:	fe843783          	ld	a5,-24(s0)
   24958:	00e787b3          	add	a5,a5,a4
   2495c:	fef43423          	sd	a5,-24(s0)
   24960:	fe843783          	ld	a5,-24(s0)
   24964:	0007c783          	lbu	a5,0(a5)
   24968:	fcf42e23          	sw	a5,-36(s0)
   2496c:	fdc42783          	lw	a5,-36(s0)
   24970:	0007871b          	sext.w	a4,a5
   24974:	06400793          	li	a5,100
   24978:	00f70a63          	beq	a4,a5,2498c <vpf+0xe8>
   2497c:	fdc42783          	lw	a5,-36(s0)
   24980:	0007871b          	sext.w	a4,a5
   24984:	07800793          	li	a5,120
   24988:	04f71863          	bne	a4,a5,249d8 <vpf+0x134>
   2498c:	fb043783          	ld	a5,-80(s0)
   24990:	00878713          	addi	a4,a5,8
   24994:	fae43823          	sd	a4,-80(s0)
   24998:	0007a783          	lw	a5,0(a5)
   2499c:	fcf42423          	sw	a5,-56(s0)
   249a0:	fc842503          	lw	a0,-56(s0)
   249a4:	fdc42783          	lw	a5,-36(s0)
   249a8:	0007871b          	sext.w	a4,a5
   249ac:	07800793          	li	a5,120
   249b0:	40f707b3          	sub	a5,a4,a5
   249b4:	0017b793          	seqz	a5,a5
   249b8:	0ff7f793          	andi	a5,a5,255
   249bc:	0007879b          	sext.w	a5,a5
   249c0:	fc442703          	lw	a4,-60(s0)
   249c4:	fd442683          	lw	a3,-44(s0)
   249c8:	00070613          	mv	a2,a4
   249cc:	00078593          	mv	a1,a5
   249d0:	d0dff0ef          	jal	ra,246dc <vpf_num_to_str>
   249d4:	0740006f          	j	24a48 <vpf+0x1a4>
   249d8:	fc042c23          	sw	zero,-40(s0)
   249dc:	0280006f          	j	24a04 <vpf+0x160>
   249e0:	fd842783          	lw	a5,-40(s0)
   249e4:	fe043703          	ld	a4,-32(s0)
   249e8:	00f707b3          	add	a5,a4,a5
   249ec:	0007c783          	lbu	a5,0(a5)
   249f0:	00078513          	mv	a0,a5
   249f4:	a59ff0ef          	jal	ra,2444c <uart_send>
   249f8:	fd842783          	lw	a5,-40(s0)
   249fc:	0017879b          	addiw	a5,a5,1
   24a00:	fcf42c23          	sw	a5,-40(s0)
   24a04:	fd842703          	lw	a4,-40(s0)
   24a08:	fe843683          	ld	a3,-24(s0)
   24a0c:	fe043783          	ld	a5,-32(s0)
   24a10:	40f687b3          	sub	a5,a3,a5
   24a14:	fcf746e3          	blt	a4,a5,249e0 <vpf+0x13c>
   24a18:	fdc42783          	lw	a5,-36(s0)
   24a1c:	0007879b          	sext.w	a5,a5
   24a20:	00078863          	beqz	a5,24a30 <vpf+0x18c>
   24a24:	fdc42783          	lw	a5,-36(s0)
   24a28:	0ff7f793          	andi	a5,a5,255
   24a2c:	00c0006f          	j	24a38 <vpf+0x194>
   24a30:	fd042783          	lw	a5,-48(s0)
   24a34:	0ff7f793          	andi	a5,a5,255
   24a38:	fcf407a3          	sb	a5,-49(s0)
   24a3c:	fcf44783          	lbu	a5,-49(s0)
   24a40:	00078513          	mv	a0,a5
   24a44:	a09ff0ef          	jal	ra,2444c <uart_send>
   24a48:	fe843783          	ld	a5,-24(s0)
   24a4c:	00178793          	addi	a5,a5,1
   24a50:	fef43423          	sd	a5,-24(s0)
   24a54:	fe843783          	ld	a5,-24(s0)
   24a58:	0007c783          	lbu	a5,0(a5)
   24a5c:	e6079ae3          	bnez	a5,248d0 <vpf+0x2c>
   24a60:	00000793          	li	a5,0
   24a64:	00078513          	mv	a0,a5
   24a68:	04813083          	ld	ra,72(sp)
   24a6c:	04013403          	ld	s0,64(sp)
   24a70:	05010113          	addi	sp,sp,80
   24a74:	00008067          	ret

0000000000024a78 <sys_uart_printf>:
   24a78:	f9010113          	addi	sp,sp,-112
   24a7c:	02113423          	sd	ra,40(sp)
   24a80:	02813023          	sd	s0,32(sp)
   24a84:	03010413          	addi	s0,sp,48
   24a88:	fca43c23          	sd	a0,-40(s0)
   24a8c:	00b43423          	sd	a1,8(s0)
   24a90:	00c43823          	sd	a2,16(s0)
   24a94:	00d43c23          	sd	a3,24(s0)
   24a98:	02e43023          	sd	a4,32(s0)
   24a9c:	02f43423          	sd	a5,40(s0)
   24aa0:	03043823          	sd	a6,48(s0)
   24aa4:	03143c23          	sd	a7,56(s0)
   24aa8:	04040793          	addi	a5,s0,64
   24aac:	fcf43823          	sd	a5,-48(s0)
   24ab0:	fd043783          	ld	a5,-48(s0)
   24ab4:	fc878793          	addi	a5,a5,-56
   24ab8:	fef43423          	sd	a5,-24(s0)
   24abc:	fe843783          	ld	a5,-24(s0)
   24ac0:	00078593          	mv	a1,a5
   24ac4:	fd843503          	ld	a0,-40(s0)
   24ac8:	dddff0ef          	jal	ra,248a4 <vpf>
   24acc:	00000793          	li	a5,0
   24ad0:	00078513          	mv	a0,a5
   24ad4:	02813083          	ld	ra,40(sp)
   24ad8:	02013403          	ld	s0,32(sp)
   24adc:	07010113          	addi	sp,sp,112
   24ae0:	00008067          	ret

0000000000024ae4 <print_hex>:
   24ae4:	fd010113          	addi	sp,sp,-48
   24ae8:	02113423          	sd	ra,40(sp)
   24aec:	02813023          	sd	s0,32(sp)
   24af0:	03010413          	addi	s0,sp,48
   24af4:	00050793          	mv	a5,a0
   24af8:	fcf42e23          	sw	a5,-36(s0)
   24afc:	03000513          	li	a0,48
   24b00:	94dff0ef          	jal	ra,2444c <uart_send>
   24b04:	07800513          	li	a0,120
   24b08:	945ff0ef          	jal	ra,2444c <uart_send>
   24b0c:	00700793          	li	a5,7
   24b10:	fef42623          	sw	a5,-20(s0)
   24b14:	07c0006f          	j	24b90 <print_hex+0xac>
   24b18:	fec42783          	lw	a5,-20(s0)
   24b1c:	0027979b          	slliw	a5,a5,0x2
   24b20:	0007879b          	sext.w	a5,a5
   24b24:	00078713          	mv	a4,a5
   24b28:	fdc42783          	lw	a5,-36(s0)
   24b2c:	00e7d7bb          	srlw	a5,a5,a4
   24b30:	0007879b          	sext.w	a5,a5
   24b34:	0007879b          	sext.w	a5,a5
   24b38:	00f7f793          	andi	a5,a5,15
   24b3c:	fef42423          	sw	a5,-24(s0)
   24b40:	fe842783          	lw	a5,-24(s0)
   24b44:	0007871b          	sext.w	a4,a5
   24b48:	00900793          	li	a5,9
   24b4c:	02e7c063          	blt	a5,a4,24b6c <print_hex+0x88>
   24b50:	fe842783          	lw	a5,-24(s0)
   24b54:	0ff7f793          	andi	a5,a5,255
   24b58:	0307879b          	addiw	a5,a5,48
   24b5c:	0ff7f793          	andi	a5,a5,255
   24b60:	00078513          	mv	a0,a5
   24b64:	8e9ff0ef          	jal	ra,2444c <uart_send>
   24b68:	01c0006f          	j	24b84 <print_hex+0xa0>
   24b6c:	fe842783          	lw	a5,-24(s0)
   24b70:	0ff7f793          	andi	a5,a5,255
   24b74:	0377879b          	addiw	a5,a5,55
   24b78:	0ff7f793          	andi	a5,a5,255
   24b7c:	00078513          	mv	a0,a5
   24b80:	8cdff0ef          	jal	ra,2444c <uart_send>
   24b84:	fec42783          	lw	a5,-20(s0)
   24b88:	fff7879b          	addiw	a5,a5,-1
   24b8c:	fef42623          	sw	a5,-20(s0)
   24b90:	fec42783          	lw	a5,-20(s0)
   24b94:	0007879b          	sext.w	a5,a5
   24b98:	f807d0e3          	bgez	a5,24b18 <print_hex+0x34>
   24b9c:	00000013          	nop
   24ba0:	00000013          	nop
   24ba4:	02813083          	ld	ra,40(sp)
   24ba8:	02013403          	ld	s0,32(sp)
   24bac:	03010113          	addi	sp,sp,48
   24bb0:	00008067          	ret
   24bb4:	0000                	unimp
	...

0000000000024bb8 <my_test_data>:
   24bb8:	abcd                	j	251aa <__func__.0+0x92>
   24bba:	abcd                	j	251ac <__func__.0+0x94>
   24bbc:	5678                	lw	a4,108(a2)
   24bbe:	1234                	addi	a3,sp,296

0000000000024bc0 <load_store_test>:
   24bc0:	000212b7          	lui	t0,0x21
   24bc4:	00028303          	lb	t1,0(t0) # 21000 <_start-0x1000>
   24bc8:	00428303          	lb	t1,4(t0)
   24bcc:	ffc28303          	lb	t1,-4(t0)
   24bd0:	0002b303          	ld	t1,0(t0)
   24bd4:	00428303          	lb	t1,4(t0)
   24bd8:	00000297          	auipc	t0,0x0
   24bdc:	fe028293          	addi	t0,t0,-32 # 24bb8 <my_test_data>
   24be0:	00000317          	auipc	t1,0x0
   24be4:	fd830313          	addi	t1,t1,-40 # 24bb8 <my_test_data>
   24be8:	802002b7          	lui	t0,0x80200
   24bec:	40200337          	lui	t1,0x40200
   24bf0:	00008067          	ret

0000000000024bf4 <shift_test>:
   24bf4:	c00002b7          	lui	t0,0xc0000
   24bf8:	0452829b          	addiw	t0,t0,69
   24bfc:	02129293          	slli	t0,t0,0x21
   24c00:	4012d593          	srai	a1,t0,0x1
   24c04:	0012d313          	srli	t1,t0,0x1
   24c08:	0250029b          	addiw	t0,zero,37
   24c0c:	01f29293          	slli	t0,t0,0x1f
   24c10:	08a28293          	addi	t0,t0,138 # ffffffffc000008a <_ebss+0xffffffffbffd8e72>
   24c14:	4012d61b          	sraiw	a2,t0,0x1
   24c18:	0012d31b          	srliw	t1,t0,0x1
   24c1c:	0012969b          	slliw	a3,t0,0x1
   24c20:	0490029b          	addiw	t0,zero,73
   24c24:	01e29293          	slli	t0,t0,0x1e
   24c28:	08a28293          	addi	t0,t0,138
   24c2c:	4012d61b          	sraiw	a2,t0,0x1
   24c30:	0012d31b          	srliw	t1,t0,0x1
   24c34:	0012971b          	slliw	a4,t0,0x1
   24c38:	00008067          	ret

0000000000024c3c <add_sub_test>:
   24c3c:	80028593          	addi	a1,t0,-2048
   24c40:	000012b7          	lui	t0,0x1
   24c44:	a012829b          	addiw	t0,t0,-1535
   24c48:	01529293          	slli	t0,t0,0x15
   24c4c:	40000337          	lui	t1,0x40000
   24c50:	70028593          	addi	a1,t0,1792 # 1700 <_start-0x20900>
   24c54:	80028593          	addi	a1,t0,-2048
   24c58:	0802861b          	addiw	a2,t0,128
   24c5c:	006286b3          	add	a3,t0,t1
   24c60:	0062873b          	addw	a4,t0,t1
   24c64:	000012b7          	lui	t0,0x1
   24c68:	c012829b          	addiw	t0,t0,-1023
   24c6c:	01529293          	slli	t0,t0,0x15
   24c70:	00200337          	lui	t1,0x200
   24c74:	40628533          	sub	a0,t0,t1
   24c78:	406285bb          	subw	a1,t0,t1
   24c7c:	00008067          	ret

0000000000024c80 <add_test>:
   24c80:	00b50533          	add	a0,a0,a1
   24c84:	00000013          	nop
   24c88:	00008067          	ret

0000000000024c8c <branch_test>:
   24c8c:	ff810113          	addi	sp,sp,-8
   24c90:	00113023          	sd	ra,0(sp)
   24c94:	00100513          	li	a0,1
   24c98:	00200593          	li	a1,2
   24c9c:	fe5ff0ef          	jal	ra,24c80 <add_test>
   24ca0:	00000013          	nop
   24ca4:	00013083          	ld	ra,0(sp)
   24ca8:	00810113          	addi	sp,sp,8
   24cac:	00008067          	ret

0000000000024cb0 <my_memcpy_test>:
   24cb0:	000202b7          	lui	t0,0x20
   24cb4:	00021337          	lui	t1,0x21
   24cb8:	02028393          	addi	t2,t0,32 # 20020 <_start-0x1fe0>

0000000000024cbc <.loop>:
   24cbc:	0002be03          	ld	t3,0(t0)
   24cc0:	01c33023          	sd	t3,0(t1) # 21000 <_start-0x1000>
   24cc4:	00828293          	addi	t0,t0,8
   24cc8:	00830313          	addi	t1,t1,8
   24ccc:	fe72c8e3          	blt	t0,t2,24cbc <.loop>
   24cd0:	00008067          	ret

0000000000024cd4 <compare_and_return>:
   24cd4:	00b56663          	bltu	a0,a1,24ce0 <compare_and_return+0xc>
   24cd8:	00000793          	li	a5,0
   24cdc:	0080006f          	j	24ce4 <compare_and_return+0x10>
   24ce0:	fff00793          	li	a5,-1
   24ce4:	00078513          	mv	a0,a5
   24ce8:	00008067          	ret

0000000000024cec <sel_test>:
   24cec:	00050663          	beqz	a0,24cf8 <sel_test+0xc>
   24cf0:	fff58793          	addi	a5,a1,-1
   24cf4:	0080006f          	j	24cfc <sel_test+0x10>
   24cf8:	00258793          	addi	a5,a1,2
   24cfc:	00078513          	mv	a0,a5
   24d00:	00008067          	ret

0000000000024d04 <bl_test>:
   24d04:	ff010113          	addi	sp,sp,-16
   24d08:	00113423          	sd	ra,8(sp)
   24d0c:	fe1ff0ef          	jal	ra,24cec <sel_test>
   24d10:	00813083          	ld	ra,8(sp)
   24d14:	01010113          	addi	sp,sp,16
   24d18:	00008067          	ret
   24d1c:	00000013          	nop

0000000000024d20 <func_addr>:
   24d20:	0800                	addi	s0,sp,16
   24d22:	0080                	addi	s0,sp,64
   24d24:	0000                	unimp
   24d26:	0000                	unimp
   24d28:	0860                	addi	s0,sp,28
   24d2a:	0080                	addi	s0,sp,64
   24d2c:	0000                	unimp
   24d2e:	0000                	unimp
   24d30:	0880                	addi	s0,sp,80
   24d32:	0080                	addi	s0,sp,64
   24d34:	0000                	unimp
	...

0000000000024d38 <func_string>:
   24d38:	7566                	ld	a0,120(sp)
   24d3a:	636e                	ld	t1,216(sp)
   24d3c:	615f 6600 6e75      	0x6e756600615f
   24d42:	00625f63          	bge	tp,t1,24d60 <op_2>
   24d46:	7566                	ld	a0,120(sp)
   24d48:	636e                	ld	t1,216(sp)
   24d4a:	635f 0100 0000      	0x100635f

0000000000024d50 <func_num_syms>:
   24d50:	00000003          	lb	zero,0(zero) # 0 <_start-0x22000>
   24d54:	0000                	unimp
	...

0000000000024d58 <op_1>:
   24d58:	00b50533          	add	a0,a0,a1
   24d5c:	00008067          	ret

0000000000024d60 <op_2>:
   24d60:	40b50533          	sub	a0,a0,a1
   24d64:	00008067          	ret

0000000000024d68 <macro_test_1>:
   24d68:	ff010113          	addi	sp,sp,-16
   24d6c:	00113423          	sd	ra,8(sp)
   24d70:	00050293          	mv	t0,a0
   24d74:	00058313          	mv	t1,a1
   24d78:	00028513          	mv	a0,t0
   24d7c:	00030593          	mv	a1,t1
   24d80:	fd9ff0ef          	jal	ra,24d58 <op_1>
   24d84:	00813083          	ld	ra,8(sp)
   24d88:	01010113          	addi	sp,sp,16
   24d8c:	00008067          	ret

0000000000024d90 <macro_test_2>:
   24d90:	ff010113          	addi	sp,sp,-16
   24d94:	00113423          	sd	ra,8(sp)
   24d98:	00050293          	mv	t0,a0
   24d9c:	00058313          	mv	t1,a1
   24da0:	00028513          	mv	a0,t0
   24da4:	00030593          	mv	a1,t1
   24da8:	fb9ff0ef          	jal	ra,24d60 <op_2>
   24dac:	00813083          	ld	ra,8(sp)
   24db0:	01010113          	addi	sp,sp,16
   24db4:	00008067          	ret
	...

0000000000024dc0 <__init_uart>:
   24dc0:	020002b7          	lui	t0,0x2000
   24dc4:	0f02829b          	addiw	t0,t0,240
   24dc8:	0002a303          	lw	t1,0(t0) # 2000000 <_ebss+0x1fd8de8>
   24dcc:	fff0f3b7          	lui	t2,0xfff0f
   24dd0:	0ff3839b          	addiw	t2,t2,255
   24dd4:	00737333          	and	t1,t1,t2
   24dd8:	000303b7          	lui	t2,0x30
   24ddc:	3003839b          	addiw	t2,t2,768
   24de0:	00736333          	or	t1,t1,t2
   24de4:	0062a023          	sw	t1,0(t0)
   24de8:	020022b7          	lui	t0,0x2002
   24dec:	90c2829b          	addiw	t0,t0,-1780
   24df0:	0002a303          	lw	t1,0(t0) # 2002000 <_ebss+0x1fdade8>
   24df4:	00136313          	ori	t1,t1,1
   24df8:	0062a023          	sw	t1,0(t0)
   24dfc:	020022b7          	lui	t0,0x2002
   24e00:	90c2829b          	addiw	t0,t0,-1780
   24e04:	0002a303          	lw	t1,0(t0) # 2002000 <_ebss+0x1fdade8>
   24e08:	000103b7          	lui	t2,0x10
   24e0c:	00736333          	or	t1,t1,t2
   24e10:	0062a023          	sw	t1,0(t0)
   24e14:	025002b7          	lui	t0,0x2500
   24e18:	0002a223          	sw	zero,4(t0) # 2500004 <_ebss+0x24d8dec>
   24e1c:	0f700313          	li	t1,247
   24e20:	0062a423          	sw	t1,8(t0)
   24e24:	0002a823          	sw	zero,16(t0)
   24e28:	00c2a303          	lw	t1,12(t0)
   24e2c:	08036313          	ori	t1,t1,128
   24e30:	0062a623          	sw	t1,12(t0)
   24e34:	00d00393          	li	t2,13
   24e38:	0072a023          	sw	t2,0(t0)
   24e3c:	00000393          	li	t2,0
   24e40:	0072a223          	sw	t2,4(t0)
   24e44:	08034313          	xori	t1,t1,128
   24e48:	0062a623          	sw	t1,12(t0)
   24e4c:	00c2a303          	lw	t1,12(t0)
   24e50:	ff000393          	li	t2,-16
   24e54:	00737333          	and	t1,t1,t2
   24e58:	00300393          	li	t2,3
   24e5c:	00736333          	or	t1,t1,t2
   24e60:	0062a623          	sw	t1,12(t0)
   24e64:	00008067          	ret

0000000000024e68 <put_uart>:
   24e68:	025002b7          	lui	t0,0x2500

0000000000024e6c <.loop>:
   24e6c:	07c2a303          	lw	t1,124(t0) # 250007c <_ebss+0x24d8e64>
   24e70:	00237313          	andi	t1,t1,2
   24e74:	fe030ce3          	beqz	t1,24e6c <.loop>
   24e78:	00a28023          	sb	a0,0(t0)
   24e7c:	00008067          	ret

0000000000024e80 <put_string_uart>:
   24e80:	00008c13          	mv	s8,ra
   24e84:	00050793          	mv	a5,a0

0000000000024e88 <.loop1>:
   24e88:	0007c503          	lbu	a0,0(a5)
   24e8c:	00050863          	beqz	a0,24e9c <.loop1+0x14>
   24e90:	fd9ff0ef          	jal	ra,24e68 <put_uart>
   24e94:	00178793          	addi	a5,a5,1
   24e98:	ff1ff06f          	j	24e88 <.loop1>
   24e9c:	000c0093          	mv	ra,s8
   24ea0:	00008067          	ret

0000000000024ea4 <__memset_16bytes_asm>:
   24ea4:	00000293          	li	t0,0

0000000000024ea8 <.loop>:
   24ea8:	00b53023          	sd	a1,0(a0) # 2001000 <_ebss+0x1fd9de8>
   24eac:	00b53423          	sd	a1,8(a0)
   24eb0:	01028293          	addi	t0,t0,16
   24eb4:	fec2cae3          	blt	t0,a2,24ea8 <.loop>
   24eb8:	00008067          	ret

Disassembly of section .rodata:

0000000000024ec0 <__func__.0-0x258>:
   24ec0:	303c                	fld	fa5,96(s0)
   24ec2:	2578                	fld	fa4,200(a0)
   24ec4:	786c                	ld	a1,240(s0)
   24ec6:	203e                	fld	ft0,456(sp)
   24ec8:	7325                	lui	t1,0xfffe9
   24eca:	000a                	c.slli	zero,0x2
   24ecc:	0000                	unimp
   24ece:	0000                	unimp
   24ed0:	6574                	ld	a3,200(a0)
   24ed2:	61207473          	csrrci	s0,0x612,0
   24ed6:	646e                	ld	s0,216(sp)
   24ed8:	203a                	fld	ft0,392(sp)
   24eda:	3d70                	fld	fa2,248(a0)
   24edc:	7830                	ld	a2,112(s0)
   24ede:	7825                	lui	a6,0xfffe9
   24ee0:	000a                	c.slli	zero,0x2
   24ee2:	0000                	unimp
   24ee4:	0000                	unimp
   24ee6:	0000                	unimp
   24ee8:	6574                	ld	a3,200(a0)
   24eea:	6f207473          	csrrci	s0,0x6f2,0
   24eee:	7272                	ld	tp,312(sp)
   24ef0:	203a                	fld	ft0,392(sp)
   24ef2:	3d70                	fld	fa2,248(a0)
   24ef4:	7830                	ld	a2,112(s0)
   24ef6:	7825                	lui	a6,0xfffe9
   24ef8:	000a                	c.slli	zero,0x2
   24efa:	0000                	unimp
   24efc:	0000                	unimp
   24efe:	0000                	unimp
   24f00:	6574                	ld	a3,200(a0)
   24f02:	61207473          	csrrci	s0,0x612,0
   24f06:	6464                	ld	s1,200(s0)
   24f08:	203a                	fld	ft0,392(sp)
   24f0a:	3d70                	fld	fa2,248(a0)
   24f0c:	7830                	ld	a2,112(s0)
   24f0e:	7825                	lui	a6,0xfffe9
   24f10:	000a                	c.slli	zero,0x2
   24f12:	0000                	unimp
   24f14:	0000                	unimp
   24f16:	0000                	unimp
   24f18:	61747373          	csrrci	t1,0x617,8
   24f1c:	7574                	ld	a3,232(a0)
   24f1e:	303d2073          	csrs	mideleg,s10
   24f22:	2578                	fld	fa4,200(a0)
   24f24:	0a78                	addi	a4,sp,284
   24f26:	0000                	unimp
   24f28:	7325                	lui	t1,0xfffe9
   24f2a:	203a                	fld	ft0,392(sp)
   24f2c:	2061                	0x2061
   24f2e:	203d                	0x203d
   24f30:	6425                	lui	s0,0x9
   24f32:	000a                	c.slli	zero,0x2
   24f34:	0000                	unimp
   24f36:	0000                	unimp
   24f38:	7361                	lui	t1,0xffff8
   24f3a:	5f6d                	li	t5,-5
   24f3c:	6f746f67          	0x6f746f67
   24f40:	203a                	fld	ft0,392(sp)
   24f42:	6572                	ld	a0,280(sp)
   24f44:	7574                	ld	a3,232(a0)
   24f46:	6e72                	ld	t3,280(sp)
   24f48:	3120                	fld	fs0,96(a0)
   24f4a:	000a                	c.slli	zero,0x2
   24f4c:	0000                	unimp
   24f4e:	0000                	unimp
   24f50:	7361                	lui	t1,0xffff8
   24f52:	5f6d                	li	t5,-5
   24f54:	6f746f67          	0x6f746f67
   24f58:	203a                	fld	ft0,392(sp)
   24f5a:	2062                	fld	ft0,24(sp)
   24f5c:	7369                	lui	t1,0xffffa
   24f5e:	6e20                	ld	s0,88(a2)
   24f60:	3120746f          	jal	s0,2c272 <_ebss+0x505a>
   24f64:	000a                	c.slli	zero,0x2
   24f66:	0000                	unimp
   24f68:	616c                	ld	a1,192(a0)
   24f6a:	3362                	fld	ft6,56(sp)
   24f6c:	352d                	addiw	a0,a0,-21
   24f6e:	203a                	fld	ft0,392(sp)
   24f70:	706d6f63          	bltu	s10,t1,2568e <_data+0x433>
   24f74:	7261                	lui	tp,0xffff8
   24f76:	5f65                	li	t5,-7
   24f78:	6e61                	lui	t3,0x18
   24f7a:	5f64                	lw	s1,124(a4)
   24f7c:	6572                	ld	a0,280(sp)
   24f7e:	7574                	ld	a3,232(a0)
   24f80:	6e72                	ld	t3,280(sp)
   24f82:	6f20                	ld	s0,88(a4)
   24f84:	00000a6b          	0xa6b
   24f88:	616c                	ld	a1,192(a0)
   24f8a:	3362                	fld	ft6,56(sp)
   24f8c:	372d                	addiw	a4,a4,-21
   24f8e:	203a                	fld	ft0,392(sp)
   24f90:	7262                	ld	tp,56(sp)
   24f92:	6e61                	lui	t3,0x18
   24f94:	74206863          	bltu	zero,sp,256e4 <_data+0x489>
   24f98:	7365                	lui	t1,0xffff9
   24f9a:	2074                	fld	fa3,192(s0)
   24f9c:	000a6b6f          	jal	s6,caf9c <_ebss+0xa3d84>
   24fa0:	616c                	ld	a1,192(a0)
   24fa2:	3562                	fld	fa0,56(sp)
   24fa4:	352d                	addiw	a0,a0,-21
   24fa6:	203a                	fld	ft0,392(sp)
   24fa8:	616d                	addi	sp,sp,240
   24faa:	5f6f7263          	bgeu	t5,s6,2558e <_data+0x333>
   24fae:	6574                	ld	a3,200(a0)
   24fb0:	315f7473          	csrrci	s0,0x315,30
   24fb4:	6f20                	ld	s0,88(a4)
   24fb6:	00000a6b          	0xa6b
   24fba:	0000                	unimp
   24fbc:	0000                	unimp
   24fbe:	0000                	unimp
   24fc0:	616c                	ld	a1,192(a0)
   24fc2:	3562                	fld	fa0,56(sp)
   24fc4:	352d                	addiw	a0,a0,-21
   24fc6:	203a                	fld	ft0,392(sp)
   24fc8:	616d                	addi	sp,sp,240
   24fca:	5f6f7263          	bgeu	t5,s6,255ae <_data+0x353>
   24fce:	6574                	ld	a3,200(a0)
   24fd0:	325f7473          	csrrci	s0,mhpmevent5,30
   24fd4:	6f20                	ld	s0,88(a4)
   24fd6:	00000a6b          	0xa6b
   24fda:	0000                	unimp
   24fdc:	0000                	unimp
   24fde:	0000                	unimp
   24fe0:	6542                	ld	a0,16(sp)
   24fe2:	4f6e                	lw	t5,216(sp)
   24fe4:	6d692053          	0x6d692053
   24fe8:	6761                	lui	a4,0x18
   24fea:	2065                	0x2065
   24fec:	616c                	ld	a1,192(a0)
   24fee:	6f79                	lui	t5,0x1e
   24ff0:	7475                	lui	s0,0xffffd
   24ff2:	0a3a                	slli	s4,s4,0xe
   24ff4:	0000                	unimp
   24ff6:	0000                	unimp
   24ff8:	2020                	fld	fs0,64(s0)
   24ffa:	742e                	ld	s0,232(sp)
   24ffc:	7865                	lui	a6,0xffff9
   24ffe:	2e74                	fld	fa3,216(a2)
   25000:	6f62                	ld	t5,24(sp)
   25002:	203a746f          	jal	s0,cca04 <_ebss+0xa57ec>
   25006:	7830                	ld	a2,112(s0)
   25008:	3025                	0x3025
   2500a:	6c38                	ld	a4,88(s0)
   2500c:	2078                	fld	fa4,192(s0)
   2500e:	202d                	0x202d
   25010:	7830                	ld	a2,112(s0)
   25012:	3025                	0x3025
   25014:	6c38                	ld	a4,88(s0)
   25016:	2078                	fld	fa4,192(s0)
   25018:	2528                	fld	fa0,72(a0)
   2501a:	6c36                	ld	s8,328(sp)
   2501c:	2064                	fld	fs1,192(s0)
   2501e:	2942                	fld	fs2,16(sp)
   25020:	000a                	c.slli	zero,0x2
   25022:	0000                	unimp
   25024:	0000                	unimp
   25026:	0000                	unimp
   25028:	2020                	fld	fs0,64(s0)
   2502a:	2020                	fld	fs0,64(s0)
   2502c:	2020                	fld	fs0,64(s0)
   2502e:	2e20                	fld	fs0,88(a2)
   25030:	6574                	ld	a3,200(a0)
   25032:	7478                	ld	a4,232(s0)
   25034:	203a                	fld	ft0,392(sp)
   25036:	7830                	ld	a2,112(s0)
   25038:	3025                	0x3025
   2503a:	6c38                	ld	a4,88(s0)
   2503c:	2078                	fld	fa4,192(s0)
   2503e:	202d                	0x202d
   25040:	7830                	ld	a2,112(s0)
   25042:	3025                	0x3025
   25044:	6c38                	ld	a4,88(s0)
   25046:	2078                	fld	fa4,192(s0)
   25048:	2528                	fld	fa0,72(a0)
   2504a:	6c36                	ld	s8,328(sp)
   2504c:	2064                	fld	fs1,192(s0)
   2504e:	2942                	fld	fs2,16(sp)
   25050:	000a                	c.slli	zero,0x2
   25052:	0000                	unimp
   25054:	0000                	unimp
   25056:	0000                	unimp
   25058:	2020                	fld	fs0,64(s0)
   2505a:	2020                	fld	fs0,64(s0)
   2505c:	2e20                	fld	fs0,88(a2)
   2505e:	6f72                	ld	t5,280(sp)
   25060:	6164                	ld	s1,192(a0)
   25062:	6174                	ld	a3,192(a0)
   25064:	203a                	fld	ft0,392(sp)
   25066:	7830                	ld	a2,112(s0)
   25068:	3025                	0x3025
   2506a:	6c38                	ld	a4,88(s0)
   2506c:	2078                	fld	fa4,192(s0)
   2506e:	202d                	0x202d
   25070:	7830                	ld	a2,112(s0)
   25072:	3025                	0x3025
   25074:	6c38                	ld	a4,88(s0)
   25076:	2078                	fld	fa4,192(s0)
   25078:	2528                	fld	fa0,72(a0)
   2507a:	6c36                	ld	s8,328(sp)
   2507c:	2064                	fld	fs1,192(s0)
   2507e:	2942                	fld	fs2,16(sp)
   25080:	000a                	c.slli	zero,0x2
   25082:	0000                	unimp
   25084:	0000                	unimp
   25086:	0000                	unimp
   25088:	2020                	fld	fs0,64(s0)
   2508a:	2020                	fld	fs0,64(s0)
   2508c:	2020                	fld	fs0,64(s0)
   2508e:	2e20                	fld	fs0,88(a2)
   25090:	6164                	ld	s1,192(a0)
   25092:	6174                	ld	a3,192(a0)
   25094:	203a                	fld	ft0,392(sp)
   25096:	7830                	ld	a2,112(s0)
   25098:	3025                	0x3025
   2509a:	6c38                	ld	a4,88(s0)
   2509c:	2078                	fld	fa4,192(s0)
   2509e:	202d                	0x202d
   250a0:	7830                	ld	a2,112(s0)
   250a2:	3025                	0x3025
   250a4:	6c38                	ld	a4,88(s0)
   250a6:	2078                	fld	fa4,192(s0)
   250a8:	2528                	fld	fa0,72(a0)
   250aa:	6c36                	ld	s8,328(sp)
   250ac:	2064                	fld	fs1,192(s0)
   250ae:	2942                	fld	fs2,16(sp)
   250b0:	000a                	c.slli	zero,0x2
   250b2:	0000                	unimp
   250b4:	0000                	unimp
   250b6:	0000                	unimp
   250b8:	2020                	fld	fs0,64(s0)
   250ba:	2020                	fld	fs0,64(s0)
   250bc:	2020                	fld	fs0,64(s0)
   250be:	2020                	fld	fs0,64(s0)
   250c0:	622e                	ld	tp,200(sp)
   250c2:	203a7373          	csrrci	t1,0x203,20
   250c6:	7830                	ld	a2,112(s0)
   250c8:	3025                	0x3025
   250ca:	6c38                	ld	a4,88(s0)
   250cc:	2078                	fld	fa4,192(s0)
   250ce:	202d                	0x202d
   250d0:	7830                	ld	a2,112(s0)
   250d2:	3025                	0x3025
   250d4:	6c38                	ld	a4,88(s0)
   250d6:	2078                	fld	fa4,192(s0)
   250d8:	2528                	fld	fa0,72(a0)
   250da:	6c36                	ld	s8,328(sp)
   250dc:	2064                	fld	fs1,192(s0)
   250de:	2942                	fld	fs2,16(sp)
   250e0:	000a                	c.slli	zero,0x2
   250e2:	0000                	unimp
   250e4:	0000                	unimp
   250e6:	0000                	unimp
   250e8:	636c6557          	0x636c6557
   250ec:	20656d6f          	jal	s10,7b2f2 <_ebss+0x540da>
   250f0:	4952                	lw	s2,20(sp)
   250f2:	562d4353          	0x562d4353
   250f6:	0d21                	addi	s10,s10,8
   250f8:	000a                	c.slli	zero,0x2
   250fa:	0000                	unimp
   250fc:	0000                	unimp
   250fe:	0000                	unimp
   25100:	7270                	ld	a2,224(a2)
   25102:	6e69                	lui	t3,0x1a
   25104:	6b74                	ld	a3,208(a4)
   25106:	6920                	ld	s0,80(a0)
   25108:	696e                	ld	s2,216(sp)
   2510a:	2074                	fld	fa3,192(s0)
   2510c:	6f64                	ld	s1,216(a4)
   2510e:	656e                	ld	a0,216(sp)
   25110:	000a                	c.slli	zero,0x2
   25112:	0000                	unimp
   25114:	0000                	unimp
	...

0000000000025118 <__func__.0>:
   25118:	6574                	ld	a3,200(a0)
   2511a:	615f7473          	csrrci	s0,0x615,30
   2511e:	675f6d73          	csrrsi	s10,0x675,30
   25122:	006f746f          	jal	s0,11c128 <_ebss+0xf4f10>
   25126:	0000                	unimp
   25128:	3130                	fld	fa2,96(a0)
   2512a:	3332                	fld	ft6,296(sp)
   2512c:	3534                	fld	fa3,104(a0)
   2512e:	3736                	fld	fa4,360(sp)
   25130:	3938                	fld	fa4,112(a0)
   25132:	4241                	li	tp,16
   25134:	46454443          	fmadd.q	fs0,fa0,ft4,fs0,rmm
   25138:	4a494847          	fmsub.d	fa6,fs2,ft4,fs1,rmm
   2513c:	4e4d4c4b          	fnmsub.q	fs8,fs10,ft4,fs1,rmm
   25140:	5251504f          	fnmadd.d	ft0,ft2,ft5,fa0,unknown
   25144:	56555453          	0x56555453
   25148:	5a595857          	0x5a595857
   2514c:	0000                	unimp
   2514e:	0000                	unimp
   25150:	3130                	fld	fa2,96(a0)
   25152:	3332                	fld	ft6,296(sp)
   25154:	3534                	fld	fa3,104(a0)
   25156:	3736                	fld	fa4,360(sp)
   25158:	3938                	fld	fa4,112(a0)
   2515a:	6261                	lui	tp,0x18
   2515c:	66656463          	bltu	a0,t1,257c4 <_data+0x569>
   25160:	6a696867          	0x6a696867
   25164:	6e6d6c6b          	0x6e6d6c6b
   25168:	7271706f          	j	3d08e <_ebss+0x15e76>
   2516c:	76757473          	csrrci	s0,0x767,10
   25170:	7a797877          	0x7a797877
   25174:	0000                	unimp
   25176:	0000                	unimp
   25178:	4e3c                	lw	a5,88(a2)
   2517a:	4c55                	li	s8,21
   2517c:	3e4c                	fld	fa1,184(a2)
   2517e:	0000                	unimp
   25180:	de9c                	sw	a5,56(a3)
   25182:	deccffff          	0xdeccffff
   25186:	deccffff          	0xdeccffff
   2518a:	deacffff          	0xdeacffff
   2518e:	deccffff          	0xdeccffff
   25192:	deccffff          	0xdeccffff
   25196:	deccffff          	0xdeccffff
   2519a:	deccffff          	0xdeccffff
   2519e:	deccffff          	0xdeccffff
   251a2:	deccffff          	0xdeccffff
   251a6:	deccffff          	0xdeccffff
   251aa:	de8cffff          	0xde8cffff
   251ae:	deccffff          	0xdeccffff
   251b2:	de7cffff          	0xde7cffff
   251b6:	deccffff          	0xdeccffff
   251ba:	deccffff          	0xdeccffff
   251be:	debcffff          	0xdebcffff
   251c2:	e2f8ffff          	0xe2f8ffff
   251c6:	e31cffff          	0xe31cffff
   251ca:	e31cffff          	0xe31cffff
   251ce:	e31cffff          	0xe31cffff
   251d2:	e31cffff          	0xe31cffff
   251d6:	e31cffff          	0xe31cffff
   251da:	e31cffff          	0xe31cffff
   251de:	e31cffff          	0xe31cffff
   251e2:	e31cffff          	0xe31cffff
   251e6:	e31cffff          	0xe31cffff
   251ea:	e31cffff          	0xe31cffff
   251ee:	e098ffff          	0xe098ffff
   251f2:	e304ffff          	0xe304ffff
   251f6:	e31cffff          	0xe31cffff
   251fa:	e31cffff          	0xe31cffff
   251fe:	e31cffff          	0xe31cffff
   25202:	e31cffff          	0xe31cffff
   25206:	e304ffff          	0xe304ffff
   2520a:	e31cffff          	0xe31cffff
   2520e:	e31cffff          	0xe31cffff
   25212:	e31cffff          	0xe31cffff
   25216:	e31cffff          	0xe31cffff
   2521a:	e258ffff          	0xe258ffff
   2521e:	e2e0ffff          	0xe2e0ffff
   25222:	e288ffff          	0xe288ffff
   25226:	e31cffff          	0xe31cffff
   2522a:	e31cffff          	0xe31cffff
   2522e:	e130ffff          	0xe130ffff
   25232:	e31cffff          	0xe31cffff
   25236:	e310ffff          	0xe310ffff
   2523a:	e31cffff          	0xe31cffff
   2523e:	e31cffff          	0xe31cffff
   25242:	e2ecffff          	0xe2ecffff
   25246:	          	0xa0dffff

0000000000025248 <boot_string>:
   25248:	0a0d                	addi	s4,s4,3
   2524a:	6f42                	ld	t5,16(sp)
   2524c:	6e69746f          	jal	s0,bc932 <_ebss+0x9571a>
   25250:	74612067          	0x74612067
   25254:	6120                	ld	s0,64(a0)
   25256:	0a0d6d73          	csrrsi	s10,0xa0,26
	...

Disassembly of section .data:

0000000000026000 <stacks_start>:
	...

Disassembly of section .sdata:

0000000000027000 <g_record>:
   27000:	7108                	ld	a0,32(a0)
   27002:	0002                	c.slli64	zero
   27004:	0000                	unimp
	...

Disassembly of section .bss:

0000000000027008 <print_buf>:
	...

0000000000027108 <log_buf>:
	...

0000000000027208 <g_printk_status>:
	...

0000000000027210 <g_record_len>:
	...

Disassembly of section .debug_info:

0000000000000000 <.debug_info>:
       0:	053d                	addi	a0,a0,15
       2:	0000                	unimp
       4:	0004                	0x4
       6:	0000                	unimp
       8:	0000                	unimp
       a:	0108                	addi	a0,sp,128
       c:	0124                	addi	s1,sp,136
       e:	0000                	unimp
      10:	520c                	lw	a1,32(a2)
      12:	0002                	c.slli64	zero
      14:	4200                	lw	s0,0(a2)
      16:	0000                	unimp
      18:	4000                	lw	s0,0(s0)
      1a:	0220                	addi	s0,sp,264
      1c:	0000                	unimp
      1e:	0000                	unimp
      20:	c400                	sw	s0,8(s0)
      22:	00000007          	vle8.v	v0,(zero),v0.t
      26:	0000                	unimp
      28:	0000                	unimp
      2a:	0000                	unimp
      2c:	0200                	addi	s0,sp,256
      2e:	0601                	addi	a2,a2,0
      30:	000000d7          	vadd.vv	v1,v0,v0,v0.t
      34:	0102                	c.slli64	sp
      36:	d508                	sw	a0,40(a0)
      38:	0000                	unimp
      3a:	0200                	addi	s0,sp,256
      3c:	0502                	c.slli64	a0
      3e:	00000203          	lb	tp,0(zero) # 0 <_start-0x22000>
      42:	0202                	c.slli64	tp
      44:	00010307          	vle8.v	v6,(sp),v0.t
      48:	0300                	addi	s0,sp,384
      4a:	0504                	addi	s1,sp,640
      4c:	6e69                	lui	t3,0x1a
      4e:	0074                	addi	a3,sp,12
      50:	0402                	c.slli64	s0
      52:	0001cd07          	flq	fs10,0(gp)
      56:	0200                	addi	s0,sp,256
      58:	0508                	addi	a0,sp,640
      5a:	01e1                	addi	gp,gp,24
      5c:	0000                	unimp
      5e:	0802                	c.slli64	a6
      60:	0001c307          	flq	ft6,0(gp)
      64:	0200                	addi	s0,sp,256
      66:	0508                	addi	a0,sp,640
      68:	01e6                	slli	gp,gp,0x19
      6a:	0000                	unimp
      6c:	0802                	c.slli64	a6
      6e:	0001c807          	flq	fa6,0(gp)
      72:	0400                	addi	s0,sp,512
      74:	006c                	addi	a1,sp,12
      76:	0000                	unimp
      78:	007e                	c.slli	zero,0x1f
      7a:	0000                	unimp
      7c:	0005                	c.nop	1
      7e:	cb06                	sw	ra,148(sp)
      80:	0000                	unimp
      82:	0100                	addi	s0,sp,128
      84:	1612                	slli	a2,a2,0x24
      86:	00000073          	ecall
      8a:	ea06                	sd	ra,272(sp)
      8c:	0000                	unimp
      8e:	0100                	addi	s0,sp,128
      90:	006c1613          	slli	a2,s8,0x6
      94:	0000                	unimp
      96:	1d06                	slli	s10,s10,0x21
      98:	0002                	c.slli64	zero
      9a:	0100                	addi	s0,sp,128
      9c:	0d14                	addi	a3,sp,656
      9e:	00a2                	slli	ra,ra,0x8
      a0:	0000                	unimp
      a2:	0102                	c.slli64	sp
      a4:	de08                	sw	a0,56(a2)
      a6:	0000                	unimp
      a8:	0700                	addi	s0,sp,896
      aa:	00a2                	slli	ra,ra,0x8
      ac:	0000                	unimp
      ae:	a204                	fsd	fs1,0(a2)
      b0:	0000                	unimp
      b2:	b900                	fsd	fs0,48(a0)
      b4:	0000                	unimp
      b6:	0500                	addi	s0,sp,640
      b8:	0600                	addi	s0,sp,768
      ba:	000000b7          	lui	ra,0x0
      be:	e201                	bnez	a2,be <_start-0x21f42>
      c0:	ae0d                	j	3f2 <_start-0x21c0e>
      c2:	0000                	unimp
      c4:	0600                	addi	s0,sp,768
      c6:	0229                	addi	tp,tp,10
      c8:	0000                	unimp
      ca:	e201                	bnez	a2,ca <_start-0x21f36>
      cc:	0000ae1b          	0xae1b
      d0:	0600                	addi	s0,sp,768
      d2:	0235                	addi	tp,tp,13
      d4:	0000                	unimp
      d6:	e301                	bnez	a4,d6 <_start-0x21f2a>
      d8:	ae0d                	j	40a <_start-0x21bf6>
      da:	0000                	unimp
      dc:	0600                	addi	s0,sp,768
      de:	01da                	slli	gp,gp,0x16
      e0:	0000                	unimp
      e2:	e301                	bnez	a4,e2 <_start-0x21f1e>
      e4:	ae16                	fsd	ft5,280(sp)
      e6:	0000                	unimp
      e8:	0600                	addi	s0,sp,768
      ea:	01a2                	slli	gp,gp,0x8
      ec:	0000                	unimp
      ee:	e401                	bnez	s0,f6 <_start-0x21f0a>
      f0:	ae0d                	j	422 <_start-0x21bde>
      f2:	0000                	unimp
      f4:	0600                	addi	s0,sp,768
      f6:	0116                	slli	sp,sp,0x5
      f8:	0000                	unimp
      fa:	e401                	bnez	s0,102 <_start-0x21efe>
      fc:	ae18                	fsd	fa4,24(a2)
      fe:	0000                	unimp
     100:	0600                	addi	s0,sp,768
     102:	00000217          	auipc	tp,0x0
     106:	e501                	bnez	a0,10e <_start-0x21ef2>
     108:	ae0d                	j	43a <_start-0x21bc6>
     10a:	0000                	unimp
     10c:	0600                	addi	s0,sp,768
     10e:	000000e3          	beqz	zero,90e <_start-0x216f2>
     112:	e501                	bnez	a0,11a <_start-0x21ee6>
     114:	ae16                	fsd	ft5,280(sp)
     116:	0000                	unimp
     118:	0600                	addi	s0,sp,768
     11a:	0212                	slli	tp,tp,0x4
     11c:	0000                	unimp
     11e:	e601                	bnez	a2,126 <_start-0x21eda>
     120:	ae0d                	j	452 <_start-0x21bae>
     122:	0000                	unimp
     124:	0600                	addi	s0,sp,768
     126:	000a                	c.slli	zero,0x2
     128:	0000                	unimp
     12a:	e601                	bnez	a2,132 <_start-0x21ece>
     12c:	ae15                	j	460 <_start-0x21ba0>
     12e:	0000                	unimp
     130:	0800                	addi	s0,sp,16
     132:	0246                	slli	tp,tp,0x11
     134:	0000                	unimp
     136:	0501                	addi	a0,a0,0
     138:	0601                	addi	a2,a2,0
     13a:	279c                	fld	fa5,8(a5)
     13c:	0002                	c.slli64	zero
     13e:	0000                	unimp
     140:	0000                	unimp
     142:	0068                	addi	a0,sp,12
     144:	0000                	unimp
     146:	0000                	unimp
     148:	0000                	unimp
     14a:	9c01                	subw	s0,s0,s0
     14c:	0d09                	addi	s10,s10,2
     14e:	0002                	c.slli64	zero
     150:	0100                	addi	s0,sp,128
     152:	0dfc                	addi	a5,sp,732
     154:	2730                	fld	fa2,72(a4)
     156:	0002                	c.slli64	zero
     158:	0000                	unimp
     15a:	0000                	unimp
     15c:	006c                	addi	a1,sp,12
     15e:	0000                	unimp
     160:	0000                	unimp
     162:	0000                	unimp
     164:	9c01                	subw	s0,s0,s0
     166:	0199                	addi	gp,gp,6
     168:	0000                	unimp
     16a:	9b0a                	add	s6,s6,sp
     16c:	0000                	unimp
     16e:	0100                	addi	s0,sp,128
     170:	10fe                	slli	ra,ra,0x3f
     172:	006c                	addi	a1,sp,12
     174:	0000                	unimp
     176:	9102                	jalr	sp
     178:	0b68                	addi	a0,sp,412
     17a:	6e65                	lui	t3,0x19
     17c:	0064                	addi	s1,sp,12
     17e:	ff01                	bnez	a4,96 <_start-0x21f6a>
     180:	6c10                	ld	a2,24(s0)
     182:	0000                	unimp
     184:	0200                	addi	s0,sp,256
     186:	6091                	lui	ra,0x4
     188:	410c                	lw	a1,0(a0)
     18a:	0002                	c.slli64	zero
     18c:	0100                	addi	s0,sp,128
     18e:	0100                	addi	s0,sp,128
     190:	0000500b          	srb	zero,zero,zero,0
     194:	0200                	addi	s0,sp,256
     196:	5c91                	li	s9,-28
     198:	0d00                	addi	s0,sp,656
     19a:	0000                	unimp
     19c:	0000                	unimp
     19e:	e801                	bnez	s0,1ae <_start-0x21e52>
     1a0:	fc0d                	bnez	s0,da <_start-0x21f26>
     1a2:	0225                	addi	tp,tp,9
     1a4:	0000                	unimp
     1a6:	0000                	unimp
     1a8:	3400                	fld	fs0,40(s0)
     1aa:	0001                	nop
     1ac:	0000                	unimp
     1ae:	0000                	unimp
     1b0:	0100                	addi	s0,sp,128
     1b2:	0e9c                	addi	a5,sp,848
     1b4:	00ae                	slli	ra,ra,0xb
     1b6:	0000                	unimp
     1b8:	bc01                	j	fffffffffffffbc8 <_ebss+0xfffffffffffd89b0>
     1ba:	ec06                	sd	ra,24(sp)
     1bc:	0224                	addi	s1,sp,264
     1be:	0000                	unimp
     1c0:	0000                	unimp
     1c2:	1000                	addi	s0,sp,32
     1c4:	0001                	nop
     1c6:	0000                	unimp
     1c8:	0000                	unimp
     1ca:	0100                	addi	s0,sp,128
     1cc:	f09c                	sd	a5,32(s1)
     1ce:	0001                	nop
     1d0:	0a00                	addi	s0,sp,272
     1d2:	003d                	c.nop	15
     1d4:	0000                	unimp
     1d6:	be01                	j	fffffffffffffce6 <_ebss+0xfffffffffffd8ace>
     1d8:	6c10                	ld	a2,24(s0)
     1da:	0000                	unimp
     1dc:	0200                	addi	s0,sp,256
     1de:	6891                	lui	a7,0x4
     1e0:	1f0a                	slli	t5,t5,0x22
     1e2:	0001                	nop
     1e4:	0100                	addi	s0,sp,128
     1e6:	16be                	slli	a3,a3,0x2f
     1e8:	006c                	addi	a1,sp,12
     1ea:	0000                	unimp
     1ec:	9102                	jalr	sp
     1ee:	0060                	addi	s0,sp,12
     1f0:	a70e                	fsd	ft3,392(sp)
     1f2:	0000                	unimp
     1f4:	0100                	addi	s0,sp,128
     1f6:	06a8                	addi	a0,sp,840
     1f8:	2438                	fld	fa4,72(s0)
     1fa:	0002                	c.slli64	zero
     1fc:	0000                	unimp
     1fe:	0000                	unimp
     200:	00b4                	addi	a3,sp,72
     202:	0000                	unimp
     204:	0000                	unimp
     206:	0000                	unimp
     208:	9c01                	subw	s0,s0,s0
     20a:	0229                	addi	tp,tp,10
     20c:	0000                	unimp
     20e:	0100610b          	0x100610b
     212:	004906b3          	add	a3,s2,tp
     216:	0000                	unimp
     218:	9102                	jalr	sp
     21a:	0b6c                	addi	a1,sp,412
     21c:	0062                	c.slli	zero,0x18
     21e:	b701                	j	11e <_start-0x21ee2>
     220:	4906                	lw	s2,64(sp)
     222:	0000                	unimp
     224:	0200                	addi	s0,sp,256
     226:	6891                	lui	a7,0x4
     228:	0f00                	addi	s0,sp,912
     22a:	0000002f          	vamoaddei8.v	zero,(zero),v0,v0,v0.t
     22e:	9701                	srai	a4,a4,0x20
     230:	490c                	lw	a1,16(a0)
     232:	0000                	unimp
     234:	d800                	sw	s0,48(s0)
     236:	00000223          	sb	zero,4(zero) # 4 <_start-0x21ffc>
     23a:	0000                	unimp
     23c:	6000                	ld	s0,0(s0)
     23e:	0000                	unimp
     240:	0000                	unimp
     242:	0000                	unimp
     244:	0100                	addi	s0,sp,128
     246:	7c9c                	ld	a5,56(s1)
     248:	0002                	c.slli64	zero
     24a:	1000                	addi	s0,sp,32
     24c:	0061                	c.nop	24
     24e:	9701                	srai	a4,a4,0x20
     250:	491e                	lw	s2,196(sp)
     252:	0000                	unimp
     254:	0200                	addi	s0,sp,256
     256:	6c91                	lui	s9,0x4
     258:	3b11                	addiw	s6,s6,-28
     25a:	0002                	c.slli64	zero
     25c:	0100                	addi	s0,sp,128
     25e:	240401a3          	sb	zero,579(s0) # ffffffffffffd243 <_ebss+0xfffffffffffd602b>
     262:	0002                	c.slli64	zero
     264:	0000                	unimp
     266:	0000                	unimp
     268:	c212                	sw	tp,4(sp)
     26a:	0000                	unimp
     26c:	8c00                	0x8c00
     26e:	0002                	c.slli64	zero
     270:	0900                	addi	s0,sp,144
     272:	02511803          	lh	a6,37(sp)
     276:	0000                	unimp
     278:	0000                	unimp
     27a:	0000                	unimp
     27c:	a904                	fsd	fs1,16(a0)
     27e:	0000                	unimp
     280:	8c00                	0x8c00
     282:	0002                	c.slli64	zero
     284:	1300                	addi	s0,sp,416
     286:	006c                	addi	a1,sp,12
     288:	0000                	unimp
     28a:	000d                	c.nop	3
     28c:	00027c07          	vle64.v	v24,(tp),v0.t
     290:	0900                	addi	s0,sp,144
     292:	01b6                	slli	gp,gp,0xd
     294:	0000                	unimp
     296:	8e01                	sub	a2,a2,s0
     298:	940d                	srai	s0,s0,0x23
     29a:	00000223          	sb	zero,4(zero) # 4 <_start-0x21ffc>
     29e:	0000                	unimp
     2a0:	4400                	lw	s0,8(s0)
     2a2:	0000                	unimp
     2a4:	0000                	unimp
     2a6:	0000                	unimp
     2a8:	0100                	addi	s0,sp,128
     2aa:	df9c                	sw	a5,56(a5)
     2ac:	0002                	c.slli64	zero
     2ae:	0b00                	addi	s0,sp,400
     2b0:	6176                	ld	sp,344(sp)
     2b2:	006c                	addi	a1,sp,12
     2b4:	9001                	srli	s0,s0,0x20
     2b6:	6c10                	ld	a2,24(s0)
     2b8:	0000                	unimp
     2ba:	0200                	addi	s0,sp,256
     2bc:	6891                	lui	a7,0x4
     2be:	a414                	fsd	fa3,8(s0)
     2c0:	00000223          	sb	zero,4(zero) # 4 <_start-0x21ffc>
     2c4:	0000                	unimp
     2c6:	0c00                	addi	s0,sp,528
     2c8:	0000                	unimp
     2ca:	0000                	unimp
     2cc:	0000                	unimp
     2ce:	0b00                	addi	s0,sp,400
     2d0:	5f5f 0076 9201      	0x920100765f5f
     2d6:	6c22                	ld	s8,8(sp)
     2d8:	0000                	unimp
     2da:	0100                	addi	s0,sp,128
     2dc:	0051                	c.nop	20
     2de:	0900                	addi	s0,sp,144
     2e0:	01aa                	slli	gp,gp,0xa
     2e2:	0000                	unimp
     2e4:	7d01                	lui	s10,0xfffe0
     2e6:	ec0d                	bnez	s0,320 <_start-0x21ce0>
     2e8:	0222                	slli	tp,tp,0x8
     2ea:	0000                	unimp
     2ec:	0000                	unimp
     2ee:	a800                	fsd	fs0,16(s0)
     2f0:	0000                	unimp
     2f2:	0000                	unimp
     2f4:	0000                	unimp
     2f6:	0100                	addi	s0,sp,128
     2f8:	0b9c                	addi	a5,sp,464
     2fa:	0b000003          	lb	zero,176(zero) # b0 <_start-0x21f50>
     2fe:	0070                	addi	a2,sp,12
     300:	7f01                	lui	t5,0xfffe0
     302:	6c10                	ld	a2,24(s0)
     304:	0000                	unimp
     306:	0200                	addi	s0,sp,256
     308:	6891                	lui	a7,0x4
     30a:	1500                	addi	s0,sp,672
     30c:	0010                	0x10
     30e:	0000                	unimp
     310:	7b01                	lui	s6,0xfffe0
     312:	a414                	fsd	fa3,8(s0)
     314:	0222                	slli	tp,tp,0x8
     316:	0000                	unimp
     318:	0000                	unimp
     31a:	4800                	lw	s0,16(s0)
     31c:	0000                	unimp
     31e:	0000                	unimp
     320:	0000                	unimp
     322:	0100                	addi	s0,sp,128
     324:	559c                	lw	a5,40(a1)
     326:	16000003          	lb	zero,352(zero) # 160 <_start-0x21ea0>
     32a:	0096                	slli	ra,ra,0x5
     32c:	0000                	unimp
     32e:	7b01                	lui	s6,0xfffe0
     330:	6c2d                	lui	s8,0xb
     332:	0000                	unimp
     334:	0200                	addi	s0,sp,256
     336:	5891                	li	a7,-28
     338:	7010                	ld	a2,32(s0)
     33a:	0100                	addi	s0,sp,128
     33c:	0355397b          	0x355397b
     340:	0000                	unimp
     342:	9102                	jalr	sp
     344:	0b50                	addi	a2,sp,404
     346:	6d74                	ld	a3,216(a0)
     348:	0070                	addi	a2,sp,12
     34a:	7b01                	lui	s6,0xfffe0
     34c:	6c4c                	ld	a1,152(s0)
     34e:	0000                	unimp
     350:	0200                	addi	s0,sp,256
     352:	6891                	lui	a7,0x4
     354:	1700                	addi	s0,sp,928
     356:	1508                	addi	a0,sp,672
     358:	00f8                	addi	a4,sp,76
     35a:	0000                	unimp
     35c:	7a01                	lui	s4,0xfffe0
     35e:	5c14                	lw	a3,56(s0)
     360:	0222                	slli	tp,tp,0x8
     362:	0000                	unimp
     364:	0000                	unimp
     366:	4800                	lw	s0,16(s0)
     368:	0000                	unimp
     36a:	0000                	unimp
     36c:	0000                	unimp
     36e:	0100                	addi	s0,sp,128
     370:	a19c                	fsd	fa5,0(a1)
     372:	16000003          	lb	zero,352(zero) # 160 <_start-0x21ea0>
     376:	0096                	slli	ra,ra,0x5
     378:	0000                	unimp
     37a:	7a01                	lui	s4,0xfffe0
     37c:	6c2d                	lui	s8,0xb
     37e:	0000                	unimp
     380:	0200                	addi	s0,sp,256
     382:	5891                	li	a7,-28
     384:	7010                	ld	a2,32(s0)
     386:	0100                	addi	s0,sp,128
     388:	397a                	fld	fs2,440(sp)
     38a:	0355                	addi	t1,t1,21
     38c:	0000                	unimp
     38e:	9102                	jalr	sp
     390:	0b50                	addi	a2,sp,404
     392:	6d74                	ld	a3,216(a0)
     394:	0070                	addi	a2,sp,12
     396:	7a01                	lui	s4,0xfffe0
     398:	6c4c                	ld	a1,152(s0)
     39a:	0000                	unimp
     39c:	0200                	addi	s0,sp,256
     39e:	6891                	lui	a7,0x4
     3a0:	1500                	addi	s0,sp,672
     3a2:	00000197          	auipc	gp,0x0
     3a6:	7901                	lui	s2,0xfffe0
     3a8:	1414                	addi	a3,sp,544
     3aa:	0222                	slli	tp,tp,0x8
     3ac:	0000                	unimp
     3ae:	0000                	unimp
     3b0:	4800                	lw	s0,16(s0)
     3b2:	0000                	unimp
     3b4:	0000                	unimp
     3b6:	0000                	unimp
     3b8:	0100                	addi	s0,sp,128
     3ba:	eb9c                	sd	a5,16(a5)
     3bc:	16000003          	lb	zero,352(zero) # 160 <_start-0x21ea0>
     3c0:	0096                	slli	ra,ra,0x5
     3c2:	0000                	unimp
     3c4:	7901                	lui	s2,0xfffe0
     3c6:	6c2d                	lui	s8,0xb
     3c8:	0000                	unimp
     3ca:	0200                	addi	s0,sp,256
     3cc:	5891                	li	a7,-28
     3ce:	7010                	ld	a2,32(s0)
     3d0:	0100                	addi	s0,sp,128
     3d2:	3979                	addiw	s2,s2,-2
     3d4:	0355                	addi	t1,t1,21
     3d6:	0000                	unimp
     3d8:	9102                	jalr	sp
     3da:	0b50                	addi	a2,sp,404
     3dc:	6d74                	ld	a3,216(a0)
     3de:	0070                	addi	a2,sp,12
     3e0:	7901                	lui	s2,0xfffe0
     3e2:	6c4c                	ld	a1,152(s0)
     3e4:	0000                	unimp
     3e6:	0200                	addi	s0,sp,256
     3e8:	6891                	lui	a7,0x4
     3ea:	1500                	addi	s0,sp,672
     3ec:	000001ef          	jal	gp,3ec <_start-0x21c14>
     3f0:	5a01                	li	s4,-32
     3f2:	a80d                	j	424 <_start-0x21bdc>
     3f4:	0221                	addi	tp,tp,8
     3f6:	0000                	unimp
     3f8:	0000                	unimp
     3fa:	6c00                	ld	s0,24(s0)
     3fc:	0000                	unimp
     3fe:	0000                	unimp
     400:	0000                	unimp
     402:	0100                	addi	s0,sp,128
     404:	559c                	lw	a5,40(a1)
     406:	0004                	0x4
     408:	1000                	addi	s0,sp,32
     40a:	00637273          	csrrci	tp,0x6,6
     40e:	5a01                	li	s4,-32
     410:	00006c2f          	vamoaddei32.v	zero,(zero),v0,v24,v0.t
     414:	0200                	addi	s0,sp,256
     416:	5891                	li	a7,-28
     418:	6410                	ld	a2,8(s0)
     41a:	01007473          	csrrci	s0,0x10,0
     41e:	425a                	lw	tp,148(sp)
     420:	006c                	addi	a1,sp,12
     422:	0000                	unimp
     424:	9102                	jalr	sp
     426:	1650                	addi	a2,sp,804
     428:	0241                	addi	tp,tp,16
     42a:	0000                	unimp
     42c:	5b01                	li	s6,-32
     42e:	6c11                	lui	s8,0x4
     430:	0000                	unimp
     432:	0200                	addi	s0,sp,256
     434:	4891                	li	a7,4
     436:	706d740b          	fsurd	fs0,s10,t1,0
     43a:	0100                	addi	s0,sp,128
     43c:	105d                	c.nop	-9
     43e:	006c                	addi	a1,sp,12
     440:	0000                	unimp
     442:	9102                	jalr	sp
     444:	0b68                	addi	a0,sp,412
     446:	6e65                	lui	t3,0x19
     448:	0064                	addi	s1,sp,12
     44a:	5e01                	li	t3,-32
     44c:	6c10                	ld	a2,24(s0)
     44e:	0000                	unimp
     450:	0200                	addi	s0,sp,256
     452:	6091                	lui	ra,0x4
     454:	1500                	addi	s0,sp,672
     456:	0000001b          	sext.w	zero,zero
     45a:	4301                	li	t1,0
     45c:	3c0d                	addiw	s8,s8,-29
     45e:	0221                	addi	tp,tp,8
     460:	0000                	unimp
     462:	0000                	unimp
     464:	6c00                	ld	s0,24(s0)
     466:	0000                	unimp
     468:	0000                	unimp
     46a:	0000                	unimp
     46c:	0100                	addi	s0,sp,128
     46e:	bf9c                	fsd	fa5,56(a5)
     470:	0004                	0x4
     472:	1000                	addi	s0,sp,32
     474:	00637273          	csrrci	tp,0x6,6
     478:	4301                	li	t1,0
     47a:	00006c2f          	vamoaddei32.v	zero,(zero),v0,v24,v0.t
     47e:	0200                	addi	s0,sp,256
     480:	5891                	li	a7,-28
     482:	6410                	ld	a2,8(s0)
     484:	01007473          	csrrci	s0,0x10,0
     488:	006c4243          	fmadd.s	ft4,fs8,ft6,ft0,rmm
     48c:	0000                	unimp
     48e:	9102                	jalr	sp
     490:	1650                	addi	a2,sp,804
     492:	0241                	addi	tp,tp,16
     494:	0000                	unimp
     496:	4401                	li	s0,0
     498:	6c11                	lui	s8,0x4
     49a:	0000                	unimp
     49c:	0200                	addi	s0,sp,256
     49e:	4891                	li	a7,4
     4a0:	706d740b          	fsurd	fs0,s10,t1,0
     4a4:	0100                	addi	s0,sp,128
     4a6:	1046                	c.slli	zero,0x31
     4a8:	006c                	addi	a1,sp,12
     4aa:	0000                	unimp
     4ac:	9102                	jalr	sp
     4ae:	0b68                	addi	a0,sp,412
     4b0:	6e65                	lui	t3,0x19
     4b2:	0064                	addi	s1,sp,12
     4b4:	4701                	li	a4,0
     4b6:	6c10                	ld	a2,24(s0)
     4b8:	0000                	unimp
     4ba:	0200                	addi	s0,sp,256
     4bc:	6091                	lui	ra,0x4
     4be:	0f00                	addi	s0,sp,912
     4c0:	00000187          	vle8.v	v3,(zero),v0.t
     4c4:	1601                	addi	a2,a2,-32
     4c6:	490c                	lw	a1,16(a0)
     4c8:	0000                	unimp
     4ca:	4000                	lw	s0,0(s0)
     4cc:	0220                	addi	s0,sp,264
     4ce:	0000                	unimp
     4d0:	0000                	unimp
     4d2:	fc00                	sd	s0,56(s0)
     4d4:	0000                	unimp
     4d6:	0000                	unimp
     4d8:	0000                	unimp
     4da:	0100                	addi	s0,sp,128
     4dc:	3a9c                	fld	fa5,48(a3)
     4de:	0005                	c.nop	1
     4e0:	1600                	addi	s0,sp,800
     4e2:	00d0                	addi	a2,sp,68
     4e4:	0000                	unimp
     4e6:	1601                	addi	a2,a2,-32
     4e8:	6c2a                	ld	s8,136(sp)
     4ea:	0000                	unimp
     4ec:	0200                	addi	s0,sp,256
     4ee:	4891                	li	a7,4
     4f0:	0100690b          	0x100690b
     4f4:	0618                	addi	a4,sp,768
     4f6:	0049                	c.nop	18
     4f8:	0000                	unimp
     4fa:	9102                	jalr	sp
     4fc:	0b6c                	addi	a1,sp,412
     4fe:	0070                	addi	a2,sp,12
     500:	1901                	addi	s2,s2,-32
     502:	3a08                	fld	fa0,48(a2)
     504:	0005                	c.nop	1
     506:	0200                	addi	s0,sp,256
     508:	6091                	lui	ra,0x4
     50a:	220a                	fld	ft4,128(sp)
     50c:	0002                	c.slli64	zero
     50e:	0100                	addi	s0,sp,128
     510:	0c19                	addi	s8,s8,6
     512:	053a                	slli	a0,a0,0xe
     514:	0000                	unimp
     516:	9102                	jalr	sp
     518:	1158                	addi	a4,sp,164
     51a:	00a1                	addi	ra,ra,8
     51c:	0000                	unimp
     51e:	2201                	sext.w	tp,tp
     520:	a801                	j	530 <_start-0x21ad0>
     522:	0220                	addi	s0,sp,264
     524:	0000                	unimp
     526:	0000                	unimp
     528:	1100                	addi	s0,sp,160
     52a:	000003b7          	lui	t2,0x0
     52e:	3701                	addiw	a4,a4,-32
     530:	1001                	c.nop	-32
     532:	0221                	addi	tp,tp,8
     534:	0000                	unimp
     536:	0000                	unimp
     538:	0000                	unimp
     53a:	0818                	addi	a4,sp,16
     53c:	00a2                	slli	ra,ra,0x8
     53e:	0000                	unimp
     540:	4700                	lw	s0,8(a4)
     542:	0002                	c.slli64	zero
     544:	0400                	addi	s0,sp,512
     546:	8300                	0x8300
     548:	0001                	nop
     54a:	0800                	addi	s0,sp,16
     54c:	2401                	sext.w	s0,s0
     54e:	0001                	nop
     550:	0c00                	addi	s0,sp,528
     552:	026c                	addi	a1,sp,268
     554:	0000                	unimp
     556:	0042                	c.slli	zero,0x10
     558:	0000                	unimp
     55a:	2804                	fld	fs1,16(s0)
     55c:	0002                	c.slli64	zero
     55e:	0000                	unimp
     560:	0000                	unimp
     562:	0298                	addi	a4,sp,320
     564:	0000                	unimp
     566:	0000                	unimp
     568:	0000                	unimp
     56a:	048c                	addi	a1,sp,576
     56c:	0000                	unimp
     56e:	0102                	c.slli64	sp
     570:	d706                	sw	ra,172(sp)
     572:	0000                	unimp
     574:	0200                	addi	s0,sp,256
     576:	0801                	addi	a6,a6,0
     578:	00d5                	addi	ra,ra,21
     57a:	0000                	unimp
     57c:	0202                	c.slli64	tp
     57e:	0305                	addi	t1,t1,1
     580:	0002                	c.slli64	zero
     582:	0200                	addi	s0,sp,256
     584:	0702                	c.slli64	a4
     586:	00000103          	lb	sp,0(zero) # 0 <_start-0x22000>
     58a:	69050403          	lb	s0,1680(a0)
     58e:	746e                	ld	s0,248(sp)
     590:	0200                	addi	s0,sp,256
     592:	0704                	addi	s1,sp,896
     594:	01cd                	addi	gp,gp,19
     596:	0000                	unimp
     598:	0802                	c.slli64	a6
     59a:	e105                	bnez	a0,5ba <_start-0x21a46>
     59c:	0001                	nop
     59e:	0200                	addi	s0,sp,256
     5a0:	0708                	addi	a0,sp,896
     5a2:	000001c3          	fmadd.s	ft3,ft0,ft0,ft0,rne
     5a6:	5f04                	lw	s1,56(a4)
     5a8:	0002                	c.slli64	zero
     5aa:	0200                	addi	s0,sp,256
     5ac:	005e1c1b          	slliw	s8,t3,0x5
     5b0:	0000                	unimp
     5b2:	0802                	c.slli64	a6
     5b4:	e605                	bnez	a2,5dc <_start-0x21a24>
     5b6:	0001                	nop
     5b8:	0200                	addi	s0,sp,256
     5ba:	0708                	addi	a0,sp,896
     5bc:	01c8                	addi	a0,sp,196
     5be:	0000                	unimp
     5c0:	8005                	srli	s0,s0,0x1
     5c2:	0002                	c.slli64	zero
     5c4:	0100                	addi	s0,sp,128
     5c6:	0748                	addi	a0,sp,900
     5c8:	000000cb          	fnmsub.s	ft1,ft0,ft0,ft0,rne
     5cc:	2a50                	fld	fa2,144(a2)
     5ce:	0002                	c.slli64	zero
     5d0:	0000                	unimp
     5d2:	0000                	unimp
     5d4:	004c                	addi	a1,sp,4
     5d6:	0000                	unimp
     5d8:	0000                	unimp
     5da:	0000                	unimp
     5dc:	9c01                	subw	s0,s0,s0
     5de:	000000cb          	fnmsub.s	ft1,ft0,ft0,ft0,rne
     5e2:	7306                	ld	t1,96(sp)
     5e4:	0100                	addi	s0,sp,128
     5e6:	1448                	addi	a0,sp,548
     5e8:	000000cb          	fnmsub.s	ft1,ft0,ft0,ft0,rne
     5ec:	9102                	jalr	sp
     5ee:	0668                	addi	a0,sp,780
     5f0:	48010063          	beqz	sp,a70 <_start-0x21590>
     5f4:	0000491b          	0x491b
     5f8:	0200                	addi	s0,sp,256
     5fa:	6491                	lui	s1,0x4
     5fc:	00029f07          	flh	ft10,0(t0)
     600:	0100                	addi	s0,sp,128
     602:	2548                	fld	fa0,136(a0)
     604:	0065                	c.nop	25
     606:	0000                	unimp
     608:	9102                	jalr	sp
     60a:	0058                	addi	a4,sp,4
     60c:	0808                	addi	a0,sp,16
     60e:	7e09                	lui	t3,0xfffe2
     610:	0002                	c.slli64	zero
     612:	0100                	addi	s0,sp,128
     614:	0e1e                	slli	t3,t3,0x7
     616:	000000cb          	fnmsub.s	ft1,ft0,ft0,ft0,rne
     61a:	28c4                	fld	fs1,144(s1)
     61c:	0002                	c.slli64	zero
     61e:	0000                	unimp
     620:	0000                	unimp
     622:	018c                	addi	a1,sp,192
     624:	0000                	unimp
     626:	0000                	unimp
     628:	0000                	unimp
     62a:	9c01                	subw	s0,s0,s0
     62c:	0190                	addi	a2,sp,192
     62e:	0000                	unimp
     630:	7306                	ld	t1,96(sp)
     632:	0100                	addi	s0,sp,128
     634:	1d1e                	slli	s10,s10,0x27
     636:	0190                	addi	a2,sp,192
     638:	0000                	unimp
     63a:	7fa89103          	lh	sp,2042(a7) # 47fa <_start-0x1d806>
     63e:	6306                	ld	t1,64(sp)
     640:	0100                	addi	s0,sp,128
     642:	241e                	fld	fs0,448(sp)
     644:	0049                	c.nop	18
     646:	0000                	unimp
     648:	7fa49103          	lh	sp,2042(s1) # 47fa <_start-0x1d806>
     64c:	00029f07          	flh	ft10,0(t0)
     650:	0100                	addi	s0,sp,128
     652:	2e1e                	fld	ft8,448(sp)
     654:	0065                	c.nop	25
     656:	0000                	unimp
     658:	7f989103          	lh	sp,2041(a7)
     65c:	700a                	0x700a
     65e:	0100                	addi	s0,sp,128
     660:	0820                	addi	s0,sp,24
     662:	0190                	addi	a2,sp,192
     664:	0000                	unimp
     666:	9102                	jalr	sp
     668:	0b68                	addi	a0,sp,412
     66a:	0266                	slli	tp,tp,0x19
     66c:	0000                	unimp
     66e:	2101                	sext.w	sp,sp
     670:	7810                	ld	a2,48(s0)
     672:	0000                	unimp
     674:	0200                	addi	s0,sp,256
     676:	4891                	li	a7,4
     678:	0002410b          	lrb	sp,tp,zero,0
     67c:	0100                	addi	s0,sp,128
     67e:	0922                	slli	s2,s2,0x8
     680:	0065                	c.nop	25
     682:	0000                	unimp
     684:	7fb89103          	lh	sp,2043(a7)
     688:	0002790b          	0x2790b
     68c:	0100                	addi	s0,sp,128
     68e:	0f22                	slli	t5,t5,0x8
     690:	0065                	c.nop	25
     692:	0000                	unimp
     694:	9102                	jalr	sp
     696:	0a60                	addi	s0,sp,284
     698:	006e                	c.slli	zero,0x1b
     69a:	2301                	sext.w	t1,t1
     69c:	4906                	lw	s2,64(sp)
     69e:	0000                	unimp
     6a0:	0300                	addi	s0,sp,384
     6a2:	b491                	j	e6 <_start-0x21f1a>
     6a4:	00690a7f          	0x690a7f
     6a8:	2301                	sext.w	t1,t1
     6aa:	4909                	li	s2,2
     6ac:	0000                	unimp
     6ae:	0200                	addi	s0,sp,256
     6b0:	5c91                	li	s9,-28
     6b2:	0002970b          	addsl	a4,t0,zero,0
     6b6:	0100                	addi	s0,sp,128
     6b8:	1024                	addi	s1,sp,40
     6ba:	0078                	addi	a4,sp,12
     6bc:	0000                	unimp
     6be:	9102                	jalr	sp
     6c0:	0b40                	addi	s0,sp,404
     6c2:	0218                	addi	a4,sp,256
     6c4:	0000                	unimp
     6c6:	2501                	sext.w	a0,a0
     6c8:	7810                	ld	a2,48(s0)
     6ca:	0000                	unimp
     6cc:	0200                	addi	s0,sp,256
     6ce:	5091                	li	ra,-28
     6d0:	0c00                	addi	s0,sp,528
     6d2:	9608                	0x9608
     6d4:	0001                	nop
     6d6:	0200                	addi	s0,sp,256
     6d8:	0801                	addi	a6,a6,0
     6da:	00de                	slli	ra,ra,0x17
     6dc:	0000                	unimp
     6de:	870d                	srai	a4,a4,0x3
     6e0:	0002                	c.slli64	zero
     6e2:	0100                	addi	s0,sp,128
     6e4:	0e15                	addi	t3,t3,5
     6e6:	000000cb          	fnmsub.s	ft1,ft0,ft0,ft0,rne
     6ea:	2860                	fld	fs0,208(s0)
     6ec:	0002                	c.slli64	zero
     6ee:	0000                	unimp
     6f0:	0000                	unimp
     6f2:	0064                	addi	s1,sp,12
     6f4:	0000                	unimp
     6f6:	0000                	unimp
     6f8:	0000                	unimp
     6fa:	9c01                	subw	s0,s0,s0
     6fc:	000001f7          	radd16	gp,zero,zero
     700:	7306                	ld	t1,96(sp)
     702:	0100                	addi	s0,sp,128
     704:	2415                	addiw	s0,s0,5
     706:	000000cb          	fnmsub.s	ft1,ft0,ft0,ft0,rne
     70a:	9102                	jalr	sp
     70c:	0658                	addi	a4,sp,772
     70e:	15010063          	beq	sp,a6,84e <_start-0x217b2>
     712:	0000492b          	0x492b
     716:	0200                	addi	s0,sp,256
     718:	5491                	li	s1,-28
     71a:	00029f07          	flh	ft10,0(t0)
     71e:	0100                	addi	s0,sp,128
     720:	3515                	addiw	a0,a0,-27
     722:	0065                	c.nop	25
     724:	0000                	unimp
     726:	9102                	jalr	sp
     728:	0a48                	addi	a0,sp,276
     72a:	7378                	ld	a4,224(a4)
     72c:	0100                	addi	s0,sp,128
     72e:	01900817          	auipc	a6,0x1900
     732:	0000                	unimp
     734:	9102                	jalr	sp
     736:	0068                	addi	a0,sp,12
     738:	a50e                	fsd	ft3,136(sp)
     73a:	0002                	c.slli64	zero
     73c:	0100                	addi	s0,sp,128
     73e:	0d05                	addi	s10,s10,1
     740:	2804                	fld	fs1,16(s0)
     742:	0002                	c.slli64	zero
     744:	0000                	unimp
     746:	0000                	unimp
     748:	005c                	addi	a5,sp,4
     74a:	0000                	unimp
     74c:	0000                	unimp
     74e:	0000                	unimp
     750:	9c01                	subw	s0,s0,s0
     752:	7006                	0x7006
     754:	0100                	addi	s0,sp,128
     756:	2f05                	addiw	t5,t5,1
     758:	000000cb          	fnmsub.s	ft1,ft0,ft0,ft0,rne
     75c:	9102                	jalr	sp
     75e:	0658                	addi	a4,sp,772
     760:	6176                	ld	sp,344(sp)
     762:	006c                	addi	a1,sp,12
     764:	0501                	addi	a0,a0,0
     766:	7840                	ld	s0,176(s0)
     768:	0000                	unimp
     76a:	0200                	addi	s0,sp,256
     76c:	5091                	li	ra,-28
     76e:	00029f07          	flh	ft10,0(t0)
     772:	0100                	addi	s0,sp,128
     774:	0706                	slli	a4,a4,0x1
     776:	0049                	c.nop	18
     778:	0000                	unimp
     77a:	9102                	jalr	sp
     77c:	0a4c                	addi	a1,sp,276
     77e:	0069                	c.nop	26
     780:	0801                	addi	a6,a6,0
     782:	4906                	lw	s2,64(sp)
     784:	0000                	unimp
     786:	0200                	addi	s0,sp,256
     788:	6c91                	lui	s9,0x4
     78a:	0000                	unimp
     78c:	0452                	slli	s0,s0,0x14
     78e:	0000                	unimp
     790:	0004                	0x4
     792:	027e                	slli	tp,tp,0x1f
     794:	0000                	unimp
     796:	0108                	addi	a0,sp,128
     798:	0124                	addi	s1,sp,136
     79a:	0000                	unimp
     79c:	0e0c                	addi	a1,sp,784
     79e:	42000003          	lb	zero,1056(zero) # 420 <_start-0x21be0>
     7a2:	0000                	unimp
     7a4:	9c00                	0x9c00
     7a6:	022a                	slli	tp,tp,0xa
     7a8:	0000                	unimp
     7aa:	0000                	unimp
     7ac:	6800                	ld	s0,16(s0)
     7ae:	000e                	c.slli	zero,0x3
     7b0:	0000                	unimp
     7b2:	0000                	unimp
     7b4:	7400                	ld	s0,40(s0)
     7b6:	0006                	c.slli	zero,0x1
     7b8:	0200                	addi	s0,sp,256
     7ba:	02d5                	addi	t0,t0,21
     7bc:	0000                	unimp
     7be:	0802                	c.slli64	a6
     7c0:	0000391b          	0x391b
     7c4:	0300                	addi	s0,sp,384
     7c6:	cb08                	sw	a0,16(a4)
     7c8:	0002                	c.slli64	zero
     7ca:	0400                	addi	s0,sp,512
     7cc:	0601                	addi	a2,a2,0
     7ce:	000000d7          	vadd.vv	v1,v0,v0,v0.t
     7d2:	0104                	addi	s1,sp,128
     7d4:	d508                	sw	a0,40(a0)
     7d6:	0000                	unimp
     7d8:	0400                	addi	s0,sp,512
     7da:	0502                	c.slli64	a0
     7dc:	00000203          	lb	tp,0(zero) # 0 <_start-0x22000>
     7e0:	0204                	addi	s1,sp,256
     7e2:	00010307          	vle8.v	v6,(sp),v0.t
     7e6:	0500                	addi	s0,sp,640
     7e8:	0504                	addi	s1,sp,640
     7ea:	6e69                	lui	t3,0x1a
     7ec:	0074                	addi	a3,sp,12
     7ee:	0404                	addi	s1,sp,512
     7f0:	0001cd07          	flq	fs10,0(gp) # 3a2 <_start-0x21c5e>
     7f4:	0400                	addi	s0,sp,512
     7f6:	0508                	addi	a0,sp,640
     7f8:	01e1                	addi	gp,gp,24
     7fa:	0000                	unimp
     7fc:	0804                	addi	s1,sp,16
     7fe:	0001c307          	flq	ft6,0(gp)
     802:	0400                	addi	s0,sp,512
     804:	0508                	addi	a0,sp,640
     806:	01e6                	slli	gp,gp,0x19
     808:	0000                	unimp
     80a:	0804                	addi	s1,sp,16
     80c:	0001c807          	flq	fa6,0(gp)
     810:	0600                	addi	s0,sp,768
     812:	0095                	addi	ra,ra,5
     814:	0000                	unimp
     816:	0095                	addi	ra,ra,5
     818:	0000                	unimp
     81a:	00007e07          	vle64.v	v28,(zero),v0.t
     81e:	ff00                	sd	s0,56(a4)
     820:	0400                	addi	s0,sp,512
     822:	0801                	addi	a6,a6,0
     824:	00de                	slli	ra,ra,0x17
     826:	0000                	unimp
     828:	9508                	0x9508
     82a:	0000                	unimp
     82c:	0900                	addi	s0,sp,144
     82e:	00000353          	fadd.s	ft6,ft0,ft0,rne
     832:	0801                	addi	a6,a6,0
     834:	850d                	srai	a0,a0,0x3
     836:	0000                	unimp
     838:	0900                	addi	s0,sp,144
     83a:	02700803          	lb	a6,39(zero) # 27 <_start-0x21fd9>
     83e:	0000                	unimp
     840:	0000                	unimp
     842:	0900                	addi	s0,sp,144
     844:	033c                	addi	a5,sp,392
     846:	0000                	unimp
     848:	0d01                	addi	s10,s10,0
     84a:	850d                	srai	a0,a0,0x3
     84c:	0000                	unimp
     84e:	0900                	addi	s0,sp,144
     850:	02710803          	lb	a6,39(sp)
     854:	0000                	unimp
     856:	0000                	unimp
     858:	0a00                	addi	s0,sp,272
     85a:	032e                	slli	t1,t1,0xb
     85c:	0000                	unimp
     85e:	00620407          	0x620407
     862:	0000                	unimp
     864:	0f01                	addi	t5,t5,0
     866:	ec06                	sd	ra,24(sp)
     868:	0000                	unimp
     86a:	0b00                	addi	s0,sp,400
     86c:	038d                	addi	t2,t2,3
     86e:	0000                	unimp
     870:	0b00                	addi	s0,sp,400
     872:	02ea                	slli	t0,t0,0x1a
     874:	0000                	unimp
     876:	0001                	nop
     878:	2c09                	addiw	s8,s8,2
     87a:	01000003          	lb	zero,16(zero) # 10 <_start-0x21ff0>
     87e:	1b14                	addi	a3,sp,432
     880:	00cd                	addi	ra,ra,19
     882:	0000                	unimp
     884:	0309                	addi	t1,t1,2
     886:	7208                	ld	a0,32(a2)
     888:	0002                	c.slli64	zero
     88a:	0000                	unimp
     88c:	0000                	unimp
     88e:	4a09                	li	s4,2
     890:	01000003          	lb	zero,16(zero) # 10 <_start-0x21ff0>
     894:	0e15                	addi	t3,t3,5
     896:	0118                	addi	a4,sp,128
     898:	0000                	unimp
     89a:	0309                	addi	t1,t1,2
     89c:	7000                	ld	s0,32(s0)
     89e:	0002                	c.slli64	zero
     8a0:	0000                	unimp
     8a2:	0000                	unimp
     8a4:	080c                	addi	a1,sp,16
     8a6:	0095                	addi	ra,ra,5
     8a8:	0000                	unimp
     8aa:	dd09                	beqz	a0,7c4 <_start-0x2183c>
     8ac:	0002                	c.slli64	zero
     8ae:	0100                	addi	s0,sp,128
     8b0:	1616                	slli	a2,a2,0x25
     8b2:	007e                	c.slli	zero,0x1f
     8b4:	0000                	unimp
     8b6:	0309                	addi	t1,t1,2
     8b8:	7210                	ld	a2,32(a2)
     8ba:	0002                	c.slli64	zero
     8bc:	0000                	unimp
     8be:	0000                	unimp
     8c0:	7a0d                	lui	s4,0xfffe3
     8c2:	01000003          	lb	zero,16(zero) # 10 <_start-0x21ff0>
     8c6:	0162                	slli	sp,sp,0x18
     8c8:	5b05                	li	s6,-31
     8ca:	0000                	unimp
     8cc:	8400                	0x8400
     8ce:	00000237          	lui	tp,0x0
     8d2:	0000                	unimp
     8d4:	8000                	0x8000
     8d6:	0001                	nop
     8d8:	0000                	unimp
     8da:	0000                	unimp
     8dc:	0100                	addi	s0,sp,128
     8de:	9b9c                	0x9b9c
     8e0:	0001                	nop
     8e2:	0e00                	addi	s0,sp,784
     8e4:	6d66                	ld	s10,88(sp)
     8e6:	0074                	addi	a3,sp,12
     8e8:	6201                	0x6201
     8ea:	1801                	addi	a6,a6,-32
     8ec:	0000019b          	sext.w	gp,zero
     8f0:	7f989103          	lh	sp,2041(a7)
     8f4:	7261100f          	0x7261100f
     8f8:	64010067          	jr	1600(sp)
     8fc:	0a01                	addi	s4,s4,0
     8fe:	002d                	c.nop	11
     900:	0000                	unimp
     902:	7fa09103          	lh	sp,2042(ra) # 47fa <_start-0x1d806>
     906:	6c10                	ld	a2,24(s0)
     908:	6e65                	lui	t3,0x19
     90a:	0100                	addi	s0,sp,128
     90c:	0165                	addi	sp,sp,25
     90e:	5b06                	lw	s6,96(sp)
     910:	0000                	unimp
     912:	0300                	addi	s0,sp,384
     914:	a891                	j	968 <_start-0x21698>
     916:	0069107f          	0x69107f
     91a:	6601                	0x6601
     91c:	0601                	addi	a2,a2,0
     91e:	0000005b          	0x5b
     922:	7fac9103          	lh	sp,2042(s9) # 47fa <_start-0x1d806>
     926:	0c00                	addi	s0,sp,528
     928:	9c08                	0x9c08
     92a:	0000                	unimp
     92c:	1100                	addi	s0,sp,160
     92e:	000003ab          	0x3ab
     932:	5501                	li	a0,-32
     934:	0601                	addi	a2,a2,0
     936:	36e8                	fld	fa0,232(a3)
     938:	0002                	c.slli64	zero
     93a:	0000                	unimp
     93c:	0000                	unimp
     93e:	009c                	addi	a5,sp,64
     940:	0000                	unimp
     942:	0000                	unimp
     944:	0000                	unimp
     946:	9c01                	subw	s0,s0,s0
     948:	000001cf          	fnmadd.s	ft3,ft0,ft0,ft0,rne
     94c:	6910                	ld	a2,16(a0)
     94e:	0100                	addi	s0,sp,128
     950:	7e100157          	0x7e100157
     954:	0000                	unimp
     956:	0200                	addi	s0,sp,256
     958:	6891                	lui	a7,0x4
     95a:	1200                	addi	s0,sp,288
     95c:	0305                	addi	t1,t1,1
     95e:	0000                	unimp
     960:	9201                	srli	a2,a2,0x20
     962:	5b05                	li	s6,-31
     964:	0000                	unimp
     966:	4000                	lw	s0,0(s0)
     968:	0000022f          	vamoaddei8.v	zero,(zero),v0,v4,v0.t
     96c:	0000                	unimp
     96e:	a800                	fsd	fs0,16(s0)
     970:	00000007          	vle8.v	v0,(zero),v0.t
     974:	0000                	unimp
     976:	0100                	addi	s0,sp,128
     978:	e59c                	sd	a5,8(a1)
     97a:	0002                	c.slli64	zero
     97c:	1300                	addi	s0,sp,416
     97e:	0222                	slli	tp,tp,0x8
     980:	0000                	unimp
     982:	9201                	srli	a2,a2,0x20
     984:	1814                	addi	a3,sp,48
     986:	0001                	nop
     988:	0300                	addi	s0,sp,384
     98a:	a891                	j	9de <_start-0x21622>
     98c:	0241137f          	0x241137f
     990:	0000                	unimp
     992:	9201                	srli	a2,a2,0x20
     994:	6229                	lui	tp,0xa
     996:	0000                	unimp
     998:	0300                	addi	s0,sp,384
     99a:	a491                	j	bde <_start-0x21422>
     99c:	6d66147f          	0x6d66147f
     9a0:	0074                	addi	a3,sp,12
     9a2:	9301                	srli	a4,a4,0x20
     9a4:	00019b0f          	0x19b0f
     9a8:	0300                	addi	s0,sp,384
     9aa:	9891                	andi	s1,s1,-28
     9ac:	7261147f          	0x7261147f
     9b0:	93010067          	jr	-1744(sp)
     9b4:	2d1c                	fld	fa5,24(a0)
     9b6:	0000                	unimp
     9b8:	0300                	addi	s0,sp,384
     9ba:	9091                	srli	s1,s1,0x24
     9bc:	6f70157f          	0x6f70157f
     9c0:	95010073          	0x95010073
     9c4:	1808                	addi	a0,sp,48
     9c6:	0001                	nop
     9c8:	0200                	addi	s0,sp,256
     9ca:	6891                	lui	a7,0x4
     9cc:	4409                	li	s0,2
     9ce:	01000003          	lb	zero,16(zero) # 10 <_start-0x21ff0>
     9d2:	0696                	slli	a3,a3,0x5
     9d4:	0000005b          	0x5b
     9d8:	9102                	jalr	sp
     9da:	0964                	addi	s1,sp,156
     9dc:	0000031b          	sext.w	t1,zero
     9e0:	9701                	srai	a4,a4,0x20
     9e2:	5b06                	lw	s6,96(sp)
     9e4:	0000                	unimp
     9e6:	0300                	addi	s0,sp,384
     9e8:	b491                	j	42c <_start-0x21bd4>
     9ea:	0364097f          	0x364097f
     9ee:	0000                	unimp
     9f0:	9801                	andi	s0,s0,-32
     9f2:	5b06                	lw	s6,96(sp)
     9f4:	0000                	unimp
     9f6:	0300                	addi	s0,sp,384
     9f8:	b091                	j	23c <_start-0x21dc4>
     9fa:	02c1097f          	0x2c1097f
     9fe:	0000                	unimp
     a00:	9901                	andi	a0,a0,-32
     a02:	5b06                	lw	s6,96(sp)
     a04:	0000                	unimp
     a06:	0200                	addi	s0,sp,256
     a08:	6091                	lui	ra,0x4
     a0a:	6915                	lui	s2,0x5
     a0c:	0070                	addi	a2,sp,12
     a0e:	9a01                	andi	a2,a2,-32
     a10:	1808                	addi	a0,sp,48
     a12:	0001                	nop
     a14:	0300                	addi	s0,sp,384
     a16:	b891                	j	26a <_start-0x21d96>
     a18:	0073157f          	0x73157f
     a1c:	9b01                	andi	a4,a4,-32
     a1e:	1808                	addi	a0,sp,48
     a20:	0001                	nop
     a22:	0200                	addi	s0,sp,256
     a24:	5891                	li	a7,-28
     a26:	6915                	lui	s2,0x5
     a28:	0100                	addi	s0,sp,128
     a2a:	069c                	addi	a5,sp,832
     a2c:	0000005b          	0x5b
     a30:	9102                	jalr	sp
     a32:	1554                	addi	a3,sp,676
     a34:	656c                	ld	a1,200(a0)
     a36:	006e                	c.slli	zero,0x1b
     a38:	9d01                	subw	a0,a0,s0
     a3a:	5b06                	lw	s6,96(sp)
     a3c:	0000                	unimp
     a3e:	0200                	addi	s0,sp,256
     a40:	5091                	li	ra,-28
     a42:	6e15                	lui	t3,0x5
     a44:	6d75                	lui	s10,0x1d
     a46:	0100                	addi	s0,sp,128
     a48:	109e                	slli	ra,ra,0x27
     a4a:	007e                	c.slli	zero,0x1f
     a4c:	0000                	unimp
     a4e:	9102                	jalr	sp
     a50:	0948                	addi	a0,sp,148
     a52:	0300                	addi	s0,sp,384
     a54:	0000                	unimp
     a56:	9f01                	subw	a4,a4,s0
     a58:	5b06                	lw	s6,96(sp)
     a5a:	0000                	unimp
     a5c:	0200                	addi	s0,sp,256
     a5e:	4491                	li	s1,4
     a60:	5d16                	lw	s10,100(sp)
     a62:	01000003          	lb	zero,16(zero) # 10 <_start-0x21ff0>
     a66:	2fa401ab          	0x2fa401ab
     a6a:	0002                	c.slli64	zero
     a6c:	0000                	unimp
     a6e:	0000                	unimp
     a70:	1700                	addi	s0,sp,928
     a72:	0386                	slli	t2,t2,0x1
     a74:	0000                	unimp
     a76:	3701                	addiw	a4,a4,-32
     a78:	180e                	slli	a6,a6,0x23
     a7a:	0001                	nop
     a7c:	4000                	lw	s0,0(s0)
     a7e:	0000022b          	0x22b
     a82:	0000                	unimp
     a84:	0000                	unimp
     a86:	0004                	0x4
     a88:	0000                	unimp
     a8a:	0000                	unimp
     a8c:	0100                	addi	s0,sp,128
     a8e:	ef9c                	sd	a5,24(a5)
     a90:	14000003          	lb	zero,320(zero) # 140 <_start-0x21ec0>
     a94:	00727473          	csrrci	s0,0x7,4
     a98:	3701                	addiw	a4,a4,-32
     a9a:	0001181b          	slliw	a6,sp,0x0
     a9e:	0300                	addi	s0,sp,384
     aa0:	b891                	j	2f4 <_start-0x21d0c>
     aa2:	147e                	slli	s0,s0,0x3f
     aa4:	756e                	ld	a0,248(sp)
     aa6:	006d                	c.nop	27
     aa8:	3701                	addiw	a4,a4,-32
     aaa:	7e2e                	ld	t3,232(sp)
     aac:	0000                	unimp
     aae:	0300                	addi	s0,sp,384
     ab0:	b091                	j	2f4 <_start-0x21d0c>
     ab2:	137e                	slli	t1,t1,0x3f
     ab4:	0300                	addi	s0,sp,384
     ab6:	0000                	unimp
     ab8:	3701                	addiw	a4,a4,-32
     aba:	00005b37          	lui	s6,0x5
     abe:	0300                	addi	s0,sp,384
     ac0:	ac91                	j	d14 <_start-0x212ec>
     ac2:	137e                	slli	t1,t1,0x3f
     ac4:	0241                	addi	tp,tp,16
     ac6:	0000                	unimp
     ac8:	3701                	addiw	a4,a4,-32
     aca:	5b41                	li	s6,-16
     acc:	0000                	unimp
     ace:	0300                	addi	s0,sp,384
     ad0:	a891                	j	b24 <_start-0x214dc>
     ad2:	137e                	slli	t1,t1,0x3f
     ad4:	0364                	addi	s1,sp,396
     ad6:	0000                	unimp
     ad8:	3701                	addiw	a4,a4,-32
     ada:	00005b4b          	fnmsub.s	fs6,ft0,ft0,ft0,unknown
     ade:	0300                	addi	s0,sp,384
     ae0:	a491                	j	d24 <_start-0x212dc>
     ae2:	137e                	slli	t1,t1,0x3f
     ae4:	0375                	addi	t1,t1,29
     ae6:	0000                	unimp
     ae8:	3801                	addiw	a6,a6,-32
     aea:	5b08                	lw	a0,48(a4)
     aec:	0000                	unimp
     aee:	0300                	addi	s0,sp,384
     af0:	a091                	j	b34 <_start-0x214cc>
     af2:	157e                	slli	a0,a0,0x3f
     af4:	3a010063          	beqz	sp,e94 <_start-0x2116c>
     af8:	00009507          	flh	fa0,0(ra) # 4000 <_start-0x1e000>
     afc:	0200                	addi	s0,sp,256
     afe:	5b91                	li	s7,-28
     b00:	a009                	j	b02 <_start-0x214fe>
     b02:	01000003          	lb	zero,16(zero) # 10 <_start-0x21ff0>
     b06:	0a3a                	slli	s4,s4,0xe
     b08:	0095                	addi	ra,ra,5
     b0a:	0000                	unimp
     b0c:	9102                	jalr	sp
     b0e:	6d74156f          	jal	a0,429e4 <_ebss+0x1b7cc>
     b12:	0070                	addi	a2,sp,12
     b14:	3a01                	addiw	s4,s4,-32
     b16:	ef14                	sd	a3,24(a4)
     b18:	03000003          	lb	zero,48(zero) # 30 <_start-0x21fd0>
     b1c:	c891                	beqz	s1,b30 <_start-0x214d0>
     b1e:	097e                	slli	s2,s2,0x1f
     b20:	00000327          	vse8.v	v6,(zero),v0.t
     b24:	3b01                	addiw	s6,s6,-32
     b26:	00007707          	vle64.v	v14,(zero),v0.t
     b2a:	0200                	addi	s0,sp,256
     b2c:	5091                	li	ra,-28
     b2e:	6e09                	lui	t3,0x2
     b30:	01000003          	lb	zero,16(zero) # 10 <_start-0x21ff0>
     b34:	0e3d                	addi	t3,t3,15
     b36:	0000019b          	sext.w	gp,zero
     b3a:	9102                	jalr	sp
     b3c:	1560                	addi	s0,sp,684
     b3e:	0069                	c.nop	26
     b40:	3e01                	addiw	t3,t3,-32
     b42:	5b06                	lw	s6,96(sp)
     b44:	0000                	unimp
     b46:	0200                	addi	s0,sp,256
     b48:	5c91                	li	s9,-28
     b4a:	1018                	addi	a4,sp,32
     b4c:	022d                	addi	tp,tp,11
     b4e:	0000                	unimp
     b50:	0000                	unimp
     b52:	2c00                	fld	fs0,24(s0)
     b54:	0000                	unimp
     b56:	0000                	unimp
     b58:	0000                	unimp
     b5a:	0900                	addi	s0,sp,144
     b5c:	02fe                	slli	t0,t0,0x1f
     b5e:	0000                	unimp
     b60:	6301                	0x6301
     b62:	6226                	ld	tp,72(sp)
     b64:	0000                	unimp
     b66:	0200                	addi	s0,sp,256
     b68:	4c91                	li	s9,4
     b6a:	a509                	j	116c <_start-0x20e94>
     b6c:	01000003          	lb	zero,16(zero) # 10 <_start-0x21ff0>
     b70:	00624463          	blt	tp,t1,b78 <_start-0x21488>
     b74:	0000                	unimp
     b76:	9102                	jalr	sp
     b78:	0048                	addi	a0,sp,4
     b7a:	0600                	addi	s0,sp,768
     b7c:	0095                	addi	ra,ra,5
     b7e:	0000                	unimp
     b80:	000003ff          	0x3ff
     b84:	00007e07          	vle64.v	v28,(zero),v0.t
     b88:	7f00                	ld	s0,56(a4)
     b8a:	1700                	addi	s0,sp,928
     b8c:	0381                	addi	t2,t2,0
     b8e:	0000                	unimp
     b90:	2a01                	sext.w	s4,s4
     b92:	9b14                	0x9b14
     b94:	0001                	nop
     b96:	9c00                	0x9c00
     b98:	022a                	slli	tp,tp,0xa
     b9a:	0000                	unimp
     b9c:	0000                	unimp
     b9e:	a400                	fsd	fs0,8(s0)
     ba0:	0000                	unimp
     ba2:	0000                	unimp
     ba4:	0000                	unimp
     ba6:	0100                	addi	s0,sp,128
     ba8:	4f9c                	lw	a5,24(a5)
     baa:	0004                	0x4
     bac:	1300                	addi	s0,sp,416
     bae:	0222                	slli	tp,tp,0x8
     bb0:	0000                	unimp
     bb2:	2a01                	sext.w	s4,s4
     bb4:	9b2c                	0x9b2c
     bb6:	0001                	nop
     bb8:	0200                	addi	s0,sp,256
     bba:	5891                	li	a7,-28
     bbc:	00038613          	mv	a2,t2
     bc0:	0100                	addi	s0,sp,128
     bc2:	392a                	fld	fs2,168(sp)
     bc4:	0000044f          	fnmadd.s	fs0,ft0,ft0,ft0,rne
     bc8:	9102                	jalr	sp
     bca:	1550                	addi	a2,sp,676
     bcc:	6d74                	ld	a3,216(a0)
     bce:	0070                	addi	a2,sp,12
     bd0:	2c01                	sext.w	s8,s8
     bd2:	5b06                	lw	s6,96(sp)
     bd4:	0000                	unimp
     bd6:	0200                	addi	s0,sp,256
     bd8:	6c91                	lui	s9,0x4
     bda:	0c00                	addi	s0,sp,528
     bdc:	5b08                	lw	a0,48(a4)
     bde:	0000                	unimp
     be0:	0000                	unimp
     be2:	0104                	addi	s1,sp,128
     be4:	0000                	unimp
     be6:	0004                	0x4
     be8:	000003f7          	radd16	t2,zero,zero
     bec:	0108                	addi	a0,sp,128
     bee:	0124                	addi	s1,sp,136
     bf0:	0000                	unimp
     bf2:	bc0c                	fsd	fa1,56(s0)
     bf4:	42000003          	lb	zero,1056(zero) # 420 <_start-0x21be0>
     bf8:	0000                	unimp
     bfa:	0400                	addi	s0,sp,512
     bfc:	0239                	addi	tp,tp,14
     bfe:	0000                	unimp
     c00:	0000                	unimp
     c02:	c000                	sw	s0,0(s0)
     c04:	0000                	unimp
     c06:	0000                	unimp
     c08:	0000                	unimp
     c0a:	ef00                	sd	s0,24(a4)
     c0c:	0011                	c.nop	4
     c0e:	0200                	addi	s0,sp,256
     c10:	025f 0000 0201      	0x2010000025f
     c16:	391c                	fld	fa5,48(a0)
     c18:	0000                	unimp
     c1a:	0300                	addi	s0,sp,384
     c1c:	0708                	addi	a0,sp,896
     c1e:	000001c3          	fmadd.s	ft3,ft0,ft0,ft0,rne
     c22:	ce04                	sw	s1,24(a2)
     c24:	01000003          	lb	zero,16(zero) # 10 <_start-0x21ff0>
     c28:	070e                	slli	a4,a4,0x3
     c2a:	00ac                	addi	a1,sp,72
     c2c:	0000                	unimp
     c2e:	3954                	fld	fa3,176(a0)
     c30:	0002                	c.slli64	zero
     c32:	0000                	unimp
     c34:	0000                	unimp
     c36:	0070                	addi	a2,sp,12
     c38:	0000                	unimp
     c3a:	0000                	unimp
     c3c:	0000                	unimp
     c3e:	9c01                	subw	s0,s0,s0
     c40:	00ac                	addi	a1,sp,72
     c42:	0000                	unimp
     c44:	c905                	beqz	a0,c74 <_start-0x2138c>
     c46:	01000003          	lb	zero,16(zero) # 10 <_start-0x21ff0>
     c4a:	140e                	slli	s0,s0,0x23
     c4c:	00ac                	addi	a1,sp,72
     c4e:	0000                	unimp
     c50:	9102                	jalr	sp
     c52:	0658                	addi	a4,sp,772
     c54:	00637273          	csrrci	tp,0x6,6
     c58:	0e01                	addi	t3,t3,0
     c5a:	ae26                	fsd	fs1,280(sp)
     c5c:	0000                	unimp
     c5e:	0200                	addi	s0,sp,256
     c60:	5091                	li	ra,-28
     c62:	9f05                	subw	a4,a4,s1
     c64:	0002                	c.slli64	zero
     c66:	0100                	addi	s0,sp,128
     c68:	320e                	fld	ft4,224(sp)
     c6a:	002d                	c.nop	11
     c6c:	0000                	unimp
     c6e:	9102                	jalr	sp
     c70:	0748                	addi	a0,sp,900
     c72:	6d74                	ld	a3,216(a0)
     c74:	0070                	addi	a2,sp,12
     c76:	1001                	c.nop	-32
     c78:	b508                	fsd	fa0,40(a0)
     c7a:	0000                	unimp
     c7c:	0200                	addi	s0,sp,256
     c7e:	6891                	lui	a7,0x4
     c80:	01007307          	vle64ff.v	v6,(zero),v0.t
     c84:	0e11                	addi	t3,t3,4
     c86:	000000c7          	fmsub.s	ft1,ft0,ft0,ft0,rne
     c8a:	9102                	jalr	sp
     c8c:	0060                	addi	s0,sp,12
     c8e:	0808                	addi	a0,sp,16
     c90:	0809                	addi	a6,a6,2
     c92:	00b4                	addi	a3,sp,72
     c94:	0000                	unimp
     c96:	090a                	slli	s2,s2,0x2
     c98:	bb08                	fsd	fa0,48(a4)
     c9a:	0000                	unimp
     c9c:	0300                	addi	s0,sp,384
     c9e:	0801                	addi	a6,a6,0
     ca0:	00de                	slli	ra,ra,0x17
     ca2:	0000                	unimp
     ca4:	0000bb0b          	extu	s6,ra,0,0
     ca8:	0900                	addi	s0,sp,144
     caa:	c208                	sw	a0,0(a2)
     cac:	0000                	unimp
     cae:	0c00                	addi	s0,sp,528
     cb0:	03d5                	addi	t2,t2,21
     cb2:	0000                	unimp
     cb4:	0401                	addi	s0,s0,0
     cb6:	2d08                	fld	fa0,24(a0)
     cb8:	0000                	unimp
     cba:	0400                	addi	s0,sp,512
     cbc:	0239                	addi	tp,tp,14
     cbe:	0000                	unimp
     cc0:	0000                	unimp
     cc2:	5000                	lw	s0,32(s0)
     cc4:	0000                	unimp
     cc6:	0000                	unimp
     cc8:	0000                	unimp
     cca:	0100                	addi	s0,sp,128
     ccc:	069c                	addi	a5,sp,832
     cce:	04010073          	0x4010073
     cd2:	0000c71b          	0xc71b
     cd6:	0200                	addi	s0,sp,256
     cd8:	5891                	li	a7,-28
     cda:	00637307          	0x637307
     cde:	0601                	addi	a2,a2,0
     ce0:	c70e                	sw	gp,140(sp)
     ce2:	0000                	unimp
     ce4:	0200                	addi	s0,sp,256
     ce6:	6891                	lui	a7,0x4
     ce8:	0000                	unimp
     cea:	0000025b          	0x25b
     cee:	0004                	0x4
     cf0:	04ae                	slli	s1,s1,0xb
     cf2:	0000                	unimp
     cf4:	0108                	addi	a0,sp,128
     cf6:	0124                	addi	s1,sp,136
     cf8:	0000                	unimp
     cfa:	5b0c                	lw	a1,48(a4)
     cfc:	0004                	0x4
     cfe:	4200                	lw	s0,0(a2)
     d00:	0000                	unimp
     d02:	c400                	sw	s0,8(s0)
     d04:	0239                	addi	tp,tp,14
     d06:	0000                	unimp
     d08:	0000                	unimp
     d0a:	b000                	fsd	fs0,32(s0)
     d0c:	00000007          	vle8.v	v0,(zero),v0.t
     d10:	0000                	unimp
     d12:	d200                	sw	s0,32(a2)
     d14:	0012                	c.slli	zero,0x4
     d16:	0200                	addi	s0,sp,256
     d18:	0601                	addi	a2,a2,0
     d1a:	000000d7          	vadd.vv	v1,v0,v0,v0.t
     d1e:	0102                	c.slli64	sp
     d20:	d508                	sw	a0,40(a0)
     d22:	0000                	unimp
     d24:	0200                	addi	s0,sp,256
     d26:	0502                	c.slli64	a0
     d28:	00000203          	lb	tp,0(zero) # 0 <_start-0x22000>
     d2c:	0202                	c.slli64	tp
     d2e:	00010307          	vle8.v	v6,(sp),v0.t
     d32:	0300                	addi	s0,sp,384
     d34:	0504                	addi	s1,sp,640
     d36:	6e69                	lui	t3,0x1a
     d38:	0074                	addi	a3,sp,12
     d3a:	3d04                	fld	fs1,56(a0)
     d3c:	0004                	0x4
     d3e:	0300                	addi	s0,sp,384
     d40:	005c160f          	0x5c160f
     d44:	0000                	unimp
     d46:	0402                	c.slli64	s0
     d48:	0001cd07          	flq	fs10,0(gp)
     d4c:	0200                	addi	s0,sp,256
     d4e:	0508                	addi	a0,sp,640
     d50:	01e1                	addi	gp,gp,24
     d52:	0000                	unimp
     d54:	0802                	c.slli64	a6
     d56:	0001c307          	flq	ft6,0(gp)
     d5a:	0200                	addi	s0,sp,256
     d5c:	0508                	addi	a0,sp,640
     d5e:	01e6                	slli	gp,gp,0x19
     d60:	0000                	unimp
     d62:	0802                	c.slli64	a6
     d64:	0001c807          	flq	fa6,0(gp)
     d68:	0400                	addi	s0,sp,512
     d6a:	042e                	slli	s0,s0,0xb
     d6c:	0000                	unimp
     d6e:	6a1c2403          	lw	s0,1697(s8) # 46a1 <_start-0x1d95f>
     d72:	0000                	unimp
     d74:	0400                	addi	s0,sp,512
     d76:	0452                	slli	s0,s0,0x14
     d78:	0000                	unimp
     d7a:	1104                	addi	s1,sp,160
     d7c:	0000500f          	0x500f
     d80:	0500                	addi	s0,sp,640
     d82:	00000473          	0x473
     d86:	d002                	sw	zero,32(sp)
     d88:	f006                	sd	ra,32(sp)
     d8a:	0240                	addi	s0,sp,260
     d8c:	0000                	unimp
     d8e:	0000                	unimp
     d90:	8400                	0x8400
     d92:	0000                	unimp
     d94:	0000                	unimp
     d96:	0000                	unimp
     d98:	0100                	addi	s0,sp,128
     d9a:	069c                	addi	a5,sp,832
     d9c:	0000040b          	0x40b
     da0:	b702                	fsd	ft0,424(sp)
     da2:	f00d                	bnez	s0,cc4 <_start-0x2133c>
     da4:	0000023f 00000000 	0x23f
     dac:	0001                	nop
     dae:	0000                	unimp
     db0:	0000                	unimp
     db2:	0100                	addi	s0,sp,128
     db4:	ee9c                	sd	a5,24(a3)
     db6:	0000                	unimp
     db8:	0700                	addi	s0,sp,896
     dba:	00d0                	addi	a2,sp,68
     dbc:	0000                	unimp
     dbe:	b702                	fsd	ft0,424(sp)
     dc0:	00007f27          	vse64.v	v30,(zero),v0.t
     dc4:	0200                	addi	s0,sp,256
     dc6:	5891                	li	a7,-28
     dc8:	7608                	ld	a0,40(a2)
     dca:	6c61                	lui	s8,0x18
     dcc:	0200                	addi	s0,sp,256
     dce:	0bb9                	addi	s7,s7,14
     dd0:	0000008b          	0x8b
     dd4:	9102                	jalr	sp
     dd6:	006c                	addi	a1,sp,12
     dd8:	1e06                	slli	t3,t3,0x21
     dda:	0004                	0x4
     ddc:	0200                	addi	s0,sp,256
     dde:	0dac                	addi	a1,sp,728
     de0:	3f8c                	fld	fa1,56(a5)
     de2:	0002                	c.slli64	zero
     de4:	0000                	unimp
     de6:	0000                	unimp
     de8:	0064                	addi	s1,sp,12
     dea:	0000                	unimp
     dec:	0000                	unimp
     dee:	0000                	unimp
     df0:	9c01                	subw	s0,s0,s0
     df2:	011c                	addi	a5,sp,128
     df4:	0000                	unimp
     df6:	7608                	ld	a0,40(a2)
     df8:	6c61                	lui	s8,0x18
     dfa:	0200                	addi	s0,sp,256
     dfc:	0bae                	slli	s7,s7,0xb
     dfe:	0000008b          	0x8b
     e02:	9102                	jalr	sp
     e04:	006c                	addi	a1,sp,12
     e06:	4309                	li	t1,2
     e08:	0004                	0x4
     e0a:	0200                	addi	s0,sp,256
     e0c:	3f000da3          	sb	a6,1019(zero) # 3fb <_start-0x21c05>
     e10:	0002                	c.slli64	zero
     e12:	0000                	unimp
     e14:	0000                	unimp
     e16:	008c                	addi	a1,sp,64
     e18:	0000                	unimp
     e1a:	0000                	unimp
     e1c:	0000                	unimp
     e1e:	9c01                	subw	s0,s0,s0
     e20:	f309                	bnez	a4,d22 <_start-0x212de>
     e22:	02000003          	lb	zero,32(zero) # 20 <_start-0x21fe0>
     e26:	0d9c                	addi	a5,sp,720
     e28:	3e90                	fld	fa2,56(a3)
     e2a:	0002                	c.slli64	zero
     e2c:	0000                	unimp
     e2e:	0000                	unimp
     e30:	0070                	addi	a2,sp,12
     e32:	0000                	unimp
     e34:	0000                	unimp
     e36:	0000                	unimp
     e38:	9c01                	subw	s0,s0,s0
     e3a:	6b09                	lui	s6,0x2
     e3c:	0004                	0x4
     e3e:	0200                	addi	s0,sp,256
     e40:	0d95                	addi	s11,s11,5
     e42:	3e20                	fld	fs0,120(a2)
     e44:	0002                	c.slli64	zero
     e46:	0000                	unimp
     e48:	0000                	unimp
     e4a:	0070                	addi	a2,sp,12
     e4c:	0000                	unimp
     e4e:	0000                	unimp
     e50:	0000                	unimp
     e52:	9c01                	subw	s0,s0,s0
     e54:	fb06                	sd	ra,432(sp)
     e56:	02000003          	lb	zero,32(zero) # 20 <_start-0x21fe0>
     e5a:	0d71                	addi	s10,s10,28
     e5c:	3cac                	fld	fa1,120(s1)
     e5e:	0002                	c.slli64	zero
     e60:	0000                	unimp
     e62:	0000                	unimp
     e64:	0174                	addi	a3,sp,140
     e66:	0000                	unimp
     e68:	0000                	unimp
     e6a:	0000                	unimp
     e6c:	9c01                	subw	s0,s0,s0
     e6e:	0198                	addi	a4,sp,192
     e70:	0000                	unimp
     e72:	7608                	ld	a0,40(a2)
     e74:	6c61                	lui	s8,0x18
     e76:	0200                	addi	s0,sp,256
     e78:	008b0b73          	0x8b0b73
     e7c:	0000                	unimp
     e7e:	9102                	jalr	sp
     e80:	006c                	addi	a1,sp,12
     e82:	e206                	sd	ra,256(sp)
     e84:	02000003          	lb	zero,32(zero) # 20 <_start-0x21fe0>
     e88:	3a680d37          	lui	s10,0x3a680
     e8c:	0002                	c.slli64	zero
     e8e:	0000                	unimp
     e90:	0000                	unimp
     e92:	0244                	addi	s1,sp,260
     e94:	0000                	unimp
     e96:	0000                	unimp
     e98:	0000                	unimp
     e9a:	9c01                	subw	s0,s0,s0
     e9c:	01c6                	slli	gp,gp,0x11
     e9e:	0000                	unimp
     ea0:	7608                	ld	a0,40(a2)
     ea2:	6c61                	lui	s8,0x18
     ea4:	0200                	addi	s0,sp,256
     ea6:	0b39                	addi	s6,s6,14
     ea8:	0000008b          	0x8b
     eac:	9102                	jalr	sp
     eae:	006c                	addi	a1,sp,12
     eb0:	4b0a                	lw	s6,128(sp)
     eb2:	0004                	0x4
     eb4:	0200                	addi	s0,sp,256
     eb6:	3a240627          	0x3a240627
     eba:	0002                	c.slli64	zero
     ebc:	0000                	unimp
     ebe:	0000                	unimp
     ec0:	0044                	addi	s1,sp,4
     ec2:	0000                	unimp
     ec4:	0000                	unimp
     ec6:	0000                	unimp
     ec8:	9c01                	subw	s0,s0,s0
     eca:	000001f3          	0x1f3
     ece:	0073750b          	0x73750b
     ed2:	2702                	fld	fa4,0(sp)
     ed4:	0000781b          	0x781b
     ed8:	0200                	addi	s0,sp,256
     eda:	6891                	lui	a7,0x4
     edc:	0c00                	addi	s0,sp,528
     ede:	0416                	slli	s0,s0,0x5
     ee0:	0000                	unimp
     ee2:	2801                	sext.w	a6,a6
     ee4:	f014                	sd	a3,32(s0)
     ee6:	0239                	addi	tp,tp,14
     ee8:	0000                	unimp
     eea:	0000                	unimp
     eec:	3400                	fld	fs0,40(s0)
     eee:	0000                	unimp
     ef0:	0000                	unimp
     ef2:	0000                	unimp
     ef4:	0100                	addi	s0,sp,128
     ef6:	309c                	fld	fa5,32(s1)
     ef8:	0002                	c.slli64	zero
     efa:	0700                	addi	s0,sp,896
     efc:	00d0                	addi	a2,sp,68
     efe:	0000                	unimp
     f00:	2801                	sext.w	a6,a6
     f02:	00007f2b          	0x7f2b
     f06:	0200                	addi	s0,sp,256
     f08:	6891                	lui	a7,0x4
     f0a:	0003dc07          	vle16.v	v24,(t2),v0.t
     f0e:	0100                	addi	s0,sp,128
     f10:	3728                	fld	fa0,104(a4)
     f12:	0050                	addi	a2,sp,4
     f14:	0000                	unimp
     f16:	9102                	jalr	sp
     f18:	0064                	addi	s1,sp,12
     f1a:	270d                	addiw	a4,a4,3
     f1c:	0004                	0x4
     f1e:	0100                	addi	s0,sp,128
     f20:	1514                	addi	a3,sp,672
     f22:	0050                	addi	a2,sp,4
     f24:	0000                	unimp
     f26:	39c4                	fld	fs1,176(a1)
     f28:	0002                	c.slli64	zero
     f2a:	0000                	unimp
     f2c:	0000                	unimp
     f2e:	002c                	addi	a1,sp,8
     f30:	0000                	unimp
     f32:	0000                	unimp
     f34:	0000                	unimp
     f36:	9c01                	subw	s0,s0,s0
     f38:	0000d007          	vle16.v	v0,(ra),v0.t
     f3c:	0100                	addi	s0,sp,128
     f3e:	2b14                	fld	fa3,16(a4)
     f40:	0000007f          	0x7f
     f44:	9102                	jalr	sp
     f46:	0068                	addi	a0,sp,12
     f48:	f500                	sd	s0,40(a0)
     f4a:	0004                	0x4
     f4c:	0400                	addi	s0,sp,512
     f4e:	b600                	fsd	fs0,40(a2)
     f50:	0005                	c.nop	1
     f52:	0800                	addi	s0,sp,16
     f54:	2401                	sext.w	s0,s0
     f56:	0001                	nop
     f58:	0c00                	addi	s0,sp,528
     f5a:	04b6                	slli	s1,s1,0xd
     f5c:	0000                	unimp
     f5e:	0042                	c.slli	zero,0x10
     f60:	0000                	unimp
     f62:	4174                	lw	a3,68(a0)
     f64:	0002                	c.slli64	zero
     f66:	0000                	unimp
     f68:	0000                	unimp
     f6a:	0a40                	addi	s0,sp,276
     f6c:	0000                	unimp
     f6e:	0000                	unimp
     f70:	0000                	unimp
     f72:	1745                	addi	a4,a4,-15
     f74:	0000                	unimp
     f76:	0102                	c.slli64	sp
     f78:	d706                	sw	ra,172(sp)
     f7a:	0000                	unimp
     f7c:	0300                	addi	s0,sp,384
     f7e:	04cd                	addi	s1,s1,19
     f80:	0000                	unimp
     f82:	40170903          	lb	s2,1025(a4) # 18401 <_start-0x9bff>
     f86:	0000                	unimp
     f88:	0200                	addi	s0,sp,256
     f8a:	0801                	addi	a6,a6,0
     f8c:	00d5                	addi	ra,ra,21
     f8e:	0000                	unimp
     f90:	0202                	c.slli64	tp
     f92:	0305                	addi	t1,t1,1
     f94:	0002                	c.slli64	zero
     f96:	0200                	addi	s0,sp,256
     f98:	0702                	c.slli64	a4
     f9a:	00000103          	lb	sp,0(zero) # 0 <_start-0x22000>
     f9e:	0404                	addi	s1,sp,512
     fa0:	6905                	lui	s2,0x1
     fa2:	746e                	ld	s0,248(sp)
     fa4:	0300                	addi	s0,sp,384
     fa6:	043d                	addi	s0,s0,15
     fa8:	0000                	unimp
     faa:	68160f03          	lb	t5,1665(a2)
     fae:	0000                	unimp
     fb0:	0200                	addi	s0,sp,256
     fb2:	0704                	addi	s1,sp,896
     fb4:	01cd                	addi	gp,gp,19
     fb6:	0000                	unimp
     fb8:	0802                	c.slli64	a6
     fba:	e105                	bnez	a0,fda <_start-0x21026>
     fbc:	0001                	nop
     fbe:	0200                	addi	s0,sp,256
     fc0:	0708                	addi	a0,sp,896
     fc2:	000001c3          	fmadd.s	ft3,ft0,ft0,ft0,rne
     fc6:	0802                	c.slli64	a6
     fc8:	e605                	bnez	a2,ff0 <_start-0x21010>
     fca:	0001                	nop
     fcc:	0200                	addi	s0,sp,256
     fce:	0708                	addi	a0,sp,896
     fd0:	01c8                	addi	a0,sp,196
     fd2:	0000                	unimp
     fd4:	00042e03          	lw	t3,0(s0)
     fd8:	0300                	addi	s0,sp,384
     fda:	1c24                	addi	s1,sp,568
     fdc:	0076                	c.slli	zero,0x1d
     fde:	0000                	unimp
     fe0:	0002d503          	lhu	a0,0(t0)
     fe4:	0400                	addi	s0,sp,512
     fe6:	1b08                	addi	a0,sp,432
     fe8:	000000a3          	sb	zero,1(zero) # 1 <_start-0x21fff>
     fec:	0805                	addi	a6,a6,1
     fee:	000002cb          	fnmsub.s	ft5,ft0,ft0,ft0,rne
     ff2:	00045203          	lhu	tp,0(s0)
     ff6:	0500                	addi	s0,sp,640
     ff8:	0f11                	addi	t5,t5,4
     ffa:	005c                	addi	a5,sp,4
     ffc:	0000                	unimp
     ffe:	8c06                	mv	s8,ra
    1000:	0004                	0x4
    1002:	0200                	addi	s0,sp,256
    1004:	4ae406e7          	jalr	a3,1198(s0)
    1008:	0002                	c.slli64	zero
    100a:	0000                	unimp
    100c:	0000                	unimp
    100e:	00d0                	addi	a2,sp,68
    1010:	0000                	unimp
    1012:	0000                	unimp
    1014:	0000                	unimp
    1016:	9c01                	subw	s0,s0,s0
    1018:	000000ff          	0xff
    101c:	6c617607          	vloxseg4ei64.v	v12,(sp),v6,v0.t
    1020:	0200                	addi	s0,sp,256
    1022:	00681de7          	0x681de7
    1026:	0000                	unimp
    1028:	9102                	jalr	sp
    102a:	085c                	addi	a5,sp,20
    102c:	0069                	c.nop	26
    102e:	e902                	sd	zero,144(sp)
    1030:	5509                	li	a0,-30
    1032:	0000                	unimp
    1034:	0200                	addi	s0,sp,256
    1036:	6c91                	lui	s9,0x4
    1038:	ec09                	bnez	s0,1052 <_start-0x20fae>
    103a:	0004                	0x4
    103c:	0200                	addi	s0,sp,256
    103e:	09ea                	slli	s3,s3,0x1a
    1040:	0055                	c.nop	21
    1042:	0000                	unimp
    1044:	9102                	jalr	sp
    1046:	0068                	addi	a0,sp,12
    1048:	dc0a                	sw	sp,56(sp)
    104a:	0004                	0x4
    104c:	0200                	addi	s0,sp,256
    104e:	05da                	slli	a1,a1,0x16
    1050:	0055                	c.nop	21
    1052:	0000                	unimp
    1054:	4a78                	lw	a4,84(a2)
    1056:	0002                	c.slli64	zero
    1058:	0000                	unimp
    105a:	0000                	unimp
    105c:	006c                	addi	a1,sp,12
    105e:	0000                	unimp
    1060:	0000                	unimp
    1062:	0000                	unimp
    1064:	9c01                	subw	s0,s0,s0
    1066:	0142                	slli	sp,sp,0x10
    1068:	0000                	unimp
    106a:	746d6607          	0x746d6607
    106e:	0200                	addi	s0,sp,256
    1070:	22da                	fld	ft5,400(sp)
    1072:	0142                	slli	sp,sp,0x10
    1074:	0000                	unimp
    1076:	7f989103          	lh	sp,2041(a7) # 47f9 <_start-0x1d807>
    107a:	6176080b          	0x6176080b
    107e:	0200                	addi	s0,sp,256
    1080:	0add                	addi	s5,s5,23
    1082:	00000097          	auipc	ra,0x0
    1086:	7fa89103          	lh	sp,2042(a7)
    108a:	0c00                	addi	s0,sp,528
    108c:	4f08                	lw	a0,24(a4)
    108e:	0001                	nop
    1090:	0200                	addi	s0,sp,256
    1092:	0801                	addi	a6,a6,0
    1094:	00de                	slli	ra,ra,0x17
    1096:	0000                	unimp
    1098:	480d                	li	a6,3
    109a:	0001                	nop
    109c:	0e00                	addi	s0,sp,784
    109e:	7076                	0x7076
    10a0:	0066                	c.slli	zero,0x19
    10a2:	b502                	fsd	ft0,168(sp)
    10a4:	550c                	lw	a1,40(a0)
    10a6:	0000                	unimp
    10a8:	a400                	fsd	fs0,8(s0)
    10aa:	0248                	addi	a0,sp,260
    10ac:	0000                	unimp
    10ae:	0000                	unimp
    10b0:	d400                	sw	s0,40(s0)
    10b2:	0001                	nop
    10b4:	0000                	unimp
    10b6:	0000                	unimp
    10b8:	0100                	addi	s0,sp,128
    10ba:	0f9c                	addi	a5,sp,976
    10bc:	0002                	c.slli64	zero
    10be:	0700                	addi	s0,sp,896
    10c0:	6d66                	ld	s10,88(sp)
    10c2:	0074                	addi	a3,sp,12
    10c4:	b502                	fsd	ft0,168(sp)
    10c6:	421d                	li	tp,7
    10c8:	0001                	nop
    10ca:	0300                	addi	s0,sp,384
    10cc:	b891                	j	920 <_start-0x216e0>
    10ce:	6176077f          	0x6176077f
    10d2:	0200                	addi	s0,sp,256
    10d4:	2ab5                	addiw	s5,s5,13
    10d6:	00000097          	auipc	ra,0x0
    10da:	7fb09103          	lh	sp,2043(ra) # 18d1 <_start-0x2072f>
    10de:	7008                	ld	a0,32(s0)
    10e0:	0200                	addi	s0,sp,256
    10e2:	01420fb7          	lui	t6,0x1420
    10e6:	0000                	unimp
    10e8:	9102                	jalr	sp
    10ea:	0868                	addi	a0,sp,28
    10ec:	0071                	c.nop	28
    10ee:	b702                	fsd	ft0,424(sp)
    10f0:	4214                	lw	a3,0(a2)
    10f2:	0001                	nop
    10f4:	0200                	addi	s0,sp,256
    10f6:	6091                	lui	ra,0x4
    10f8:	6608                	ld	a0,8(a2)
    10fa:	0200                	addi	s0,sp,256
    10fc:	06b8                	addi	a4,sp,840
    10fe:	0055                	c.nop	21
    1100:	0000                	unimp
    1102:	9102                	jalr	sp
    1104:	085c                	addi	a5,sp,20
    1106:	b8020063          	beqz	tp,486 <_start-0x21b7a>
    110a:	5509                	li	a0,-30
    110c:	0000                	unimp
    110e:	0200                	addi	s0,sp,256
    1110:	5091                	li	ra,-28
    1112:	7608                	ld	a0,40(a2)
    1114:	6961                	lui	s2,0x18
    1116:	0200                	addi	s0,sp,256
    1118:	0cb8                	addi	a4,sp,600
    111a:	0055                	c.nop	21
    111c:	0000                	unimp
    111e:	9102                	jalr	sp
    1120:	0848                	addi	a0,sp,20
    1122:	6c70                	ld	a2,216(s0)
    1124:	0200                	addi	s0,sp,256
    1126:	11b8                	addi	a4,sp,232
    1128:	0055                	c.nop	21
    112a:	0000                	unimp
    112c:	9102                	jalr	sp
    112e:	0844                	addi	s1,sp,20
    1130:	6370                	ld	a2,192(a4)
    1132:	0200                	addi	s0,sp,256
    1134:	15b8                	addi	a4,sp,744
    1136:	0055                	c.nop	21
    1138:	0000                	unimp
    113a:	9102                	jalr	sp
    113c:	0854                	addi	a3,sp,20
    113e:	0069                	c.nop	26
    1140:	b802                	fsd	ft0,48(sp)
    1142:	5519                	li	a0,-26
    1144:	0000                	unimp
    1146:	0200                	addi	s0,sp,256
    1148:	5891                	li	a7,-28
    114a:	7408                	ld	a0,40(s0)
    114c:	0200                	addi	s0,sp,256
    114e:	10b9                	addi	ra,ra,-18
    1150:	0040                	addi	s0,sp,4
    1152:	0000                	unimp
    1154:	9102                	jalr	sp
    1156:	fb0f004f          	fnmadd.d	ft0,ft10,fa6,ft11,rne
    115a:	0004                	0x4
    115c:	0200                	addi	s0,sp,256
    115e:	0d91                	addi	s11,s11,4
    1160:	46dc                	lw	a5,12(a3)
    1162:	0002                	c.slli64	zero
    1164:	0000                	unimp
    1166:	0000                	unimp
    1168:	01c8                	addi	a0,sp,196
    116a:	0000                	unimp
    116c:	0000                	unimp
    116e:	0000                	unimp
    1170:	9c01                	subw	s0,s0,s0
    1172:	02b1                	addi	t0,t0,12
    1174:	0000                	unimp
    1176:	02006107          	vle32.v	v2,(zero)
    117a:	2591                	addiw	a1,a1,4
    117c:	00a9                	addi	ra,ra,10
    117e:	0000                	unimp
    1180:	7fbc9103          	lh	sp,2043(s9) # 47fb <_start-0x1d805>
    1184:	68736907          	vlsseg4e32.v	v18,(t1),t2,v0.t
    1188:	0200                	addi	s0,sp,256
    118a:	2c91                	addiw	s9,s9,4
    118c:	0055                	c.nop	21
    118e:	0000                	unimp
    1190:	7fb89103          	lh	sp,2043(a7)
    1194:	006c7007          	0x6c7007
    1198:	9102                	jalr	sp
    119a:	5535                	li	a0,-19
    119c:	0000                	unimp
    119e:	0300                	addi	s0,sp,384
    11a0:	b491                	j	be4 <_start-0x2141c>
    11a2:	6370077f          	0x6370077f
    11a6:	0200                	addi	s0,sp,256
    11a8:	3d91                	addiw	s11,s11,-28
    11aa:	0055                	c.nop	21
    11ac:	0000                	unimp
    11ae:	7fb09103          	lh	sp,2043(ra) # 47fb <_start-0x1d805>
    11b2:	6208                	ld	a0,0(a2)
    11b4:	6675                	lui	a2,0x1d
    11b6:	0200                	addi	s0,sp,256
    11b8:	02b10793          	addi	a5,sp,43
    11bc:	0000                	unimp
    11be:	9102                	jalr	sp
    11c0:	0940                	addi	s0,sp,148
    11c2:	0300                	addi	s0,sp,384
    11c4:	0000                	unimp
    11c6:	9402                	jalr	s0
    11c8:	0000a90b          	ext	s2,ra,0,0
    11cc:	0200                	addi	s0,sp,256
    11ce:	6c91                	lui	s9,0x4
    11d0:	6908                	ld	a0,16(a0)
    11d2:	7864                	ld	s1,240(s0)
    11d4:	0200                	addi	s0,sp,256
    11d6:	0695                	addi	a3,a3,5
    11d8:	0055                	c.nop	21
    11da:	0000                	unimp
    11dc:	9102                	jalr	sp
    11de:	0868                	addi	a0,sp,28
    11e0:	0069                	c.nop	26
    11e2:	9502                	jalr	a0
    11e4:	0000550b          	srb	a0,zero,zero,0
    11e8:	0200                	addi	s0,sp,256
    11ea:	6491                	lui	s1,0x4
    11ec:	7408                	ld	a0,40(s0)
    11ee:	0200                	addi	s0,sp,256
    11f0:	0e95                	addi	t4,t4,5
    11f2:	0055                	c.nop	21
    11f4:	0000                	unimp
    11f6:	9102                	jalr	sp
    11f8:	0060                	addi	s0,sp,12
    11fa:	4810                	lw	a2,16(s0)
    11fc:	0001                	nop
    11fe:	c100                	sw	s0,0(a0)
    1200:	0002                	c.slli64	zero
    1202:	1100                	addi	s0,sp,160
    1204:	0084                	addi	s1,sp,64
    1206:	0000                	unimp
    1208:	001f a712 0004      	0x4a712001f
    120e:	0200                	addi	s0,sp,256
    1210:	0c7e                	slli	s8,s8,0x1f
    1212:	0055                	c.nop	21
    1214:	0000                	unimp
    1216:	45ec                	lw	a1,76(a1)
    1218:	0002                	c.slli64	zero
    121a:	0000                	unimp
    121c:	0000                	unimp
    121e:	00f0                	addi	a2,sp,76
    1220:	0000                	unimp
    1222:	0000                	unimp
    1224:	0000                	unimp
    1226:	9c01                	subw	s0,s0,s0
    1228:	033a                	slli	t1,t1,0xe
    122a:	0000                	unimp
    122c:	746d6607          	0x746d6607
    1230:	0200                	addi	s0,sp,256
    1232:	287e                	fld	fa6,472(sp)
    1234:	0142                	slli	sp,sp,0x10
    1236:	0000                	unimp
    1238:	9102                	jalr	sp
    123a:	0748                	addi	a0,sp,900
    123c:	756e                	ld	a0,248(sp)
    123e:	006d                	c.nop	27
    1240:	7e02                	ld	t3,32(sp)
    1242:	00033a33          	sltu	s4,t1,zero
    1246:	0200                	addi	s0,sp,256
    1248:	4091                	li	ra,4
    124a:	7008                	ld	a0,32(s0)
    124c:	0200                	addi	s0,sp,256
    124e:	0f80                	addi	s0,sp,976
    1250:	0142                	slli	sp,sp,0x10
    1252:	0000                	unimp
    1254:	9102                	jalr	sp
    1256:	0868                	addi	a0,sp,28
    1258:	6572                	ld	a0,280(sp)
    125a:	81020073          	0x81020073
    125e:	5506                	lw	a0,96(sp)
    1260:	0000                	unimp
    1262:	0200                	addi	s0,sp,256
    1264:	6491                	lui	s1,0x4
    1266:	6408                	ld	a0,8(s0)
    1268:	0200                	addi	s0,sp,256
    126a:	0b81                	addi	s7,s7,0
    126c:	0055                	c.nop	21
    126e:	0000                	unimp
    1270:	9102                	jalr	sp
    1272:	085c                	addi	a5,sp,20
    1274:	7369                	lui	t1,0xffffa
    1276:	0064                	addi	s1,sp,12
    1278:	8102                	jr	sp
    127a:	550e                	lw	a0,224(sp)
    127c:	0000                	unimp
    127e:	0200                	addi	s0,sp,256
    1280:	6091                	lui	ra,0x4
    1282:	0c00                	addi	s0,sp,528
    1284:	5508                	lw	a0,40(a0)
    1286:	0000                	unimp
    1288:	0600                	addi	s0,sp,768
    128a:	0496                	slli	s1,s1,0x5
    128c:	0000                	unimp
    128e:	7202                	ld	tp,32(sp)
    1290:	5c06                	lw	s8,96(sp)
    1292:	0245                	addi	tp,tp,17
    1294:	0000                	unimp
    1296:	0000                	unimp
    1298:	9000                	0x9000
    129a:	0000                	unimp
    129c:	0000                	unimp
    129e:	0000                	unimp
    12a0:	0100                	addi	s0,sp,128
    12a2:	7b9c                	ld	a5,48(a5)
    12a4:	07000003          	lb	zero,112(zero) # 70 <_start-0x21f90>
    12a8:	00727473          	csrrci	s0,0x7,4
    12ac:	7202                	ld	tp,32(sp)
    12ae:	7b1d                	lui	s6,0xfffe7
    12b0:	02000003          	lb	zero,32(zero) # 20 <_start-0x21fe0>
    12b4:	5891                	li	a7,-28
    12b6:	6908                	ld	a0,16(a0)
    12b8:	0200                	addi	s0,sp,256
    12ba:	0974                	addi	a3,sp,156
    12bc:	0055                	c.nop	21
    12be:	0000                	unimp
    12c0:	9102                	jalr	sp
    12c2:	006c                	addi	a1,sp,12
    12c4:	080c                	addi	a1,sp,16
    12c6:	0148                	addi	a0,sp,132
    12c8:	0000                	unimp
    12ca:	d20a                	sw	sp,36(sp)
    12cc:	0004                	0x4
    12ce:	0200                	addi	s0,sp,256
    12d0:	066a                	slli	a2,a2,0x1a
    12d2:	0148                	addi	a0,sp,132
    12d4:	0000                	unimp
    12d6:	44fc                	lw	a5,76(s1)
    12d8:	0002                	c.slli64	zero
    12da:	0000                	unimp
    12dc:	0000                	unimp
    12de:	0060                	addi	s0,sp,12
    12e0:	0000                	unimp
    12e2:	0000                	unimp
    12e4:	0000                	unimp
    12e6:	9c01                	subw	s0,s0,s0
    12e8:	000003b3          	add	t2,zero,zero
    12ec:	d009                	beqz	s0,11ee <_start-0x20e12>
    12ee:	0000                	unimp
    12f0:	0200                	addi	s0,sp,256
    12f2:	116c                	addi	a1,sp,172
    12f4:	0000008b          	0x8b
    12f8:	9102                	jalr	sp
    12fa:	0068                	addi	a0,sp,12
    12fc:	c50a                	sw	sp,136(sp)
    12fe:	0004                	0x4
    1300:	0200                	addi	s0,sp,256
    1302:	0564                	addi	s1,sp,652
    1304:	0055                	c.nop	21
    1306:	0000                	unimp
    1308:	44bc                	lw	a5,72(s1)
    130a:	0002                	c.slli64	zero
    130c:	0000                	unimp
    130e:	0000                	unimp
    1310:	0040                	addi	s0,sp,4
    1312:	0000                	unimp
    1314:	0000                	unimp
    1316:	0000                	unimp
    1318:	9c01                	subw	s0,s0,s0
    131a:	000003e3          	beqz	zero,1b20 <_start-0x204e0>
    131e:	02006307          	vle32.v	v6,(zero)
    1322:	1164                	addi	s1,sp,172
    1324:	0055                	c.nop	21
    1326:	0000                	unimp
    1328:	9102                	jalr	sp
    132a:	006c                	addi	a1,sp,12
    132c:	f106                	sd	ra,160(sp)
    132e:	0004                	0x4
    1330:	0200                	addi	s0,sp,256
    1332:	065c                	addi	a5,sp,772
    1334:	444c                	lw	a1,12(s0)
    1336:	0002                	c.slli64	zero
    1338:	0000                	unimp
    133a:	0000                	unimp
    133c:	0070                	addi	a2,sp,12
    133e:	0000                	unimp
    1340:	0000                	unimp
    1342:	0000                	unimp
    1344:	9c01                	subw	s0,s0,s0
    1346:	041e                	slli	s0,s0,0x7
    1348:	0000                	unimp
    134a:	02006307          	vle32.v	v6,(zero)
    134e:	155c                	addi	a5,sp,676
    1350:	0148                	addi	a0,sp,132
    1352:	0000                	unimp
    1354:	9102                	jalr	sp
    1356:	095f 00d0 0000      	0xd0095f
    135c:	5e02                	lw	t3,32(sp)
    135e:	8b11                	andi	a4,a4,4
    1360:	0000                	unimp
    1362:	0200                	addi	s0,sp,256
    1364:	6891                	lui	a7,0x4
    1366:	0600                	addi	s0,sp,768
    1368:	0482                	c.slli64	s1
    136a:	0000                	unimp
    136c:	1f02                	slli	t5,t5,0x20
    136e:	0006                	c.slli	zero,0x1
    1370:	0242                	slli	tp,tp,0x10
    1372:	0000                	unimp
    1374:	0000                	unimp
    1376:	4c00                	lw	s0,24(s0)
    1378:	0002                	c.slli64	zero
    137a:	0000                	unimp
    137c:	0000                	unimp
    137e:	0100                	addi	s0,sp,128
    1380:	5b9c                	lw	a5,48(a5)
    1382:	0004                	0x4
    1384:	0900                	addi	s0,sp,144
    1386:	00d0                	addi	a2,sp,68
    1388:	0000                	unimp
    138a:	2102                	fld	ft2,0(sp)
    138c:	8b11                	andi	a4,a4,4
    138e:	0000                	unimp
    1390:	0200                	addi	s0,sp,256
    1392:	6891                	lui	a7,0x4
    1394:	7608                	ld	a0,40(a2)
    1396:	6c61                	lui	s8,0x18
    1398:	0200                	addi	s0,sp,256
    139a:	0822                	slli	a6,a6,0x8
    139c:	005c                	addi	a5,sp,4
    139e:	0000                	unimp
    13a0:	9102                	jalr	sp
    13a2:	0064                	addi	s1,sp,12
    13a4:	00041613          	slli	a2,s0,0x0
    13a8:	0100                	addi	s0,sp,128
    13aa:	1428                	addi	a0,sp,552
    13ac:	41cc                	lw	a1,4(a1)
    13ae:	0002                	c.slli64	zero
    13b0:	0000                	unimp
    13b2:	0000                	unimp
    13b4:	0034                	addi	a3,sp,8
    13b6:	0000                	unimp
    13b8:	0000                	unimp
    13ba:	0000                	unimp
    13bc:	9c01                	subw	s0,s0,s0
    13be:	0498                	addi	a4,sp,576
    13c0:	0000                	unimp
    13c2:	d014                	sw	a3,32(s0)
    13c4:	0000                	unimp
    13c6:	0100                	addi	s0,sp,128
    13c8:	2b28                	fld	fa0,80(a4)
    13ca:	0000008b          	0x8b
    13ce:	9102                	jalr	sp
    13d0:	1468                	addi	a0,sp,556
    13d2:	03dc                	addi	a5,sp,452
    13d4:	0000                	unimp
    13d6:	2801                	sext.w	a6,a6
    13d8:	00005c37          	lui	s8,0x5
    13dc:	0200                	addi	s0,sp,256
    13de:	6491                	lui	s1,0x4
    13e0:	1200                	addi	s0,sp,288
    13e2:	00000427          	vse8.v	v8,(zero),v0.t
    13e6:	1401                	addi	s0,s0,-32
    13e8:	5c15                	li	s8,-27
    13ea:	0000                	unimp
    13ec:	a000                	fsd	fs0,0(s0)
    13ee:	0241                	addi	tp,tp,16
    13f0:	0000                	unimp
    13f2:	0000                	unimp
    13f4:	2c00                	fld	fs0,24(s0)
    13f6:	0000                	unimp
    13f8:	0000                	unimp
    13fa:	0000                	unimp
    13fc:	0100                	addi	s0,sp,128
    13fe:	ca9c                	sw	a5,16(a3)
    1400:	0004                	0x4
    1402:	1400                	addi	s0,sp,544
    1404:	00d0                	addi	a2,sp,68
    1406:	0000                	unimp
    1408:	1401                	addi	s0,s0,-32
    140a:	00008b2b          	0x8b2b
    140e:	0200                	addi	s0,sp,256
    1410:	6891                	lui	a7,0x4
    1412:	1500                	addi	s0,sp,672
    1414:	050a                	slli	a0,a0,0x2
    1416:	0000                	unimp
    1418:	0a01                	addi	s4,s4,0
    141a:	3414                	fld	fa3,40(s0)
    141c:	0000                	unimp
    141e:	7400                	ld	s0,40(s0)
    1420:	0241                	addi	tp,tp,16
    1422:	0000                	unimp
    1424:	0000                	unimp
    1426:	2c00                	fld	fs0,24(s0)
    1428:	0000                	unimp
    142a:	0000                	unimp
    142c:	0000                	unimp
    142e:	0100                	addi	s0,sp,128
    1430:	149c                	addi	a5,sp,608
    1432:	00d0                	addi	a2,sp,68
    1434:	0000                	unimp
    1436:	0a01                	addi	s4,s4,0
    1438:	8b29                	andi	a4,a4,10
    143a:	0000                	unimp
    143c:	0200                	addi	s0,sp,256
    143e:	6891                	lui	a7,0x4
    1440:	0000                	unimp
    1442:	002a                	c.slli	zero,0xa
    1444:	0000                	unimp
    1446:	0002                	c.slli64	zero
    1448:	00000723          	sb	zero,14(zero) # e <_start-0x21ff2>
    144c:	0108                	addi	a0,sp,128
    144e:	1e85                	addi	t4,t4,-31
    1450:	0000                	unimp
    1452:	4bb8                	lw	a4,80(a5)
    1454:	0002                	c.slli64	zero
    1456:	0000                	unimp
    1458:	0000                	unimp
    145a:	4db8                	lw	a4,88(a1)
    145c:	0002                	c.slli64	zero
    145e:	0000                	unimp
    1460:	0000                	unimp
    1462:	0510                	addi	a2,sp,640
    1464:	0000                	unimp
    1466:	051f 0000 056e      	0x56e0000051f
    146c:	0000                	unimp
    146e:	8001                	c.srli64	s0
    1470:	002a                	c.slli	zero,0xa
    1472:	0000                	unimp
    1474:	0002                	c.slli64	zero
    1476:	00000737          	lui	a4,0x0
    147a:	0108                	addi	a0,sp,128
    147c:	20fa                	fld	ft1,408(sp)
    147e:	0000                	unimp
    1480:	2000                	fld	fs0,0(s0)
    1482:	0002                	c.slli64	zero
    1484:	0000                	unimp
    1486:	0000                	unimp
    1488:	203c                	fld	fa5,64(s0)
    148a:	0002                	c.slli64	zero
    148c:	0000                	unimp
    148e:	0000                	unimp
    1490:	057a                	slli	a0,a0,0x1e
    1492:	0000                	unimp
    1494:	051f 0000 056e      	0x56e0000051f
    149a:	0000                	unimp
    149c:	8001                	c.srli64	s0
    149e:	002a                	c.slli	zero,0xa
    14a0:	0000                	unimp
    14a2:	0002                	c.slli64	zero
    14a4:	0000074b          	fnmsub.s	fa4,ft0,ft0,ft0,rne
    14a8:	0108                	addi	a0,sp,128
    14aa:	2179                	addiw	sp,sp,30
    14ac:	0000                	unimp
    14ae:	4dc0                	lw	s0,28(a1)
    14b0:	0002                	c.slli64	zero
    14b2:	0000                	unimp
    14b4:	0000                	unimp
    14b6:	4ea4                	lw	s1,88(a3)
    14b8:	0002                	c.slli64	zero
    14ba:	0000                	unimp
    14bc:	0000                	unimp
    14be:	0585                	addi	a1,a1,1
    14c0:	0000                	unimp
    14c2:	051f 0000 056e      	0x56e0000051f
    14c8:	0000                	unimp
    14ca:	8001                	c.srli64	s0
    14cc:	002a                	c.slli	zero,0xa
    14ce:	0000                	unimp
    14d0:	0002                	c.slli64	zero
    14d2:	075f 0000 0108      	0x1080000075f
    14d8:	22f2                	fld	ft5,280(sp)
    14da:	0000                	unimp
    14dc:	4ea4                	lw	s1,88(a3)
    14de:	0002                	c.slli64	zero
    14e0:	0000                	unimp
    14e2:	0000                	unimp
    14e4:	4ebc                	lw	a5,88(a3)
    14e6:	0002                	c.slli64	zero
    14e8:	0000                	unimp
    14ea:	0000                	unimp
    14ec:	0598                	addi	a4,sp,704
    14ee:	0000                	unimp
    14f0:	051f 0000 056e      	0x56e0000051f
    14f6:	0000                	unimp
    14f8:	8001                	c.srli64	s0

Disassembly of section .debug_abbrev:

0000000000000000 <.debug_abbrev>:
   0:	1101                	addi	sp,sp,-32
   2:	2501                	sext.w	a0,a0
   4:	130e                	slli	t1,t1,0x23
   6:	1b0e030b          	0x1b0e030b
   a:	110e                	slli	sp,sp,0x23
   c:	1201                	addi	tp,tp,-32
   e:	00171007          	flh	ft0,1(a4) # 1 <_start-0x21fff>
  12:	0200                	addi	s0,sp,256
  14:	0024                	addi	s1,sp,8
  16:	0b3e0b0b          	0xb3e0b0b
  1a:	00000e03          	lb	t3,0(zero) # 0 <_start-0x22000>
  1e:	0b002403          	lw	s0,176(zero) # b0 <_start-0x21f50>
  22:	030b3e0b          	extu	t3,s6,0,48
  26:	0008                	0x8
  28:	0400                	addi	s0,sp,512
  2a:	0101                	addi	sp,sp,0
  2c:	1349                	addi	t1,t1,-14
  2e:	1301                	addi	t1,t1,-32
  30:	0000                	unimp
  32:	2105                	addiw	sp,sp,1
  34:	0000                	unimp
  36:	0600                	addi	s0,sp,768
  38:	0034                	addi	a3,sp,8
  3a:	0b3a0e03          	lb	t3,179(s4) # fffffffffffe30b3 <_ebss+0xfffffffffffbbe9b>
  3e:	0b390b3b          	0xb390b3b
  42:	1349                	addi	t1,t1,-14
  44:	193c193f 26070000 	0x26070000193c193f
  4c:	4900                	lw	s0,16(a0)
  4e:	08000013          	li	zero,128
  52:	002e                	c.slli	zero,0xb
  54:	0e03193f 053b0b3a 	0x53b0b3a0e03193f
  5c:	0b39                	addi	s6,s6,14
  5e:	01111927          	fsh	fa7,18(sp)
  62:	0712                	slli	a4,a4,0x4
  64:	1840                	addi	s0,sp,52
  66:	4296                	lw	t0,68(sp)
  68:	0019                	c.nop	6
  6a:	0900                	addi	s0,sp,144
  6c:	012e                	slli	sp,sp,0xb
  6e:	0b3a0e03          	lb	t3,179(s4)
  72:	0b390b3b          	0xb390b3b
  76:	01111927          	fsh	fa7,18(sp)
  7a:	0712                	slli	a4,a4,0x4
  7c:	1840                	addi	s0,sp,52
  7e:	4296                	lw	t0,68(sp)
  80:	0119                	addi	sp,sp,6
  82:	0a000013          	li	zero,160
  86:	0034                	addi	a3,sp,8
  88:	0b3a0e03          	lb	t3,179(s4)
  8c:	0b390b3b          	0xb390b3b
  90:	1349                	addi	t1,t1,-14
  92:	1802                	slli	a6,a6,0x20
  94:	0000                	unimp
  96:	0300340b          	extu	s0,zero,0,48
  9a:	3a08                	fld	fa0,48(a2)
  9c:	390b3b0b          	extu	s6,s6,14,16
  a0:	0213490b          	lrb	s2,t1,ra,1
  a4:	0018                	0x18
  a6:	0c00                	addi	s0,sp,528
  a8:	0034                	addi	a3,sp,8
  aa:	0b3a0e03          	lb	t3,179(s4)
  ae:	0b39053b          	0xb39053b
  b2:	1349                	addi	t1,t1,-14
  b4:	1802                	slli	a6,a6,0x20
  b6:	0000                	unimp
  b8:	2e0d                	addiw	t3,t3,3
  ba:	0300                	addi	s0,sp,384
  bc:	3a0e                	fld	fs4,224(sp)
  be:	390b3b0b          	extu	s6,s6,14,16
  c2:	1119270b          	ext	a4,s2,4,17
  c6:	1201                	addi	tp,tp,-32
  c8:	96184007          	flq	ft0,-1695(a6) # 190008f <_ebss+0x18d8e77>
  cc:	1942                	slli	s2,s2,0x30
  ce:	0000                	unimp
  d0:	2e0e                	fld	ft8,192(sp)
  d2:	3f01                	addiw	t5,t5,-32
  d4:	0319                	addi	t1,t1,6
  d6:	3a0e                	fld	fs4,224(sp)
  d8:	390b3b0b          	extu	s6,s6,14,16
  dc:	1119270b          	ext	a4,s2,4,17
  e0:	1201                	addi	tp,tp,-32
  e2:	96184007          	flq	ft0,-1695(a6)
  e6:	1942                	slli	s2,s2,0x30
  e8:	1301                	addi	t1,t1,-32
  ea:	0000                	unimp
  ec:	03012e0f          	0x3012e0f
  f0:	3a0e                	fld	fs4,224(sp)
  f2:	390b3b0b          	extu	s6,s6,14,16
  f6:	4919270b          	ext	a4,s2,18,17
  fa:	12011113          	0x12011113
  fe:	96184007          	flq	ft0,-1695(a6)
 102:	1942                	slli	s2,s2,0x30
 104:	1301                	addi	t1,t1,-32
 106:	0000                	unimp
 108:	0510                	addi	a2,sp,640
 10a:	0300                	addi	s0,sp,384
 10c:	3a08                	fld	fa0,48(a2)
 10e:	390b3b0b          	extu	s6,s6,14,16
 112:	0213490b          	lrb	s2,t1,ra,1
 116:	0018                	0x18
 118:	1100                	addi	s0,sp,160
 11a:	000a                	c.slli	zero,0x2
 11c:	0b3a0e03          	lb	t3,179(s4)
 120:	0b390b3b          	0xb390b3b
 124:	0111                	addi	sp,sp,4
 126:	0000                	unimp
 128:	3412                	fld	fs0,288(sp)
 12a:	0300                	addi	s0,sp,384
 12c:	490e                	lw	s2,192(sp)
 12e:	02193413          	sltiu	s0,s2,33
 132:	0018                	0x18
 134:	1300                	addi	s0,sp,416
 136:	0021                	c.nop	8
 138:	1349                	addi	t1,t1,-14
 13a:	00000b2f          	vamoaddei8.v	zero,(zero),v0,v22,v0.t
 13e:	0b14                	addi	a3,sp,400
 140:	1101                	addi	sp,sp,-32
 142:	1201                	addi	tp,tp,-32
 144:	15000007          	0x15000007
 148:	012e                	slli	sp,sp,0xb
 14a:	0b3a0e03          	lb	t3,179(s4)
 14e:	0b390b3b          	0xb390b3b
 152:	01111927          	fsh	fa7,18(sp)
 156:	0712                	slli	a4,a4,0x4
 158:	1840                	addi	s0,sp,52
 15a:	01194297          	auipc	t0,0x1194
 15e:	16000013          	li	zero,352
 162:	0005                	c.nop	1
 164:	0b3a0e03          	lb	t3,179(s4)
 168:	0b390b3b          	0xb390b3b
 16c:	1349                	addi	t1,t1,-14
 16e:	1802                	slli	a6,a6,0x20
 170:	0000                	unimp
 172:	0b000f17          	auipc	t5,0xb000
 176:	1800000b          	0x1800000b
 17a:	0b0b000f          	0xb0b000f
 17e:	1349                	addi	t1,t1,-14
 180:	0000                	unimp
 182:	0100                	addi	s0,sp,128
 184:	0111                	addi	sp,sp,4
 186:	0e25                	addi	t3,t3,9
 188:	0e030b13          	addi	s6,t1,224 # ffffffffffffa0e0 <_ebss+0xfffffffffffd2ec8>
 18c:	01110e1b          	addiw	t3,sp,17
 190:	0712                	slli	a4,a4,0x4
 192:	1710                	addi	a2,sp,928
 194:	0000                	unimp
 196:	2402                	fld	fs0,0(sp)
 198:	0b00                	addi	s0,sp,400
 19a:	030b3e0b          	extu	t3,s6,0,48
 19e:	000e                	c.slli	zero,0x3
 1a0:	0300                	addi	s0,sp,384
 1a2:	0024                	addi	s1,sp,8
 1a4:	0b3e0b0b          	0xb3e0b0b
 1a8:	00000803          	lb	a6,0(zero) # 0 <_start-0x22000>
 1ac:	1604                	addi	s1,sp,800
 1ae:	0300                	addi	s0,sp,384
 1b0:	3a0e                	fld	fs4,224(sp)
 1b2:	390b3b0b          	extu	s6,s6,14,16
 1b6:	0013490b          	lrb	s2,t1,ra,0
 1ba:	0500                	addi	s0,sp,640
 1bc:	012e                	slli	sp,sp,0xb
 1be:	0e03193f 0b3b0b3a 	0xb3b0b3a0e03193f
 1c6:	0b39                	addi	s6,s6,14
 1c8:	13491927          	fsh	fs4,306(s2) # 18132 <_start-0x9ece>
 1cc:	0111                	addi	sp,sp,4
 1ce:	0712                	slli	a4,a4,0x4
 1d0:	1840                	addi	s0,sp,52
 1d2:	4296                	lw	t0,68(sp)
 1d4:	0119                	addi	sp,sp,6
 1d6:	06000013          	li	zero,96
 1da:	0005                	c.nop	1
 1dc:	0b3a0803          	lb	a6,179(s4)
 1e0:	0b390b3b          	0xb390b3b
 1e4:	1349                	addi	t1,t1,-14
 1e6:	1802                	slli	a6,a6,0x20
 1e8:	0000                	unimp
 1ea:	03000507          	vle8ff.v	v10,(zero)
 1ee:	3a0e                	fld	fs4,224(sp)
 1f0:	390b3b0b          	extu	s6,s6,14,16
 1f4:	0213490b          	lrb	s2,t1,ra,1
 1f8:	0018                	0x18
 1fa:	0800                	addi	s0,sp,16
 1fc:	0b0b000f          	0xb0b000f
 200:	0000                	unimp
 202:	2e09                	addiw	t3,t3,2
 204:	0301                	addi	t1,t1,0
 206:	3a0e                	fld	fs4,224(sp)
 208:	390b3b0b          	extu	s6,s6,14,16
 20c:	4919270b          	ext	a4,s2,18,17
 210:	12011113          	0x12011113
 214:	96184007          	flq	ft0,-1695(a6)
 218:	1942                	slli	s2,s2,0x30
 21a:	1301                	addi	t1,t1,-32
 21c:	0000                	unimp
 21e:	340a                	fld	fs0,160(sp)
 220:	0300                	addi	s0,sp,384
 222:	3a08                	fld	fa0,48(a2)
 224:	390b3b0b          	extu	s6,s6,14,16
 228:	0213490b          	lrb	s2,t1,ra,1
 22c:	0018                	0x18
 22e:	0b00                	addi	s0,sp,400
 230:	0034                	addi	a3,sp,8
 232:	0b3a0e03          	lb	t3,179(s4)
 236:	0b390b3b          	0xb390b3b
 23a:	1349                	addi	t1,t1,-14
 23c:	1802                	slli	a6,a6,0x20
 23e:	0000                	unimp
 240:	0f0c                	addi	a1,sp,912
 242:	0b00                	addi	s0,sp,400
 244:	0013490b          	lrb	s2,t1,ra,0
 248:	0d00                	addi	s0,sp,656
 24a:	012e                	slli	sp,sp,0xb
 24c:	0b3a0e03          	lb	t3,179(s4)
 250:	0b390b3b          	0xb390b3b
 254:	13491927          	fsh	fs4,306(s2)
 258:	0111                	addi	sp,sp,4
 25a:	0712                	slli	a4,a4,0x4
 25c:	1840                	addi	s0,sp,52
 25e:	01194297          	auipc	t0,0x1194
 262:	0e000013          	li	zero,224
 266:	012e                	slli	sp,sp,0xb
 268:	0b3a0e03          	lb	t3,179(s4)
 26c:	0b390b3b          	0xb390b3b
 270:	01111927          	fsh	fa7,18(sp)
 274:	0712                	slli	a4,a4,0x4
 276:	1840                	addi	s0,sp,52
 278:	00194297          	auipc	t0,0x194
 27c:	0000                	unimp
 27e:	1101                	addi	sp,sp,-32
 280:	2501                	sext.w	a0,a0
 282:	130e                	slli	t1,t1,0x23
 284:	1b0e030b          	0x1b0e030b
 288:	110e                	slli	sp,sp,0x23
 28a:	1201                	addi	tp,tp,-32
 28c:	00171007          	flh	ft0,1(a4)
 290:	0200                	addi	s0,sp,256
 292:	0016                	c.slli	zero,0x5
 294:	0b3a0e03          	lb	t3,179(s4)
 298:	0b390b3b          	0xb390b3b
 29c:	1349                	addi	t1,t1,-14
 29e:	0000                	unimp
 2a0:	0b000f03          	lb	t5,176(zero) # b0 <_start-0x21f50>
 2a4:	000e030b          	0xe030b
 2a8:	0400                	addi	s0,sp,512
 2aa:	0024                	addi	s1,sp,8
 2ac:	0b3e0b0b          	0xb3e0b0b
 2b0:	00000e03          	lb	t3,0(zero) # 0 <_start-0x22000>
 2b4:	2405                	addiw	s0,s0,1
 2b6:	0b00                	addi	s0,sp,400
 2b8:	030b3e0b          	extu	t3,s6,0,48
 2bc:	0008                	0x8
 2be:	0600                	addi	s0,sp,768
 2c0:	0101                	addi	sp,sp,0
 2c2:	1349                	addi	t1,t1,-14
 2c4:	1301                	addi	t1,t1,-32
 2c6:	0000                	unimp
 2c8:	49002107          	flw	ft2,1168(zero) # 490 <_start-0x21b70>
 2cc:	000b2f13          	slti	t5,s6,0
 2d0:	0800                	addi	s0,sp,16
 2d2:	0026                	c.slli	zero,0x9
 2d4:	1349                	addi	t1,t1,-14
 2d6:	0000                	unimp
 2d8:	3409                	addiw	s0,s0,-30
 2da:	0300                	addi	s0,sp,384
 2dc:	3a0e                	fld	fs4,224(sp)
 2de:	390b3b0b          	extu	s6,s6,14,16
 2e2:	0213490b          	lrb	s2,t1,ra,1
 2e6:	0018                	0x18
 2e8:	0a00                	addi	s0,sp,272
 2ea:	0104                	addi	s1,sp,128
 2ec:	0b3e0e03          	lb	t3,179(t3) # 1a0b3 <_start-0x7f4d>
 2f0:	13490b0b          	0x13490b0b
 2f4:	0b3a                	slli	s6,s6,0xe
 2f6:	0b390b3b          	0xb390b3b
 2fa:	1301                	addi	t1,t1,-32
 2fc:	0000                	unimp
 2fe:	0300280b          	ext	a6,zero,0,48
 302:	1c0e                	slli	s8,s8,0x23
 304:	0c00000b          	0xc00000b
 308:	0b0b000f          	0xb0b000f
 30c:	1349                	addi	t1,t1,-14
 30e:	0000                	unimp
 310:	2e0d                	addiw	t3,t3,3
 312:	3f01                	addiw	t5,t5,-32
 314:	0319                	addi	t1,t1,6
 316:	3a0e                	fld	fs4,224(sp)
 318:	39053b0b          	extu	s6,a0,14,16
 31c:	4919270b          	ext	a4,s2,18,17
 320:	12011113          	0x12011113
 324:	96184007          	flq	ft0,-1695(a6)
 328:	1942                	slli	s2,s2,0x30
 32a:	1301                	addi	t1,t1,-32
 32c:	0000                	unimp
 32e:	050e                	slli	a0,a0,0x3
 330:	0300                	addi	s0,sp,384
 332:	3a08                	fld	fa0,48(a2)
 334:	39053b0b          	extu	s6,a0,14,16
 338:	0213490b          	lrb	s2,t1,ra,1
 33c:	0018                	0x18
 33e:	0f00                	addi	s0,sp,912
 340:	0018                	0x18
 342:	0000                	unimp
 344:	3410                	fld	fa2,40(s0)
 346:	0300                	addi	s0,sp,384
 348:	3a08                	fld	fa0,48(a2)
 34a:	39053b0b          	extu	s6,a0,14,16
 34e:	0213490b          	lrb	s2,t1,ra,1
 352:	0018                	0x18
 354:	1100                	addi	s0,sp,160
 356:	012e                	slli	sp,sp,0xb
 358:	0e03193f 053b0b3a 	0x53b0b3a0e03193f
 360:	0b39                	addi	s6,s6,14
 362:	01111927          	fsh	fa7,18(sp)
 366:	0712                	slli	a4,a4,0x4
 368:	1840                	addi	s0,sp,52
 36a:	4296                	lw	t0,68(sp)
 36c:	0119                	addi	sp,sp,6
 36e:	12000013          	li	zero,288
 372:	012e                	slli	sp,sp,0xb
 374:	0e03193f 0b3b0b3a 	0xb3b0b3a0e03193f
 37c:	0b39                	addi	s6,s6,14
 37e:	13491927          	fsh	fs4,306(s2)
 382:	0111                	addi	sp,sp,4
 384:	0712                	slli	a4,a4,0x4
 386:	1840                	addi	s0,sp,52
 388:	4296                	lw	t0,68(sp)
 38a:	0119                	addi	sp,sp,6
 38c:	13000013          	li	zero,304
 390:	0005                	c.nop	1
 392:	0b3a0e03          	lb	t3,179(s4)
 396:	0b390b3b          	0xb390b3b
 39a:	1349                	addi	t1,t1,-14
 39c:	1802                	slli	a6,a6,0x20
 39e:	0000                	unimp
 3a0:	0514                	addi	a3,sp,640
 3a2:	0300                	addi	s0,sp,384
 3a4:	3a08                	fld	fa0,48(a2)
 3a6:	390b3b0b          	extu	s6,s6,14,16
 3aa:	0213490b          	lrb	s2,t1,ra,1
 3ae:	0018                	0x18
 3b0:	1500                	addi	s0,sp,672
 3b2:	0034                	addi	a3,sp,8
 3b4:	0b3a0803          	lb	a6,179(s4)
 3b8:	0b390b3b          	0xb390b3b
 3bc:	1349                	addi	t1,t1,-14
 3be:	1802                	slli	a6,a6,0x20
 3c0:	0000                	unimp
 3c2:	0a16                	slli	s4,s4,0x5
 3c4:	0300                	addi	s0,sp,384
 3c6:	3a0e                	fld	fs4,224(sp)
 3c8:	390b3b0b          	extu	s6,s6,14,16
 3cc:	0001110b          	addsl	sp,sp,zero,0
 3d0:	1700                	addi	s0,sp,928
 3d2:	012e                	slli	sp,sp,0xb
 3d4:	0b3a0e03          	lb	t3,179(s4)
 3d8:	0b390b3b          	0xb390b3b
 3dc:	13491927          	fsh	fs4,306(s2)
 3e0:	0111                	addi	sp,sp,4
 3e2:	0712                	slli	a4,a4,0x4
 3e4:	1840                	addi	s0,sp,52
 3e6:	01194297          	auipc	t0,0x1194
 3ea:	18000013          	li	zero,384
 3ee:	0111010b          	0x111010b
 3f2:	0712                	slli	a4,a4,0x4
 3f4:	0000                	unimp
 3f6:	0100                	addi	s0,sp,128
 3f8:	0111                	addi	sp,sp,4
 3fa:	0e25                	addi	t3,t3,9
 3fc:	0e030b13          	addi	s6,t1,224
 400:	01110e1b          	addiw	t3,sp,17
 404:	0712                	slli	a4,a4,0x4
 406:	1710                	addi	a2,sp,928
 408:	0000                	unimp
 40a:	1602                	slli	a2,a2,0x20
 40c:	0300                	addi	s0,sp,384
 40e:	3a0e                	fld	fs4,224(sp)
 410:	390b3b0b          	extu	s6,s6,14,16
 414:	0013490b          	lrb	s2,t1,ra,0
 418:	0300                	addi	s0,sp,384
 41a:	0024                	addi	s1,sp,8
 41c:	0b3e0b0b          	0xb3e0b0b
 420:	00000e03          	lb	t3,0(zero) # 0 <_start-0x22000>
 424:	2e04                	fld	fs1,24(a2)
 426:	3f01                	addiw	t5,t5,-32
 428:	0319                	addi	t1,t1,6
 42a:	3a0e                	fld	fs4,224(sp)
 42c:	390b3b0b          	extu	s6,s6,14,16
 430:	4919270b          	ext	a4,s2,18,17
 434:	12011113          	0x12011113
 438:	97184007          	flq	ft0,-1679(a6)
 43c:	1942                	slli	s2,s2,0x30
 43e:	1301                	addi	t1,t1,-32
 440:	0000                	unimp
 442:	0505                	addi	a0,a0,1
 444:	0300                	addi	s0,sp,384
 446:	3a0e                	fld	fs4,224(sp)
 448:	390b3b0b          	extu	s6,s6,14,16
 44c:	0213490b          	lrb	s2,t1,ra,1
 450:	0018                	0x18
 452:	0600                	addi	s0,sp,768
 454:	0005                	c.nop	1
 456:	0b3a0803          	lb	a6,179(s4)
 45a:	0b390b3b          	0xb390b3b
 45e:	1349                	addi	t1,t1,-14
 460:	1802                	slli	a6,a6,0x20
 462:	0000                	unimp
 464:	03003407          	fld	fs0,48(zero) # 30 <_start-0x21fd0>
 468:	3a08                	fld	fa0,48(a2)
 46a:	390b3b0b          	extu	s6,s6,14,16
 46e:	0213490b          	lrb	s2,t1,ra,1
 472:	0018                	0x18
 474:	0800                	addi	s0,sp,16
 476:	0b0b000f          	0xb0b000f
 47a:	0000                	unimp
 47c:	0f09                	addi	t5,t5,2
 47e:	0b00                	addi	s0,sp,400
 480:	0013490b          	lrb	s2,t1,ra,0
 484:	0a00                	addi	s0,sp,272
 486:	0026                	c.slli	zero,0x9
 488:	0000                	unimp
 48a:	4900260b          	ext	a2,zero,18,16
 48e:	0c000013          	li	zero,192
 492:	012e                	slli	sp,sp,0xb
 494:	0e03193f 0b3b0b3a 	0xb3b0b3a0e03193f
 49c:	0b39                	addi	s6,s6,14
 49e:	13491927          	fsh	fs4,306(s2)
 4a2:	0111                	addi	sp,sp,4
 4a4:	0712                	slli	a4,a4,0x4
 4a6:	1840                	addi	s0,sp,52
 4a8:	00194297          	auipc	t0,0x194
 4ac:	0000                	unimp
 4ae:	1101                	addi	sp,sp,-32
 4b0:	2501                	sext.w	a0,a0
 4b2:	130e                	slli	t1,t1,0x23
 4b4:	1b0e030b          	0x1b0e030b
 4b8:	110e                	slli	sp,sp,0x23
 4ba:	1201                	addi	tp,tp,-32
 4bc:	00171007          	flh	ft0,1(a4)
 4c0:	0200                	addi	s0,sp,256
 4c2:	0024                	addi	s1,sp,8
 4c4:	0b3e0b0b          	0xb3e0b0b
 4c8:	00000e03          	lb	t3,0(zero) # 0 <_start-0x22000>
 4cc:	0b002403          	lw	s0,176(zero) # b0 <_start-0x21f50>
 4d0:	030b3e0b          	extu	t3,s6,0,48
 4d4:	0008                	0x8
 4d6:	0400                	addi	s0,sp,512
 4d8:	0016                	c.slli	zero,0x5
 4da:	0b3a0e03          	lb	t3,179(s4)
 4de:	0b390b3b          	0xb390b3b
 4e2:	1349                	addi	t1,t1,-14
 4e4:	0000                	unimp
 4e6:	2e05                	addiw	t3,t3,1
 4e8:	3f00                	fld	fs0,56(a4)
 4ea:	0319                	addi	t1,t1,6
 4ec:	3a0e                	fld	fs4,224(sp)
 4ee:	390b3b0b          	extu	s6,s6,14,16
 4f2:	1119270b          	ext	a4,s2,4,17
 4f6:	1201                	addi	tp,tp,-32
 4f8:	96184007          	flq	ft0,-1695(a6)
 4fc:	1942                	slli	s2,s2,0x30
 4fe:	0000                	unimp
 500:	2e06                	fld	ft8,64(sp)
 502:	0301                	addi	t1,t1,0
 504:	3a0e                	fld	fs4,224(sp)
 506:	390b3b0b          	extu	s6,s6,14,16
 50a:	1119270b          	ext	a4,s2,4,17
 50e:	1201                	addi	tp,tp,-32
 510:	96184007          	flq	ft0,-1695(a6)
 514:	1942                	slli	s2,s2,0x30
 516:	1301                	addi	t1,t1,-32
 518:	0000                	unimp
 51a:	03000507          	vle8ff.v	v10,(zero)
 51e:	3a0e                	fld	fs4,224(sp)
 520:	390b3b0b          	extu	s6,s6,14,16
 524:	0213490b          	lrb	s2,t1,ra,1
 528:	0018                	0x18
 52a:	0800                	addi	s0,sp,16
 52c:	0034                	addi	a3,sp,8
 52e:	0b3a0803          	lb	a6,179(s4)
 532:	0b390b3b          	0xb390b3b
 536:	1349                	addi	t1,t1,-14
 538:	1802                	slli	a6,a6,0x20
 53a:	0000                	unimp
 53c:	2e09                	addiw	t3,t3,2
 53e:	0300                	addi	s0,sp,384
 540:	3a0e                	fld	fs4,224(sp)
 542:	390b3b0b          	extu	s6,s6,14,16
 546:	1119270b          	ext	a4,s2,4,17
 54a:	1201                	addi	tp,tp,-32
 54c:	96184007          	flq	ft0,-1695(a6)
 550:	1942                	slli	s2,s2,0x30
 552:	0000                	unimp
 554:	2e0a                	fld	ft8,128(sp)
 556:	3f01                	addiw	t5,t5,-32
 558:	0319                	addi	t1,t1,6
 55a:	3a0e                	fld	fs4,224(sp)
 55c:	390b3b0b          	extu	s6,s6,14,16
 560:	1119270b          	ext	a4,s2,4,17
 564:	1201                	addi	tp,tp,-32
 566:	97184007          	flq	ft0,-1679(a6)
 56a:	1942                	slli	s2,s2,0x30
 56c:	1301                	addi	t1,t1,-32
 56e:	0000                	unimp
 570:	0300050b          	0x300050b
 574:	3a08                	fld	fa0,48(a2)
 576:	390b3b0b          	extu	s6,s6,14,16
 57a:	0213490b          	lrb	s2,t1,ra,1
 57e:	0018                	0x18
 580:	0c00                	addi	s0,sp,528
 582:	012e                	slli	sp,sp,0xb
 584:	0b3a0e03          	lb	t3,179(s4)
 588:	0b390b3b          	0xb390b3b
 58c:	01111927          	fsh	fa7,18(sp)
 590:	0712                	slli	a4,a4,0x4
 592:	1840                	addi	s0,sp,52
 594:	01194297          	auipc	t0,0x1194
 598:	0d000013          	li	zero,208
 59c:	012e                	slli	sp,sp,0xb
 59e:	0b3a0e03          	lb	t3,179(s4)
 5a2:	0b390b3b          	0xb390b3b
 5a6:	13491927          	fsh	fs4,306(s2)
 5aa:	0111                	addi	sp,sp,4
 5ac:	0712                	slli	a4,a4,0x4
 5ae:	1840                	addi	s0,sp,52
 5b0:	00194297          	auipc	t0,0x194
 5b4:	0000                	unimp
 5b6:	1101                	addi	sp,sp,-32
 5b8:	2501                	sext.w	a0,a0
 5ba:	130e                	slli	t1,t1,0x23
 5bc:	1b0e030b          	0x1b0e030b
 5c0:	110e                	slli	sp,sp,0x23
 5c2:	1201                	addi	tp,tp,-32
 5c4:	00171007          	flh	ft0,1(a4)
 5c8:	0200                	addi	s0,sp,256
 5ca:	0024                	addi	s1,sp,8
 5cc:	0b3e0b0b          	0xb3e0b0b
 5d0:	00000e03          	lb	t3,0(zero) # 0 <_start-0x22000>
 5d4:	03001603          	lh	a2,48(zero) # 30 <_start-0x21fd0>
 5d8:	3a0e                	fld	fs4,224(sp)
 5da:	390b3b0b          	extu	s6,s6,14,16
 5de:	0013490b          	lrb	s2,t1,ra,0
 5e2:	0400                	addi	s0,sp,512
 5e4:	0024                	addi	s1,sp,8
 5e6:	0b3e0b0b          	0xb3e0b0b
 5ea:	00000803          	lb	a6,0(zero) # 0 <_start-0x22000>
 5ee:	0f05                	addi	t5,t5,1
 5f0:	0b00                	addi	s0,sp,400
 5f2:	000e030b          	0xe030b
 5f6:	0600                	addi	s0,sp,768
 5f8:	012e                	slli	sp,sp,0xb
 5fa:	0e03193f 0b3b0b3a 	0xb3b0b3a0e03193f
 602:	0b39                	addi	s6,s6,14
 604:	01111927          	fsh	fa7,18(sp)
 608:	0712                	slli	a4,a4,0x4
 60a:	1840                	addi	s0,sp,52
 60c:	4296                	lw	t0,68(sp)
 60e:	0119                	addi	sp,sp,6
 610:	07000013          	li	zero,112
 614:	0005                	c.nop	1
 616:	0b3a0803          	lb	a6,179(s4)
 61a:	0b390b3b          	0xb390b3b
 61e:	1349                	addi	t1,t1,-14
 620:	1802                	slli	a6,a6,0x20
 622:	0000                	unimp
 624:	3408                	fld	fa0,40(s0)
 626:	0300                	addi	s0,sp,384
 628:	3a08                	fld	fa0,48(a2)
 62a:	390b3b0b          	extu	s6,s6,14,16
 62e:	0213490b          	lrb	s2,t1,ra,1
 632:	0018                	0x18
 634:	0900                	addi	s0,sp,144
 636:	0034                	addi	a3,sp,8
 638:	0b3a0e03          	lb	t3,179(s4)
 63c:	0b390b3b          	0xb390b3b
 640:	1349                	addi	t1,t1,-14
 642:	1802                	slli	a6,a6,0x20
 644:	0000                	unimp
 646:	2e0a                	fld	ft8,128(sp)
 648:	3f01                	addiw	t5,t5,-32
 64a:	0319                	addi	t1,t1,6
 64c:	3a0e                	fld	fs4,224(sp)
 64e:	390b3b0b          	extu	s6,s6,14,16
 652:	4919270b          	ext	a4,s2,18,17
 656:	12011113          	0x12011113
 65a:	96184007          	flq	ft0,-1695(a6)
 65e:	1942                	slli	s2,s2,0x30
 660:	1301                	addi	t1,t1,-32
 662:	0000                	unimp
 664:	0000180b          	addsl	a6,zero,zero,0
 668:	0c00                	addi	s0,sp,528
 66a:	0b0b000f          	0xb0b000f
 66e:	1349                	addi	t1,t1,-14
 670:	0000                	unimp
 672:	260d                	addiw	a2,a2,3
 674:	4900                	lw	s0,16(a0)
 676:	0e000013          	li	zero,224
 67a:	012e                	slli	sp,sp,0xb
 67c:	0b3a0803          	lb	a6,179(s4)
 680:	0b390b3b          	0xb390b3b
 684:	13491927          	fsh	fs4,306(s2)
 688:	0111                	addi	sp,sp,4
 68a:	0712                	slli	a4,a4,0x4
 68c:	1840                	addi	s0,sp,52
 68e:	4296                	lw	t0,68(sp)
 690:	0119                	addi	sp,sp,6
 692:	0f000013          	li	zero,240
 696:	012e                	slli	sp,sp,0xb
 698:	0b3a0e03          	lb	t3,179(s4)
 69c:	0b390b3b          	0xb390b3b
 6a0:	01111927          	fsh	fa7,18(sp)
 6a4:	0712                	slli	a4,a4,0x4
 6a6:	1840                	addi	s0,sp,52
 6a8:	4296                	lw	t0,68(sp)
 6aa:	0119                	addi	sp,sp,6
 6ac:	10000013          	li	zero,256
 6b0:	0101                	addi	sp,sp,0
 6b2:	1349                	addi	t1,t1,-14
 6b4:	1301                	addi	t1,t1,-32
 6b6:	0000                	unimp
 6b8:	2111                	addiw	sp,sp,4
 6ba:	4900                	lw	s0,16(a0)
 6bc:	000b2f13          	slti	t5,s6,0
 6c0:	1200                	addi	s0,sp,288
 6c2:	012e                	slli	sp,sp,0xb
 6c4:	0b3a0e03          	lb	t3,179(s4)
 6c8:	0b390b3b          	0xb390b3b
 6cc:	13491927          	fsh	fs4,306(s2)
 6d0:	0111                	addi	sp,sp,4
 6d2:	0712                	slli	a4,a4,0x4
 6d4:	1840                	addi	s0,sp,52
 6d6:	01194297          	auipc	t0,0x1194
 6da:	13000013          	li	zero,304
 6de:	012e                	slli	sp,sp,0xb
 6e0:	0b3a0e03          	lb	t3,179(s4)
 6e4:	0b390b3b          	0xb390b3b
 6e8:	01111927          	fsh	fa7,18(sp)
 6ec:	0712                	slli	a4,a4,0x4
 6ee:	1840                	addi	s0,sp,52
 6f0:	01194297          	auipc	t0,0x1194
 6f4:	14000013          	li	zero,320
 6f8:	0005                	c.nop	1
 6fa:	0b3a0e03          	lb	t3,179(s4)
 6fe:	0b390b3b          	0xb390b3b
 702:	1349                	addi	t1,t1,-14
 704:	1802                	slli	a6,a6,0x20
 706:	0000                	unimp
 708:	2e15                	addiw	t3,t3,5
 70a:	0301                	addi	t1,t1,0
 70c:	3a0e                	fld	fs4,224(sp)
 70e:	390b3b0b          	extu	s6,s6,14,16
 712:	4919270b          	ext	a4,s2,18,17
 716:	12011113          	0x12011113
 71a:	97184007          	flq	ft0,-1679(a6)
 71e:	1942                	slli	s2,s2,0x30
 720:	0000                	unimp
 722:	0100                	addi	s0,sp,128
 724:	0011                	c.nop	4
 726:	0610                	addi	a2,sp,768
 728:	0111                	addi	sp,sp,4
 72a:	0112                	slli	sp,sp,0x4
 72c:	0e1b0e03          	lb	t3,225(s6) # fffffffffffe70e1 <_ebss+0xfffffffffffbfec9>
 730:	0e25                	addi	t3,t3,9
 732:	00000513          	li	a0,0
 736:	0100                	addi	s0,sp,128
 738:	0011                	c.nop	4
 73a:	0610                	addi	a2,sp,768
 73c:	0111                	addi	sp,sp,4
 73e:	0112                	slli	sp,sp,0x4
 740:	0e1b0e03          	lb	t3,225(s6)
 744:	0e25                	addi	t3,t3,9
 746:	00000513          	li	a0,0
 74a:	0100                	addi	s0,sp,128
 74c:	0011                	c.nop	4
 74e:	0610                	addi	a2,sp,768
 750:	0111                	addi	sp,sp,4
 752:	0112                	slli	sp,sp,0x4
 754:	0e1b0e03          	lb	t3,225(s6)
 758:	0e25                	addi	t3,t3,9
 75a:	00000513          	li	a0,0
 75e:	0100                	addi	s0,sp,128
 760:	0011                	c.nop	4
 762:	0610                	addi	a2,sp,768
 764:	0111                	addi	sp,sp,4
 766:	0112                	slli	sp,sp,0x4
 768:	0e1b0e03          	lb	t3,225(s6)
 76c:	0e25                	addi	t3,t3,9
 76e:	00000513          	li	a0,0
	...

Disassembly of section .debug_aranges:

0000000000000000 <.debug_aranges>:
   0:	002c                	addi	a1,sp,8
   2:	0000                	unimp
   4:	0002                	c.slli64	zero
   6:	0000                	unimp
   8:	0000                	unimp
   a:	0008                	0x8
   c:	0000                	unimp
   e:	0000                	unimp
  10:	2040                	fld	fs0,128(s0)
  12:	0002                	c.slli64	zero
  14:	0000                	unimp
  16:	0000                	unimp
  18:	07c4                	addi	s1,sp,964
	...
  2e:	0000                	unimp
  30:	002c                	addi	a1,sp,8
  32:	0000                	unimp
  34:	0002                	c.slli64	zero
  36:	0541                	addi	a0,a0,16
  38:	0000                	unimp
  3a:	0008                	0x8
  3c:	0000                	unimp
  3e:	0000                	unimp
  40:	2804                	fld	fs1,16(s0)
  42:	0002                	c.slli64	zero
  44:	0000                	unimp
  46:	0000                	unimp
  48:	0298                	addi	a4,sp,320
	...
  5e:	0000                	unimp
  60:	002c                	addi	a1,sp,8
  62:	0000                	unimp
  64:	0002                	c.slli64	zero
  66:	078c                	addi	a1,sp,960
  68:	0000                	unimp
  6a:	0008                	0x8
  6c:	0000                	unimp
  6e:	0000                	unimp
  70:	2a9c                	fld	fa5,16(a3)
  72:	0002                	c.slli64	zero
  74:	0000                	unimp
  76:	0000                	unimp
  78:	0e68                	addi	a0,sp,796
	...
  8e:	0000                	unimp
  90:	002c                	addi	a1,sp,8
  92:	0000                	unimp
  94:	0002                	c.slli64	zero
  96:	0be2                	slli	s7,s7,0x18
  98:	0000                	unimp
  9a:	0008                	0x8
  9c:	0000                	unimp
  9e:	0000                	unimp
  a0:	3904                	fld	fs1,48(a0)
  a2:	0002                	c.slli64	zero
  a4:	0000                	unimp
  a6:	0000                	unimp
  a8:	00c0                	addi	s0,sp,68
	...
  be:	0000                	unimp
  c0:	002c                	addi	a1,sp,8
  c2:	0000                	unimp
  c4:	0002                	c.slli64	zero
  c6:	0cea                	slli	s9,s9,0x1a
  c8:	0000                	unimp
  ca:	0008                	0x8
  cc:	0000                	unimp
  ce:	0000                	unimp
  d0:	39c4                	fld	fs1,176(a1)
  d2:	0002                	c.slli64	zero
  d4:	0000                	unimp
  d6:	0000                	unimp
  d8:	07b0                	addi	a2,sp,968
	...
  ee:	0000                	unimp
  f0:	002c                	addi	a1,sp,8
  f2:	0000                	unimp
  f4:	0002                	c.slli64	zero
  f6:	0f49                	addi	t5,t5,18
  f8:	0000                	unimp
  fa:	0008                	0x8
  fc:	0000                	unimp
  fe:	0000                	unimp
 100:	4174                	lw	a3,68(a0)
 102:	0002                	c.slli64	zero
 104:	0000                	unimp
 106:	0000                	unimp
 108:	0a40                	addi	s0,sp,276
	...
 11e:	0000                	unimp
 120:	002c                	addi	a1,sp,8
 122:	0000                	unimp
 124:	0002                	c.slli64	zero
 126:	1442                	slli	s0,s0,0x30
 128:	0000                	unimp
 12a:	0008                	0x8
 12c:	0000                	unimp
 12e:	0000                	unimp
 130:	4bb8                	lw	a4,80(a5)
 132:	0002                	c.slli64	zero
 134:	0000                	unimp
 136:	0000                	unimp
 138:	0200                	addi	s0,sp,256
	...
 14e:	0000                	unimp
 150:	002c                	addi	a1,sp,8
 152:	0000                	unimp
 154:	0002                	c.slli64	zero
 156:	1470                	addi	a2,sp,556
 158:	0000                	unimp
 15a:	0008                	0x8
 15c:	0000                	unimp
 15e:	0000                	unimp
 160:	2000                	fld	fs0,0(s0)
 162:	0002                	c.slli64	zero
 164:	0000                	unimp
 166:	0000                	unimp
 168:	003c                	addi	a5,sp,8
	...
 17e:	0000                	unimp
 180:	002c                	addi	a1,sp,8
 182:	0000                	unimp
 184:	0002                	c.slli64	zero
 186:	149e                	slli	s1,s1,0x27
 188:	0000                	unimp
 18a:	0008                	0x8
 18c:	0000                	unimp
 18e:	0000                	unimp
 190:	4dc0                	lw	s0,28(a1)
 192:	0002                	c.slli64	zero
 194:	0000                	unimp
 196:	0000                	unimp
 198:	00e4                	addi	s1,sp,76
	...
 1ae:	0000                	unimp
 1b0:	002c                	addi	a1,sp,8
 1b2:	0000                	unimp
 1b4:	0002                	c.slli64	zero
 1b6:	14cc                	addi	a1,sp,612
 1b8:	0000                	unimp
 1ba:	0008                	0x8
 1bc:	0000                	unimp
 1be:	0000                	unimp
 1c0:	4ea4                	lw	s1,88(a3)
 1c2:	0002                	c.slli64	zero
 1c4:	0000                	unimp
 1c6:	0000                	unimp
 1c8:	0018                	0x18
	...

Disassembly of section .debug_line:

0000000000000000 <.debug_line>:
       0:	0488                	addi	a0,sp,576
       2:	0000                	unimp
       4:	00230003          	lb	zero,2(t1)
       8:	0000                	unimp
       a:	0101                	addi	sp,sp,0
       c:	000d0efb          	0xd0efb
      10:	0101                	addi	sp,sp,0
      12:	0101                	addi	sp,sp,0
      14:	0000                	unimp
      16:	0100                	addi	s0,sp,128
      18:	0000                	unimp
      1a:	7301                	lui	t1,0xfffe0
      1c:	6372                	ld	t1,280(sp)
      1e:	0000                	unimp
      20:	6e72656b          	0x6e72656b
      24:	6c65                	lui	s8,0x19
      26:	632e                	ld	t1,200(sp)
      28:	0100                	addi	s0,sp,128
      2a:	0000                	unimp
      2c:	0500                	addi	s0,sp,640
      2e:	0001                	nop
      30:	0209                	addi	tp,tp,2
      32:	2040                	fld	fs0,128(s0)
      34:	0002                	c.slli64	zero
      36:	0000                	unimp
      38:	0000                	unimp
      3a:	05011603          	lh	a2,80(sp)
      3e:	0309                	addi	t1,t1,2
      40:	0904                	addi	s1,sp,144
      42:	0014                	0x14
      44:	0501                	addi	a0,a0,0
      46:	0302                	c.slli64	t1
      48:	0900                	addi	s0,sp,144
      4a:	0004                	0x4
      4c:	0501                	addi	a0,a0,0
      4e:	0318                	addi	a4,sp,384
      50:	0901                	addi	s2,s2,0
      52:	0004                	0x4
      54:	0501                	addi	a0,a0,0
      56:	0306                	slli	t1,t1,0x1
      58:	0900                	addi	s0,sp,144
      5a:	0018                	0x18
      5c:	0501                	addi	a0,a0,0
      5e:	0022                	c.slli	zero,0x8
      60:	0402                	c.slli64	s0
      62:	0302                	c.slli64	t1
      64:	0008097f          	0x8097f
      68:	0501                	addi	a0,a0,0
      6a:	0010                	0x10
      6c:	0402                	c.slli64	s0
      6e:	0301                	addi	t1,t1,0
      70:	0900                	addi	s0,sp,144
      72:	000c                	0xc
      74:	0501                	addi	a0,a0,0
      76:	0002                	c.slli64	zero
      78:	0402                	c.slli64	s0
      7a:	0301                	addi	t1,t1,0
      7c:	0900                	addi	s0,sp,144
      7e:	0010                	0x10
      80:	0501                	addi	a0,a0,0
      82:	0309                	addi	t1,t1,2
      84:	0905                	addi	s2,s2,1
      86:	0004                	0x4
      88:	0501                	addi	a0,a0,0
      8a:	0304                	addi	s1,sp,384
      8c:	097d                	addi	s2,s2,31
      8e:	0008                	0x8
      90:	0501                	addi	a0,a0,0
      92:	09060307          	vlse8.v	v6,(a2),a6,v0.t
      96:	0004                	0x4
      98:	0501                	addi	a0,a0,0
      9a:	0308                	addi	a0,sp,384
      9c:	0902                	c.slli64	s2
      9e:	000c                	0xc
      a0:	0501                	addi	a0,a0,0
      a2:	030d                	addi	t1,t1,3
      a4:	0901                	addi	s2,s2,0
      a6:	000c                	0xc
      a8:	0501                	addi	a0,a0,0
      aa:	0306                	slli	t1,t1,0x1
      ac:	0901                	addi	s2,s2,0
      ae:	0008                	0x8
      b0:	0501                	addi	a0,a0,0
      b2:	09040307          	vlse8.v	v6,(s0),a6,v0.t
      b6:	0004                	0x4
      b8:	0501                	addi	a0,a0,0
      ba:	030a                	slli	t1,t1,0x2
      bc:	0902                	c.slli64	s2
      be:	000c                	0xc
      c0:	0501                	addi	a0,a0,0
      c2:	0309                	addi	t1,t1,2
      c4:	0900                	addi	s0,sp,144
      c6:	0008                	0x8
      c8:	0501                	addi	a0,a0,0
      ca:	0308                	addi	a0,sp,384
      cc:	0901                	addi	s2,s2,0
      ce:	0004                	0x4
      d0:	0501                	addi	a0,a0,0
      d2:	0309                	addi	t1,t1,2
      d4:	0902                	c.slli64	s2
      d6:	000c                	0xc
      d8:	0501                	addi	a0,a0,0
      da:	0308                	addi	a0,sp,384
      dc:	0901                	addi	s2,s2,0
      de:	000c                	0xc
      e0:	0501                	addi	a0,a0,0
      e2:	030e                	slli	t1,t1,0x3
      e4:	0901                	addi	s2,s2,0
      e6:	000c                	0xc
      e8:	0501                	addi	a0,a0,0
      ea:	0305                	addi	t1,t1,1
      ec:	0906                	slli	s2,s2,0x1
      ee:	0008                	0x8
      f0:	0501                	addi	a0,a0,0
      f2:	030c                	addi	a1,sp,384
      f4:	0902                	c.slli64	s2
      f6:	0014                	0x14
      f8:	0501                	addi	a0,a0,0
      fa:	0301                	addi	t1,t1,0
      fc:	0901                	addi	s2,s2,0
      fe:	0004                	0x4
     100:	0301                	addi	t1,t1,0
     102:	090a                	slli	s2,s2,0x2
     104:	0014                	0x14
     106:	0501                	addi	a0,a0,0
     108:	0310                	addi	a2,sp,384
     10a:	0901                	addi	s2,s2,0
     10c:	0018                	0x18
     10e:	0301                	addi	t1,t1,0
     110:	0901                	addi	s2,s2,0
     112:	0004                	0x4
     114:	0501                	addi	a0,a0,0
     116:	0302                	c.slli64	t1
     118:	0902                	c.slli64	s2
     11a:	0010                	0x10
     11c:	0501                	addi	a0,a0,0
     11e:	0301                	addi	t1,t1,0
     120:	0909                	addi	s2,s2,2
     122:	0030                	addi	a2,sp,8
     124:	0301                	addi	t1,t1,0
     126:	090a                	slli	s2,s2,0x2
     128:	0010                	0x10
     12a:	0501                	addi	a0,a0,0
     12c:	0310                	addi	a2,sp,384
     12e:	0901                	addi	s2,s2,0
     130:	0018                	0x18
     132:	0301                	addi	t1,t1,0
     134:	0901                	addi	s2,s2,0
     136:	0004                	0x4
     138:	0501                	addi	a0,a0,0
     13a:	0302                	c.slli64	t1
     13c:	0902                	c.slli64	s2
     13e:	0010                	0x10
     140:	0501                	addi	a0,a0,0
     142:	0301                	addi	t1,t1,0
     144:	0909                	addi	s2,s2,2
     146:	0030                	addi	a2,sp,8
     148:	0501                	addi	a0,a0,0
     14a:	033c                	addi	a5,sp,392
     14c:	0910                	addi	a2,sp,144
     14e:	0010                	0x10
     150:	0501                	addi	a0,a0,0
     152:	034c                	addi	a1,sp,388
     154:	0900                	addi	s0,sp,144
     156:	0014                	0x14
     158:	0501                	addi	a0,a0,0
     15a:	0355                	addi	t1,t1,21
     15c:	0900                	addi	s0,sp,144
     15e:	0004                	0x4
     160:	0501                	addi	a0,a0,0
     162:	01f4                	addi	a3,sp,204
     164:	20090003          	lb	zero,512(s2)
     168:	0100                	addi	s0,sp,128
     16a:	3c05                	addiw	s8,s8,-31
     16c:	10090103          	lb	sp,256(s2)
     170:	0100                	addi	s0,sp,128
     172:	4c05                	li	s8,1
     174:	14090003          	lb	zero,320(s2)
     178:	0100                	addi	s0,sp,128
     17a:	5505                	li	a0,-31
     17c:	04090003          	lb	zero,64(s2)
     180:	0100                	addi	s0,sp,128
     182:	f505                	bnez	a0,aa <_start-0x21f56>
     184:	0301                	addi	t1,t1,0
     186:	0900                	addi	s0,sp,144
     188:	0020                	addi	s0,sp,8
     18a:	0501                	addi	a0,a0,0
     18c:	033c                	addi	a5,sp,392
     18e:	0901                	addi	s2,s2,0
     190:	0010                	0x10
     192:	0501                	addi	a0,a0,0
     194:	034c                	addi	a1,sp,388
     196:	0900                	addi	s0,sp,144
     198:	0014                	0x14
     19a:	0501                	addi	a0,a0,0
     19c:	0355                	addi	t1,t1,21
     19e:	0900                	addi	s0,sp,144
     1a0:	0004                	0x4
     1a2:	0501                	addi	a0,a0,0
     1a4:	01f5                	addi	gp,gp,29
     1a6:	20090003          	lb	zero,512(s2)
     1aa:	0100                	addi	s0,sp,128
     1ac:	0105                	addi	sp,sp,1
     1ae:	10090303          	lb	t1,256(s2)
     1b2:	0100                	addi	s0,sp,128
     1b4:	0405                	addi	s0,s0,1
     1b6:	10090303          	lb	t1,256(s2)
     1ba:	0100                	addi	s0,sp,128
     1bc:	0205                	addi	tp,tp,1
     1be:	08090103          	lb	sp,128(s2)
     1c2:	0100                	addi	s0,sp,128
     1c4:	10090103          	lb	sp,256(s2)
     1c8:	0100                	addi	s0,sp,128
     1ca:	0405                	addi	s0,s0,1
     1cc:	14090203          	lb	tp,320(s2)
     1d0:	0100                	addi	s0,sp,128
     1d2:	0205                	addi	tp,tp,1
     1d4:	08090103          	lb	sp,128(s2)
     1d8:	0100                	addi	s0,sp,128
     1da:	10090103          	lb	sp,256(s2)
     1de:	0100                	addi	s0,sp,128
     1e0:	0405                	addi	s0,s0,1
     1e2:	14090203          	lb	tp,320(s2)
     1e6:	0100                	addi	s0,sp,128
     1e8:	0205                	addi	tp,tp,1
     1ea:	08090103          	lb	sp,128(s2)
     1ee:	0100                	addi	s0,sp,128
     1f0:	10090103          	lb	sp,256(s2)
     1f4:	0100                	addi	s0,sp,128
     1f6:	0105                	addi	sp,sp,1
     1f8:	14090103          	lb	sp,320(s2)
     1fc:	0100                	addi	s0,sp,128
     1fe:	14090303          	lb	t1,320(s2)
     202:	0100                	addi	s0,sp,128
     204:	2705                	addiw	a4,a4,1
     206:	10090303          	lb	t1,256(s2)
     20a:	0100                	addi	s0,sp,128
     20c:	6f05                	lui	t5,0x1
     20e:	08090003          	lb	zero,128(s2)
     212:	0100                	addi	s0,sp,128
     214:	0605                	addi	a2,a2,1
     216:	04090003          	lb	zero,64(s2)
     21a:	0100                	addi	s0,sp,128
     21c:	0205                	addi	tp,tp,1
     21e:	04090203          	lb	tp,64(s2)
     222:	0100                	addi	s0,sp,128
     224:	0105                	addi	sp,sp,1
     226:	10090103          	lb	sp,256(s2)
     22a:	0100                	addi	s0,sp,128
     22c:	14090303          	lb	t1,320(s2)
     230:	0100                	addi	s0,sp,128
     232:	0205                	addi	tp,tp,1
     234:	18090103          	lb	sp,384(s2)
     238:	0100                	addi	s0,sp,128
     23a:	0905                	addi	s2,s2,1
     23c:	0c090803          	lb	a6,192(s2)
     240:	0100                	addi	s0,sp,128
     242:	0205                	addi	tp,tp,1
     244:	08090303          	lb	t1,128(s2)
     248:	0100                	addi	s0,sp,128
     24a:	0905                	addi	s2,s2,1
     24c:	1c090103          	lb	sp,448(s2)
     250:	0100                	addi	s0,sp,128
     252:	0105                	addi	sp,sp,1
     254:	04090103          	lb	sp,64(s2)
     258:	0100                	addi	s0,sp,128
     25a:	14090303          	lb	t1,320(s2)
     25e:	0100                	addi	s0,sp,128
     260:	0205                	addi	tp,tp,1
     262:	10090103          	lb	sp,256(s2)
     266:	0100                	addi	s0,sp,128
     268:	0505                	addi	a0,a0,1
     26a:	10090103          	lb	sp,256(s2)
     26e:	0100                	addi	s0,sp,128
     270:	0205                	addi	tp,tp,1
     272:	10090203          	lb	tp,256(s2)
     276:	0100                	addi	s0,sp,128
     278:	14090203          	lb	tp,320(s2)
     27c:	0100                	addi	s0,sp,128
     27e:	04090203          	lb	tp,64(s2)
     282:	0100                	addi	s0,sp,128
     284:	0605                	addi	a2,a2,1
     286:	04090203          	lb	tp,64(s2)
     28a:	0100                	addi	s0,sp,128
     28c:	08090103          	lb	sp,128(s2)
     290:	0100                	addi	s0,sp,128
     292:	0505                	addi	a0,a0,1
     294:	10090003          	lb	zero,256(s2)
     298:	0100                	addi	s0,sp,128
     29a:	0305                	addi	t1,t1,1
     29c:	0c090103          	lb	sp,192(s2)
     2a0:	0100                	addi	s0,sp,128
     2a2:	0605                	addi	a2,a2,1
     2a4:	0c090203          	lb	tp,192(s2)
     2a8:	0100                	addi	s0,sp,128
     2aa:	04090103          	lb	sp,64(s2)
     2ae:	0100                	addi	s0,sp,128
     2b0:	0505                	addi	a0,a0,1
     2b2:	10090003          	lb	zero,256(s2)
     2b6:	0100                	addi	s0,sp,128
     2b8:	0305                	addi	t1,t1,1
     2ba:	04090103          	lb	sp,64(s2)
     2be:	0100                	addi	s0,sp,128
     2c0:	0105                	addi	sp,sp,1
     2c2:	0c090103          	lb	sp,192(s2)
     2c6:	0100                	addi	s0,sp,128
     2c8:	14090303          	lb	t1,320(s2)
     2cc:	0100                	addi	s0,sp,128
     2ce:	0205                	addi	tp,tp,1
     2d0:	10090303          	lb	t1,256(s2)
     2d4:	0100                	addi	s0,sp,128
     2d6:	04090103          	lb	sp,64(s2)
     2da:	0100                	addi	s0,sp,128
     2dc:	04090103          	lb	sp,64(s2)
     2e0:	0100                	addi	s0,sp,128
     2e2:	04090103          	lb	sp,64(s2)
     2e6:	0100                	addi	s0,sp,128
     2e8:	04090203          	lb	tp,64(s2)
     2ec:	0100                	addi	s0,sp,128
     2ee:	04090303          	lb	t1,64(s2)
     2f2:	0100                	addi	s0,sp,128
     2f4:	0905                	addi	s2,s2,1
     2f6:	10090303          	lb	t1,256(s2)
     2fa:	0100                	addi	s0,sp,128
     2fc:	0505                	addi	a0,a0,1
     2fe:	10090103          	lb	sp,256(s2)
     302:	0100                	addi	s0,sp,128
     304:	0305                	addi	t1,t1,1
     306:	08090103          	lb	sp,128(s2)
     30a:	0100                	addi	s0,sp,128
     30c:	0905                	addi	s2,s2,1
     30e:	0c090203          	lb	tp,192(s2)
     312:	0100                	addi	s0,sp,128
     314:	0505                	addi	a0,a0,1
     316:	10090103          	lb	sp,256(s2)
     31a:	0100                	addi	s0,sp,128
     31c:	0305                	addi	t1,t1,1
     31e:	0c090103          	lb	sp,192(s2)
     322:	0100                	addi	s0,sp,128
     324:	0905                	addi	s2,s2,1
     326:	0c090203          	lb	tp,192(s2)
     32a:	0100                	addi	s0,sp,128
     32c:	10090103          	lb	sp,256(s2)
     330:	0100                	addi	s0,sp,128
     332:	0205                	addi	tp,tp,1
     334:	10090203          	lb	tp,256(s2)
     338:	0100                	addi	s0,sp,128
     33a:	04090103          	lb	sp,64(s2)
     33e:	0100                	addi	s0,sp,128
     340:	0905                	addi	s2,s2,1
     342:	0c090203          	lb	tp,192(s2)
     346:	0100                	addi	s0,sp,128
     348:	0505                	addi	a0,a0,1
     34a:	10090103          	lb	sp,256(s2)
     34e:	0100                	addi	s0,sp,128
     350:	0305                	addi	t1,t1,1
     352:	0c090103          	lb	sp,192(s2)
     356:	0100                	addi	s0,sp,128
     358:	0905                	addi	s2,s2,1
     35a:	0c090203          	lb	tp,192(s2)
     35e:	0100                	addi	s0,sp,128
     360:	0505                	addi	a0,a0,1
     362:	10090103          	lb	sp,256(s2)
     366:	0100                	addi	s0,sp,128
     368:	0305                	addi	t1,t1,1
     36a:	08090103          	lb	sp,128(s2)
     36e:	0100                	addi	s0,sp,128
     370:	0105                	addi	sp,sp,1
     372:	0c090103          	lb	sp,192(s2)
     376:	0100                	addi	s0,sp,128
     378:	14090903          	lb	s2,320(s2)
     37c:	0100                	addi	s0,sp,128
     37e:	0205                	addi	tp,tp,1
     380:	10090103          	lb	sp,256(s2)
     384:	0100                	addi	s0,sp,128
     386:	0c090103          	lb	sp,192(s2)
     38a:	0100                	addi	s0,sp,128
     38c:	2005                	0x2005
     38e:	10090203          	lb	tp,256(s2)
     392:	0100                	addi	s0,sp,128
     394:	0205                	addi	tp,tp,1
     396:	14097e03          	0x14097e03
     39a:	0100                	addi	s0,sp,128
     39c:	10090303          	lb	t1,256(s2)
     3a0:	0100                	addi	s0,sp,128
     3a2:	1b05                	addi	s6,s6,-31
     3a4:	10090203          	lb	tp,256(s2)
     3a8:	0100                	addi	s0,sp,128
     3aa:	0205                	addi	tp,tp,1
     3ac:	14097e03          	0x14097e03
     3b0:	0100                	addi	s0,sp,128
     3b2:	10090303          	lb	t1,256(s2)
     3b6:	0100                	addi	s0,sp,128
     3b8:	1d05                	addi	s10,s10,-31
     3ba:	10090203          	lb	tp,256(s2)
     3be:	0100                	addi	s0,sp,128
     3c0:	0205                	addi	tp,tp,1
     3c2:	14097e03          	0x14097e03
     3c6:	0100                	addi	s0,sp,128
     3c8:	10090303          	lb	t1,256(s2)
     3cc:	0100                	addi	s0,sp,128
     3ce:	1b05                	addi	s6,s6,-31
     3d0:	10090203          	lb	tp,256(s2)
     3d4:	0100                	addi	s0,sp,128
     3d6:	0205                	addi	tp,tp,1
     3d8:	14097e03          	0x14097e03
     3dc:	0100                	addi	s0,sp,128
     3de:	10090303          	lb	t1,256(s2)
     3e2:	0100                	addi	s0,sp,128
     3e4:	1a05                	addi	s4,s4,-31
     3e6:	10090203          	lb	tp,256(s2)
     3ea:	0100                	addi	s0,sp,128
     3ec:	0205                	addi	tp,tp,1
     3ee:	14097e03          	0x14097e03
     3f2:	0100                	addi	s0,sp,128
     3f4:	0105                	addi	sp,sp,1
     3f6:	10090303          	lb	t1,256(s2)
     3fa:	0100                	addi	s0,sp,128
     3fc:	14090303          	lb	t1,320(s2)
     400:	0100                	addi	s0,sp,128
     402:	1005                	c.nop	-31
     404:	10090103          	lb	sp,256(s2)
     408:	0100                	addi	s0,sp,128
     40a:	0c090103          	lb	sp,192(s2)
     40e:	0100                	addi	s0,sp,128
     410:	1605                	addi	a2,a2,-31
     412:	0c090103          	lb	sp,192(s2)
     416:	0100                	addi	s0,sp,128
     418:	0b05                	addi	s6,s6,1
     41a:	10090003          	lb	zero,256(s2)
     41e:	0100                	addi	s0,sp,128
     420:	0205                	addi	tp,tp,1
     422:	08090203          	lb	tp,128(s2)
     426:	0100                	addi	s0,sp,128
     428:	0105                	addi	sp,sp,1
     42a:	18090103          	lb	sp,384(s2)
     42e:	0100                	addi	s0,sp,128
     430:	14090303          	lb	t1,320(s2)
     434:	0100                	addi	s0,sp,128
     436:	0205                	addi	tp,tp,1
     438:	10090103          	lb	sp,256(s2)
     43c:	0100                	addi	s0,sp,128
     43e:	04090103          	lb	sp,64(s2)
     442:	0100                	addi	s0,sp,128
     444:	04090103          	lb	sp,64(s2)
     448:	0100                	addi	s0,sp,128
     44a:	0c090103          	lb	sp,192(s2)
     44e:	0100                	addi	s0,sp,128
     450:	04090103          	lb	sp,64(s2)
     454:	0100                	addi	s0,sp,128
     456:	0c090203          	lb	tp,192(s2)
     45a:	0100                	addi	s0,sp,128
     45c:	04090103          	lb	sp,64(s2)
     460:	0100                	addi	s0,sp,128
     462:	04090303          	lb	t1,64(s2)
     466:	0100                	addi	s0,sp,128
     468:	0c090103          	lb	sp,192(s2)
     46c:	0100                	addi	s0,sp,128
     46e:	0c090103          	lb	sp,192(s2)
     472:	0100                	addi	s0,sp,128
     474:	0c090203          	lb	tp,192(s2)
     478:	0100                	addi	s0,sp,128
     47a:	0805                	addi	a6,a6,1
     47c:	0200                	addi	s0,sp,256
     47e:	0104                	addi	s1,sp,128
     480:	04090203          	lb	tp,64(s2)
     484:	0100                	addi	s0,sp,128
     486:	0409                	addi	s0,s0,2
     488:	0000                	unimp
     48a:	0101                	addi	sp,sp,0
     48c:	01e4                	addi	s1,sp,204
     48e:	0000                	unimp
     490:	00360003          	lb	zero,3(a2) # 1d003 <_start-0x4ffd>
     494:	0000                	unimp
     496:	0101                	addi	sp,sp,0
     498:	000d0efb          	0xd0efb
     49c:	0101                	addi	sp,sp,0
     49e:	0101                	addi	sp,sp,0
     4a0:	0000                	unimp
     4a2:	0100                	addi	s0,sp,128
     4a4:	0000                	unimp
     4a6:	7301                	lui	t1,0xfffe0
     4a8:	6372                	ld	t1,280(sp)
     4aa:	6900                	ld	s0,16(a0)
     4ac:	636e                	ld	t1,216(sp)
     4ae:	756c                	ld	a1,232(a0)
     4b0:	6564                	ld	s1,200(a0)
     4b2:	0000                	unimp
     4b4:	656d                	lui	a0,0x1b
     4b6:	736d                	lui	t1,0xffffb
     4b8:	7465                	lui	s0,0xffff9
     4ba:	632e                	ld	t1,200(sp)
     4bc:	0100                	addi	s0,sp,128
     4be:	0000                	unimp
     4c0:	7974                	ld	a3,240(a0)
     4c2:	6570                	ld	a2,200(a0)
     4c4:	00682e73          	csrrs	t3,0x6,a6
     4c8:	0002                	c.slli64	zero
     4ca:	0000                	unimp
     4cc:	0105                	addi	sp,sp,1
     4ce:	0900                	addi	s0,sp,144
     4d0:	0402                	c.slli64	s0
     4d2:	0228                	addi	a0,sp,264
     4d4:	0000                	unimp
     4d6:	0000                	unimp
     4d8:	1800                	addi	s0,sp,48
     4da:	0605                	addi	a2,a2,1
     4dc:	1c090103          	lb	sp,448(s2)
     4e0:	0100                	addi	s0,sp,128
     4e2:	0205                	addi	tp,tp,1
     4e4:	04090203          	lb	tp,64(s2)
     4e8:	0100                	addi	s0,sp,128
     4ea:	0105                	addi	sp,sp,1
     4ec:	2c090903          	lb	s2,704(s2)
     4f0:	0100                	addi	s0,sp,128
     4f2:	10090303          	lb	t1,256(s2)
     4f6:	0100                	addi	s0,sp,128
     4f8:	0805                	addi	a6,a6,1
     4fa:	1c090103          	lb	sp,448(s2)
     4fe:	0100                	addi	s0,sp,128
     500:	08090203          	lb	tp,128(s2)
     504:	0100                	addi	s0,sp,128
     506:	0605                	addi	a2,a2,1
     508:	04090103          	lb	sp,64(s2)
     50c:	0100                	addi	s0,sp,128
     50e:	0905                	addi	s2,s2,1
     510:	0c090003          	lb	zero,192(s2)
     514:	0100                	addi	s0,sp,128
     516:	0e05                	addi	t3,t3,1
     518:	0c097f03          	0xc097f03
     51c:	0100                	addi	s0,sp,128
     51e:	0805                	addi	a6,a6,1
     520:	0c090003          	lb	zero,192(s2)
     524:	0100                	addi	s0,sp,128
     526:	0905                	addi	s2,s2,1
     528:	04090203          	lb	tp,64(s2)
     52c:	0100                	addi	s0,sp,128
     52e:	0105                	addi	sp,sp,1
     530:	04090103          	lb	sp,64(s2)
     534:	0100                	addi	s0,sp,128
     536:	10090303          	lb	t1,256(s2)
     53a:	0100                	addi	s0,sp,128
     53c:	0805                	addi	a6,a6,1
     53e:	20090103          	lb	sp,512(s2)
     542:	0100                	addi	s0,sp,128
     544:	1005                	c.nop	-31
     546:	08090103          	lb	sp,128(s2)
     54a:	0100                	addi	s0,sp,128
     54c:	0f05                	addi	t5,t5,1
     54e:	08090103          	lb	sp,128(s2)
     552:	0100                	addi	s0,sp,128
     554:	1005                	c.nop	-31
     556:	08090203          	lb	tp,128(s2)
     55a:	0100                	addi	s0,sp,128
     55c:	08090103          	lb	sp,128(s2)
     560:	0100                	addi	s0,sp,128
     562:	0905                	addi	s2,s2,1
     564:	04090503          	lb	a0,64(s2)
     568:	0100                	addi	s0,sp,128
     56a:	0205                	addi	tp,tp,1
     56c:	04090003          	lb	zero,64(s2)
     570:	0100                	addi	s0,sp,128
     572:	1f05                	addi	t5,t5,-31
     574:	0200                	addi	s0,sp,256
     576:	0304                	addi	s1,sp,384
     578:	04090103          	lb	sp,64(s2)
     57c:	0100                	addi	s0,sp,128
     57e:	2d05                	addiw	s10,s10,1
     580:	0200                	addi	s0,sp,256
     582:	0304                	addi	s1,sp,384
     584:	08090003          	lb	zero,128(s2)
     588:	0100                	addi	s0,sp,128
     58a:	2705                	addiw	a4,a4,1
     58c:	0200                	addi	s0,sp,256
     58e:	0304                	addi	s1,sp,384
     590:	0c090003          	lb	zero,192(s2)
     594:	0100                	addi	s0,sp,128
     596:	0805                	addi	a6,a6,1
     598:	0200                	addi	s0,sp,256
     59a:	0304                	addi	s1,sp,384
     59c:	04090003          	lb	zero,64(s2)
     5a0:	0100                	addi	s0,sp,128
     5a2:	1605                	addi	a2,a2,-31
     5a4:	0200                	addi	s0,sp,256
     5a6:	0304                	addi	s1,sp,384
     5a8:	0c097f03          	0xc097f03
     5ac:	0100                	addi	s0,sp,128
     5ae:	0205                	addi	tp,tp,1
     5b0:	0200                	addi	s0,sp,256
     5b2:	0104                	addi	s1,sp,128
     5b4:	0c090003          	lb	zero,192(s2)
     5b8:	0100                	addi	s0,sp,128
     5ba:	1705                	addi	a4,a4,-31
     5bc:	10090403          	lb	s0,256(s2)
     5c0:	0100                	addi	s0,sp,128
     5c2:	0e05                	addi	t3,t3,1
     5c4:	08090003          	lb	zero,128(s2)
     5c8:	0100                	addi	s0,sp,128
     5ca:	0505                	addi	a0,a0,1
     5cc:	08090003          	lb	zero,128(s2)
     5d0:	0100                	addi	s0,sp,128
     5d2:	1b05                	addi	s6,s6,-31
     5d4:	04090103          	lb	sp,64(s2)
     5d8:	0100                	addi	s0,sp,128
     5da:	0805                	addi	a6,a6,1
     5dc:	08090003          	lb	zero,128(s2)
     5e0:	0100                	addi	s0,sp,128
     5e2:	0c090103          	lb	sp,192(s2)
     5e6:	0100                	addi	s0,sp,128
     5e8:	0305                	addi	t1,t1,1
     5ea:	10090103          	lb	sp,256(s2)
     5ee:	0100                	addi	s0,sp,128
     5f0:	0505                	addi	a0,a0,1
     5f2:	14090103          	lb	sp,320(s2)
     5f6:	0100                	addi	s0,sp,128
     5f8:	0805                	addi	a6,a6,1
     5fa:	10090103          	lb	sp,256(s2)
     5fe:	0100                	addi	s0,sp,128
     600:	0505                	addi	a0,a0,1
     602:	10090403          	lb	s0,256(s2)
     606:	0100                	addi	s0,sp,128
     608:	0c05                	addi	s8,s8,1
     60a:	0c090103          	lb	sp,192(s2)
     60e:	0100                	addi	s0,sp,128
     610:	0505                	addi	a0,a0,1
     612:	0c090003          	lb	zero,192(s2)
     616:	0100                	addi	s0,sp,128
     618:	0805                	addi	a6,a6,1
     61a:	04090103          	lb	sp,64(s2)
     61e:	0100                	addi	s0,sp,128
     620:	0305                	addi	t1,t1,1
     622:	10090503          	lb	a0,256(s2)
     626:	0100                	addi	s0,sp,128
     628:	0605                	addi	a2,a2,1
     62a:	1c090303          	lb	t1,448(s2)
     62e:	0100                	addi	s0,sp,128
     630:	1a05                	addi	s4,s4,-31
     632:	08090103          	lb	sp,128(s2)
     636:	0100                	addi	s0,sp,128
     638:	1605                	addi	a2,a2,-31
     63a:	10090003          	lb	zero,256(s2)
     63e:	0100                	addi	s0,sp,128
     640:	0405                	addi	s0,s0,1
     642:	08090003          	lb	zero,128(s2)
     646:	0100                	addi	s0,sp,128
     648:	0905                	addi	s2,s2,1
     64a:	14090303          	lb	t1,320(s2)
     64e:	0100                	addi	s0,sp,128
     650:	0105                	addi	sp,sp,1
     652:	04090103          	lb	sp,64(s2)
     656:	0100                	addi	s0,sp,128
     658:	14090303          	lb	t1,320(s2)
     65c:	0100                	addi	s0,sp,128
     65e:	0905                	addi	s2,s2,1
     660:	20090103          	lb	sp,512(s2)
     664:	0100                	addi	s0,sp,128
     666:	0105                	addi	sp,sp,1
     668:	18090103          	lb	sp,384(s2)
     66c:	0100                	addi	s0,sp,128
     66e:	1409                	addi	s0,s0,-30
     670:	0000                	unimp
     672:	0101                	addi	sp,sp,0
     674:	00000b77          	radd16	s6,zero,zero
     678:	00370003          	lb	zero,3(a4)
     67c:	0000                	unimp
     67e:	0101                	addi	sp,sp,0
     680:	000d0efb          	0xd0efb
     684:	0101                	addi	sp,sp,0
     686:	0101                	addi	sp,sp,0
     688:	0000                	unimp
     68a:	0100                	addi	s0,sp,128
     68c:	0000                	unimp
     68e:	7301                	lui	t1,0xfffe0
     690:	6372                	ld	t1,280(sp)
     692:	6900                	ld	s0,16(a0)
     694:	636e                	ld	t1,216(sp)
     696:	756c                	ld	a1,232(a0)
     698:	6564                	ld	s1,200(a0)
     69a:	0000                	unimp
     69c:	7270                	ld	a2,224(a2)
     69e:	6e69                	lui	t3,0x1a
     6a0:	6b74                	ld	a3,208(a4)
     6a2:	632e                	ld	t1,200(sp)
     6a4:	0100                	addi	s0,sp,128
     6a6:	0000                	unimp
     6a8:	61647473          	csrrci	s0,0x616,8
     6ac:	6772                	ld	a4,280(sp)
     6ae:	682e                	ld	a6,200(sp)
     6b0:	0200                	addi	s0,sp,256
     6b2:	0000                	unimp
     6b4:	0500                	addi	s0,sp,640
     6b6:	0001                	nop
     6b8:	0209                	addi	tp,tp,2
     6ba:	2a9c                	fld	fa5,16(a3)
     6bc:	0002                	c.slli64	zero
     6be:	0000                	unimp
     6c0:	0000                	unimp
     6c2:	05012a03          	lw	s4,80(sp)
     6c6:	0306                	slli	t1,t1,0x1
     6c8:	0901                	addi	s2,s2,0
     6ca:	0014                	0x14
     6cc:	0501                	addi	a0,a0,0
     6ce:	0308                	addi	a0,sp,384
     6d0:	0902                	c.slli64	s2
     6d2:	0004                	0x4
     6d4:	0501                	addi	a0,a0,0
     6d6:	09010307          	vlse8.v	v6,(sp),a6,v0.t
     6da:	0004                	0x4
     6dc:	0501                	addi	a0,a0,0
     6de:	0312                	slli	t1,t1,0x4
     6e0:	0901                	addi	s2,s2,0
     6e2:	0018                	0x18
     6e4:	0501                	addi	a0,a0,0
     6e6:	030a                	slli	t1,t1,0x2
     6e8:	0900                	addi	s0,sp,144
     6ea:	000c                	0xc
     6ec:	0501                	addi	a0,a0,0
     6ee:	0316                	slli	t1,t1,0x5
     6f0:	0900                	addi	s0,sp,144
     6f2:	0008                	0x8
     6f4:	0501                	addi	a0,a0,0
     6f6:	09000307          	vlse8.v	v6,(zero),a6,v0.t
     6fa:	0008                	0x8
     6fc:	0501                	addi	a0,a0,0
     6fe:	097e030b          	0x97e030b
     702:	000c                	0xc
     704:	0501                	addi	a0,a0,0
     706:	0308                	addi	a0,sp,384
     708:	0900                	addi	s0,sp,144
     70a:	0008                	0x8
     70c:	0501                	addi	a0,a0,0
     70e:	001f 0402 0301      	0x3010402001f
     714:	0900                	addi	s0,sp,144
     716:	000c                	0xc
     718:	0501                	addi	a0,a0,0
     71a:	0402001b          	addiw	zero,tp,64
     71e:	0301                	addi	t1,t1,0
     720:	0900                	addi	s0,sp,144
     722:	0008                	0x8
     724:	0501                	addi	a0,a0,0
     726:	030a                	slli	t1,t1,0x2
     728:	0905                	addi	s2,s2,1
     72a:	000c                	0xc
     72c:	0501                	addi	a0,a0,0
     72e:	0309                	addi	t1,t1,2
     730:	0901                	addi	s2,s2,0
     732:	000c                	0xc
     734:	0501                	addi	a0,a0,0
     736:	0301                	addi	t1,t1,0
     738:	0901                	addi	s2,s2,0
     73a:	0004                	0x4
     73c:	0301                	addi	t1,t1,0
     73e:	0904                	addi	s1,sp,144
     740:	0010                	0x10
     742:	0501                	addi	a0,a0,0
     744:	030a                	slli	t1,t1,0x2
     746:	0901                	addi	s2,s2,0
     748:	0044                	addi	s1,sp,4
     74a:	0501                	addi	a0,a0,0
     74c:	030e                	slli	t1,t1,0x3
     74e:	00040903          	lb	s2,0(s0) # ffffffffffff9000 <_ebss+0xfffffffffffd1de8>
     752:	0501                	addi	a0,a0,0
     754:	0903030b          	0x903030b
     758:	000c                	0xc
     75a:	0501                	addi	a0,a0,0
     75c:	0305                	addi	t1,t1,1
     75e:	0900                	addi	s0,sp,144
     760:	000c                	0xc
     762:	0501                	addi	a0,a0,0
     764:	030a                	slli	t1,t1,0x2
     766:	0901                	addi	s2,s2,0
     768:	0004                	0x4
     76a:	0501                	addi	a0,a0,0
     76c:	0901030b          	0x901030b
     770:	000c                	0xc
     772:	0501                	addi	a0,a0,0
     774:	0305                	addi	t1,t1,1
     776:	0900                	addi	s0,sp,144
     778:	000c                	0xc
     77a:	0501                	addi	a0,a0,0
     77c:	0308                	addi	a0,sp,384
     77e:	0901                	addi	s2,s2,0
     780:	0004                	0x4
     782:	0501                	addi	a0,a0,0
     784:	0305                	addi	t1,t1,1
     786:	0901                	addi	s2,s2,0
     788:	000c                	0xc
     78a:	0501                	addi	a0,a0,0
     78c:	0402000f          	0x402000f
     790:	0301                	addi	t1,t1,0
     792:	0900                	addi	s0,sp,144
     794:	0010                	0x10
     796:	0501                	addi	a0,a0,0
     798:	030a                	slli	t1,t1,0x2
     79a:	0901                	addi	s2,s2,0
     79c:	0010                	0x10
     79e:	0501                	addi	a0,a0,0
     7a0:	030c                	addi	a1,sp,384
     7a2:	0902                	c.slli64	s2
     7a4:	0008                	0x8
     7a6:	0501                	addi	a0,a0,0
     7a8:	0304                	addi	s1,sp,384
     7aa:	0900                	addi	s0,sp,144
     7ac:	000c                	0xc
     7ae:	0001                	nop
     7b0:	0402                	c.slli64	s0
     7b2:	0601                	addi	a2,a2,0
     7b4:	04090003          	lb	zero,64(s2)
     7b8:	0100                	addi	s0,sp,128
     7ba:	0200                	addi	s0,sp,256
     7bc:	0204                	addi	s1,sp,256
     7be:	08090003          	lb	zero,128(s2)
     7c2:	0100                	addi	s0,sp,128
     7c4:	0200                	addi	s0,sp,256
     7c6:	0404                	addi	s1,sp,512
     7c8:	04090003          	lb	zero,64(s2)
     7cc:	0100                	addi	s0,sp,128
     7ce:	0b05                	addi	s6,s6,1
     7d0:	0200                	addi	s0,sp,256
     7d2:	0404                	addi	s1,sp,512
     7d4:	0306                	slli	t1,t1,0x1
     7d6:	0902                	c.slli64	s2
     7d8:	0004                	0x4
     7da:	0501                	addi	a0,a0,0
     7dc:	0005                	c.nop	1
     7de:	0402                	c.slli64	s0
     7e0:	0304                	addi	s1,sp,384
     7e2:	0900                	addi	s0,sp,144
     7e4:	000c                	0xc
     7e6:	0501                	addi	a0,a0,0
     7e8:	0308                	addi	a0,sp,384
     7ea:	0901                	addi	s2,s2,0
     7ec:	0004                	0x4
     7ee:	0501                	addi	a0,a0,0
     7f0:	0306                	slli	t1,t1,0x1
     7f2:	0901                	addi	s2,s2,0
     7f4:	0008                	0x8
     7f6:	0501                	addi	a0,a0,0
     7f8:	0309                	addi	t1,t1,2
     7fa:	0901                	addi	s2,s2,0
     7fc:	0008                	0x8
     7fe:	0501                	addi	a0,a0,0
     800:	030a                	slli	t1,t1,0x2
     802:	0901                	addi	s2,s2,0
     804:	0008                	0x8
     806:	0501                	addi	a0,a0,0
     808:	0308                	addi	a0,sp,384
     80a:	0900                	addi	s0,sp,144
     80c:	0008                	0x8
     80e:	0501                	addi	a0,a0,0
     810:	09010313          	addi	t1,sp,144
     814:	0008                	0x8
     816:	0501                	addi	a0,a0,0
     818:	030d                	addi	t1,t1,3
     81a:	0900                	addi	s0,sp,144
     81c:	000c                	0xc
     81e:	0501                	addi	a0,a0,0
     820:	0309                	addi	t1,t1,2
     822:	0901                	addi	s2,s2,0
     824:	0004                	0x4
     826:	0501                	addi	a0,a0,0
     828:	0308                	addi	a0,sp,384
     82a:	0901                	addi	s2,s2,0
     82c:	0008                	0x8
     82e:	0501                	addi	a0,a0,0
     830:	09010313          	addi	t1,sp,144
     834:	0010                	0x10
     836:	0501                	addi	a0,a0,0
     838:	030d                	addi	t1,t1,3
     83a:	0900                	addi	s0,sp,144
     83c:	000c                	0xc
     83e:	0501                	addi	a0,a0,0
     840:	0309                	addi	t1,t1,2
     842:	0901                	addi	s2,s2,0
     844:	0004                	0x4
     846:	0501                	addi	a0,a0,0
     848:	0308                	addi	a0,sp,384
     84a:	0901                	addi	s2,s2,0
     84c:	0008                	0x8
     84e:	0501                	addi	a0,a0,0
     850:	0904030b          	0x904030b
     854:	000c                	0xc
     856:	0501                	addi	a0,a0,0
     858:	0305                	addi	t1,t1,1
     85a:	0900                	addi	s0,sp,144
     85c:	000c                	0xc
     85e:	0501                	addi	a0,a0,0
     860:	0306                	slli	t1,t1,0x1
     862:	0901                	addi	s2,s2,0
     864:	0004                	0x4
     866:	0501                	addi	a0,a0,0
     868:	0309                	addi	t1,t1,2
     86a:	0901                	addi	s2,s2,0
     86c:	0010                	0x10
     86e:	0501                	addi	a0,a0,0
     870:	0901030b          	0x901030b
     874:	0010                	0x10
     876:	0501                	addi	a0,a0,0
     878:	0308                	addi	a0,sp,384
     87a:	0901                	addi	s2,s2,0
     87c:	0010                	0x10
     87e:	0501                	addi	a0,a0,0
     880:	0304                	addi	s1,sp,384
     882:	000c0903          	lb	s2,0(s8) # 19000 <_start-0x9000>
     886:	0501                	addi	a0,a0,0
     888:	0305                	addi	t1,t1,1
     88a:	0901                	addi	s2,s2,0
     88c:	0004                	0x4
     88e:	0501                	addi	a0,a0,0
     890:	0308                	addi	a0,sp,384
     892:	0901                	addi	s2,s2,0
     894:	0008                	0x8
     896:	0501                	addi	a0,a0,0
     898:	030c                	addi	a1,sp,384
     89a:	0900                	addi	s0,sp,144
     89c:	000c                	0xc
     89e:	0501                	addi	a0,a0,0
     8a0:	0326                	slli	t1,t1,0x9
     8a2:	00140903          	lb	s2,1(s0)
     8a6:	0501                	addi	a0,a0,0
     8a8:	036a                	slli	t1,t1,0x1a
     8aa:	0900                	addi	s0,sp,144
     8ac:	0008                	0x8
     8ae:	0501                	addi	a0,a0,0
     8b0:	0351                	addi	t1,t1,20
     8b2:	0900                	addi	s0,sp,144
     8b4:	000c                	0xc
     8b6:	0501                	addi	a0,a0,0
     8b8:	00030193          	mv	gp,t1
     8bc:	0409                	addi	s0,s0,2
     8be:	0100                	addi	s0,sp,128
     8c0:	7a05                	lui	s4,0xfffe1
     8c2:	04090003          	lb	zero,64(s2)
     8c6:	0100                	addi	s0,sp,128
     8c8:	9d05                	subw	a0,a0,s1
     8ca:	0301                	addi	t1,t1,0
     8cc:	0900                	addi	s0,sp,144
     8ce:	000c                	0xc
     8d0:	0501                	addi	a0,a0,0
     8d2:	09000317          	auipc	t1,0x9000
     8d6:	0004                	0x4
     8d8:	0501                	addi	a0,a0,0
     8da:	0315                	addi	t1,t1,5
     8dc:	0900                	addi	s0,sp,144
     8de:	0008                	0x8
     8e0:	0501                	addi	a0,a0,0
     8e2:	0309                	addi	t1,t1,2
     8e4:	0900                	addi	s0,sp,144
     8e6:	0008                	0x8
     8e8:	0501                	addi	a0,a0,0
     8ea:	0315                	addi	t1,t1,5
     8ec:	0900                	addi	s0,sp,144
     8ee:	000c                	0xc
     8f0:	0501                	addi	a0,a0,0
     8f2:	030d                	addi	t1,t1,3
     8f4:	0900                	addi	s0,sp,144
     8f6:	0004                	0x4
     8f8:	0501                	addi	a0,a0,0
     8fa:	0309                	addi	t1,t1,2
     8fc:	000c097f          	0xc097f
     900:	0501                	addi	a0,a0,0
     902:	0305                	addi	t1,t1,1
     904:	0902                	c.slli64	s2
     906:	0008                	0x8
     908:	0501                	addi	a0,a0,0
     90a:	030d                	addi	t1,t1,3
     90c:	0901                	addi	s2,s2,0
     90e:	0014                	0x14
     910:	0501                	addi	a0,a0,0
     912:	09010307          	vlse8.v	v6,(sp),a6,v0.t
     916:	0008                	0x8
     918:	0501                	addi	a0,a0,0
     91a:	030c                	addi	a1,sp,384
     91c:	0901                	addi	s2,s2,0
     91e:	0010                	0x10
     920:	0501                	addi	a0,a0,0
     922:	0305                	addi	t1,t1,1
     924:	0900                	addi	s0,sp,144
     926:	000c                	0xc
     928:	0501                	addi	a0,a0,0
     92a:	0309                	addi	t1,t1,2
     92c:	0901                	addi	s2,s2,0
     92e:	0004                	0x4
     930:	0501                	addi	a0,a0,0
     932:	0308                	addi	a0,sp,384
     934:	0901                	addi	s2,s2,0
     936:	0004                	0x4
     938:	0501                	addi	a0,a0,0
     93a:	0900030b          	0x900030b
     93e:	000c                	0xc
     940:	0501                	addi	a0,a0,0
     942:	030e                	slli	t1,t1,0x3
     944:	0008097f          	0x8097f
     948:	0501                	addi	a0,a0,0
     94a:	0309                	addi	t1,t1,2
     94c:	0900                	addi	s0,sp,144
     94e:	000c                	0xc
     950:	0501                	addi	a0,a0,0
     952:	0305                	addi	t1,t1,1
     954:	0902                	c.slli64	s2
     956:	0004                	0x4
     958:	0501                	addi	a0,a0,0
     95a:	09010307          	vlse8.v	v6,(sp),a6,v0.t
     95e:	000c                	0xc
     960:	0501                	addi	a0,a0,0
     962:	030a                	slli	t1,t1,0x2
     964:	0900                	addi	s0,sp,144
     966:	000c                	0xc
     968:	0501                	addi	a0,a0,0
     96a:	0902030b          	0x902030b
     96e:	0008                	0x8
     970:	0501                	addi	a0,a0,0
     972:	0305                	addi	t1,t1,1
     974:	0900                	addi	s0,sp,144
     976:	000c                	0xc
     978:	0501                	addi	a0,a0,0
     97a:	0306                	slli	t1,t1,0x1
     97c:	0901                	addi	s2,s2,0
     97e:	0004                	0x4
     980:	0501                	addi	a0,a0,0
     982:	0308                	addi	a0,sp,384
     984:	0901                	addi	s2,s2,0
     986:	0010                	0x10
     988:	0501                	addi	a0,a0,0
     98a:	0900030b          	0x900030b
     98e:	000c                	0xc
     990:	0301                	addi	t1,t1,0
     992:	0901                	addi	s2,s2,0
     994:	000c                	0xc
     996:	0501                	addi	a0,a0,0
     998:	0308                	addi	a0,sp,384
     99a:	0901                	addi	s2,s2,0
     99c:	0010                	0x10
     99e:	0501                	addi	a0,a0,0
     9a0:	0900030b          	0x900030b
     9a4:	000c                	0xc
     9a6:	0501                	addi	a0,a0,0
     9a8:	0308                	addi	a0,sp,384
     9aa:	0901                	addi	s2,s2,0
     9ac:	0008                	0x8
     9ae:	0501                	addi	a0,a0,0
     9b0:	0900030b          	0x900030b
     9b4:	000c                	0xc
     9b6:	0501                	addi	a0,a0,0
     9b8:	030d                	addi	t1,t1,3
     9ba:	0904                	addi	s1,sp,144
     9bc:	000c                	0xc
     9be:	0501                	addi	a0,a0,0
     9c0:	0305                	addi	t1,t1,1
     9c2:	0900                	addi	s0,sp,144
     9c4:	000c                	0xc
     9c6:	0501                	addi	a0,a0,0
     9c8:	0309                	addi	t1,t1,2
     9ca:	0901                	addi	s2,s2,0
     9cc:	0004                	0x4
     9ce:	0501                	addi	a0,a0,0
     9d0:	0308                	addi	a0,sp,384
     9d2:	0901                	addi	s2,s2,0
     9d4:	0004                	0x4
     9d6:	0501                	addi	a0,a0,0
     9d8:	0900030b          	0x900030b
     9dc:	000c                	0xc
     9de:	0501                	addi	a0,a0,0
     9e0:	030e                	slli	t1,t1,0x3
     9e2:	0008097f          	0x8097f
     9e6:	0501                	addi	a0,a0,0
     9e8:	0309                	addi	t1,t1,2
     9ea:	0900                	addi	s0,sp,144
     9ec:	000c                	0xc
     9ee:	0501                	addi	a0,a0,0
     9f0:	0308                	addi	a0,sp,384
     9f2:	0902                	c.slli64	s2
     9f4:	0004                	0x4
     9f6:	0501                	addi	a0,a0,0
     9f8:	09010307          	vlse8.v	v6,(sp),a6,v0.t
     9fc:	0004                	0x4
     9fe:	0501                	addi	a0,a0,0
     a00:	030a                	slli	t1,t1,0x2
     a02:	0900                	addi	s0,sp,144
     a04:	000c                	0xc
     a06:	0501                	addi	a0,a0,0
     a08:	0316                	slli	t1,t1,0x5
     a0a:	0008097f          	0x8097f
     a0e:	0501                	addi	a0,a0,0
     a10:	0308                	addi	a0,sp,384
     a12:	0900                	addi	s0,sp,144
     a14:	000c                	0xc
     a16:	0301                	addi	t1,t1,0
     a18:	0902                	c.slli64	s2
     a1a:	000c                	0xc
     a1c:	0501                	addi	a0,a0,0
     a1e:	09010307          	vlse8.v	v6,(sp),a6,v0.t
     a22:	0004                	0x4
     a24:	0501                	addi	a0,a0,0
     a26:	0900030f          	0x900030f
     a2a:	000c                	0xc
     a2c:	0501                	addi	a0,a0,0
     a2e:	030a                	slli	t1,t1,0x2
     a30:	0900                	addi	s0,sp,144
     a32:	0010                	0x10
     a34:	0301                	addi	t1,t1,0
     a36:	0004097f          	0x4097f
     a3a:	0501                	addi	a0,a0,0
     a3c:	0308                	addi	a0,sp,384
     a3e:	0900                	addi	s0,sp,144
     a40:	000c                	0xc
     a42:	0301                	addi	t1,t1,0
     a44:	0902                	c.slli64	s2
     a46:	0004                	0x4
     a48:	0501                	addi	a0,a0,0
     a4a:	09010307          	vlse8.v	v6,(sp),a6,v0.t
     a4e:	0004                	0x4
     a50:	0501                	addi	a0,a0,0
     a52:	030a                	slli	t1,t1,0x2
     a54:	0900                	addi	s0,sp,144
     a56:	000c                	0xc
     a58:	0501                	addi	a0,a0,0
     a5a:	030d                	addi	t1,t1,3
     a5c:	0008097f          	0x8097f
     a60:	0501                	addi	a0,a0,0
     a62:	0308                	addi	a0,sp,384
     a64:	0900                	addi	s0,sp,144
     a66:	000c                	0xc
     a68:	0501                	addi	a0,a0,0
     a6a:	0309                	addi	t1,t1,2
     a6c:	00040903          	lb	s2,0(s0)
     a70:	0501                	addi	a0,a0,0
     a72:	0001                	nop
     a74:	0402                	c.slli64	s0
     a76:	0301                	addi	t1,t1,0
     a78:	0901                	addi	s2,s2,0
     a7a:	0004                	0x4
     a7c:	0301                	addi	t1,t1,0
     a7e:	00100913          	li	s2,1
     a82:	0501                	addi	a0,a0,0
     a84:	0306                	slli	t1,t1,0x1
     a86:	090d                	addi	s2,s2,3
     a88:	0024                	addi	s1,sp,8
     a8a:	0501                	addi	a0,a0,0
     a8c:	0302                	c.slli64	t1
     a8e:	0902                	c.slli64	s2
     a90:	0008                	0x8
     a92:	0501                	addi	a0,a0,0
     a94:	09010307          	vlse8.v	v6,(sp),a6,v0.t
     a98:	0004                	0x4
     a9a:	0501                	addi	a0,a0,0
     a9c:	0306                	slli	t1,t1,0x1
     a9e:	0900                	addi	s0,sp,144
     aa0:	0008                	0x8
     aa2:	0501                	addi	a0,a0,0
     aa4:	0308                	addi	a0,sp,384
     aa6:	0901                	addi	s2,s2,0
     aa8:	000c                	0xc
     aaa:	0501                	addi	a0,a0,0
     aac:	030d                	addi	t1,t1,3
     aae:	0900                	addi	s0,sp,144
     ab0:	000c                	0xc
     ab2:	0501                	addi	a0,a0,0
     ab4:	0900030b          	0x900030b
     ab8:	0008                	0x8
     aba:	0501                	addi	a0,a0,0
     abc:	0304                	addi	s1,sp,384
     abe:	0901                	addi	s2,s2,0
     ac0:	0004                	0x4
     ac2:	0501                	addi	a0,a0,0
     ac4:	0309                	addi	t1,t1,2
     ac6:	0904                	addi	s1,sp,144
     ac8:	0004                	0x4
     aca:	0501                	addi	a0,a0,0
     acc:	09020303          	lb	t1,144(tp) # a090 <_start-0x17f70>
     ad0:	0004                	0x4
     ad2:	0501                	addi	a0,a0,0
     ad4:	0901030b          	0x901030b
     ad8:	000c                	0xc
     ada:	0501                	addi	a0,a0,0
     adc:	030a                	slli	t1,t1,0x2
     ade:	0902                	c.slli64	s2
     ae0:	004c                	addi	a1,sp,4
     ae2:	0501                	addi	a0,a0,0
     ae4:	0304                	addi	s1,sp,384
     ae6:	0901                	addi	s2,s2,0
     ae8:	000c                	0xc
     aea:	0501                	addi	a0,a0,0
     aec:	030a                	slli	t1,t1,0x2
     aee:	0902                	c.slli64	s2
     af0:	0004                	0x4
     af2:	0501                	addi	a0,a0,0
     af4:	0304                	addi	s1,sp,384
     af6:	0901                	addi	s2,s2,0
     af8:	000c                	0xc
     afa:	0501                	addi	a0,a0,0
     afc:	030a                	slli	t1,t1,0x2
     afe:	0902                	c.slli64	s2
     b00:	0004                	0x4
     b02:	0501                	addi	a0,a0,0
     b04:	0304                	addi	s1,sp,384
     b06:	0901                	addi	s2,s2,0
     b08:	000c                	0xc
     b0a:	0501                	addi	a0,a0,0
     b0c:	030a                	slli	t1,t1,0x2
     b0e:	0902                	c.slli64	s2
     b10:	0004                	0x4
     b12:	0501                	addi	a0,a0,0
     b14:	0304                	addi	s1,sp,384
     b16:	0901                	addi	s2,s2,0
     b18:	000c                	0xc
     b1a:	0501                	addi	a0,a0,0
     b1c:	030a                	slli	t1,t1,0x2
     b1e:	0902                	c.slli64	s2
     b20:	0004                	0x4
     b22:	0501                	addi	a0,a0,0
     b24:	0304                	addi	s1,sp,384
     b26:	0901                	addi	s2,s2,0
     b28:	000c                	0xc
     b2a:	0501                	addi	a0,a0,0
     b2c:	0904030f          	0x904030f
     b30:	0004                	0x4
     b32:	0501                	addi	a0,a0,0
     b34:	0309                	addi	t1,t1,2
     b36:	0901                	addi	s2,s2,0
     b38:	0008                	0x8
     b3a:	0501                	addi	a0,a0,0
     b3c:	0306                	slli	t1,t1,0x1
     b3e:	0900                	addi	s0,sp,144
     b40:	0008                	0x8
     b42:	0501                	addi	a0,a0,0
     b44:	001a                	c.slli	zero,0x6
     b46:	0402                	c.slli64	s0
     b48:	0301                	addi	t1,t1,0
     b4a:	0900                	addi	s0,sp,144
     b4c:	000c                	0xc
     b4e:	0501                	addi	a0,a0,0
     b50:	0016                	c.slli	zero,0x5
     b52:	0402                	c.slli64	s0
     b54:	0301                	addi	t1,t1,0
     b56:	0900                	addi	s0,sp,144
     b58:	0008                	0x8
     b5a:	0501                	addi	a0,a0,0
     b5c:	030a                	slli	t1,t1,0x2
     b5e:	0901                	addi	s2,s2,0
     b60:	000c                	0xc
     b62:	0501                	addi	a0,a0,0
     b64:	0308                	addi	a0,sp,384
     b66:	0900                	addi	s0,sp,144
     b68:	0014                	0x14
     b6a:	0501                	addi	a0,a0,0
     b6c:	030e                	slli	t1,t1,0x3
     b6e:	0901                	addi	s2,s2,0
     b70:	0004                	0x4
     b72:	0501                	addi	a0,a0,0
     b74:	030d                	addi	t1,t1,3
     b76:	0900                	addi	s0,sp,144
     b78:	0008                	0x8
     b7a:	0501                	addi	a0,a0,0
     b7c:	0328                	addi	a0,sp,392
     b7e:	0901                	addi	s2,s2,0
     b80:	000c                	0xc
     b82:	0501                	addi	a0,a0,0
     b84:	0310                	addi	a2,sp,384
     b86:	0900                	addi	s0,sp,144
     b88:	0010                	0x10
     b8a:	0501                	addi	a0,a0,0
     b8c:	0314                	addi	a3,sp,384
     b8e:	0901                	addi	s2,s2,0
     b90:	0004                	0x4
     b92:	0501                	addi	a0,a0,0
     b94:	09000307          	vlse8.v	v6,(zero),a6,v0.t
     b98:	0004                	0x4
     b9a:	0501                	addi	a0,a0,0
     b9c:	09010313          	addi	t1,sp,144
     ba0:	0004                	0x4
     ba2:	0501                	addi	a0,a0,0
     ba4:	0311                	addi	t1,t1,4
     ba6:	0900                	addi	s0,sp,144
     ba8:	000c                	0xc
     baa:	0501                	addi	a0,a0,0
     bac:	0901030b          	0x901030b
     bb0:	0004                	0x4
     bb2:	0501                	addi	a0,a0,0
     bb4:	030d                	addi	t1,t1,3
     bb6:	0905                	addi	s2,s2,1
     bb8:	000c                	0xc
     bba:	0501                	addi	a0,a0,0
     bbc:	09010307          	vlse8.v	v6,(sp),a6,v0.t
     bc0:	0008                	0x8
     bc2:	0501                	addi	a0,a0,0
     bc4:	0306                	slli	t1,t1,0x1
     bc6:	0900                	addi	s0,sp,144
     bc8:	0008                	0x8
     bca:	0501                	addi	a0,a0,0
     bcc:	0304                	addi	s1,sp,384
     bce:	0901                	addi	s2,s2,0
     bd0:	000c                	0xc
     bd2:	0501                	addi	a0,a0,0
     bd4:	030a                	slli	t1,t1,0x2
     bd6:	0901                	addi	s2,s2,0
     bd8:	000c                	0xc
     bda:	0501                	addi	a0,a0,0
     bdc:	09000307          	vlse8.v	v6,(zero),a6,v0.t
     be0:	0008                	0x8
     be2:	0501                	addi	a0,a0,0
     be4:	0402001b          	addiw	zero,tp,64
     be8:	0301                	addi	t1,t1,0
     bea:	0900                	addi	s0,sp,144
     bec:	000c                	0xc
     bee:	0501                	addi	a0,a0,0
     bf0:	04020017          	auipc	zero,0x4020
     bf4:	0301                	addi	t1,t1,0
     bf6:	0900                	addi	s0,sp,144
     bf8:	0008                	0x8
     bfa:	0501                	addi	a0,a0,0
     bfc:	0901030b          	0x901030b
     c00:	000c                	0xc
     c02:	0501                	addi	a0,a0,0
     c04:	0309                	addi	t1,t1,2
     c06:	0900                	addi	s0,sp,144
     c08:	0014                	0x14
     c0a:	0501                	addi	a0,a0,0
     c0c:	030d                	addi	t1,t1,3
     c0e:	0901                	addi	s2,s2,0
     c10:	0004                	0x4
     c12:	0501                	addi	a0,a0,0
     c14:	030c                	addi	a1,sp,384
     c16:	0900                	addi	s0,sp,144
     c18:	0008                	0x8
     c1a:	0501                	addi	a0,a0,0
     c1c:	09010327          	vsse8.v	v6,(sp),a6,v0.t
     c20:	000c                	0xc
     c22:	0501                	addi	a0,a0,0
     c24:	0900030f          	0x900030f
     c28:	0010                	0x10
     c2a:	0501                	addi	a0,a0,0
     c2c:	0312                	slli	t1,t1,0x4
     c2e:	0901                	addi	s2,s2,0
     c30:	0004                	0x4
     c32:	0501                	addi	a0,a0,0
     c34:	09000307          	vlse8.v	v6,(zero),a6,v0.t
     c38:	0004                	0x4
     c3a:	0501                	addi	a0,a0,0
     c3c:	0901030f          	0x901030f
     c40:	0004                	0x4
     c42:	0501                	addi	a0,a0,0
     c44:	030d                	addi	t1,t1,3
     c46:	00040907          	vle8.v	v18,(s0),v0.t
     c4a:	0501                	addi	a0,a0,0
     c4c:	09010307          	vlse8.v	v6,(sp),a6,v0.t
     c50:	0008                	0x8
     c52:	0501                	addi	a0,a0,0
     c54:	0306                	slli	t1,t1,0x1
     c56:	0900                	addi	s0,sp,144
     c58:	0008                	0x8
     c5a:	0501                	addi	a0,a0,0
     c5c:	0016                	c.slli	zero,0x5
     c5e:	0402                	c.slli64	s0
     c60:	0301                	addi	t1,t1,0
     c62:	0900                	addi	s0,sp,144
     c64:	000c                	0xc
     c66:	0501                	addi	a0,a0,0
     c68:	04020013          	addi	zero,tp,64 # 40 <_start-0x21fc0>
     c6c:	0301                	addi	t1,t1,0
     c6e:	0900                	addi	s0,sp,144
     c70:	0008                	0x8
     c72:	0501                	addi	a0,a0,0
     c74:	0025                	c.nop	9
     c76:	0402                	c.slli64	s0
     c78:	0302                	c.slli64	t1
     c7a:	0900                	addi	s0,sp,144
     c7c:	000c                	0xc
     c7e:	0501                	addi	a0,a0,0
     c80:	0022                	c.slli	zero,0x8
     c82:	0402                	c.slli64	s0
     c84:	0302                	c.slli64	t1
     c86:	0900                	addi	s0,sp,144
     c88:	0008                	0x8
     c8a:	0501                	addi	a0,a0,0
     c8c:	0310                	addi	a2,sp,384
     c8e:	0901                	addi	s2,s2,0
     c90:	000c                	0xc
     c92:	0501                	addi	a0,a0,0
     c94:	030e                	slli	t1,t1,0x3
     c96:	0900                	addi	s0,sp,144
     c98:	0008                	0x8
     c9a:	0501                	addi	a0,a0,0
     c9c:	0304                	addi	s1,sp,384
     c9e:	0901                	addi	s2,s2,0
     ca0:	0004                	0x4
     ca2:	0501                	addi	a0,a0,0
     ca4:	09020307          	vlse8.v	v6,(tp),a6,v0.t
     ca8:	000c                	0xc
     caa:	0501                	addi	a0,a0,0
     cac:	001c                	0x1c
     cae:	0402                	c.slli64	s0
     cb0:	0301                	addi	t1,t1,0
     cb2:	0900                	addi	s0,sp,144
     cb4:	0010                	0x10
     cb6:	0501                	addi	a0,a0,0
     cb8:	0019                	c.nop	6
     cba:	0402                	c.slli64	s0
     cbc:	0301                	addi	t1,t1,0
     cbe:	0900                	addi	s0,sp,144
     cc0:	0008                	0x8
     cc2:	0501                	addi	a0,a0,0
     cc4:	0901030f          	0x901030f
     cc8:	000c                	0xc
     cca:	0501                	addi	a0,a0,0
     ccc:	0305                	addi	t1,t1,1
     cce:	0901                	addi	s2,s2,0
     cd0:	0008                	0x8
     cd2:	0501                	addi	a0,a0,0
     cd4:	0904030b          	0x904030b
     cd8:	000c                	0xc
     cda:	0501                	addi	a0,a0,0
     cdc:	0310                	addi	a2,sp,384
     cde:	004c0903          	lb	s2,4(s8)
     ce2:	0501                	addi	a0,a0,0
     ce4:	09000307          	vlse8.v	v6,(zero),a6,v0.t
     ce8:	000c                	0xc
     cea:	0501                	addi	a0,a0,0
     cec:	0901030b          	0x901030b
     cf0:	0004                	0x4
     cf2:	0501                	addi	a0,a0,0
     cf4:	030a                	slli	t1,t1,0x2
     cf6:	0901                	addi	s2,s2,0
     cf8:	0004                	0x4
     cfa:	0501                	addi	a0,a0,0
     cfc:	030d                	addi	t1,t1,3
     cfe:	0900                	addi	s0,sp,144
     d00:	000c                	0xc
     d02:	0501                	addi	a0,a0,0
     d04:	030c                	addi	a1,sp,384
     d06:	0008097f          	0x8097f
     d0a:	0501                	addi	a0,a0,0
     d0c:	0900030b          	0x900030b
     d10:	000c                	0xc
     d12:	0501                	addi	a0,a0,0
     d14:	030c                	addi	a1,sp,384
     d16:	0900                	addi	s0,sp,144
     d18:	0004                	0x4
     d1a:	0501                	addi	a0,a0,0
     d1c:	0900030b          	0x900030b
     d20:	0004                	0x4
     d22:	0501                	addi	a0,a0,0
     d24:	0332                	slli	t1,t1,0xc
     d26:	0902                	c.slli64	s2
     d28:	0004                	0x4
     d2a:	0501                	addi	a0,a0,0
     d2c:	0308                	addi	a0,sp,384
     d2e:	0900                	addi	s0,sp,144
     d30:	0010                	0x10
     d32:	0501                	addi	a0,a0,0
     d34:	030d                	addi	t1,t1,3
     d36:	0900                	addi	s0,sp,144
     d38:	000c                	0xc
     d3a:	0501                	addi	a0,a0,0
     d3c:	0900030b          	0x900030b
     d40:	0004                	0x4
     d42:	0501                	addi	a0,a0,0
     d44:	030a                	slli	t1,t1,0x2
     d46:	0901                	addi	s2,s2,0
     d48:	0004                	0x4
     d4a:	0501                	addi	a0,a0,0
     d4c:	0309                	addi	t1,t1,2
     d4e:	0901                	addi	s2,s2,0
     d50:	0004                	0x4
     d52:	0501                	addi	a0,a0,0
     d54:	030c                	addi	a1,sp,384
     d56:	0900                	addi	s0,sp,144
     d58:	000c                	0xc
     d5a:	0501                	addi	a0,a0,0
     d5c:	097f030b          	0x97f030b
     d60:	0008                	0x8
     d62:	0501                	addi	a0,a0,0
     d64:	030a                	slli	t1,t1,0x2
     d66:	0900                	addi	s0,sp,144
     d68:	000c                	0xc
     d6a:	0501                	addi	a0,a0,0
     d6c:	0900030b          	0x900030b
     d70:	0004                	0x4
     d72:	0501                	addi	a0,a0,0
     d74:	030a                	slli	t1,t1,0x2
     d76:	0900                	addi	s0,sp,144
     d78:	0004                	0x4
     d7a:	0501                	addi	a0,a0,0
     d7c:	0304                	addi	s1,sp,384
     d7e:	00040903          	lb	s2,0(s0)
     d82:	0501                	addi	a0,a0,0
     d84:	0306                	slli	t1,t1,0x1
     d86:	0904                	addi	s1,sp,144
     d88:	0004                	0x4
     d8a:	0501                	addi	a0,a0,0
     d8c:	09010307          	vlse8.v	v6,(sp),a6,v0.t
     d90:	0014                	0x14
     d92:	0301                	addi	t1,t1,0
     d94:	0901                	addi	s2,s2,0
     d96:	0008                	0x8
     d98:	0501                	addi	a0,a0,0
     d9a:	030a                	slli	t1,t1,0x2
     d9c:	0901                	addi	s2,s2,0
     d9e:	000c                	0xc
     da0:	0501                	addi	a0,a0,0
     da2:	0308                	addi	a0,sp,384
     da4:	0900                	addi	s0,sp,144
     da6:	000c                	0xc
     da8:	0501                	addi	a0,a0,0
     daa:	0312                	slli	t1,t1,0x4
     dac:	0901                	addi	s2,s2,0
     dae:	0004                	0x4
     db0:	0501                	addi	a0,a0,0
     db2:	09000307          	vlse8.v	v6,(zero),a6,v0.t
     db6:	0004                	0x4
     db8:	0501                	addi	a0,a0,0
     dba:	0901030f          	0x901030f
     dbe:	0004                	0x4
     dc0:	0501                	addi	a0,a0,0
     dc2:	0311                	addi	t1,t1,4
     dc4:	0901                	addi	s2,s2,0
     dc6:	000c                	0xc
     dc8:	0501                	addi	a0,a0,0
     dca:	030c                	addi	a1,sp,384
     dcc:	0900                	addi	s0,sp,144
     dce:	0004                	0x4
     dd0:	0501                	addi	a0,a0,0
     dd2:	0309                	addi	t1,t1,2
     dd4:	0901                	addi	s2,s2,0
     dd6:	000c                	0xc
     dd8:	0501                	addi	a0,a0,0
     dda:	0310                	addi	a2,sp,384
     ddc:	0902                	c.slli64	s2
     dde:	0008                	0x8
     de0:	0501                	addi	a0,a0,0
     de2:	09000307          	vlse8.v	v6,(zero),a6,v0.t
     de6:	000c                	0xc
     de8:	0501                	addi	a0,a0,0
     dea:	0901030b          	0x901030b
     dee:	0004                	0x4
     df0:	0501                	addi	a0,a0,0
     df2:	030a                	slli	t1,t1,0x2
     df4:	0901                	addi	s2,s2,0
     df6:	0004                	0x4
     df8:	0501                	addi	a0,a0,0
     dfa:	030d                	addi	t1,t1,3
     dfc:	0900                	addi	s0,sp,144
     dfe:	000c                	0xc
     e00:	0501                	addi	a0,a0,0
     e02:	031d                	addi	t1,t1,7
     e04:	0008097f          	0x8097f
     e08:	0501                	addi	a0,a0,0
     e0a:	0900030b          	0x900030b
     e0e:	0010                	0x10
     e10:	0301                	addi	t1,t1,0
     e12:	0902                	c.slli64	s2
     e14:	000c                	0xc
     e16:	0501                	addi	a0,a0,0
     e18:	0304                	addi	s1,sp,384
     e1a:	0900                	addi	s0,sp,144
     e1c:	0004                	0x4
     e1e:	0501                	addi	a0,a0,0
     e20:	0010                	0x10
     e22:	0402                	c.slli64	s0
     e24:	09010303          	lb	t1,144(sp)
     e28:	0004                	0x4
     e2a:	0501                	addi	a0,a0,0
     e2c:	0009                	c.nop	2
     e2e:	0402                	c.slli64	s0
     e30:	09000303          	lb	t1,144(zero) # 90 <_start-0x21f70>
     e34:	000c                	0xc
     e36:	0501                	addi	a0,a0,0
     e38:	000e                	c.slli	zero,0x3
     e3a:	0402                	c.slli64	s0
     e3c:	09000303          	lb	t1,144(zero) # 90 <_start-0x21f70>
     e40:	000c                	0xc
     e42:	0501                	addi	a0,a0,0
     e44:	000c                	0xc
     e46:	0402                	c.slli64	s0
     e48:	09000303          	lb	t1,144(zero) # 90 <_start-0x21f70>
     e4c:	0004                	0x4
     e4e:	0501                	addi	a0,a0,0
     e50:	001a                	c.slli	zero,0x6
     e52:	0402                	c.slli64	s0
     e54:	097f0303          	lb	t1,151(t5) # 1097 <_start-0x20f69>
     e58:	0004                	0x4
     e5a:	0501                	addi	a0,a0,0
     e5c:	0004                	0x4
     e5e:	0402                	c.slli64	s0
     e60:	0301                	addi	t1,t1,0
     e62:	0900                	addi	s0,sp,144
     e64:	000c                	0xc
     e66:	0501                	addi	a0,a0,0
     e68:	030a                	slli	t1,t1,0x2
     e6a:	0902                	c.slli64	s2
     e6c:	0014                	0x14
     e6e:	0501                	addi	a0,a0,0
     e70:	0309                	addi	t1,t1,2
     e72:	0901                	addi	s2,s2,0
     e74:	0004                	0x4
     e76:	0501                	addi	a0,a0,0
     e78:	030c                	addi	a1,sp,384
     e7a:	0900                	addi	s0,sp,144
     e7c:	000c                	0xc
     e7e:	0501                	addi	a0,a0,0
     e80:	031c                	addi	a5,sp,384
     e82:	0008097f          	0x8097f
     e86:	0501                	addi	a0,a0,0
     e88:	030a                	slli	t1,t1,0x2
     e8a:	0900                	addi	s0,sp,144
     e8c:	0010                	0x10
     e8e:	0501                	addi	a0,a0,0
     e90:	0304                	addi	s1,sp,384
     e92:	0902                	c.slli64	s2
     e94:	000c                	0xc
     e96:	0501                	addi	a0,a0,0
     e98:	09070307          	vlse8.v	v6,(a4),a6,v0.t
     e9c:	0004                	0x4
     e9e:	0501                	addi	a0,a0,0
     ea0:	0901030f          	0x901030f
     ea4:	0014                	0x14
     ea6:	0501                	addi	a0,a0,0
     ea8:	0308                	addi	a0,sp,384
     eaa:	0900                	addi	s0,sp,144
     eac:	000c                	0xc
     eae:	0501                	addi	a0,a0,0
     eb0:	0304                	addi	s1,sp,384
     eb2:	0901                	addi	s2,s2,0
     eb4:	000c                	0xc
     eb6:	0501                	addi	a0,a0,0
     eb8:	0314                	addi	a3,sp,384
     eba:	0906                	slli	s2,s2,0x1
     ebc:	0004                	0x4
     ebe:	0501                	addi	a0,a0,0
     ec0:	09000307          	vlse8.v	v6,(zero),a6,v0.t
     ec4:	0004                	0x4
     ec6:	0501                	addi	a0,a0,0
     ec8:	0311                	addi	t1,t1,4
     eca:	0901                	addi	s2,s2,0
     ecc:	000c                	0xc
     ece:	0501                	addi	a0,a0,0
     ed0:	0901030b          	0x901030b
     ed4:	0008                	0x8
     ed6:	0501                	addi	a0,a0,0
     ed8:	032a                	slli	t1,t1,0xa
     eda:	000c0903          	lb	s2,0(s8)
     ede:	0501                	addi	a0,a0,0
     ee0:	030a                	slli	t1,t1,0x2
     ee2:	0010097f          	0x10097f
     ee6:	0501                	addi	a0,a0,0
     ee8:	0304                	addi	s1,sp,384
     eea:	00200903          	lb	s2,2(zero) # 2 <_start-0x21ffe>
     eee:	0501                	addi	a0,a0,0
     ef0:	0309                	addi	t1,t1,2
     ef2:	0904                	addi	s1,sp,144
     ef4:	0004                	0x4
     ef6:	0501                	addi	a0,a0,0
     ef8:	0304                	addi	s1,sp,384
     efa:	0901                	addi	s2,s2,0
     efc:	0008                	0x8
     efe:	0501                	addi	a0,a0,0
     f00:	030a                	slli	t1,t1,0x2
     f02:	00040903          	lb	s2,0(s0)
     f06:	0501                	addi	a0,a0,0
     f08:	0309                	addi	t1,t1,2
     f0a:	0902                	c.slli64	s2
     f0c:	000c                	0xc
     f0e:	0501                	addi	a0,a0,0
     f10:	0304                	addi	s1,sp,384
     f12:	0901                	addi	s2,s2,0
     f14:	0008                	0x8
     f16:	0501                	addi	a0,a0,0
     f18:	030a                	slli	t1,t1,0x2
     f1a:	0904                	addi	s1,sp,144
     f1c:	0004                	0x4
     f1e:	0501                	addi	a0,a0,0
     f20:	0309                	addi	t1,t1,2
     f22:	000c0903          	lb	s2,0(s8)
     f26:	0501                	addi	a0,a0,0
     f28:	0304                	addi	s1,sp,384
     f2a:	0901                	addi	s2,s2,0
     f2c:	0008                	0x8
     f2e:	0501                	addi	a0,a0,0
     f30:	0308                	addi	a0,sp,384
     f32:	00040903          	lb	s2,0(s0)
     f36:	0501                	addi	a0,a0,0
     f38:	09000307          	vlse8.v	v6,(zero),a6,v0.t
     f3c:	0008                	0x8
     f3e:	0501                	addi	a0,a0,0
     f40:	0309                	addi	t1,t1,2
     f42:	0901                	addi	s2,s2,0
     f44:	000c                	0xc
     f46:	0501                	addi	a0,a0,0
     f48:	030c                	addi	a1,sp,384
     f4a:	0900                	addi	s0,sp,144
     f4c:	000c                	0xc
     f4e:	0501                	addi	a0,a0,0
     f50:	0308                	addi	a0,sp,384
     f52:	0901                	addi	s2,s2,0
     f54:	0008                	0x8
     f56:	0501                	addi	a0,a0,0
     f58:	09000307          	vlse8.v	v6,(zero),a6,v0.t
     f5c:	0008                	0x8
     f5e:	0501                	addi	a0,a0,0
     f60:	0309                	addi	t1,t1,2
     f62:	0901                	addi	s2,s2,0
     f64:	0004                	0x4
     f66:	0501                	addi	a0,a0,0
     f68:	030e                	slli	t1,t1,0x3
     f6a:	0900                	addi	s0,sp,144
     f6c:	000c                	0xc
     f6e:	0501                	addi	a0,a0,0
     f70:	030c                	addi	a1,sp,384
     f72:	0900                	addi	s0,sp,144
     f74:	0008                	0x8
     f76:	0501                	addi	a0,a0,0
     f78:	0304                	addi	s1,sp,384
     f7a:	00040903          	lb	s2,0(s0)
     f7e:	0501                	addi	a0,a0,0
     f80:	0305                	addi	t1,t1,1
     f82:	0004097f          	0x4097f
     f86:	0501                	addi	a0,a0,0
     f88:	0304                	addi	s1,sp,384
     f8a:	0901                	addi	s2,s2,0
     f8c:	000c                	0xc
     f8e:	0501                	addi	a0,a0,0
     f90:	0306                	slli	t1,t1,0x1
     f92:	00040903          	lb	s2,0(s0)
     f96:	0501                	addi	a0,a0,0
     f98:	030e                	slli	t1,t1,0x3
     f9a:	0901                	addi	s2,s2,0
     f9c:	0010                	0x10
     f9e:	0501                	addi	a0,a0,0
     fa0:	09000307          	vlse8.v	v6,(zero),a6,v0.t
     fa4:	000c                	0xc
     fa6:	0501                	addi	a0,a0,0
     fa8:	0321                	addi	t1,t1,8
     faa:	0901                	addi	s2,s2,0
     fac:	0004                	0x4
     fae:	0501                	addi	a0,a0,0
     fb0:	0309                	addi	t1,t1,2
     fb2:	0900                	addi	s0,sp,144
     fb4:	0010                	0x10
     fb6:	0501                	addi	a0,a0,0
     fb8:	0321                	addi	t1,t1,8
     fba:	0902                	c.slli64	s2
     fbc:	0008                	0x8
     fbe:	0501                	addi	a0,a0,0
     fc0:	0309                	addi	t1,t1,2
     fc2:	0900                	addi	s0,sp,144
     fc4:	0010                	0x10
     fc6:	0501                	addi	a0,a0,0
     fc8:	030d                	addi	t1,t1,3
     fca:	0901                	addi	s2,s2,0
     fcc:	0008                	0x8
     fce:	0501                	addi	a0,a0,0
     fd0:	030e                	slli	t1,t1,0x3
     fd2:	0901                	addi	s2,s2,0
     fd4:	0010                	0x10
     fd6:	0501                	addi	a0,a0,0
     fd8:	09000307          	vlse8.v	v6,(zero),a6,v0.t
     fdc:	000c                	0xc
     fde:	0501                	addi	a0,a0,0
     fe0:	0328                	addi	a0,sp,392
     fe2:	0901                	addi	s2,s2,0
     fe4:	0004                	0x4
     fe6:	0501                	addi	a0,a0,0
     fe8:	0900030b          	0x900030b
     fec:	0010                	0x10
     fee:	0501                	addi	a0,a0,0
     ff0:	0309                	addi	t1,t1,2
     ff2:	0900                	addi	s0,sp,144
     ff4:	0008                	0x8
     ff6:	0501                	addi	a0,a0,0
     ff8:	0331                	addi	t1,t1,12
     ffa:	0902                	c.slli64	s2
     ffc:	0008                	0x8
     ffe:	0501                	addi	a0,a0,0
    1000:	0900030b          	0x900030b
    1004:	0010                	0x10
    1006:	0501                	addi	a0,a0,0
    1008:	0309                	addi	t1,t1,2
    100a:	0900                	addi	s0,sp,144
    100c:	0008                	0x8
    100e:	0501                	addi	a0,a0,0
    1010:	030d                	addi	t1,t1,3
    1012:	0901                	addi	s2,s2,0
    1014:	0008                	0x8
    1016:	0501                	addi	a0,a0,0
    1018:	030e                	slli	t1,t1,0x3
    101a:	0901                	addi	s2,s2,0
    101c:	0010                	0x10
    101e:	0501                	addi	a0,a0,0
    1020:	09000307          	vlse8.v	v6,(zero),a6,v0.t
    1024:	000c                	0xc
    1026:	0501                	addi	a0,a0,0
    1028:	0321                	addi	t1,t1,8
    102a:	0901                	addi	s2,s2,0
    102c:	0004                	0x4
    102e:	0501                	addi	a0,a0,0
    1030:	0309                	addi	t1,t1,2
    1032:	0900                	addi	s0,sp,144
    1034:	0010                	0x10
    1036:	0301                	addi	t1,t1,0
    1038:	0902                	c.slli64	s2
    103a:	0008                	0x8
    103c:	0501                	addi	a0,a0,0
    103e:	030e                	slli	t1,t1,0x3
    1040:	0902                	c.slli64	s2
    1042:	0018                	0x18
    1044:	0501                	addi	a0,a0,0
    1046:	09000307          	vlse8.v	v6,(zero),a6,v0.t
    104a:	000c                	0xc
    104c:	0501                	addi	a0,a0,0
    104e:	0901030b          	0x901030b
    1052:	0004                	0x4
    1054:	0501                	addi	a0,a0,0
    1056:	0309                	addi	t1,t1,2
    1058:	0900                	addi	s0,sp,144
    105a:	0010                	0x10
    105c:	0501                	addi	a0,a0,0
    105e:	0321                	addi	t1,t1,8
    1060:	0902                	c.slli64	s2
    1062:	0008                	0x8
    1064:	0501                	addi	a0,a0,0
    1066:	0309                	addi	t1,t1,2
    1068:	0900                	addi	s0,sp,144
    106a:	0010                	0x10
    106c:	0301                	addi	t1,t1,0
    106e:	0902                	c.slli64	s2
    1070:	000c                	0xc
    1072:	0501                	addi	a0,a0,0
    1074:	0312                	slli	t1,t1,0x4
    1076:	7ed5                	lui	t4,0xffff5
    1078:	2009                	0x2009
    107a:	0100                	addi	s0,sp,128
    107c:	0905                	addi	s2,s2,1
    107e:	0200                	addi	s0,sp,256
    1080:	0104                	addi	s1,sp,128
    1082:	0c090003          	lb	zero,192(s2)
    1086:	0100                	addi	s0,sp,128
    1088:	0205                	addi	tp,tp,1
    108a:	0200                	addi	s0,sp,256
    108c:	0104                	addi	s1,sp,128
    108e:	08090003          	lb	zero,128(s2)
    1092:	0100                	addi	s0,sp,128
    1094:	0705                	addi	a4,a4,1
    1096:	0901ae03          	lw	t3,144(gp)
    109a:	0004                	0x4
    109c:	0501                	addi	a0,a0,0
    109e:	030d                	addi	t1,t1,3
    10a0:	0901                	addi	s2,s2,0
    10a2:	0008                	0x8
    10a4:	0501                	addi	a0,a0,0
    10a6:	0301                	addi	t1,t1,0
    10a8:	0901                	addi	s2,s2,0
    10aa:	0010                	0x10
    10ac:	0301                	addi	t1,t1,0
    10ae:	00140903          	lb	s2,1(s0)
    10b2:	0501                	addi	a0,a0,0
    10b4:	0312                	slli	t1,t1,0x4
    10b6:	00100903          	lb	s2,1(zero) # 1 <_start-0x21fff>
    10ba:	0501                	addi	a0,a0,0
    10bc:	0309                	addi	t1,t1,2
    10be:	0902                	c.slli64	s2
    10c0:	0010                	0x10
    10c2:	0501                	addi	a0,a0,0
    10c4:	0302                	c.slli64	t1
    10c6:	0900                	addi	s0,sp,144
    10c8:	0004                	0x4
    10ca:	0501                	addi	a0,a0,0
    10cc:	0012                	c.slli	zero,0x4
    10ce:	0402                	c.slli64	s0
    10d0:	09010303          	lb	t1,144(sp)
    10d4:	0004                	0x4
    10d6:	0501                	addi	a0,a0,0
    10d8:	04020003          	lb	zero,64(tp) # 40 <_start-0x21fc0>
    10dc:	09000303          	lb	t1,144(zero) # 90 <_start-0x21f70>
    10e0:	0014                	0x14
    10e2:	0501                	addi	a0,a0,0
    10e4:	0021                	c.nop	8
    10e6:	0402                	c.slli64	s0
    10e8:	097f0303          	lb	t1,151(t5)
    10ec:	000c                	0xc
    10ee:	0501                	addi	a0,a0,0
    10f0:	0010                	0x10
    10f2:	0402                	c.slli64	s0
    10f4:	0301                	addi	t1,t1,0
    10f6:	0900                	addi	s0,sp,144
    10f8:	000c                	0xc
    10fa:	0501                	addi	a0,a0,0
    10fc:	0002                	c.slli64	zero
    10fe:	0402                	c.slli64	s0
    1100:	0301                	addi	t1,t1,0
    1102:	0900                	addi	s0,sp,144
    1104:	000c                	0xc
    1106:	0501                	addi	a0,a0,0
    1108:	0903030b          	0x903030b
    110c:	0008                	0x8
    110e:	0501                	addi	a0,a0,0
    1110:	0901030f          	0x901030f
    1114:	0014                	0x14
    1116:	0501                	addi	a0,a0,0
    1118:	0301                	addi	t1,t1,0
    111a:	0901                	addi	s2,s2,0
    111c:	000c                	0xc
    111e:	0301                	addi	t1,t1,0
    1120:	00140903          	lb	s2,1(s0)
    1124:	0501                	addi	a0,a0,0
    1126:	0302                	c.slli64	t1
    1128:	0905                	addi	s2,s2,1
    112a:	0030                	addi	a2,sp,8
    112c:	0501                	addi	a0,a0,0
    112e:	0308                	addi	a0,sp,384
    1130:	0901                	addi	s2,s2,0
    1132:	0014                	0x14
    1134:	0501                	addi	a0,a0,0
    1136:	0316                	slli	t1,t1,0x5
    1138:	0904                	addi	s1,sp,144
    113a:	0024                	addi	s1,sp,8
    113c:	0501                	addi	a0,a0,0
    113e:	0305                	addi	t1,t1,1
    1140:	0900                	addi	s0,sp,144
    1142:	000c                	0xc
    1144:	0501                	addi	a0,a0,0
    1146:	09010303          	lb	t1,144(sp)
    114a:	0004                	0x4
    114c:	0501                	addi	a0,a0,0
    114e:	0316                	slli	t1,t1,0x5
    1150:	0901                	addi	s2,s2,0
    1152:	0024                	addi	s1,sp,8
    1154:	0501                	addi	a0,a0,0
    1156:	030c                	addi	a1,sp,384
    1158:	0900                	addi	s0,sp,144
    115a:	0010                	0x10
    115c:	0501                	addi	a0,a0,0
    115e:	0310                	addi	a2,sp,384
    1160:	0901                	addi	s2,s2,0
    1162:	000c                	0xc
    1164:	0501                	addi	a0,a0,0
    1166:	030a                	slli	t1,t1,0x2
    1168:	0902                	c.slli64	s2
    116a:	0020                	addi	s0,sp,8
    116c:	0501                	addi	a0,a0,0
    116e:	0309                	addi	t1,t1,2
    1170:	00080903          	lb	s2,0(a6)
    1174:	0501                	addi	a0,a0,0
    1176:	0302                	c.slli64	t1
    1178:	0900                	addi	s0,sp,144
    117a:	0004                	0x4
    117c:	0501                	addi	a0,a0,0
    117e:	0316                	slli	t1,t1,0x5
    1180:	0901                	addi	s2,s2,0
    1182:	0004                	0x4
    1184:	0501                	addi	a0,a0,0
    1186:	030c                	addi	a1,sp,384
    1188:	0900                	addi	s0,sp,144
    118a:	0014                	0x14
    118c:	0501                	addi	a0,a0,0
    118e:	030d                	addi	t1,t1,3
    1190:	0901                	addi	s2,s2,0
    1192:	000c                	0xc
    1194:	0501                	addi	a0,a0,0
    1196:	0314                	addi	a3,sp,384
    1198:	0901                	addi	s2,s2,0
    119a:	0008                	0x8
    119c:	0501                	addi	a0,a0,0
    119e:	09000303          	lb	t1,144(zero) # 90 <_start-0x21f70>
    11a2:	0014                	0x14
    11a4:	0501                	addi	a0,a0,0
    11a6:	0309                	addi	t1,t1,2
    11a8:	0901                	addi	s2,s2,0
    11aa:	000c                	0xc
    11ac:	0501                	addi	a0,a0,0
    11ae:	0306                	slli	t1,t1,0x1
    11b0:	0900                	addi	s0,sp,144
    11b2:	0004                	0x4
    11b4:	0501                	addi	a0,a0,0
    11b6:	0018                	0x18
    11b8:	0402                	c.slli64	s0
    11ba:	0302                	c.slli64	t1
    11bc:	097c                	addi	a5,sp,156
    11be:	000c                	0xc
    11c0:	0501                	addi	a0,a0,0
    11c2:	0002                	c.slli64	zero
    11c4:	0402                	c.slli64	s0
    11c6:	0301                	addi	t1,t1,0
    11c8:	0900                	addi	s0,sp,144
    11ca:	000c                	0xc
    11cc:	0501                	addi	a0,a0,0
    11ce:	0304                	addi	s1,sp,384
    11d0:	0905                	addi	s2,s2,1
    11d2:	0018                	0x18
    11d4:	0501                	addi	a0,a0,0
    11d6:	0309                	addi	t1,t1,2
    11d8:	0902                	c.slli64	s2
    11da:	0004                	0x4
    11dc:	0501                	addi	a0,a0,0
    11de:	0001                	nop
    11e0:	0402                	c.slli64	s0
    11e2:	0301                	addi	t1,t1,0
    11e4:	0901                	addi	s2,s2,0
    11e6:	0004                	0x4
    11e8:	0901                	addi	s2,s2,0
    11ea:	0014                	0x14
    11ec:	0100                	addi	s0,sp,128
    11ee:	df01                	beqz	a4,1106 <_start-0x20efa>
    11f0:	0000                	unimp
    11f2:	0300                	addi	s0,sp,384
    11f4:	2300                	fld	fs0,0(a4)
    11f6:	0000                	unimp
    11f8:	0100                	addi	s0,sp,128
    11fa:	fb01                	bnez	a4,110a <_start-0x20ef6>
    11fc:	0d0e                	slli	s10,s10,0x3
    11fe:	0100                	addi	s0,sp,128
    1200:	0101                	addi	sp,sp,0
    1202:	0001                	nop
    1204:	0000                	unimp
    1206:	0001                	nop
    1208:	0100                	addi	s0,sp,128
    120a:	00637273          	csrrci	tp,0x6,6
    120e:	7300                	ld	s0,32(a4)
    1210:	7274                	ld	a3,224(a2)
    1212:	6e69                	lui	t3,0x1a
    1214:	00632e67          	0x632e67
    1218:	0001                	nop
    121a:	0000                	unimp
    121c:	0105                	addi	sp,sp,1
    121e:	0900                	addi	s0,sp,144
    1220:	0402                	c.slli64	s0
    1222:	0239                	addi	tp,tp,14
    1224:	0000                	unimp
    1226:	0000                	unimp
    1228:	1600                	addi	s0,sp,800
    122a:	0a05                	addi	s4,s4,1
    122c:	10090303          	lb	t1,256(s2)
    1230:	0100                	addi	s0,sp,128
    1232:	0205                	addi	tp,tp,1
    1234:	08090003          	lb	zero,128(s2)
    1238:	0100                	addi	s0,sp,128
    123a:	1c05                	addi	s8,s8,-31
    123c:	0200                	addi	s0,sp,256
    123e:	0304                	addi	s1,sp,384
    1240:	04090003          	lb	zero,64(s2)
    1244:	0100                	addi	s0,sp,128
    1246:	0f05                	addi	t5,t5,1
    1248:	0200                	addi	s0,sp,256
    124a:	0104                	addi	s1,sp,128
    124c:	0c090003          	lb	zero,192(s2)
    1250:	0100                	addi	s0,sp,128
    1252:	0205                	addi	tp,tp,1
    1254:	0200                	addi	s0,sp,256
    1256:	0104                	addi	s1,sp,128
    1258:	08090003          	lb	zero,128(s2)
    125c:	0100                	addi	s0,sp,128
    125e:	0c05                	addi	s8,s8,1
    1260:	04090303          	lb	t1,64(s2)
    1264:	0100                	addi	s0,sp,128
    1266:	0105                	addi	sp,sp,1
    1268:	0c090103          	lb	sp,192(s2)
    126c:	0100                	addi	s0,sp,128
    126e:	10090303          	lb	t1,256(s2)
    1272:	0100                	addi	s0,sp,128
    1274:	0805                	addi	a6,a6,1
    1276:	18090103          	lb	sp,384(s2)
    127a:	0100                	addi	s0,sp,128
    127c:	0e05                	addi	t3,t3,1
    127e:	08090103          	lb	sp,128(s2)
    1282:	0100                	addi	s0,sp,128
    1284:	0805                	addi	a6,a6,1
    1286:	08090203          	lb	tp,128(s2)
    128a:	0100                	addi	s0,sp,128
    128c:	0e05                	addi	t3,t3,1
    128e:	04090103          	lb	sp,64(s2)
    1292:	0100                	addi	s0,sp,128
    1294:	0705                	addi	a4,a4,1
    1296:	0c090003          	lb	zero,192(s2)
    129a:	0100                	addi	s0,sp,128
    129c:	0c05                	addi	s8,s8,1
    129e:	0c090003          	lb	zero,192(s2)
    12a2:	0100                	addi	s0,sp,128
    12a4:	0a05                	addi	s4,s4,1
    12a6:	04090003          	lb	zero,64(s2)
    12aa:	0100                	addi	s0,sp,128
    12ac:	0e05                	addi	t3,t3,1
    12ae:	04097f03          	0x4097f03
    12b2:	0100                	addi	s0,sp,128
    12b4:	0805                	addi	a6,a6,1
    12b6:	0c090003          	lb	zero,192(s2)
    12ba:	0100                	addi	s0,sp,128
    12bc:	0905                	addi	s2,s2,1
    12be:	04090203          	lb	tp,64(s2)
    12c2:	0100                	addi	s0,sp,128
    12c4:	0105                	addi	sp,sp,1
    12c6:	04090103          	lb	sp,64(s2)
    12ca:	0100                	addi	s0,sp,128
    12cc:	1009                	c.nop	-30
    12ce:	0000                	unimp
    12d0:	0101                	addi	sp,sp,0
    12d2:	0000046f          	jal	s0,12d2 <_start-0x20d2e>
    12d6:	004d0003          	lb	zero,4(s10) # 3a680004 <_ebss+0x3a658dec>
    12da:	0000                	unimp
    12dc:	0101                	addi	sp,sp,0
    12de:	000d0efb          	0xd0efb
    12e2:	0101                	addi	sp,sp,0
    12e4:	0101                	addi	sp,sp,0
    12e6:	0000                	unimp
    12e8:	0100                	addi	s0,sp,128
    12ea:	0000                	unimp
    12ec:	6901                	0x6901
    12ee:	636e                	ld	t1,216(sp)
    12f0:	756c                	ld	a1,232(a0)
    12f2:	6564                	ld	s1,200(a0)
    12f4:	7300                	ld	s0,32(a4)
    12f6:	6372                	ld	t1,280(sp)
    12f8:	0000                	unimp
    12fa:	6f69                	lui	t5,0x1a
    12fc:	682e                	ld	a6,200(sp)
    12fe:	0100                	addi	s0,sp,128
    1300:	0000                	unimp
    1302:	2d737973          	csrrci	s2,0x2d7,6
    1306:	636f6c63          	bltu	t5,s6,193e <_start-0x206c2>
    130a:	00632e6b          	0x632e6b
    130e:	0002                	c.slli64	zero
    1310:	7400                	ld	s0,40(s0)
    1312:	7079                	c.lui	zero,0xffffe
    1314:	7365                	lui	t1,0xffff9
    1316:	682e                	ld	a6,200(sp)
    1318:	0100                	addi	s0,sp,128
    131a:	0000                	unimp
    131c:	69647473          	csrrci	s0,0x696,8
    1320:	746e                	ld	s0,248(sp)
    1322:	682e                	ld	a6,200(sp)
    1324:	0100                	addi	s0,sp,128
    1326:	0000                	unimp
    1328:	0500                	addi	s0,sp,640
    132a:	0001                	nop
    132c:	0209                	addi	tp,tp,2
    132e:	39c4                	fld	fs1,176(a1)
    1330:	0002                	c.slli64	zero
    1332:	0000                	unimp
    1334:	0000                	unimp
    1336:	05011403          	lh	s0,80(sp)
    133a:	030c                	addi	a1,sp,384
    133c:	0901                	addi	s2,s2,0
    133e:	0010                	0x10
    1340:	0501                	addi	a0,a0,0
    1342:	030a                	slli	t1,t1,0x2
    1344:	0900                	addi	s0,sp,144
    1346:	0004                	0x4
    1348:	0501                	addi	a0,a0,0
    134a:	0301                	addi	t1,t1,0
    134c:	0901                	addi	s2,s2,0
    134e:	0008                	0x8
    1350:	0301                	addi	t1,t1,0
    1352:	0912                	slli	s2,s2,0x4
    1354:	0010                	0x10
    1356:	0501                	addi	a0,a0,0
    1358:	0304                	addi	s1,sp,384
    135a:	0901                	addi	s2,s2,0
    135c:	0018                	0x18
    135e:	0501                	addi	a0,a0,0
    1360:	031e                	slli	t1,t1,0x7
    1362:	0900                	addi	s0,sp,144
    1364:	0004                	0x4
    1366:	0501                	addi	a0,a0,0
    1368:	0301                	addi	t1,t1,0
    136a:	0901                	addi	s2,s2,0
    136c:	0008                	0x8
    136e:	0401                	addi	s0,s0,0
    1370:	0302                	c.slli64	t1
    1372:	097d                	addi	s2,s2,31
    1374:	0010                	0x10
    1376:	0501                	addi	a0,a0,0
    1378:	0305                	addi	t1,t1,1
    137a:	0908                	addi	a0,sp,144
    137c:	0010                	0x10
    137e:	0501                	addi	a0,a0,0
    1380:	09010307          	vlse8.v	v6,(sp),a6,v0.t
    1384:	000c                	0xc
    1386:	0501                	addi	a0,a0,0
    1388:	000a                	c.slli	zero,0x2
    138a:	0402                	c.slli64	s0
    138c:	0301                	addi	t1,t1,0
    138e:	0900                	addi	s0,sp,144
    1390:	0004                	0x4
    1392:	0501                	addi	a0,a0,0
    1394:	04020007          	vluxei8.v	v0,(tp),v0,v0.t
    1398:	0301                	addi	t1,t1,0
    139a:	0900                	addi	s0,sp,144
    139c:	000c                	0xc
    139e:	0501                	addi	a0,a0,0
    13a0:	0301                	addi	t1,t1,0
    13a2:	0904                	addi	s1,sp,144
    13a4:	0004                	0x4
    13a6:	0301                	addi	t1,t1,0
    13a8:	00140903          	lb	s2,1(s0)
    13ac:	0501                	addi	a0,a0,0
    13ae:	0302                	c.slli64	t1
    13b0:	0904                	addi	s1,sp,144
    13b2:	0010                	0x10
    13b4:	0301                	addi	t1,t1,0
    13b6:	0901                	addi	s2,s2,0
    13b8:	0010                	0x10
    13ba:	0501                	addi	a0,a0,0
    13bc:	0308                	addi	a0,sp,384
    13be:	00080903          	lb	s2,0(a6)
    13c2:	0501                	addi	a0,a0,0
    13c4:	0306                	slli	t1,t1,0x1
    13c6:	0901                	addi	s2,s2,0
    13c8:	0010                	0x10
    13ca:	0501                	addi	a0,a0,0
    13cc:	0302                	c.slli64	t1
    13ce:	0901                	addi	s2,s2,0
    13d0:	0014                	0x14
    13d2:	0501                	addi	a0,a0,0
    13d4:	0308                	addi	a0,sp,384
    13d6:	00100903          	lb	s2,1(zero) # 1 <_start-0x21fff>
    13da:	0501                	addi	a0,a0,0
    13dc:	0306                	slli	t1,t1,0x1
    13de:	0901                	addi	s2,s2,0
    13e0:	0010                	0x10
    13e2:	0501                	addi	a0,a0,0
    13e4:	0302                	c.slli64	t1
    13e6:	0901                	addi	s2,s2,0
    13e8:	0010                	0x10
    13ea:	0301                	addi	t1,t1,0
    13ec:	0901                	addi	s2,s2,0
    13ee:	0010                	0x10
    13f0:	0501                	addi	a0,a0,0
    13f2:	0308                	addi	a0,sp,384
    13f4:	00080903          	lb	s2,0(a6)
    13f8:	0501                	addi	a0,a0,0
    13fa:	0306                	slli	t1,t1,0x1
    13fc:	0901                	addi	s2,s2,0
    13fe:	0010                	0x10
    1400:	0301                	addi	t1,t1,0
    1402:	0901                	addi	s2,s2,0
    1404:	0014                	0x14
    1406:	0501                	addi	a0,a0,0
    1408:	0302                	c.slli64	t1
    140a:	0901                	addi	s2,s2,0
    140c:	0014                	0x14
    140e:	0501                	addi	a0,a0,0
    1410:	0308                	addi	a0,sp,384
    1412:	00100903          	lb	s2,1(zero) # 1 <_start-0x21fff>
    1416:	0501                	addi	a0,a0,0
    1418:	0306                	slli	t1,t1,0x1
    141a:	0901                	addi	s2,s2,0
    141c:	0010                	0x10
    141e:	0501                	addi	a0,a0,0
    1420:	0302                	c.slli64	t1
    1422:	0901                	addi	s2,s2,0
    1424:	0010                	0x10
    1426:	0501                	addi	a0,a0,0
    1428:	0308                	addi	a0,sp,384
    142a:	00100903          	lb	s2,1(zero) # 1 <_start-0x21fff>
    142e:	0501                	addi	a0,a0,0
    1430:	0306                	slli	t1,t1,0x1
    1432:	0901                	addi	s2,s2,0
    1434:	0010                	0x10
    1436:	0501                	addi	a0,a0,0
    1438:	0302                	c.slli64	t1
    143a:	0901                	addi	s2,s2,0
    143c:	0010                	0x10
    143e:	0501                	addi	a0,a0,0
    1440:	09030307          	vlse8.v	v6,(t1),a6,v0.t
    1444:	0010                	0x10
    1446:	0501                	addi	a0,a0,0
    1448:	000a                	c.slli	zero,0x2
    144a:	0402                	c.slli64	s0
    144c:	0301                	addi	t1,t1,0
    144e:	0900                	addi	s0,sp,144
    1450:	0004                	0x4
    1452:	0501                	addi	a0,a0,0
    1454:	0029                	c.nop	10
    1456:	0402                	c.slli64	s0
    1458:	0301                	addi	t1,t1,0
    145a:	0900                	addi	s0,sp,144
    145c:	0010                	0x10
    145e:	0501                	addi	a0,a0,0
    1460:	04020007          	vluxei8.v	v0,(tp),v0,v0.t
    1464:	0301                	addi	t1,t1,0
    1466:	0900                	addi	s0,sp,144
    1468:	0010                	0x10
    146a:	0501                	addi	a0,a0,0
    146c:	0302                	c.slli64	t1
    146e:	0901                	addi	s2,s2,0
    1470:	0004                	0x4
    1472:	0501                	addi	a0,a0,0
    1474:	0308                	addi	a0,sp,384
    1476:	00080903          	lb	s2,0(a6)
    147a:	0501                	addi	a0,a0,0
    147c:	0306                	slli	t1,t1,0x1
    147e:	0901                	addi	s2,s2,0
    1480:	0010                	0x10
    1482:	0501                	addi	a0,a0,0
    1484:	0302                	c.slli64	t1
    1486:	0901                	addi	s2,s2,0
    1488:	0010                	0x10
    148a:	0501                	addi	a0,a0,0
    148c:	0308                	addi	a0,sp,384
    148e:	00100903          	lb	s2,1(zero) # 1 <_start-0x21fff>
    1492:	0501                	addi	a0,a0,0
    1494:	0306                	slli	t1,t1,0x1
    1496:	0901                	addi	s2,s2,0
    1498:	0010                	0x10
    149a:	0501                	addi	a0,a0,0
    149c:	0302                	c.slli64	t1
    149e:	0901                	addi	s2,s2,0
    14a0:	0014                	0x14
    14a2:	0301                	addi	t1,t1,0
    14a4:	0901                	addi	s2,s2,0
    14a6:	0010                	0x10
    14a8:	0501                	addi	a0,a0,0
    14aa:	0308                	addi	a0,sp,384
    14ac:	00080903          	lb	s2,0(a6)
    14b0:	0501                	addi	a0,a0,0
    14b2:	0306                	slli	t1,t1,0x1
    14b4:	0901                	addi	s2,s2,0
    14b6:	0014                	0x14
    14b8:	0301                	addi	t1,t1,0
    14ba:	0901                	addi	s2,s2,0
    14bc:	0014                	0x14
    14be:	0501                	addi	a0,a0,0
    14c0:	0302                	c.slli64	t1
    14c2:	0901                	addi	s2,s2,0
    14c4:	0014                	0x14
    14c6:	0301                	addi	t1,t1,0
    14c8:	0901                	addi	s2,s2,0
    14ca:	0014                	0x14
    14cc:	0501                	addi	a0,a0,0
    14ce:	0301                	addi	t1,t1,0
    14d0:	0901                	addi	s2,s2,0
    14d2:	0008                	0x8
    14d4:	0301                	addi	t1,t1,0
    14d6:	00140903          	lb	s2,1(s0)
    14da:	0501                	addi	a0,a0,0
    14dc:	0305                	addi	t1,t1,1
    14de:	0904                	addi	s1,sp,144
    14e0:	0010                	0x10
    14e2:	0501                	addi	a0,a0,0
    14e4:	0304                	addi	s1,sp,384
    14e6:	0900                	addi	s0,sp,144
    14e8:	0018                	0x18
    14ea:	0501                	addi	a0,a0,0
    14ec:	0308                	addi	a0,sp,384
    14ee:	0904                	addi	s1,sp,144
    14f0:	0004                	0x4
    14f2:	0501                	addi	a0,a0,0
    14f4:	0306                	slli	t1,t1,0x1
    14f6:	0901                	addi	s2,s2,0
    14f8:	0014                	0x14
    14fa:	0501                	addi	a0,a0,0
    14fc:	0302                	c.slli64	t1
    14fe:	0901                	addi	s2,s2,0
    1500:	0014                	0x14
    1502:	0301                	addi	t1,t1,0
    1504:	00140903          	lb	s2,1(s0)
    1508:	0501                	addi	a0,a0,0
    150a:	0308                	addi	a0,sp,384
    150c:	00140903          	lb	s2,1(s0)
    1510:	0501                	addi	a0,a0,0
    1512:	0306                	slli	t1,t1,0x1
    1514:	0901                	addi	s2,s2,0
    1516:	0014                	0x14
    1518:	0501                	addi	a0,a0,0
    151a:	0302                	c.slli64	t1
    151c:	0901                	addi	s2,s2,0
    151e:	0010                	0x10
    1520:	0501                	addi	a0,a0,0
    1522:	0308                	addi	a0,sp,384
    1524:	00140903          	lb	s2,1(s0)
    1528:	0501                	addi	a0,a0,0
    152a:	0306                	slli	t1,t1,0x1
    152c:	0901                	addi	s2,s2,0
    152e:	0014                	0x14
    1530:	0501                	addi	a0,a0,0
    1532:	0302                	c.slli64	t1
    1534:	0901                	addi	s2,s2,0
    1536:	0010                	0x10
    1538:	0501                	addi	a0,a0,0
    153a:	09030307          	vlse8.v	v6,(t1),a6,v0.t
    153e:	0014                	0x14
    1540:	0501                	addi	a0,a0,0
    1542:	000a                	c.slli	zero,0x2
    1544:	0402                	c.slli64	s0
    1546:	0301                	addi	t1,t1,0
    1548:	0900                	addi	s0,sp,144
    154a:	0004                	0x4
    154c:	0501                	addi	a0,a0,0
    154e:	0029                	c.nop	10
    1550:	0402                	c.slli64	s0
    1552:	0301                	addi	t1,t1,0
    1554:	0900                	addi	s0,sp,144
    1556:	0014                	0x14
    1558:	0501                	addi	a0,a0,0
    155a:	04020007          	vluxei8.v	v0,(tp),v0,v0.t
    155e:	0301                	addi	t1,t1,0
    1560:	0900                	addi	s0,sp,144
    1562:	0010                	0x10
    1564:	0501                	addi	a0,a0,0
    1566:	0302                	c.slli64	t1
    1568:	0901                	addi	s2,s2,0
    156a:	0004                	0x4
    156c:	0501                	addi	a0,a0,0
    156e:	0308                	addi	a0,sp,384
    1570:	00080903          	lb	s2,0(a6)
    1574:	0501                	addi	a0,a0,0
    1576:	0306                	slli	t1,t1,0x1
    1578:	0901                	addi	s2,s2,0
    157a:	0014                	0x14
    157c:	0501                	addi	a0,a0,0
    157e:	0302                	c.slli64	t1
    1580:	0901                	addi	s2,s2,0
    1582:	0014                	0x14
    1584:	0501                	addi	a0,a0,0
    1586:	09650303          	lb	t1,150(a0) # 1b096 <_start-0x6f6a>
    158a:	0018                	0x18
    158c:	0501                	addi	a0,a0,0
    158e:	0301                	addi	t1,t1,0
    1590:	091c                	addi	a5,sp,144
    1592:	0004                	0x4
    1594:	0301                	addi	t1,t1,0
    1596:	00100903          	lb	s2,1(zero) # 1 <_start-0x21fff>
    159a:	0501                	addi	a0,a0,0
    159c:	0302                	c.slli64	t1
    159e:	0901                	addi	s2,s2,0
    15a0:	0010                	0x10
    15a2:	0501                	addi	a0,a0,0
    15a4:	0322                	slli	t1,t1,0x8
    15a6:	0901                	addi	s2,s2,0
    15a8:	0010                	0x10
    15aa:	0501                	addi	a0,a0,0
    15ac:	0302                	c.slli64	t1
    15ae:	0900                	addi	s0,sp,144
    15b0:	0014                	0x14
    15b2:	0301                	addi	t1,t1,0
    15b4:	0901                	addi	s2,s2,0
    15b6:	0020                	addi	s0,sp,8
    15b8:	0501                	addi	a0,a0,0
    15ba:	0301                	addi	t1,t1,0
    15bc:	0901                	addi	s2,s2,0
    15be:	0008                	0x8
    15c0:	0301                	addi	t1,t1,0
    15c2:	00140903          	lb	s2,1(s0)
    15c6:	0501                	addi	a0,a0,0
    15c8:	0302                	c.slli64	t1
    15ca:	0901                	addi	s2,s2,0
    15cc:	0010                	0x10
    15ce:	0501                	addi	a0,a0,0
    15d0:	0331                	addi	t1,t1,12
    15d2:	0901                	addi	s2,s2,0
    15d4:	0010                	0x10
    15d6:	0501                	addi	a0,a0,0
    15d8:	0302                	c.slli64	t1
    15da:	0900                	addi	s0,sp,144
    15dc:	0014                	0x14
    15de:	0301                	addi	t1,t1,0
    15e0:	0901                	addi	s2,s2,0
    15e2:	0020                	addi	s0,sp,8
    15e4:	0501                	addi	a0,a0,0
    15e6:	0301                	addi	t1,t1,0
    15e8:	0901                	addi	s2,s2,0
    15ea:	0008                	0x8
    15ec:	0301                	addi	t1,t1,0
    15ee:	00140903          	lb	s2,1(s0)
    15f2:	0501                	addi	a0,a0,0
    15f4:	0322                	slli	t1,t1,0x8
    15f6:	0902                	c.slli64	s2
    15f8:	0010                	0x10
    15fa:	0501                	addi	a0,a0,0
    15fc:	0302                	c.slli64	t1
    15fe:	0900                	addi	s0,sp,144
    1600:	0014                	0x14
    1602:	0301                	addi	t1,t1,0
    1604:	0901                	addi	s2,s2,0
    1606:	0020                	addi	s0,sp,8
    1608:	0501                	addi	a0,a0,0
    160a:	0322                	slli	t1,t1,0x8
    160c:	0902                	c.slli64	s2
    160e:	0008                	0x8
    1610:	0501                	addi	a0,a0,0
    1612:	0302                	c.slli64	t1
    1614:	0900                	addi	s0,sp,144
    1616:	0014                	0x14
    1618:	0501                	addi	a0,a0,0
    161a:	0301                	addi	t1,t1,0
    161c:	0901                	addi	s2,s2,0
    161e:	0018                	0x18
    1620:	0301                	addi	t1,t1,0
    1622:	00140903          	lb	s2,1(s0)
    1626:	0501                	addi	a0,a0,0
    1628:	0308                	addi	a0,sp,384
    162a:	0904                	addi	s1,sp,144
    162c:	0010                	0x10
    162e:	0501                	addi	a0,a0,0
    1630:	0306                	slli	t1,t1,0x1
    1632:	0901                	addi	s2,s2,0
    1634:	0014                	0x14
    1636:	0501                	addi	a0,a0,0
    1638:	0302                	c.slli64	t1
    163a:	0901                	addi	s2,s2,0
    163c:	0010                	0x10
    163e:	0301                	addi	t1,t1,0
    1640:	0901                	addi	s2,s2,0
    1642:	0014                	0x14
    1644:	0501                	addi	a0,a0,0
    1646:	0301                	addi	t1,t1,0
    1648:	0901                	addi	s2,s2,0
    164a:	0008                	0x8
    164c:	0301                	addi	t1,t1,0
    164e:	00140903          	lb	s2,1(s0)
    1652:	0501                	addi	a0,a0,0
    1654:	09030307          	vlse8.v	v6,(t1),a6,v0.t
    1658:	0014                	0x14
    165a:	0501                	addi	a0,a0,0
    165c:	0305                	addi	t1,t1,1
    165e:	0900                	addi	s0,sp,144
    1660:	0010                	0x10
    1662:	0501                	addi	a0,a0,0
    1664:	0304                	addi	s1,sp,384
    1666:	0900                	addi	s0,sp,144
    1668:	0004                	0x4
    166a:	0501                	addi	a0,a0,0
    166c:	0309                	addi	t1,t1,2
    166e:	0902                	c.slli64	s2
    1670:	0004                	0x4
    1672:	0501                	addi	a0,a0,0
    1674:	09010303          	lb	t1,144(sp)
    1678:	0010                	0x10
    167a:	0501                	addi	a0,a0,0
    167c:	0309                	addi	t1,t1,2
    167e:	001c0903          	lb	s2,1(s8)
    1682:	0501                	addi	a0,a0,0
    1684:	09010307          	vlse8.v	v6,(sp),a6,v0.t
    1688:	0010                	0x10
    168a:	0501                	addi	a0,a0,0
    168c:	09010303          	lb	t1,144(sp)
    1690:	0010                	0x10
    1692:	0501                	addi	a0,a0,0
    1694:	0308                	addi	a0,sp,384
    1696:	00100903          	lb	s2,1(zero) # 1 <_start-0x21fff>
    169a:	0501                	addi	a0,a0,0
    169c:	0402000b          	sfence.vmas	tp,zero
    16a0:	0301                	addi	t1,t1,0
    16a2:	0900                	addi	s0,sp,144
    16a4:	0004                	0x4
    16a6:	0501                	addi	a0,a0,0
    16a8:	0018                	0x18
    16aa:	0402                	c.slli64	s0
    16ac:	0301                	addi	t1,t1,0
    16ae:	0900                	addi	s0,sp,144
    16b0:	0010                	0x10
    16b2:	0501                	addi	a0,a0,0
    16b4:	0008                	0x8
    16b6:	0402                	c.slli64	s0
    16b8:	0301                	addi	t1,t1,0
    16ba:	0900                	addi	s0,sp,144
    16bc:	0010                	0x10
    16be:	0501                	addi	a0,a0,0
    16c0:	09010303          	lb	t1,144(sp)
    16c4:	0004                	0x4
    16c6:	0501                	addi	a0,a0,0
    16c8:	0309                	addi	t1,t1,2
    16ca:	00080903          	lb	s2,0(a6)
    16ce:	0501                	addi	a0,a0,0
    16d0:	09010307          	vlse8.v	v6,(sp),a6,v0.t
    16d4:	0010                	0x10
    16d6:	0501                	addi	a0,a0,0
    16d8:	09010303          	lb	t1,144(sp)
    16dc:	0014                	0x14
    16de:	0501                	addi	a0,a0,0
    16e0:	0301                	addi	t1,t1,0
    16e2:	0902                	c.slli64	s2
    16e4:	0010                	0x10
    16e6:	0301                	addi	t1,t1,0
    16e8:	00140903          	lb	s2,1(s0)
    16ec:	0501                	addi	a0,a0,0
    16ee:	0302                	c.slli64	t1
    16f0:	0901                	addi	s2,s2,0
    16f2:	0010                	0x10
    16f4:	0301                	addi	t1,t1,0
    16f6:	0901                	addi	s2,s2,0
    16f8:	0004                	0x4
    16fa:	0301                	addi	t1,t1,0
    16fc:	0901                	addi	s2,s2,0
    16fe:	0004                	0x4
    1700:	0301                	addi	t1,t1,0
    1702:	0901                	addi	s2,s2,0
    1704:	0004                	0x4
    1706:	0301                	addi	t1,t1,0
    1708:	0901                	addi	s2,s2,0
    170a:	0004                	0x4
    170c:	0301                	addi	t1,t1,0
    170e:	0901                	addi	s2,s2,0
    1710:	0004                	0x4
    1712:	0301                	addi	t1,t1,0
    1714:	0901                	addi	s2,s2,0
    1716:	0004                	0x4
    1718:	0301                	addi	t1,t1,0
    171a:	0901                	addi	s2,s2,0
    171c:	000c                	0xc
    171e:	0301                	addi	t1,t1,0
    1720:	0901                	addi	s2,s2,0
    1722:	000c                	0xc
    1724:	0301                	addi	t1,t1,0
    1726:	0901                	addi	s2,s2,0
    1728:	000c                	0xc
    172a:	0301                	addi	t1,t1,0
    172c:	0901                	addi	s2,s2,0
    172e:	000c                	0xc
    1730:	0301                	addi	t1,t1,0
    1732:	0901                	addi	s2,s2,0
    1734:	000c                	0xc
    1736:	0501                	addi	a0,a0,0
    1738:	0301                	addi	t1,t1,0
    173a:	0901                	addi	s2,s2,0
    173c:	000c                	0xc
    173e:	0901                	addi	s2,s2,0
    1740:	0014                	0x14
    1742:	0100                	addi	s0,sp,128
    1744:	3c01                	addiw	s8,s8,-32
    1746:	03000007          	vle8ff.v	v0,(zero)
    174a:	5800                	lw	s0,48(s0)
    174c:	0000                	unimp
    174e:	0100                	addi	s0,sp,128
    1750:	fb01                	bnez	a4,1660 <_start-0x209a0>
    1752:	0d0e                	slli	s10,s10,0x3
    1754:	0100                	addi	s0,sp,128
    1756:	0101                	addi	sp,sp,0
    1758:	0001                	nop
    175a:	0000                	unimp
    175c:	0001                	nop
    175e:	0100                	addi	s0,sp,128
    1760:	6e69                	lui	t3,0x1a
    1762:	64756c63          	bltu	a0,t2,1dba <_start-0x20246>
    1766:	0065                	c.nop	25
    1768:	00637273          	csrrci	tp,0x6,6
    176c:	6900                	ld	s0,16(a0)
    176e:	00682e6f          	jal	t3,83774 <_ebss+0x5c55c>
    1772:	0001                	nop
    1774:	7300                	ld	s0,32(a4)
    1776:	7379                	lui	t1,0xffffe
    1778:	752d                	lui	a0,0xfffeb
    177a:	7261                	lui	tp,0xffff8
    177c:	2e74                	fld	fa3,216(a2)
    177e:	00020063          	beqz	tp,177e <_start-0x20882>
    1782:	7400                	ld	s0,40(s0)
    1784:	7079                	c.lui	zero,0xffffe
    1786:	7365                	lui	t1,0xffff9
    1788:	682e                	ld	a6,200(sp)
    178a:	0100                	addi	s0,sp,128
    178c:	0000                	unimp
    178e:	61647473          	csrrci	s0,0x616,8
    1792:	6772                	ld	a4,280(sp)
    1794:	682e                	ld	a6,200(sp)
    1796:	0100                	addi	s0,sp,128
    1798:	0000                	unimp
    179a:	69647473          	csrrci	s0,0x696,8
    179e:	746e                	ld	s0,248(sp)
    17a0:	682e                	ld	a6,200(sp)
    17a2:	0100                	addi	s0,sp,128
    17a4:	0000                	unimp
    17a6:	0500                	addi	s0,sp,640
    17a8:	0001                	nop
    17aa:	0209                	addi	tp,tp,2
    17ac:	4174                	lw	a3,68(a0)
    17ae:	0002                	c.slli64	zero
    17b0:	0000                	unimp
    17b2:	0000                	unimp
    17b4:	05010a03          	lb	s4,80(sp)
    17b8:	030c                	addi	a1,sp,384
    17ba:	0901                	addi	s2,s2,0
    17bc:	0010                	0x10
    17be:	0501                	addi	a0,a0,0
    17c0:	030a                	slli	t1,t1,0x2
    17c2:	0900                	addi	s0,sp,144
    17c4:	0004                	0x4
    17c6:	0501                	addi	a0,a0,0
    17c8:	0301                	addi	t1,t1,0
    17ca:	0901                	addi	s2,s2,0
    17cc:	0008                	0x8
    17ce:	0301                	addi	t1,t1,0
    17d0:	0908                	addi	a0,sp,144
    17d2:	0010                	0x10
    17d4:	0501                	addi	a0,a0,0
    17d6:	030c                	addi	a1,sp,384
    17d8:	0901                	addi	s2,s2,0
    17da:	0010                	0x10
    17dc:	0501                	addi	a0,a0,0
    17de:	030a                	slli	t1,t1,0x2
    17e0:	0900                	addi	s0,sp,144
    17e2:	0004                	0x4
    17e4:	0501                	addi	a0,a0,0
    17e6:	0301                	addi	t1,t1,0
    17e8:	0901                	addi	s2,s2,0
    17ea:	0008                	0x8
    17ec:	0301                	addi	t1,t1,0
    17ee:	0912                	slli	s2,s2,0x4
    17f0:	0010                	0x10
    17f2:	0501                	addi	a0,a0,0
    17f4:	0304                	addi	s1,sp,384
    17f6:	0901                	addi	s2,s2,0
    17f8:	0018                	0x18
    17fa:	0501                	addi	a0,a0,0
    17fc:	031e                	slli	t1,t1,0x7
    17fe:	0900                	addi	s0,sp,144
    1800:	0004                	0x4
    1802:	0501                	addi	a0,a0,0
    1804:	0301                	addi	t1,t1,0
    1806:	0901                	addi	s2,s2,0
    1808:	0008                	0x8
    180a:	0401                	addi	s0,s0,0
    180c:	0302                	c.slli64	t1
    180e:	0975                	addi	s2,s2,29
    1810:	0010                	0x10
    1812:	0501                	addi	a0,a0,0
    1814:	030e                	slli	t1,t1,0x3
    1816:	0911                	addi	s2,s2,4
    1818:	0010                	0x10
    181a:	0501                	addi	a0,a0,0
    181c:	0901030f          	0x901030f
    1820:	000c                	0xc
    1822:	0501                	addi	a0,a0,0
    1824:	030d                	addi	t1,t1,3
    1826:	0901                	addi	s2,s2,0
    1828:	0010                	0x10
    182a:	0301                	addi	t1,t1,0
    182c:	0901                	addi	s2,s2,0
    182e:	0014                	0x14
    1830:	0501                	addi	a0,a0,0
    1832:	0309                	addi	t1,t1,2
    1834:	0901                	addi	s2,s2,0
    1836:	000c                	0xc
    1838:	0501                	addi	a0,a0,0
    183a:	0902030f          	0x902030f
    183e:	0010                	0x10
    1840:	0501                	addi	a0,a0,0
    1842:	030d                	addi	t1,t1,3
    1844:	0901                	addi	s2,s2,0
    1846:	0010                	0x10
    1848:	0301                	addi	t1,t1,0
    184a:	0901                	addi	s2,s2,0
    184c:	0014                	0x14
    184e:	0501                	addi	a0,a0,0
    1850:	0309                	addi	t1,t1,2
    1852:	0901                	addi	s2,s2,0
    1854:	0010                	0x10
    1856:	0501                	addi	a0,a0,0
    1858:	09030307          	vlse8.v	v6,(t1),a6,v0.t
    185c:	0010                	0x10
    185e:	0501                	addi	a0,a0,0
    1860:	0308                	addi	a0,sp,384
    1862:	0901                	addi	s2,s2,0
    1864:	000c                	0xc
    1866:	0501                	addi	a0,a0,0
    1868:	0306                	slli	t1,t1,0x1
    186a:	0901                	addi	s2,s2,0
    186c:	0010                	0x10
    186e:	0501                	addi	a0,a0,0
    1870:	0302                	c.slli64	t1
    1872:	0901                	addi	s2,s2,0
    1874:	000c                	0xc
    1876:	0501                	addi	a0,a0,0
    1878:	09030307          	vlse8.v	v6,(t1),a6,v0.t
    187c:	0010                	0x10
    187e:	0501                	addi	a0,a0,0
    1880:	0308                	addi	a0,sp,384
    1882:	0901                	addi	s2,s2,0
    1884:	000c                	0xc
    1886:	0501                	addi	a0,a0,0
    1888:	0306                	slli	t1,t1,0x1
    188a:	0901                	addi	s2,s2,0
    188c:	0010                	0x10
    188e:	0501                	addi	a0,a0,0
    1890:	0302                	c.slli64	t1
    1892:	0901                	addi	s2,s2,0
    1894:	0010                	0x10
    1896:	0501                	addi	a0,a0,0
    1898:	09030307          	vlse8.v	v6,(t1),a6,v0.t
    189c:	0010                	0x10
    189e:	0501                	addi	a0,a0,0
    18a0:	0302                	c.slli64	t1
    18a2:	0901                	addi	s2,s2,0
    18a4:	0008                	0x8
    18a6:	0301                	addi	t1,t1,0
    18a8:	0901                	addi	s2,s2,0
    18aa:	0014                	0x14
    18ac:	0301                	addi	t1,t1,0
    18ae:	0902                	c.slli64	s2
    18b0:	0014                	0x14
    18b2:	0501                	addi	a0,a0,0
    18b4:	0308                	addi	a0,sp,384
    18b6:	0901                	addi	s2,s2,0
    18b8:	0014                	0x14
    18ba:	0501                	addi	a0,a0,0
    18bc:	0306                	slli	t1,t1,0x1
    18be:	0901                	addi	s2,s2,0
    18c0:	0018                	0x18
    18c2:	0501                	addi	a0,a0,0
    18c4:	0302                	c.slli64	t1
    18c6:	0901                	addi	s2,s2,0
    18c8:	000c                	0xc
    18ca:	0301                	addi	t1,t1,0
    18cc:	0901                	addi	s2,s2,0
    18ce:	0018                	0x18
    18d0:	0301                	addi	t1,t1,0
    18d2:	0901                	addi	s2,s2,0
    18d4:	000c                	0xc
    18d6:	0501                	addi	a0,a0,0
    18d8:	0308                	addi	a0,sp,384
    18da:	0901                	addi	s2,s2,0
    18dc:	0014                	0x14
    18de:	0501                	addi	a0,a0,0
    18e0:	0306                	slli	t1,t1,0x1
    18e2:	0901                	addi	s2,s2,0
    18e4:	0018                	0x18
    18e6:	0501                	addi	a0,a0,0
    18e8:	0302                	c.slli64	t1
    18ea:	0901                	addi	s2,s2,0
    18ec:	000c                	0xc
    18ee:	0501                	addi	a0,a0,0
    18f0:	0308                	addi	a0,sp,384
    18f2:	0901                	addi	s2,s2,0
    18f4:	0018                	0x18
    18f6:	0501                	addi	a0,a0,0
    18f8:	0306                	slli	t1,t1,0x1
    18fa:	0901                	addi	s2,s2,0
    18fc:	0018                	0x18
    18fe:	0301                	addi	t1,t1,0
    1900:	0901                	addi	s2,s2,0
    1902:	000c                	0xc
    1904:	0501                	addi	a0,a0,0
    1906:	0302                	c.slli64	t1
    1908:	0901                	addi	s2,s2,0
    190a:	000c                	0xc
    190c:	0501                	addi	a0,a0,0
    190e:	0301                	addi	t1,t1,0
    1910:	0901                	addi	s2,s2,0
    1912:	0018                	0x18
    1914:	0301                	addi	t1,t1,0
    1916:	00140903          	lb	s2,1(s0)
    191a:	0501                	addi	a0,a0,0
    191c:	0311                	addi	t1,t1,4
    191e:	0901                	addi	s2,s2,0
    1920:	0018                	0x18
    1922:	0501                	addi	a0,a0,0
    1924:	09020307          	vlse8.v	v6,(tp),a6,v0.t
    1928:	0008                	0x8
    192a:	0501                	addi	a0,a0,0
    192c:	0009                	c.nop	2
    192e:	0402                	c.slli64	s0
    1930:	0301                	addi	t1,t1,0
    1932:	0900                	addi	s0,sp,144
    1934:	0004                	0x4
    1936:	0501                	addi	a0,a0,0
    1938:	001d                	c.nop	7
    193a:	0402                	c.slli64	s0
    193c:	0301                	addi	t1,t1,0
    193e:	0900                	addi	s0,sp,144
    1940:	0018                	0x18
    1942:	0501                	addi	a0,a0,0
    1944:	04020007          	vluxei8.v	v0,(tp),v0,v0.t
    1948:	0301                	addi	t1,t1,0
    194a:	0900                	addi	s0,sp,144
    194c:	0008                	0x8
    194e:	0501                	addi	a0,a0,0
    1950:	0302                	c.slli64	t1
    1952:	0901                	addi	s2,s2,0
    1954:	0004                	0x4
    1956:	0501                	addi	a0,a0,0
    1958:	0301                	addi	t1,t1,0
    195a:	0901                	addi	s2,s2,0
    195c:	0014                	0x14
    195e:	0301                	addi	t1,t1,0
    1960:	00140903          	lb	s2,1(s0)
    1964:	0501                	addi	a0,a0,0
    1966:	0302                	c.slli64	t1
    1968:	0901                	addi	s2,s2,0
    196a:	0018                	0x18
    196c:	0501                	addi	a0,a0,0
    196e:	0309                	addi	t1,t1,2
    1970:	0901                	addi	s2,s2,0
    1972:	0010                	0x10
    1974:	0501                	addi	a0,a0,0
    1976:	0301                	addi	t1,t1,0
    1978:	0901                	addi	s2,s2,0
    197a:	0004                	0x4
    197c:	0301                	addi	t1,t1,0
    197e:	00140903          	lb	s2,1(s0)
    1982:	0501                	addi	a0,a0,0
    1984:	0311                	addi	t1,t1,4
    1986:	0901                	addi	s2,s2,0
    1988:	0010                	0x10
    198a:	0501                	addi	a0,a0,0
    198c:	09020307          	vlse8.v	v6,(tp),a6,v0.t
    1990:	0008                	0x8
    1992:	0501                	addi	a0,a0,0
    1994:	0009                	c.nop	2
    1996:	0402                	c.slli64	s0
    1998:	0301                	addi	t1,t1,0
    199a:	0900                	addi	s0,sp,144
    199c:	0004                	0x4
    199e:	0501                	addi	a0,a0,0
    19a0:	001d                	c.nop	7
    19a2:	0402                	c.slli64	s0
    19a4:	0301                	addi	t1,t1,0
    19a6:	0900                	addi	s0,sp,144
    19a8:	0018                	0x18
    19aa:	0501                	addi	a0,a0,0
    19ac:	04020007          	vluxei8.v	v0,(tp),v0,v0.t
    19b0:	0301                	addi	t1,t1,0
    19b2:	0900                	addi	s0,sp,144
    19b4:	0008                	0x8
    19b6:	0501                	addi	a0,a0,0
    19b8:	0309                	addi	t1,t1,2
    19ba:	0901                	addi	s2,s2,0
    19bc:	0004                	0x4
    19be:	0501                	addi	a0,a0,0
    19c0:	0301                	addi	t1,t1,0
    19c2:	0901                	addi	s2,s2,0
    19c4:	000c                	0xc
    19c6:	0301                	addi	t1,t1,0
    19c8:	00140903          	lb	s2,1(s0)
    19cc:	0501                	addi	a0,a0,0
    19ce:	030c                	addi	a1,sp,384
    19d0:	00140903          	lb	s2,1(s0)
    19d4:	0501                	addi	a0,a0,0
    19d6:	0305                	addi	t1,t1,1
    19d8:	0900                	addi	s0,sp,144
    19da:	0004                	0x4
    19dc:	0501                	addi	a0,a0,0
    19de:	0310                	addi	a2,sp,384
    19e0:	0902                	c.slli64	s2
    19e2:	0004                	0x4
    19e4:	0501                	addi	a0,a0,0
    19e6:	030c                	addi	a1,sp,384
    19e8:	0900                	addi	s0,sp,144
    19ea:	0010                	0x10
    19ec:	0501                	addi	a0,a0,0
    19ee:	030d                	addi	t1,t1,3
    19f0:	0901                	addi	s2,s2,0
    19f2:	000c                	0xc
    19f4:	0501                	addi	a0,a0,0
    19f6:	001d                	c.nop	7
    19f8:	0402                	c.slli64	s0
    19fa:	0302                	c.slli64	t1
    19fc:	0901                	addi	s2,s2,0
    19fe:	0008                	0x8
    1a00:	0501                	addi	a0,a0,0
    1a02:	0009                	c.nop	2
    1a04:	0402                	c.slli64	s0
    1a06:	0302                	c.slli64	t1
    1a08:	0900                	addi	s0,sp,144
    1a0a:	000c                	0xc
    1a0c:	0501                	addi	a0,a0,0
    1a0e:	0022                	c.slli	zero,0x8
    1a10:	0402                	c.slli64	s0
    1a12:	0302                	c.slli64	t1
    1a14:	097c                	addi	a5,sp,156
    1a16:	000c                	0xc
    1a18:	0501                	addi	a0,a0,0
    1a1a:	0014                	0x14
    1a1c:	0402                	c.slli64	s0
    1a1e:	0301                	addi	t1,t1,0
    1a20:	0900                	addi	s0,sp,144
    1a22:	000c                	0xc
    1a24:	0501                	addi	a0,a0,0
    1a26:	0005                	c.nop	1
    1a28:	0402                	c.slli64	s0
    1a2a:	0301                	addi	t1,t1,0
    1a2c:	0900                	addi	s0,sp,144
    1a2e:	0010                	0x10
    1a30:	0501                	addi	a0,a0,0
    1a32:	0301                	addi	t1,t1,0
    1a34:	0906                	slli	s2,s2,0x1
    1a36:	0004                	0x4
    1a38:	0301                	addi	t1,t1,0
    1a3a:	00180903          	lb	s2,1(a6)
    1a3e:	0501                	addi	a0,a0,0
    1a40:	0306                	slli	t1,t1,0x1
    1a42:	0904                	addi	s1,sp,144
    1a44:	0014                	0x14
    1a46:	0501                	addi	a0,a0,0
    1a48:	0308                	addi	a0,sp,384
    1a4a:	0901                	addi	s2,s2,0
    1a4c:	0004                	0x4
    1a4e:	0501                	addi	a0,a0,0
    1a50:	0302                	c.slli64	t1
    1a52:	0900                	addi	s0,sp,144
    1a54:	0008                	0x8
    1a56:	0501                	addi	a0,a0,0
    1a58:	030a                	slli	t1,t1,0x2
    1a5a:	0902                	c.slli64	s2
    1a5c:	0004                	0x4
    1a5e:	0501                	addi	a0,a0,0
    1a60:	0314                	addi	a3,sp,384
    1a62:	0900                	addi	s0,sp,144
    1a64:	0008                	0x8
    1a66:	0501                	addi	a0,a0,0
    1a68:	04020017          	auipc	zero,0x4020
    1a6c:	0301                	addi	t1,t1,0
    1a6e:	0900                	addi	s0,sp,144
    1a70:	000c                	0xc
    1a72:	0501                	addi	a0,a0,0
    1a74:	0014                	0x14
    1a76:	0402                	c.slli64	s0
    1a78:	0301                	addi	t1,t1,0
    1a7a:	0900                	addi	s0,sp,144
    1a7c:	0008                	0x8
    1a7e:	0001                	nop
    1a80:	0402                	c.slli64	s0
    1a82:	00030603          	lb	a2,0(t1) # ffffffffffff9000 <_ebss+0xfffffffffffd1de8>
    1a86:	0c09                	addi	s8,s8,2
    1a88:	0100                	addi	s0,sp,128
    1a8a:	0200                	addi	s0,sp,256
    1a8c:	0404                	addi	s1,sp,512
    1a8e:	08090003          	lb	zero,128(s2)
    1a92:	0100                	addi	s0,sp,128
    1a94:	0705                	addi	a4,a4,1
    1a96:	0200                	addi	s0,sp,256
    1a98:	0604                	addi	s1,sp,768
    1a9a:	0306                	slli	t1,t1,0x1
    1a9c:	0900                	addi	s0,sp,144
    1a9e:	0004                	0x4
    1aa0:	0501                	addi	a0,a0,0
    1aa2:	0005                	c.nop	1
    1aa4:	0402                	c.slli64	s0
    1aa6:	0306                	slli	t1,t1,0x1
    1aa8:	0901                	addi	s2,s2,0
    1aaa:	0004                	0x4
    1aac:	0501                	addi	a0,a0,0
    1aae:	04020007          	vluxei8.v	v0,(tp),v0,v0.t
    1ab2:	0302                	c.slli64	t1
    1ab4:	0902                	c.slli64	s2
    1ab6:	000c                	0xc
    1ab8:	0501                	addi	a0,a0,0
    1aba:	0005                	c.nop	1
    1abc:	0402                	c.slli64	s0
    1abe:	0302                	c.slli64	t1
    1ac0:	0900                	addi	s0,sp,144
    1ac2:	000c                	0xc
    1ac4:	0501                	addi	a0,a0,0
    1ac6:	04020007          	vluxei8.v	v0,(tp),v0,v0.t
    1aca:	0302                	c.slli64	t1
    1acc:	0901                	addi	s2,s2,0
    1ace:	0008                	0x8
    1ad0:	0001                	nop
    1ad2:	0402                	c.slli64	s0
    1ad4:	0302                	c.slli64	t1
    1ad6:	0901                	addi	s2,s2,0
    1ad8:	0018                	0x18
    1ada:	0501                	addi	a0,a0,0
    1adc:	001e                	c.slli	zero,0x7
    1ade:	0402                	c.slli64	s0
    1ae0:	0302                	c.slli64	t1
    1ae2:	0979                	addi	s2,s2,30
    1ae4:	0010                	0x10
    1ae6:	0501                	addi	a0,a0,0
    1ae8:	0402000f          	0x402000f
    1aec:	0301                	addi	t1,t1,0
    1aee:	0900                	addi	s0,sp,144
    1af0:	000c                	0xc
    1af2:	0501                	addi	a0,a0,0
    1af4:	0002                	c.slli64	zero
    1af6:	0402                	c.slli64	s0
    1af8:	0301                	addi	t1,t1,0
    1afa:	0900                	addi	s0,sp,144
    1afc:	0008                	0x8
    1afe:	0501                	addi	a0,a0,0
    1b00:	0304                	addi	s1,sp,384
    1b02:	0904                	addi	s1,sp,144
    1b04:	0008                	0x8
    1b06:	0501                	addi	a0,a0,0
    1b08:	09050307          	vlse8.v	v6,(a0),a6,v0.t
    1b0c:	0004                	0x4
    1b0e:	0501                	addi	a0,a0,0
    1b10:	0312                	slli	t1,t1,0x4
    1b12:	0901                	addi	s2,s2,0
    1b14:	000c                	0xc
    1b16:	0501                	addi	a0,a0,0
    1b18:	030a                	slli	t1,t1,0x2
    1b1a:	0900                	addi	s0,sp,144
    1b1c:	000c                	0xc
    1b1e:	0501                	addi	a0,a0,0
    1b20:	0301                	addi	t1,t1,0
    1b22:	0901                	addi	s2,s2,0
    1b24:	0004                	0x4
    1b26:	0301                	addi	t1,t1,0
    1b28:	00100903          	lb	s2,1(zero) # 1 <_start-0x21fff>
    1b2c:	0501                	addi	a0,a0,0
    1b2e:	0308                	addi	a0,sp,384
    1b30:	0905                	addi	s2,s2,1
    1b32:	0034                	addi	a3,sp,8
    1b34:	0501                	addi	a0,a0,0
    1b36:	0302                	c.slli64	t1
    1b38:	0900                	addi	s0,sp,144
    1b3a:	0004                	0x4
    1b3c:	0501                	addi	a0,a0,0
    1b3e:	000a                	c.slli	zero,0x2
    1b40:	0402                	c.slli64	s0
    1b42:	09010303          	lb	t1,144(sp)
    1b46:	0004                	0x4
    1b48:	0501                	addi	a0,a0,0
    1b4a:	001f 0402 0303      	0x3030402001f
    1b50:	0018097f          	0x18097f
    1b54:	0501                	addi	a0,a0,0
    1b56:	0402000f          	0x402000f
    1b5a:	0301                	addi	t1,t1,0
    1b5c:	0900                	addi	s0,sp,144
    1b5e:	000c                	0xc
    1b60:	0501                	addi	a0,a0,0
    1b62:	0002                	c.slli64	zero
    1b64:	0402                	c.slli64	s0
    1b66:	0301                	addi	t1,t1,0
    1b68:	0900                	addi	s0,sp,144
    1b6a:	0004                	0x4
    1b6c:	0501                	addi	a0,a0,0
    1b6e:	09020307          	vlse8.v	v6,(tp),a6,v0.t
    1b72:	000c                	0xc
    1b74:	0501                	addi	a0,a0,0
    1b76:	0304                	addi	s1,sp,384
    1b78:	0901                	addi	s2,s2,0
    1b7a:	0008                	0x8
    1b7c:	0501                	addi	a0,a0,0
    1b7e:	0308                	addi	a0,sp,384
    1b80:	0901                	addi	s2,s2,0
    1b82:	000c                	0xc
    1b84:	0501                	addi	a0,a0,0
    1b86:	0306                	slli	t1,t1,0x1
    1b88:	0902                	c.slli64	s2
    1b8a:	0008                	0x8
    1b8c:	0501                	addi	a0,a0,0
    1b8e:	0309                	addi	t1,t1,2
    1b90:	0902                	c.slli64	s2
    1b92:	0004                	0x4
    1b94:	0501                	addi	a0,a0,0
    1b96:	0305                	addi	t1,t1,1
    1b98:	0900                	addi	s0,sp,144
    1b9a:	0010                	0x10
    1b9c:	0301                	addi	t1,t1,0
    1b9e:	0901                	addi	s2,s2,0
    1ba0:	0004                	0x4
    1ba2:	0501                	addi	a0,a0,0
    1ba4:	0316                	slli	t1,t1,0x5
    1ba6:	0901                	addi	s2,s2,0
    1ba8:	0010                	0x10
    1baa:	0501                	addi	a0,a0,0
    1bac:	030d                	addi	t1,t1,3
    1bae:	0900                	addi	s0,sp,144
    1bb0:	0010                	0x10
    1bb2:	0501                	addi	a0,a0,0
    1bb4:	0311                	addi	t1,t1,4
    1bb6:	0902                	c.slli64	s2
    1bb8:	0014                	0x14
    1bba:	0501                	addi	a0,a0,0
    1bbc:	030d                	addi	t1,t1,3
    1bbe:	0900                	addi	s0,sp,144
    1bc0:	0010                	0x10
    1bc2:	0501                	addi	a0,a0,0
    1bc4:	0305                	addi	t1,t1,1
    1bc6:	0901                	addi	s2,s2,0
    1bc8:	0010                	0x10
    1bca:	0501                	addi	a0,a0,0
    1bcc:	0306                	slli	t1,t1,0x1
    1bce:	0901                	addi	s2,s2,0
    1bd0:	0010                	0x10
    1bd2:	0501                	addi	a0,a0,0
    1bd4:	0302                	c.slli64	t1
    1bd6:	0901                	addi	s2,s2,0
    1bd8:	000c                	0xc
    1bda:	0501                	addi	a0,a0,0
    1bdc:	0304                	addi	s1,sp,384
    1bde:	0902                	c.slli64	s2
    1be0:	000c                	0xc
    1be2:	0501                	addi	a0,a0,0
    1be4:	0309                	addi	t1,t1,2
    1be6:	0902                	c.slli64	s2
    1be8:	000c                	0xc
    1bea:	0501                	addi	a0,a0,0
    1bec:	0305                	addi	t1,t1,1
    1bee:	0900                	addi	s0,sp,144
    1bf0:	0004                	0x4
    1bf2:	0501                	addi	a0,a0,0
    1bf4:	09010307          	vlse8.v	v6,(sp),a6,v0.t
    1bf8:	000c                	0xc
    1bfa:	0501                	addi	a0,a0,0
    1bfc:	0305                	addi	t1,t1,1
    1bfe:	0901                	addi	s2,s2,0
    1c00:	0008                	0x8
    1c02:	0501                	addi	a0,a0,0
    1c04:	0308                	addi	a0,sp,384
    1c06:	0901                	addi	s2,s2,0
    1c08:	0014                	0x14
    1c0a:	0501                	addi	a0,a0,0
    1c0c:	0902030b          	0x902030b
    1c10:	0008                	0x8
    1c12:	0501                	addi	a0,a0,0
    1c14:	0308                	addi	a0,sp,384
    1c16:	0902                	c.slli64	s2
    1c18:	0010                	0x10
    1c1a:	0501                	addi	a0,a0,0
    1c1c:	0302                	c.slli64	t1
    1c1e:	0900                	addi	s0,sp,144
    1c20:	000c                	0xc
    1c22:	0501                	addi	a0,a0,0
    1c24:	04020003          	lb	zero,64(tp) # ffffffffffff8040 <_ebss+0xfffffffffffd0e28>
    1c28:	09010303          	lb	t1,144(sp)
    1c2c:	0004                	0x4
    1c2e:	0501                	addi	a0,a0,0
    1c30:	001c                	0x1c
    1c32:	0402                	c.slli64	s0
    1c34:	097f0303          	lb	t1,151(t5) # 1a097 <_start-0x7f69>
    1c38:	0018                	0x18
    1c3a:	0501                	addi	a0,a0,0
    1c3c:	0002                	c.slli64	zero
    1c3e:	0402                	c.slli64	s0
    1c40:	0301                	addi	t1,t1,0
    1c42:	0900                	addi	s0,sp,144
    1c44:	000c                	0xc
    1c46:	0501                	addi	a0,a0,0
    1c48:	0301                	addi	t1,t1,0
    1c4a:	0902                	c.slli64	s2
    1c4c:	000c                	0xc
    1c4e:	0301                	addi	t1,t1,0
    1c50:	00180903          	lb	s2,1(a6)
    1c54:	0501                	addi	a0,a0,0
    1c56:	0305                	addi	t1,t1,1
    1c58:	0905                	addi	s2,s2,1
    1c5a:	0018                	0x18
    1c5c:	0501                	addi	a0,a0,0
    1c5e:	0308                	addi	a0,sp,384
    1c60:	0901                	addi	s2,s2,0
    1c62:	0008                	0x8
    1c64:	0501                	addi	a0,a0,0
    1c66:	0302                	c.slli64	t1
    1c68:	0900                	addi	s0,sp,144
    1c6a:	0008                	0x8
    1c6c:	0501                	addi	a0,a0,0
    1c6e:	0305                	addi	t1,t1,1
    1c70:	0902                	c.slli64	s2
    1c72:	0004                	0x4
    1c74:	0501                	addi	a0,a0,0
    1c76:	0306                	slli	t1,t1,0x1
    1c78:	0901                	addi	s2,s2,0
    1c7a:	0004                	0x4
    1c7c:	0501                	addi	a0,a0,0
    1c7e:	09010307          	vlse8.v	v6,(sp),a6,v0.t
    1c82:	0004                	0x4
    1c84:	0501                	addi	a0,a0,0
    1c86:	0305                	addi	t1,t1,1
    1c88:	0900                	addi	s0,sp,144
    1c8a:	0008                	0x8
    1c8c:	0301                	addi	t1,t1,0
    1c8e:	0901                	addi	s2,s2,0
    1c90:	0004                	0x4
    1c92:	0501                	addi	a0,a0,0
    1c94:	0306                	slli	t1,t1,0x1
    1c96:	0901                	addi	s2,s2,0
    1c98:	0008                	0x8
    1c9a:	0501                	addi	a0,a0,0
    1c9c:	0305                	addi	t1,t1,1
    1c9e:	0900                	addi	s0,sp,144
    1ca0:	0008                	0x8
    1ca2:	0501                	addi	a0,a0,0
    1ca4:	0306                	slli	t1,t1,0x1
    1ca6:	0902                	c.slli64	s2
    1ca8:	000c                	0xc
    1caa:	0501                	addi	a0,a0,0
    1cac:	0305                	addi	t1,t1,1
    1cae:	0901                	addi	s2,s2,0
    1cb0:	0008                	0x8
    1cb2:	0501                	addi	a0,a0,0
    1cb4:	09010307          	vlse8.v	v6,(sp),a6,v0.t
    1cb8:	000c                	0xc
    1cba:	0501                	addi	a0,a0,0
    1cbc:	0306                	slli	t1,t1,0x1
    1cbe:	0900                	addi	s0,sp,144
    1cc0:	0008                	0x8
    1cc2:	0501                	addi	a0,a0,0
    1cc4:	0014                	0x14
    1cc6:	0402                	c.slli64	s0
    1cc8:	0301                	addi	t1,t1,0
    1cca:	0900                	addi	s0,sp,144
    1ccc:	000c                	0xc
    1cce:	0501                	addi	a0,a0,0
    1cd0:	0011                	c.nop	4
    1cd2:	0402                	c.slli64	s0
    1cd4:	0301                	addi	t1,t1,0
    1cd6:	0900                	addi	s0,sp,144
    1cd8:	0008                	0x8
    1cda:	0501                	addi	a0,a0,0
    1cdc:	030a                	slli	t1,t1,0x2
    1cde:	0901                	addi	s2,s2,0
    1ce0:	000c                	0xc
    1ce2:	0501                	addi	a0,a0,0
    1ce4:	09000307          	vlse8.v	v6,(zero),a6,v0.t
    1ce8:	0018                	0x18
    1cea:	0501                	addi	a0,a0,0
    1cec:	0308                	addi	a0,sp,384
    1cee:	0901                	addi	s2,s2,0
    1cf0:	000c                	0xc
    1cf2:	0501                	addi	a0,a0,0
    1cf4:	0306                	slli	t1,t1,0x1
    1cf6:	0900                	addi	s0,sp,144
    1cf8:	0008                	0x8
    1cfa:	0501                	addi	a0,a0,0
    1cfc:	0305                	addi	t1,t1,1
    1cfe:	0902                	c.slli64	s2
    1d00:	0004                	0x4
    1d02:	0501                	addi	a0,a0,0
    1d04:	0011                	c.nop	4
    1d06:	0402                	c.slli64	s0
    1d08:	0301                	addi	t1,t1,0
    1d0a:	0900                	addi	s0,sp,144
    1d0c:	0010                	0x10
    1d0e:	0501                	addi	a0,a0,0
    1d10:	0308                	addi	a0,sp,384
    1d12:	0902                	c.slli64	s2
    1d14:	0010                	0x10
    1d16:	0501                	addi	a0,a0,0
    1d18:	0304                	addi	s1,sp,384
    1d1a:	0901                	addi	s2,s2,0
    1d1c:	0014                	0x14
    1d1e:	0501                	addi	a0,a0,0
    1d20:	030a                	slli	t1,t1,0x2
    1d22:	0904                	addi	s1,sp,144
    1d24:	0038                	addi	a4,sp,8
    1d26:	0501                	addi	a0,a0,0
    1d28:	0304                	addi	s1,sp,384
    1d2a:	0900                	addi	s0,sp,144
    1d2c:	0004                	0x4
    1d2e:	0501                	addi	a0,a0,0
    1d30:	0010                	0x10
    1d32:	0402                	c.slli64	s0
    1d34:	09010303          	lb	t1,144(sp)
    1d38:	0004                	0x4
    1d3a:	0501                	addi	a0,a0,0
    1d3c:	0005                	c.nop	1
    1d3e:	0402                	c.slli64	s0
    1d40:	09000303          	lb	t1,144(zero) # 90 <_start-0x21f70>
    1d44:	000c                	0xc
    1d46:	0501                	addi	a0,a0,0
    1d48:	001d                	c.nop	7
    1d4a:	0402                	c.slli64	s0
    1d4c:	097f0303          	lb	t1,151(t5)
    1d50:	000c                	0xc
    1d52:	0501                	addi	a0,a0,0
    1d54:	0011                	c.nop	4
    1d56:	0402                	c.slli64	s0
    1d58:	0301                	addi	t1,t1,0
    1d5a:	0900                	addi	s0,sp,144
    1d5c:	000c                	0xc
    1d5e:	0501                	addi	a0,a0,0
    1d60:	0016                	c.slli	zero,0x5
    1d62:	0402                	c.slli64	s0
    1d64:	0301                	addi	t1,t1,0
    1d66:	0900                	addi	s0,sp,144
    1d68:	0004                	0x4
    1d6a:	0501                	addi	a0,a0,0
    1d6c:	0004                	0x4
    1d6e:	0402                	c.slli64	s0
    1d70:	0301                	addi	t1,t1,0
    1d72:	0900                	addi	s0,sp,144
    1d74:	000c                	0xc
    1d76:	0501                	addi	a0,a0,0
    1d78:	0308                	addi	a0,sp,384
    1d7a:	0902                	c.slli64	s2
    1d7c:	0004                	0x4
    1d7e:	0001                	nop
    1d80:	0402                	c.slli64	s0
    1d82:	0601                	addi	a2,a2,0
    1d84:	0c090003          	lb	zero,192(s2)
    1d88:	0100                	addi	s0,sp,128
    1d8a:	0200                	addi	s0,sp,256
    1d8c:	0204                	addi	s1,sp,256
    1d8e:	0c090003          	lb	zero,192(s2)
    1d92:	0100                	addi	s0,sp,128
    1d94:	0605                	addi	a2,a2,1
    1d96:	0200                	addi	s0,sp,256
    1d98:	0404                	addi	s1,sp,512
    1d9a:	0306                	slli	t1,t1,0x1
    1d9c:	0900                	addi	s0,sp,144
    1d9e:	0008                	0x8
    1da0:	0501                	addi	a0,a0,0
    1da2:	0004                	0x4
    1da4:	0402                	c.slli64	s0
    1da6:	0304                	addi	s1,sp,384
    1da8:	0901                	addi	s2,s2,0
    1daa:	0004                	0x4
    1dac:	0501                	addi	a0,a0,0
    1dae:	001c                	0x1c
    1db0:	0402                	c.slli64	s0
    1db2:	0302                	c.slli64	t1
    1db4:	0968                	addi	a0,sp,156
    1db6:	000c                	0xc
    1db8:	0501                	addi	a0,a0,0
    1dba:	0402000f          	0x402000f
    1dbe:	0301                	addi	t1,t1,0
    1dc0:	0900                	addi	s0,sp,144
    1dc2:	000c                	0xc
    1dc4:	0501                	addi	a0,a0,0
    1dc6:	0002                	c.slli64	zero
    1dc8:	0402                	c.slli64	s0
    1dca:	0301                	addi	t1,t1,0
    1dcc:	0900                	addi	s0,sp,144
    1dce:	0008                	0x8
    1dd0:	0501                	addi	a0,a0,0
    1dd2:	0309                	addi	t1,t1,2
    1dd4:	0004091b          	sext.w	s2,s0
    1dd8:	0501                	addi	a0,a0,0
    1dda:	0301                	addi	t1,t1,0
    1ddc:	0901                	addi	s2,s2,0
    1dde:	0004                	0x4
    1de0:	0301                	addi	t1,t1,0
    1de2:	00140903          	lb	s2,1(s0)
    1de6:	0501                	addi	a0,a0,0
    1de8:	0302                	c.slli64	t1
    1dea:	0904                	addi	s1,sp,144
    1dec:	0030                	addi	a2,sp,8
    1dee:	0301                	addi	t1,t1,0
    1df0:	0901                	addi	s2,s2,0
    1df2:	0014                	0x14
    1df4:	0501                	addi	a0,a0,0
    1df6:	0309                	addi	t1,t1,2
    1df8:	00100903          	lb	s2,1(zero) # 1 <_start-0x21fff>
    1dfc:	0501                	addi	a0,a0,0
    1dfe:	0301                	addi	t1,t1,0
    1e00:	0901                	addi	s2,s2,0
    1e02:	0004                	0x4
    1e04:	0301                	addi	t1,t1,0
    1e06:	0904                	addi	s1,sp,144
    1e08:	0014                	0x14
    1e0a:	0501                	addi	a0,a0,0
    1e0c:	0305                	addi	t1,t1,1
    1e0e:	0904                	addi	s1,sp,144
    1e10:	0018                	0x18
    1e12:	0301                	addi	t1,t1,0
    1e14:	0901                	addi	s2,s2,0
    1e16:	0008                	0x8
    1e18:	0501                	addi	a0,a0,0
    1e1a:	030c                	addi	a1,sp,384
    1e1c:	0902                	c.slli64	s2
    1e1e:	0008                	0x8
    1e20:	0501                	addi	a0,a0,0
    1e22:	0305                	addi	t1,t1,1
    1e24:	0900                	addi	s0,sp,144
    1e26:	0008                	0x8
    1e28:	0501                	addi	a0,a0,0
    1e2a:	09020317          	auipc	t1,0x9020
    1e2e:	0004                	0x4
    1e30:	0501                	addi	a0,a0,0
    1e32:	09000313          	li	t1,144
    1e36:	000c                	0xc
    1e38:	0501                	addi	a0,a0,0
    1e3a:	031c                	addi	a5,sp,384
    1e3c:	0900                	addi	s0,sp,144
    1e3e:	0010                	0x10
    1e40:	0501                	addi	a0,a0,0
    1e42:	030e                	slli	t1,t1,0x3
    1e44:	0900                	addi	s0,sp,144
    1e46:	0004                	0x4
    1e48:	0501                	addi	a0,a0,0
    1e4a:	030c                	addi	a1,sp,384
    1e4c:	0901                	addi	s2,s2,0
    1e4e:	0008                	0x8
    1e50:	0501                	addi	a0,a0,0
    1e52:	030d                	addi	t1,t1,3
    1e54:	0901                	addi	s2,s2,0
    1e56:	0010                	0x10
    1e58:	0301                	addi	t1,t1,0
    1e5a:	0902                	c.slli64	s2
    1e5c:	001c                	0x1c
    1e5e:	0501                	addi	a0,a0,0
    1e60:	001a                	c.slli	zero,0x6
    1e62:	0402                	c.slli64	s0
    1e64:	0302                	c.slli64	t1
    1e66:	097a                	slli	s2,s2,0x1e
    1e68:	0018                	0x18
    1e6a:	0501                	addi	a0,a0,0
    1e6c:	0005                	c.nop	1
    1e6e:	0402                	c.slli64	s0
    1e70:	0301                	addi	t1,t1,0
    1e72:	0900                	addi	s0,sp,144
    1e74:	000c                	0xc
    1e76:	0501                	addi	a0,a0,0
    1e78:	0301                	addi	t1,t1,0
    1e7a:	0908                	addi	a0,sp,144
    1e7c:	000c                	0xc
    1e7e:	0901                	addi	s2,s2,0
    1e80:	0018                	0x18
    1e82:	0100                	addi	s0,sp,128
    1e84:	7101                	addi	sp,sp,-512
    1e86:	0002                	c.slli64	zero
    1e88:	0300                	addi	s0,sp,384
    1e8a:	2500                	fld	fs0,8(a0)
    1e8c:	0000                	unimp
    1e8e:	0100                	addi	s0,sp,128
    1e90:	fb01                	bnez	a4,1da0 <_start-0x20260>
    1e92:	0d0e                	slli	s10,s10,0x3
    1e94:	0100                	addi	s0,sp,128
    1e96:	0101                	addi	sp,sp,0
    1e98:	0001                	nop
    1e9a:	0000                	unimp
    1e9c:	0001                	nop
    1e9e:	0100                	addi	s0,sp,128
    1ea0:	00637273          	csrrci	tp,0x6,6
    1ea4:	6100                	ld	s0,0(a0)
    1ea6:	745f6d73          	csrrsi	s10,0x745,30
    1eaa:	7365                	lui	t1,0xffff9
    1eac:	2e74                	fld	fa3,216(a2)
    1eae:	00010053          	fadd.s	ft0,ft2,ft0,rne
    1eb2:	0000                	unimp
    1eb4:	0900                	addi	s0,sp,144
    1eb6:	c002                	sw	zero,0(sp)
    1eb8:	0000024b          	fnmsub.s	ft4,ft0,ft0,ft0,rne
    1ebc:	0000                	unimp
    1ebe:	1900                	addi	s0,sp,176
    1ec0:	04090203          	lb	tp,64(s2)
    1ec4:	0100                	addi	s0,sp,128
    1ec6:	04090103          	lb	sp,64(s2)
    1eca:	0100                	addi	s0,sp,128
    1ecc:	04090103          	lb	sp,64(s2)
    1ed0:	0100                	addi	s0,sp,128
    1ed2:	04090103          	lb	sp,64(s2)
    1ed6:	0100                	addi	s0,sp,128
    1ed8:	04090103          	lb	sp,64(s2)
    1edc:	0100                	addi	s0,sp,128
    1ede:	04090203          	lb	tp,64(s2)
    1ee2:	0100                	addi	s0,sp,128
    1ee4:	08090103          	lb	sp,128(s2)
    1ee8:	0100                	addi	s0,sp,128
    1eea:	08090203          	lb	tp,128(s2)
    1eee:	0100                	addi	s0,sp,128
    1ef0:	04090103          	lb	sp,64(s2)
    1ef4:	0100                	addi	s0,sp,128
    1ef6:	04090103          	lb	sp,64(s2)
    1efa:	0100                	addi	s0,sp,128
    1efc:	04090403          	lb	s0,64(s2)
    1f00:	0100                	addi	s0,sp,128
    1f02:	0c090103          	lb	sp,192(s2)
    1f06:	0100                	addi	s0,sp,128
    1f08:	04090103          	lb	sp,64(s2)
    1f0c:	0100                	addi	s0,sp,128
    1f0e:	04090203          	lb	tp,64(s2)
    1f12:	0100                	addi	s0,sp,128
    1f14:	0c090103          	lb	sp,192(s2)
    1f18:	0100                	addi	s0,sp,128
    1f1a:	04090103          	lb	sp,64(s2)
    1f1e:	0100                	addi	s0,sp,128
    1f20:	04090103          	lb	sp,64(s2)
    1f24:	0100                	addi	s0,sp,128
    1f26:	04090203          	lb	tp,64(s2)
    1f2a:	0100                	addi	s0,sp,128
    1f2c:	0c090103          	lb	sp,192(s2)
    1f30:	0100                	addi	s0,sp,128
    1f32:	04090103          	lb	sp,64(s2)
    1f36:	0100                	addi	s0,sp,128
    1f38:	04090103          	lb	sp,64(s2)
    1f3c:	0100                	addi	s0,sp,128
    1f3e:	04090103          	lb	sp,64(s2)
    1f42:	0100                	addi	s0,sp,128
    1f44:	04090603          	lb	a2,64(s2)
    1f48:	0100                	addi	s0,sp,128
    1f4a:	04090203          	lb	tp,64(s2)
    1f4e:	0100                	addi	s0,sp,128
    1f50:	0c090103          	lb	sp,192(s2)
    1f54:	0100                	addi	s0,sp,128
    1f56:	04090203          	lb	tp,64(s2)
    1f5a:	0100                	addi	s0,sp,128
    1f5c:	04090103          	lb	sp,64(s2)
    1f60:	0100                	addi	s0,sp,128
    1f62:	04090103          	lb	sp,64(s2)
    1f66:	0100                	addi	s0,sp,128
    1f68:	04090203          	lb	tp,64(s2)
    1f6c:	0100                	addi	s0,sp,128
    1f6e:	04090103          	lb	sp,64(s2)
    1f72:	0100                	addi	s0,sp,128
    1f74:	04090203          	lb	tp,64(s2)
    1f78:	0100                	addi	s0,sp,128
    1f7a:	0c090103          	lb	sp,192(s2)
    1f7e:	0100                	addi	s0,sp,128
    1f80:	04090203          	lb	tp,64(s2)
    1f84:	0100                	addi	s0,sp,128
    1f86:	04090103          	lb	sp,64(s2)
    1f8a:	0100                	addi	s0,sp,128
    1f8c:	04090103          	lb	sp,64(s2)
    1f90:	0100                	addi	s0,sp,128
    1f92:	04090403          	lb	s0,64(s2)
    1f96:	0100                	addi	s0,sp,128
    1f98:	04090103          	lb	sp,64(s2)
    1f9c:	0100                	addi	s0,sp,128
    1f9e:	04090103          	lb	sp,64(s2)
    1fa2:	0100                	addi	s0,sp,128
    1fa4:	04090503          	lb	a0,64(s2)
    1fa8:	0100                	addi	s0,sp,128
    1faa:	04090103          	lb	sp,64(s2)
    1fae:	0100                	addi	s0,sp,128
    1fb0:	04090203          	lb	tp,64(s2)
    1fb4:	0100                	addi	s0,sp,128
    1fb6:	04090103          	lb	sp,64(s2)
    1fba:	0100                	addi	s0,sp,128
    1fbc:	04090203          	lb	tp,64(s2)
    1fc0:	0100                	addi	s0,sp,128
    1fc2:	04090103          	lb	sp,64(s2)
    1fc6:	0100                	addi	s0,sp,128
    1fc8:	04090303          	lb	t1,64(s2)
    1fcc:	0100                	addi	s0,sp,128
    1fce:	04090103          	lb	sp,64(s2)
    1fd2:	0100                	addi	s0,sp,128
    1fd4:	04090103          	lb	sp,64(s2)
    1fd8:	0100                	addi	s0,sp,128
    1fda:	04090503          	lb	a0,64(s2)
    1fde:	0100                	addi	s0,sp,128
    1fe0:	04090103          	lb	sp,64(s2)
    1fe4:	0100                	addi	s0,sp,128
    1fe6:	04090103          	lb	sp,64(s2)
    1fea:	0100                	addi	s0,sp,128
    1fec:	04090303          	lb	t1,64(s2)
    1ff0:	0100                	addi	s0,sp,128
    1ff2:	04090103          	lb	sp,64(s2)
    1ff6:	0100                	addi	s0,sp,128
    1ff8:	04090103          	lb	sp,64(s2)
    1ffc:	0100                	addi	s0,sp,128
    1ffe:	04090103          	lb	sp,64(s2)
    2002:	0100                	addi	s0,sp,128
    2004:	04090103          	lb	sp,64(s2)
    2008:	0100                	addi	s0,sp,128
    200a:	04090203          	lb	tp,64(s2)
    200e:	0100                	addi	s0,sp,128
    2010:	04090403          	lb	s0,64(s2)
    2014:	0100                	addi	s0,sp,128
    2016:	04090103          	lb	sp,64(s2)
    201a:	0100                	addi	s0,sp,128
    201c:	04090103          	lb	sp,64(s2)
    2020:	0100                	addi	s0,sp,128
    2022:	04090203          	lb	tp,64(s2)
    2026:	0100                	addi	s0,sp,128
    2028:	04090203          	lb	tp,64(s2)
    202c:	0100                	addi	s0,sp,128
    202e:	04090103          	lb	sp,64(s2)
    2032:	0100                	addi	s0,sp,128
    2034:	04090503          	lb	a0,64(s2)
    2038:	0100                	addi	s0,sp,128
    203a:	04090103          	lb	sp,64(s2)
    203e:	0100                	addi	s0,sp,128
    2040:	04090103          	lb	sp,64(s2)
    2044:	0100                	addi	s0,sp,128
    2046:	04090203          	lb	tp,64(s2)
    204a:	0100                	addi	s0,sp,128
    204c:	04090203          	lb	tp,64(s2)
    2050:	0100                	addi	s0,sp,128
    2052:	04090103          	lb	sp,64(s2)
    2056:	0100                	addi	s0,sp,128
    2058:	04090403          	lb	s0,64(s2)
    205c:	0100                	addi	s0,sp,128
    205e:	04090103          	lb	sp,64(s2)
    2062:	0100                	addi	s0,sp,128
    2064:	04090203          	lb	tp,64(s2)
    2068:	0100                	addi	s0,sp,128
    206a:	04090203          	lb	tp,64(s2)
    206e:	0100                	addi	s0,sp,128
    2070:	04090103          	lb	sp,64(s2)
    2074:	0100                	addi	s0,sp,128
    2076:	04090103          	lb	sp,64(s2)
    207a:	0100                	addi	s0,sp,128
    207c:	40092603          	lw	a2,1024(s2)
    2080:	0100                	addi	s0,sp,128
    2082:	04090103          	lb	sp,64(s2)
    2086:	0100                	addi	s0,sp,128
    2088:	04090403          	lb	s0,64(s2)
    208c:	0100                	addi	s0,sp,128
    208e:	04090103          	lb	sp,64(s2)
    2092:	0100                	addi	s0,sp,128
    2094:	04090403          	lb	s0,64(s2)
    2098:	0100                	addi	s0,sp,128
    209a:	04090103          	lb	sp,64(s2)
    209e:	0100                	addi	s0,sp,128
    20a0:	04090203          	lb	tp,64(s2)
    20a4:	0100                	addi	s0,sp,128
    20a6:	04090103          	lb	sp,64(s2)
    20aa:	0100                	addi	s0,sp,128
    20ac:	04090203          	lb	tp,64(s2)
    20b0:	0100                	addi	s0,sp,128
    20b2:	0c090203          	lb	tp,192(s2)
    20b6:	0100                	addi	s0,sp,128
    20b8:	04090103          	lb	sp,64(s2)
    20bc:	0100                	addi	s0,sp,128
    20be:	04090103          	lb	sp,64(s2)
    20c2:	0100                	addi	s0,sp,128
    20c4:	04090403          	lb	s0,64(s2)
    20c8:	0100                	addi	s0,sp,128
    20ca:	04090103          	lb	sp,64(s2)
    20ce:	0100                	addi	s0,sp,128
    20d0:	04090203          	lb	tp,64(s2)
    20d4:	0100                	addi	s0,sp,128
    20d6:	04090103          	lb	sp,64(s2)
    20da:	0100                	addi	s0,sp,128
    20dc:	04090203          	lb	tp,64(s2)
    20e0:	0100                	addi	s0,sp,128
    20e2:	0c090203          	lb	tp,192(s2)
    20e6:	0100                	addi	s0,sp,128
    20e8:	04090103          	lb	sp,64(s2)
    20ec:	0100                	addi	s0,sp,128
    20ee:	04090103          	lb	sp,64(s2)
    20f2:	0100                	addi	s0,sp,128
    20f4:	0409                	addi	s0,s0,2
    20f6:	0000                	unimp
    20f8:	0101                	addi	sp,sp,0
    20fa:	0000007b          	0x7b
    20fe:	00210003          	lb	zero,2(sp)
    2102:	0000                	unimp
    2104:	0101                	addi	sp,sp,0
    2106:	000d0efb          	0xd0efb
    210a:	0101                	addi	sp,sp,0
    210c:	0101                	addi	sp,sp,0
    210e:	0000                	unimp
    2110:	0100                	addi	s0,sp,128
    2112:	0000                	unimp
    2114:	7301                	lui	t1,0xfffe0
    2116:	6372                	ld	t1,280(sp)
    2118:	0000                	unimp
    211a:	6f62                	ld	t5,24(sp)
    211c:	532e746f          	jal	s0,e964e <_ebss+0xc2436>
    2120:	0100                	addi	s0,sp,128
    2122:	0000                	unimp
    2124:	0000                	unimp
    2126:	0209                	addi	tp,tp,2
    2128:	2000                	fld	fs0,0(s0)
    212a:	0002                	c.slli64	zero
    212c:	0000                	unimp
    212e:	0000                	unimp
    2130:	09020317          	auipc	t1,0x9020
    2134:	0004                	0x4
    2136:	0301                	addi	t1,t1,0
    2138:	0901                	addi	s2,s2,0
    213a:	0004                	0x4
    213c:	0301                	addi	t1,t1,0
    213e:	00080903          	lb	s2,0(a6)
    2142:	0301                	addi	t1,t1,0
    2144:	0901                	addi	s2,s2,0
    2146:	0008                	0x8
    2148:	0301                	addi	t1,t1,0
    214a:	0901                	addi	s2,s2,0
    214c:	0004                	0x4
    214e:	0301                	addi	t1,t1,0
    2150:	00040903          	lb	s2,0(s0)
    2154:	0301                	addi	t1,t1,0
    2156:	0904                	addi	s1,sp,144
    2158:	0004                	0x4
    215a:	0301                	addi	t1,t1,0
    215c:	0902                	c.slli64	s2
    215e:	0004                	0x4
    2160:	0301                	addi	t1,t1,0
    2162:	0901                	addi	s2,s2,0
    2164:	0008                	0x8
    2166:	0301                	addi	t1,t1,0
    2168:	00040903          	lb	s2,0(s0)
    216c:	0301                	addi	t1,t1,0
    216e:	0901                	addi	s2,s2,0
    2170:	0004                	0x4
    2172:	0901                	addi	s2,s2,0
    2174:	0004                	0x4
    2176:	0100                	addi	s0,sp,128
    2178:	7501                	lui	a0,0xfffe0
    217a:	0001                	nop
    217c:	0300                	addi	s0,sp,384
    217e:	2900                	fld	fs0,16(a0)
    2180:	0000                	unimp
    2182:	0100                	addi	s0,sp,128
    2184:	fb01                	bnez	a4,2094 <_start-0x1ff6c>
    2186:	0d0e                	slli	s10,s10,0x3
    2188:	0100                	addi	s0,sp,128
    218a:	0101                	addi	sp,sp,0
    218c:	0001                	nop
    218e:	0000                	unimp
    2190:	0001                	nop
    2192:	0100                	addi	s0,sp,128
    2194:	00637273          	csrrci	tp,0x6,6
    2198:	6500                	ld	s0,8(a0)
    219a:	7261                	lui	tp,0xffff8
    219c:	796c                	ld	a1,240(a0)
    219e:	705f 6972 746e      	0x746e6972705f
    21a4:	00532e6b          	0x532e6b
    21a8:	0001                	nop
    21aa:	0000                	unimp
    21ac:	0900                	addi	s0,sp,144
    21ae:	c002                	sw	zero,0(sp)
    21b0:	024d                	addi	tp,tp,19
    21b2:	0000                	unimp
    21b4:	0000                	unimp
    21b6:	0300                	addi	s0,sp,384
    21b8:	0109                	addi	sp,sp,2
    21ba:	08090103          	lb	sp,128(s2)
    21be:	0100                	addi	s0,sp,128
    21c0:	04090303          	lb	t1,64(s2)
    21c4:	0100                	addi	s0,sp,128
    21c6:	08090103          	lb	sp,128(s2)
    21ca:	0100                	addi	s0,sp,128
    21cc:	04090303          	lb	t1,64(s2)
    21d0:	0100                	addi	s0,sp,128
    21d2:	08090103          	lb	sp,128(s2)
    21d6:	0100                	addi	s0,sp,128
    21d8:	04090303          	lb	t1,64(s2)
    21dc:	0100                	addi	s0,sp,128
    21de:	04090703          	lb	a4,64(s2)
    21e2:	0100                	addi	s0,sp,128
    21e4:	08090103          	lb	sp,128(s2)
    21e8:	0100                	addi	s0,sp,128
    21ea:	04090103          	lb	sp,64(s2)
    21ee:	0100                	addi	s0,sp,128
    21f0:	04090103          	lb	sp,64(s2)
    21f4:	0100                	addi	s0,sp,128
    21f6:	04090603          	lb	a2,64(s2)
    21fa:	0100                	addi	s0,sp,128
    21fc:	08090103          	lb	sp,128(s2)
    2200:	0100                	addi	s0,sp,128
    2202:	04090103          	lb	sp,64(s2)
    2206:	0100                	addi	s0,sp,128
    2208:	04090103          	lb	sp,64(s2)
    220c:	0100                	addi	s0,sp,128
    220e:	04090103          	lb	sp,64(s2)
    2212:	0100                	addi	s0,sp,128
    2214:	04091103          	lh	sp,64(s2)
    2218:	0100                	addi	s0,sp,128
    221a:	04090303          	lb	t1,64(s2)
    221e:	0100                	addi	s0,sp,128
    2220:	04090303          	lb	t1,64(s2)
    2224:	0100                	addi	s0,sp,128
    2226:	04090103          	lb	sp,64(s2)
    222a:	0100                	addi	s0,sp,128
    222c:	04090303          	lb	t1,64(s2)
    2230:	0100                	addi	s0,sp,128
    2232:	04090303          	lb	t1,64(s2)
    2236:	0100                	addi	s0,sp,128
    2238:	04090103          	lb	sp,64(s2)
    223c:	0100                	addi	s0,sp,128
    223e:	04090103          	lb	sp,64(s2)
    2242:	0100                	addi	s0,sp,128
    2244:	04090403          	lb	s0,64(s2)
    2248:	0100                	addi	s0,sp,128
    224a:	04090103          	lb	sp,64(s2)
    224e:	0100                	addi	s0,sp,128
    2250:	04090103          	lb	sp,64(s2)
    2254:	0100                	addi	s0,sp,128
    2256:	04090103          	lb	sp,64(s2)
    225a:	0100                	addi	s0,sp,128
    225c:	04090303          	lb	t1,64(s2)
    2260:	0100                	addi	s0,sp,128
    2262:	04090103          	lb	sp,64(s2)
    2266:	0100                	addi	s0,sp,128
    2268:	04090303          	lb	t1,64(s2)
    226c:	0100                	addi	s0,sp,128
    226e:	04090103          	lb	sp,64(s2)
    2272:	0100                	addi	s0,sp,128
    2274:	04090103          	lb	sp,64(s2)
    2278:	0100                	addi	s0,sp,128
    227a:	04090103          	lb	sp,64(s2)
    227e:	0100                	addi	s0,sp,128
    2280:	04090103          	lb	sp,64(s2)
    2284:	0100                	addi	s0,sp,128
    2286:	04090103          	lb	sp,64(s2)
    228a:	0100                	addi	s0,sp,128
    228c:	04090203          	lb	tp,64(s2)
    2290:	0100                	addi	s0,sp,128
    2292:	04090403          	lb	s0,64(s2)
    2296:	0100                	addi	s0,sp,128
    2298:	04090303          	lb	t1,64(s2)
    229c:	0100                	addi	s0,sp,128
    229e:	04090103          	lb	sp,64(s2)
    22a2:	0100                	addi	s0,sp,128
    22a4:	04090103          	lb	sp,64(s2)
    22a8:	0100                	addi	s0,sp,128
    22aa:	04090103          	lb	sp,64(s2)
    22ae:	0100                	addi	s0,sp,128
    22b0:	04090203          	lb	tp,64(s2)
    22b4:	0100                	addi	s0,sp,128
    22b6:	04090503          	lb	a0,64(s2)
    22ba:	0100                	addi	s0,sp,128
    22bc:	04090103          	lb	sp,64(s2)
    22c0:	0100                	addi	s0,sp,128
    22c2:	04090303          	lb	t1,64(s2)
    22c6:	0100                	addi	s0,sp,128
    22c8:	04090103          	lb	sp,64(s2)
    22cc:	0100                	addi	s0,sp,128
    22ce:	04090103          	lb	sp,64(s2)
    22d2:	0100                	addi	s0,sp,128
    22d4:	04090103          	lb	sp,64(s2)
    22d8:	0100                	addi	s0,sp,128
    22da:	04090103          	lb	sp,64(s2)
    22de:	0100                	addi	s0,sp,128
    22e0:	04090303          	lb	t1,64(s2)
    22e4:	0100                	addi	s0,sp,128
    22e6:	04090103          	lb	sp,64(s2)
    22ea:	0100                	addi	s0,sp,128
    22ec:	0409                	addi	s0,s0,2
    22ee:	0000                	unimp
    22f0:	0101                	addi	sp,sp,0
    22f2:	0059                	c.nop	22
    22f4:	0000                	unimp
    22f6:	00230003          	lb	zero,2(t1) # 9022132 <_ebss+0x8ffaf1a>
    22fa:	0000                	unimp
    22fc:	0101                	addi	sp,sp,0
    22fe:	000d0efb          	0xd0efb
    2302:	0101                	addi	sp,sp,0
    2304:	0101                	addi	sp,sp,0
    2306:	0000                	unimp
    2308:	0100                	addi	s0,sp,128
    230a:	0000                	unimp
    230c:	7301                	lui	t1,0xfffe0
    230e:	6372                	ld	t1,280(sp)
    2310:	0000                	unimp
    2312:	656d                	lui	a0,0x1b
    2314:	736d                	lui	t1,0xffffb
    2316:	7465                	lui	s0,0xffff9
    2318:	532e                	lw	t1,232(sp)
    231a:	0100                	addi	s0,sp,128
    231c:	0000                	unimp
    231e:	0000                	unimp
    2320:	0209                	addi	tp,tp,2
    2322:	4ea4                	lw	s1,88(a3)
    2324:	0002                	c.slli64	zero
    2326:	0000                	unimp
    2328:	0000                	unimp
    232a:	0314                	addi	a3,sp,384
    232c:	0902                	c.slli64	s2
    232e:	0004                	0x4
    2330:	0301                	addi	t1,t1,0
    2332:	0901                	addi	s2,s2,0
    2334:	0004                	0x4
    2336:	0301                	addi	t1,t1,0
    2338:	0901                	addi	s2,s2,0
    233a:	0004                	0x4
    233c:	0301                	addi	t1,t1,0
    233e:	0901                	addi	s2,s2,0
    2340:	0004                	0x4
    2342:	0301                	addi	t1,t1,0
    2344:	0902                	c.slli64	s2
    2346:	0004                	0x4
    2348:	0901                	addi	s2,s2,0
    234a:	0004                	0x4
    234c:	0100                	addi	s0,sp,128
    234e:	01              	Address 0x000000000000234e is out of bounds.


Disassembly of section .debug_str:

0000000000000000 <.debug_str>:
   0:	7270                	ld	a2,224(a2)
   2:	6e69                	lui	t3,0x1a
   4:	5f74                	lw	a3,124(a4)
   6:	656d                	lui	a0,0x1b
   8:	006d                	c.nop	27
   a:	655f 7362 0073      	0x737362655f
  10:	796d                	lui	s2,0xffffb
  12:	615f 6d73 615f      	0x615f6d73615f
  18:	6464                	ld	s1,200(s0)
  1a:	6d00                	ld	s0,24(a0)
  1c:	5f79                	li	t5,-2
  1e:	656d                	lui	a0,0x1b
  20:	636d                	lui	t1,0x1b
  22:	7970                	ld	a2,240(a0)
  24:	615f 6d73 745f      	0x745f6d73615f
  2a:	7365                	lui	t1,0xffff9
  2c:	3174                	fld	fa3,224(a0)
  2e:	7400                	ld	s0,40(s0)
  30:	7365                	lui	t1,0xffff9
  32:	5f74                	lw	a3,124(a4)
  34:	7361                	lui	t1,0xffff8
  36:	5f6d                	li	t5,-5
  38:	6f746f67          	0x6f746f67
  3c:	7600                	ld	s0,40(a2)
  3e:	6c61                	lui	s8,0x18
  40:	0031                	c.nop	12
  42:	3a45                	addiw	s4,s4,-15
  44:	5c5c                	lw	a5,60(s0)
  46:	3164                	fld	fs1,224(a0)
  48:	72705f73          	csrrwi	t5,0x727,0
  4c:	63656a6f          	jal	s4,56682 <_ebss+0x2f46a>
  50:	7374                	ld	a3,224(a4)
  52:	5c5c                	lw	a5,60(s0)
  54:	6972                	ld	s2,280(sp)
  56:	5f766373          	csrrsi	t1,shpmcounter23,12
  5a:	7270                	ld	a2,224(a2)
  5c:	6172676f          	jal	a4,26e72 <stacks_start+0xe72>
  60:	6d6d                	lui	s10,0x1b
  62:	6e69                	lui	t3,0x1a
  64:	72705f67          	0x72705f67
  68:	6361                	lui	t1,0x18
  6a:	6974                	ld	a3,208(a0)
  6c:	662d6563          	bltu	s10,sp,6d6 <_start-0x2192a>
  70:	642d726f          	jal	tp,d76b2 <_ebss+0xb049a>
  74:	73676e6f          	jal	t3,767aa <_ebss+0x4f592>
  78:	6168                	ld	a0,192(a0)
  7a:	5c6e                	lw	s8,248(sp)
  7c:	635c                	ld	a5,128(a4)
  7e:	6168                	ld	a0,192(a0)
  80:	7470                	ld	a2,232(s0)
  82:	7265                	lui	tp,0xffff9
  84:	375f 5c5c 616c      	0x616c5c5c375f
  8a:	3762                	fld	fa4,56(sp)
  8c:	362d                	addiw	a2,a2,-21
  8e:	5c5c                	lw	a5,60(s0)
  90:	6562                	ld	a0,24(sp)
  92:	6f6e                	ld	t5,216(sp)
  94:	616d0073          	0x616d0073
  98:	73006b73          	csrrsi	s6,0x730,0
  9c:	6174                	ld	a3,192(a0)
  9e:	7472                	ld	s0,312(sp)
  a0:	6600                	ld	s0,8(a2)
  a2:	646e756f          	jal	a0,e76e8 <_ebss+0xc04d0>
  a6:	6900                	ld	s0,16(a0)
  a8:	6c6e                	ld	s8,216(sp)
  aa:	6e69                	lui	t3,0x1a
  ac:	5f65                	li	t5,-7
  ae:	7361                	lui	t1,0xffff8
  b0:	5f6d                	li	t5,-5
  b2:	6574                	ld	a3,200(a0)
  b4:	5f007473          	csrrci	s0,shpmcounter16,0
  b8:	6574                	ld	a3,200(a0)
  ba:	7478                	ld	a4,232(s0)
  bc:	625f 6f6f 0074      	0x746f6f625f
  c2:	5f5f 7566 636e      	0x636e75665f5f
  c8:	5f5f 6600 6e75      	0x6e7566005f5f
  ce:	64615f63          	bge	sp,t1,72c <_start-0x218d4>
  d2:	7264                	ld	s1,224(a2)
  d4:	7500                	ld	s0,40(a0)
  d6:	736e                	ld	t1,248(sp)
  d8:	6769                	lui	a4,0x1a
  da:	656e                	ld	a0,216(sp)
  dc:	2064                	fld	fs1,192(s0)
  de:	72616863          	bltu	sp,t1,80e <_start-0x217f2>
  e2:	5f00                	lw	s0,56(a4)
  e4:	6465                	lui	s0,0x19
  e6:	7461                	lui	s0,0xffff8
  e8:	0061                	c.nop	24
  ea:	7566                	ld	a0,120(sp)
  ec:	636e                	ld	t1,216(sp)
  ee:	6e5f 6d75 735f      	0x735f6d756e5f
  f4:	6d79                	lui	s10,0x1e
  f6:	796d0073          	0x796d0073
  fa:	615f 6d73 615f      	0x615f6d73615f
 100:	646e                	ld	s0,216(sp)
 102:	7300                	ld	s0,32(a4)
 104:	6f68                	ld	a0,216(a4)
 106:	7472                	ld	s0,312(sp)
 108:	7520                	ld	s0,104(a0)
 10a:	736e                	ld	t1,248(sp)
 10c:	6769                	lui	a4,0x1a
 10e:	656e                	ld	a0,216(sp)
 110:	2064                	fld	fs1,192(s0)
 112:	6e69                	lui	t3,0x1a
 114:	0074                	addi	a3,sp,12
 116:	655f 6f72 6164      	0x61646f72655f
 11c:	6174                	ld	a3,192(a0)
 11e:	7600                	ld	s0,40(a2)
 120:	6c61                	lui	s8,0x18
 122:	0032                	c.slli	zero,0xc
 124:	20554e47          	fmsub.s	ft8,fa0,ft5,ft4,rmm
 128:	20373143          	fmadd.s	ft2,fa4,ft3,ft4,rup
 12c:	3031                	0x3031
 12e:	322e                	fld	ft4,232(sp)
 130:	302e                	fld	ft0,232(sp)
 132:	2d20                	fld	fs0,88(a0)
 134:	636d                	lui	t1,0x1b
 136:	6f6d                	lui	t5,0x1b
 138:	6564                	ld	s1,200(a0)
 13a:	3d6c                	fld	fa1,248(a0)
 13c:	656d                	lui	a0,0x1b
 13e:	6164                	ld	s1,192(a0)
 140:	796e                	ld	s2,248(sp)
 142:	2d20                	fld	fs0,88(a0)
 144:	616d                	addi	sp,sp,240
 146:	6962                	ld	s2,24(sp)
 148:	6c3d                	lui	s8,0xf
 14a:	3670                	fld	fa2,232(a2)
 14c:	2034                	fld	fa3,64(s0)
 14e:	6d2d                	lui	s10,0xb
 150:	7261                	lui	tp,0xffff8
 152:	723d6863          	bltu	s10,gp,882 <_start-0x2177e>
 156:	3676                	fld	fa2,376(sp)
 158:	6934                	ld	a3,80(a0)
 15a:	616d                	addi	sp,sp,240
 15c:	6466                	ld	s0,88(sp)
 15e:	2d20                	fld	fs0,88(a0)
 160:	4f2d2067          	0x4f2d2067
 164:	2030                	fld	fa2,64(s0)
 166:	662d                	lui	a2,0xb
 168:	6f6e                	ld	t5,216(sp)
 16a:	502d                	c.li	zero,-21
 16c:	4549                	li	a0,18
 16e:	2d20                	fld	fs0,88(a0)
 170:	6e66                	ld	t3,88(sp)
 172:	6d6f2d6f          	jal	s10,f2848 <_ebss+0xcb630>
 176:	7469                	lui	s0,0xffffa
 178:	662d                	lui	a2,0xb
 17a:	6172                	ld	sp,280(sp)
 17c:	656d                	lui	a0,0x1b
 17e:	702d                	c.lui	zero,0xfffeb
 180:	746e696f          	jal	s2,e68c6 <_ebss+0xbf6ae>
 184:	7265                	lui	tp,0xffff9
 186:	7000                	ld	s0,32(s0)
 188:	6972                	ld	s2,280(sp)
 18a:	746e                	ld	s0,248(sp)
 18c:	665f 6e75 5f63      	0x5f636e75665f
 192:	616e                	ld	sp,216(sp)
 194:	656d                	lui	a0,0x1b
 196:	6d00                	ld	s0,24(a0)
 198:	5f79                	li	t5,-2
 19a:	7361                	lui	t1,0xffff8
 19c:	5f6d                	li	t5,-5
 19e:	0072726f          	jal	tp,279a4 <_ebss+0x78c>
 1a2:	725f 646f 7461      	0x7461646f725f
 1a8:	0061                	c.nop	24
 1aa:	796d                	lui	s2,0xffffb
 1ac:	6f5f 7370 745f      	0x745f73706f5f
 1b2:	7365                	lui	t1,0xffff9
 1b4:	0074                	addi	a3,sp,12
 1b6:	6574                	ld	a3,200(a0)
 1b8:	735f7473          	csrrci	s0,0x735,30
 1bc:	7379                	lui	t1,0xffffe
 1be:	6572                	ld	a0,280(sp)
 1c0:	6c007367          	0x6c007367
 1c4:	20676e6f          	jal	t3,763ca <_ebss+0x4f1b2>
 1c8:	6f6c                	ld	a1,216(a4)
 1ca:	676e                	ld	a4,216(sp)
 1cc:	7520                	ld	s0,104(a0)
 1ce:	736e                	ld	t1,248(sp)
 1d0:	6769                	lui	a4,0x1a
 1d2:	656e                	ld	a0,216(sp)
 1d4:	2064                	fld	fs1,192(s0)
 1d6:	6e69                	lui	t3,0x1a
 1d8:	0074                	addi	a3,sp,12
 1da:	655f 6574 7478      	0x74786574655f
 1e0:	6c00                	ld	s0,24(s0)
 1e2:	20676e6f          	jal	t3,763e8 <_ebss+0x4f1d0>
 1e6:	6f6c                	ld	a1,216(a4)
 1e8:	676e                	ld	a4,216(sp)
 1ea:	6920                	ld	s0,80(a0)
 1ec:	746e                	ld	s0,248(sp)
 1ee:	6d00                	ld	s0,24(a0)
 1f0:	5f79                	li	t5,-2
 1f2:	656d                	lui	a0,0x1b
 1f4:	636d                	lui	t1,0x1b
 1f6:	7970                	ld	a2,240(a0)
 1f8:	615f 6d73 745f      	0x745f6d73615f
 1fe:	7365                	lui	t1,0xffff9
 200:	3274                	fld	fa3,224(a2)
 202:	7300                	ld	s0,32(a4)
 204:	6f68                	ld	a0,216(a4)
 206:	7472                	ld	s0,312(sp)
 208:	6920                	ld	s0,80(a0)
 20a:	746e                	ld	s0,248(sp)
 20c:	6300                	ld	s0,0(a4)
 20e:	656c                	ld	a1,200(a0)
 210:	6e61                	lui	t3,0x18
 212:	625f 7373 5f00      	0x5f007373625f
 218:	6164                	ld	s1,192(a0)
 21a:	6174                	ld	a3,192(a0)
 21c:	6600                	ld	s0,8(a2)
 21e:	6e75                	lui	t3,0x1d
 220:	74735f63          	bge	t1,t2,97e <_start-0x21682>
 224:	6972                	ld	s2,280(sp)
 226:	676e                	ld	a4,216(sp)
 228:	5f00                	lw	s0,56(a4)
 22a:	7465                	lui	s0,0xffff9
 22c:	7865                	lui	a6,0xffff9
 22e:	5f74                	lw	a3,124(a4)
 230:	6f62                	ld	t5,24(sp)
 232:	5f00746f          	jal	s0,7822 <_start-0x1a7de>
 236:	6574                	ld	a3,200(a0)
 238:	7478                	ld	a4,232(s0)
 23a:	6c00                	ld	s0,24(s0)
 23c:	6261                	lui	tp,0x18
 23e:	6c65                	lui	s8,0x19
 240:	7300                	ld	s0,32(a4)
 242:	7a69                	lui	s4,0xffffa
 244:	0065                	c.nop	25
 246:	6e72656b          	0x6e72656b
 24a:	6c65                	lui	s8,0x19
 24c:	6d5f 6961 006e      	0x6e69616d5f
 252:	2f637273          	csrrci	tp,0x2f6,6
 256:	6e72656b          	0x6e72656b
 25a:	6c65                	lui	s8,0x19
 25c:	632e                	ld	t1,200(sp)
 25e:	7300                	ld	s0,32(a4)
 260:	7a69                	lui	s4,0xffffa
 262:	5f65                	li	t5,-7
 264:	0074                	addi	a3,sp,12
 266:	6c61                	lui	s8,0x18
 268:	6769                	lui	a4,0x1a
 26a:	006e                	c.slli	zero,0x1b
 26c:	2f637273          	csrrci	tp,0x2f6,6
 270:	656d                	lui	a0,0x1b
 272:	736d                	lui	t1,0xffffb
 274:	7465                	lui	s0,0xffff9
 276:	632e                	ld	t1,200(sp)
 278:	6c00                	ld	s0,24(s0)
 27a:	6665                	lui	a2,0x19
 27c:	0074                	addi	a3,sp,12
 27e:	5f5f 656d 736d      	0x736d656d5f5f
 284:	7465                	lui	s0,0xffff9
 286:	5f00                	lw	s0,56(a4)
 288:	6d5f 6d65 6573      	0x65736d656d5f
 28e:	5f74                	lw	a3,124(a4)
 290:	6231                	lui	tp,0xc
 292:	7479                	lui	s0,0xffffe
 294:	7365                	lui	t1,0xffff9
 296:	6100                	ld	s0,0(a0)
 298:	6464                	ld	s1,200(s0)
 29a:	6572                	ld	a0,280(sp)
 29c:	63007373          	csrrci	t1,0x630,0
 2a0:	746e756f          	jal	a0,e79e6 <_ebss+0xc07ce>
 2a4:	5f00                	lw	s0,56(a4)
 2a6:	6d5f 6d65 6573      	0x65736d656d5f
 2ac:	5f74                	lw	a3,124(a4)
 2ae:	3631                	addiw	a2,a2,-20
 2b0:	7962                	ld	s2,56(sp)
 2b2:	6574                	ld	a3,200(a0)
 2b4:	6e695f73          	csrrwi	t5,0x6e6,18
 2b8:	696c                	ld	a1,208(a0)
 2ba:	656e                	ld	a0,216(sp)
 2bc:	615f 6d73 7100      	0x71006d73615f
 2c2:	6175                	addi	sp,sp,368
 2c4:	696c                	ld	a1,208(a0)
 2c6:	6966                	ld	s2,88(sp)
 2c8:	7265                	lui	tp,0xffff9
 2ca:	5f00                	lw	s0,56(a4)
 2cc:	625f 6975 746c      	0x746c6975625f
 2d2:	6e69                	lui	t3,0x1a
 2d4:	765f 5f61 696c      	0x696c5f61765f
 2da:	67007473          	csrrci	s0,0x670,0
 2de:	725f 6365 726f      	0x726f6365725f
 2e4:	5f64                	lw	s1,124(a4)
 2e6:	656c                	ld	a1,200(a0)
 2e8:	006e                	c.slli	zero,0x1b
 2ea:	5250                	lw	a2,36(a2)
 2ec:	4e49                	li	t3,18
 2ee:	4b54                	lw	a3,20(a4)
 2f0:	535f 4154 5554      	0x55544154535f
 2f6:	45525f53          	0x45525f53
 2fa:	4441                	li	s0,16
 2fc:	0059                	c.nop	22
 2fe:	5f5f 6162 6573      	0x657361625f5f
 304:	6d00                	ld	s0,24(a0)
 306:	7079                	c.lui	zero,0xffffe
 308:	6972                	ld	s2,280(sp)
 30a:	746e                	ld	s0,248(sp)
 30c:	0066                	c.slli	zero,0x19
 30e:	2f637273          	csrrci	tp,0x2f6,6
 312:	7270                	ld	a2,224(a2)
 314:	6e69                	lui	t3,0x1a
 316:	6b74                	ld	a3,208(a4)
 318:	632e                	ld	t1,200(sp)
 31a:	6600                	ld	s0,8(a2)
 31c:	6569                	lui	a0,0x1a
 31e:	646c                	ld	a1,200(s0)
 320:	775f 6469 6874      	0x68746469775f
 326:	7300                	ld	s0,32(a4)
 328:	756e                	ld	a0,248(sp)
 32a:	006d                	c.nop	27
 32c:	72705f67          	0x72705f67
 330:	6e69                	lui	t3,0x1a
 332:	6b74                	ld	a3,208(a4)
 334:	735f 6174 7574      	0x75746174735f
 33a:	6f6c0073          	0x6f6c0073
 33e:	75625f67          	0x75625f67
 342:	0066                	c.slli	zero,0x19
 344:	6c66                	ld	s8,88(sp)
 346:	6761                	lui	a4,0x18
 348:	5f670073          	0x5f670073
 34c:	6572                	ld	a0,280(sp)
 34e:	64726f63          	bltu	tp,t2,9ac <_start-0x21654>
 352:	7000                	ld	s0,32(s0)
 354:	6972                	ld	s2,280(sp)
 356:	746e                	ld	s0,248(sp)
 358:	625f 6675 7200      	0x72006675625f
 35e:	7065                	c.lui	zero,0xffff9
 360:	6165                	addi	sp,sp,112
 362:	0074                	addi	a3,sp,12
 364:	7270                	ld	a2,224(a2)
 366:	6365                	lui	t1,0x19
 368:	7369                	lui	t1,0xffffa
 36a:	6f69                	lui	t5,0x1a
 36c:	006e                	c.slli	zero,0x1b
 36e:	6964                	ld	s1,208(a0)
 370:	73746967          	0x73746967
 374:	7400                	ld	s0,40(s0)
 376:	7079                	c.lui	zero,0xffffe
 378:	0065                	c.nop	25
 37a:	7270                	ld	a2,224(a2)
 37c:	6e69                	lui	t3,0x1a
 37e:	6b74                	ld	a3,208(a4)
 380:	7300                	ld	s0,32(a4)
 382:	5f6e6163          	bltu	t3,s6,964 <_start-0x2169c>
 386:	756e                	ld	a0,248(sp)
 388:	626d                	lui	tp,0x1b
 38a:	7265                	lui	tp,0xffff9
 38c:	5000                	lw	s0,32(s0)
 38e:	4952                	lw	s2,20(sp)
 390:	544e                	lw	s0,240(sp)
 392:	54535f4b          	fnmsub.h	ft10,ft6,ft5,fa0,unknown
 396:	5441                	li	s0,-16
 398:	5355                	li	t1,-11
 39a:	445f 574f 004e      	0x4e574f445f
 3a0:	6e676973          	csrrsi	s2,0x6e6,14
 3a4:	5f00                	lw	s0,56(a4)
 3a6:	725f 6d65 6900      	0x69006d65725f
 3ac:	696e                	ld	s2,216(sp)
 3ae:	5f74                	lw	a3,124(a4)
 3b0:	7270                	ld	a2,224(a2)
 3b2:	6e69                	lui	t3,0x1a
 3b4:	6b74                	ld	a3,208(a4)
 3b6:	645f 6e6f 0065      	0x656e6f645f
 3bc:	2f637273          	csrrci	tp,0x2f6,6
 3c0:	69727473          	csrrci	s0,0x697,4
 3c4:	676e                	ld	a4,216(sp)
 3c6:	632e                	ld	t1,200(sp)
 3c8:	6400                	ld	s0,8(s0)
 3ca:	7365                	lui	t1,0xffff9
 3cc:	0074                	addi	a3,sp,12
 3ce:	656d                	lui	a0,0x1b
 3d0:	636d                	lui	t1,0x1b
 3d2:	7970                	ld	a2,240(a0)
 3d4:	7300                	ld	s0,32(a4)
 3d6:	7274                	ld	a3,224(a2)
 3d8:	656c                	ld	a1,200(a0)
 3da:	006e                	c.slli	zero,0x1b
 3dc:	6176                	ld	sp,344(sp)
 3de:	756c                	ld	a1,232(a0)
 3e0:	0065                	c.nop	25
 3e2:	5f746573          	csrrsi	a0,shpmcounter23,8
 3e6:	6c70                	ld	a2,216(s0)
 3e8:	5f6c                	lw	a1,124(a4)
 3ea:	78757063          	bgeu	a0,t2,b6a <_start-0x21496>
 3ee:	615f 6978 7300      	0x73006978615f
 3f4:	7465                	lui	s0,0xffff9
 3f6:	615f 6270 7300      	0x73006270615f
 3fc:	7465                	lui	s0,0xffff9
 3fe:	705f 6c6c 705f      	0x705f6c6c705f
 404:	7265                	lui	tp,0xffff9
 406:	7069                	c.lui	zero,0xffffa
 408:	3068                	fld	fa0,224(s0)
 40a:	7300                	ld	s0,32(a4)
 40c:	7465                	lui	s0,0xffff9
 40e:	6d5f 646f 6c75      	0x6c75646f6d5f
 414:	0065                	c.nop	25
 416:	74697277          	0x74697277
 41a:	3365                	addiw	t1,t1,-7
 41c:	0032                	c.slli	zero,0xc
 41e:	5f746573          	csrrsi	a0,shpmcounter23,8
 422:	626d                	lui	tp,0x1b
 424:	7375                	lui	t1,0xffffd
 426:	7200                	ld	s0,32(a2)
 428:	6165                	addi	sp,sp,112
 42a:	3364                	fld	fs1,224(a4)
 42c:	0032                	c.slli	zero,0xc
 42e:	6976                	ld	s2,344(sp)
 430:	7472                	ld	s0,312(sp)
 432:	6175                	addi	sp,sp,368
 434:	5f6c                	lw	a1,124(a4)
 436:	6461                	lui	s0,0x18
 438:	7264                	ld	s1,224(a2)
 43a:	745f 7500 3233      	0x32337500745f
 440:	745f 7300 7465      	0x74657300745f
 446:	645f 616d 7300      	0x7300616d645f
 44c:	6564                	ld	s1,200(a0)
 44e:	616c                	ld	a1,192(a0)
 450:	0079                	c.nop	30
 452:	6975                	lui	s2,0x1d
 454:	746e                	ld	s0,248(sp)
 456:	745f3233          	0x745f3233
 45a:	7300                	ld	s0,32(a4)
 45c:	6372                	ld	t1,280(sp)
 45e:	7379732f          	0x7379732f
 462:	632d                	lui	t1,0xb
 464:	6f6c                	ld	a1,216(a4)
 466:	632e6b63          	bltu	t3,s2,a9c <_start-0x21564>
 46a:	7300                	ld	s0,32(a4)
 46c:	7465                	lui	s0,0xffff9
 46e:	615f 6268 7300      	0x73006268615f
 474:	7379                	lui	t1,0xffffe
 476:	635f 6f6c 6b63      	0x6b636f6c635f
 47c:	695f 696e 0074      	0x74696e695f
 482:	6175                	addi	sp,sp,368
 484:	7472                	ld	s0,312(sp)
 486:	695f 696e 0074      	0x74696e695f
 48c:	7270                	ld	a2,224(a2)
 48e:	6e69                	lui	t3,0x1a
 490:	5f74                	lw	a3,124(a4)
 492:	6568                	ld	a0,200(a0)
 494:	0078                	addi	a4,sp,12
 496:	6175                	addi	sp,sp,368
 498:	7472                	ld	s0,312(sp)
 49a:	735f 6e65 5f64      	0x5f646e65735f
 4a0:	69727473          	csrrci	s0,0x697,4
 4a4:	676e                	ld	a4,216(sp)
 4a6:	7600                	ld	s0,40(a2)
 4a8:	6670                	ld	a2,200(a2)
 4aa:	735f 7274 745f      	0x745f7274735f
 4b0:	756e5f6f          	jal	t5,e5c06 <_ebss+0xbe9ee>
 4b4:	006d                	c.nop	27
 4b6:	2f637273          	csrrci	tp,0x2f6,6
 4ba:	2d737973          	csrrci	s2,0x2d7,6
 4be:	6175                	addi	sp,sp,368
 4c0:	7472                	ld	s0,312(sp)
 4c2:	632e                	ld	t1,200(sp)
 4c4:	7000                	ld	s0,32(s0)
 4c6:	7475                	lui	s0,0xffffd
 4c8:	72616863          	bltu	sp,t1,bf8 <_start-0x21408>
 4cc:	7500                	ld	s0,40(a0)
 4ce:	5f38                	lw	a4,120(a4)
 4d0:	0074                	addi	a3,sp,12
 4d2:	6175                	addi	sp,sp,368
 4d4:	7472                	ld	s0,312(sp)
 4d6:	725f 6365 0076      	0x766365725f
 4dc:	5f737973          	csrrci	s2,shpmcounter23,6
 4e0:	6175                	addi	sp,sp,368
 4e2:	7472                	ld	s0,312(sp)
 4e4:	705f 6972 746e      	0x746e6972705f
 4ea:	0066                	c.slli	zero,0x19
 4ec:	6962                	ld	s2,24(sp)
 4ee:	7374                	ld	a3,224(a4)
 4f0:	7500                	ld	s0,40(a0)
 4f2:	7261                	lui	tp,0xffff8
 4f4:	5f74                	lw	a3,124(a4)
 4f6:	646e6573          	csrrsi	a0,0x646,28
 4fa:	7600                	ld	s0,40(a2)
 4fc:	6670                	ld	a2,200(a2)
 4fe:	6e5f 6d75 745f      	0x745f6d756e5f
 504:	74735f6f          	jal	t5,3644a <_ebss+0xf232>
 508:	0072                	c.slli	zero,0x1c
 50a:	6572                	ld	a0,280(sp)
 50c:	6461                	lui	s0,0x18
 50e:	0038                	addi	a4,sp,8
 510:	2f637273          	csrrci	tp,0x2f6,6
 514:	7361                	lui	t1,0xffff8
 516:	5f6d                	li	t5,-5
 518:	6574                	ld	a3,200(a0)
 51a:	532e7473          	csrrci	s0,0x532,28
 51e:	4500                	lw	s0,8(a0)
 520:	5c3a                	lw	s8,172(sp)
 522:	3164                	fld	fs1,224(a0)
 524:	72705f73          	csrrwi	t5,0x727,0
 528:	63656a6f          	jal	s4,56b5e <_ebss+0x2f946>
 52c:	7374                	ld	a3,224(a4)
 52e:	725c                	ld	a5,160(a2)
 530:	7369                	lui	t1,0xffffa
 532:	705f7663          	bgeu	t5,t0,c3e <_start-0x213c2>
 536:	6f72                	ld	t5,280(sp)
 538:	6d617267          	0x6d617267
 53c:	696d                	lui	s2,0x1b
 53e:	676e                	ld	a4,216(sp)
 540:	705f 6172 7463      	0x74636172705f
 546:	6369                	lui	t1,0x1a
 548:	2d65                	addiw	s10,s10,25
 54a:	6f66                	ld	t5,88(sp)
 54c:	2d72                	fld	fs10,280(sp)
 54e:	6f64                	ld	s1,216(a4)
 550:	676e                	ld	a4,216(sp)
 552:	6e616873          	csrrsi	a6,0x6e6,2
 556:	635c                	ld	a5,128(a4)
 558:	6168                	ld	a0,192(a0)
 55a:	7470                	ld	a2,232(s0)
 55c:	7265                	lui	tp,0xffff9
 55e:	375f 6c5c 6261      	0x62616c5c375f
 564:	5c362d37          	lui	s10,0x5c362
 568:	6562                	ld	a0,24(sp)
 56a:	6f6e                	ld	t5,216(sp)
 56c:	4e470073          	0x4e470073
 570:	2055                	0x2055
 572:	5341                	li	t1,-16
 574:	3220                	fld	fs0,96(a2)
 576:	332e                	fld	ft6,232(sp)
 578:	0035                	c.nop	13
 57a:	2f637273          	csrrci	tp,0x2f6,6
 57e:	6f62                	ld	t5,24(sp)
 580:	532e746f          	jal	s0,e7ab2 <_ebss+0xc089a>
 584:	7300                	ld	s0,32(a4)
 586:	6372                	ld	t1,280(sp)
 588:	7261652f          	0x7261652f
 58c:	796c                	ld	a1,240(a0)
 58e:	705f 6972 746e      	0x746e6972705f
 594:	00532e6b          	0x532e6b
 598:	2f637273          	csrrci	tp,0x2f6,6
 59c:	656d                	lui	a0,0x1b
 59e:	736d                	lui	t1,0xffffb
 5a0:	7465                	lui	s0,0xffff9
 5a2:	532e                	lw	t1,232(sp)
	...

Disassembly of section .comment:

0000000000000000 <.comment>:
   0:	3a434347          	fmsub.d	ft6,ft6,ft4,ft7,rmm
   4:	2820                	fld	fs0,80(s0)
   6:	7558                	ld	a4,168(a0)
   8:	6e61                	lui	t3,0x18
   a:	6974                	ld	a3,208(a0)
   c:	2d65                	addiw	s10,s10,25
   e:	3039                	0x3039
  10:	2030                	fld	fa2,64(s0)
  12:	6c65                	lui	s8,0x19
  14:	2066                	fld	ft0,88(sp)
  16:	656e                	ld	a0,216(sp)
  18:	62696c77          	0x62696c77
  1c:	6720                	ld	s0,72(a4)
  1e:	54206363          	bltu	zero,sp,564 <_start-0x21a9c>
  22:	636c6f6f          	jal	t5,c6658 <_ebss+0x9f440>
  26:	6168                	ld	a0,192(a0)
  28:	6e69                	lui	t3,0x1a
  2a:	5620                	lw	s0,104(a2)
  2c:	2e32                	fld	ft8,264(sp)
  2e:	2e36                	fld	ft8,328(sp)
  30:	2031                	0x2031
  32:	2d42                	fld	fs10,16(sp)
  34:	3032                	fld	ft0,296(sp)
  36:	3232                	fld	ft4,296(sp)
  38:	3930                	fld	fa2,112(a0)
  3a:	3630                	fld	fa2,104(a2)
  3c:	2029                	0x2029
  3e:	3031                	0x3031
  40:	322e                	fld	ft4,232(sp)
  42:	302e                	fld	ft0,232(sp)
	...

Disassembly of section .riscv.attributes:

0000000000000000 <.riscv.attributes>:
   0:	3341                	addiw	t1,t1,-16
   2:	0000                	unimp
   4:	7200                	ld	s0,32(a2)
   6:	7369                	lui	t1,0xffffa
   8:	01007663          	bgeu	zero,a6,14 <_start-0x21fec>
   c:	0029                	c.nop	10
   e:	0000                	unimp
  10:	1004                	addi	s1,sp,32
  12:	7205                	lui	tp,0xfffe1
  14:	3676                	fld	fa2,376(sp)
  16:	6934                	ld	a3,80(a0)
  18:	7032                	0x7032
  1a:	5f30                	lw	a2,120(a4)
  1c:	326d                	addiw	tp,tp,-5
  1e:	3070                	fld	fa2,224(s0)
  20:	615f 7032 5f30      	0x5f307032615f
  26:	3266                	fld	ft4,120(sp)
  28:	3070                	fld	fa2,224(s0)
  2a:	645f 7032 0030      	0x307032645f
  30:	0108                	addi	a0,sp,128
  32:	0b0a                	slli	s6,s6,0x2

Disassembly of section .debug_frame:

0000000000000000 <.debug_frame>:
   0:	000c                	0xc
   2:	0000                	unimp
   4:	ffffffff          	0xffffffff
   8:	7c010003          	lb	zero,1984(sp)
   c:	0d01                	addi	s10,s10,0
   e:	0002                	c.slli64	zero
  10:	002c                	addi	a1,sp,8
  12:	0000                	unimp
  14:	0000                	unimp
  16:	0000                	unimp
  18:	2040                	fld	fs0,128(s0)
  1a:	0002                	c.slli64	zero
  1c:	0000                	unimp
  1e:	0000                	unimp
  20:	00fc                	addi	a5,sp,76
  22:	0000                	unimp
  24:	0000                	unimp
  26:	0000                	unimp
  28:	0e44                	addi	s1,sp,788
  2a:	4840                	lw	s0,20(s0)
  2c:	0281                	addi	t0,t0,0
  2e:	0488                	addi	a0,sp,576
  30:	0c44                	addi	s1,sp,532
  32:	0008                	0x8
  34:	e002                	sd	zero,0(sp)
  36:	44c1                	li	s1,16
  38:	0cc8                	addi	a0,sp,596
  3a:	4002                	0x4002
  3c:	0e44                	addi	s1,sp,788
  3e:	0000                	unimp
  40:	002c                	addi	a1,sp,8
  42:	0000                	unimp
  44:	0000                	unimp
  46:	0000                	unimp
  48:	213c                	fld	fa5,64(a0)
  4a:	0002                	c.slli64	zero
  4c:	0000                	unimp
  4e:	0000                	unimp
  50:	006c                	addi	a1,sp,12
  52:	0000                	unimp
  54:	0000                	unimp
  56:	0000                	unimp
  58:	0e44                	addi	s1,sp,788
  5a:	4440                	lw	s0,12(s0)
  5c:	0288                	addi	a0,sp,320
  5e:	0c44                	addi	s1,sp,532
  60:	0008                	0x8
  62:	5802                	lw	a6,32(sp)
  64:	0cc8                	addi	a0,sp,596
  66:	4002                	0x4002
  68:	0e44                	addi	s1,sp,788
  6a:	0000                	unimp
  6c:	0000                	unimp
  6e:	0000                	unimp
  70:	002c                	addi	a1,sp,8
  72:	0000                	unimp
  74:	0000                	unimp
  76:	0000                	unimp
  78:	21a8                	fld	fa0,64(a1)
  7a:	0002                	c.slli64	zero
  7c:	0000                	unimp
  7e:	0000                	unimp
  80:	006c                	addi	a1,sp,12
  82:	0000                	unimp
  84:	0000                	unimp
  86:	0000                	unimp
  88:	0e44                	addi	s1,sp,788
  8a:	4440                	lw	s0,12(s0)
  8c:	0288                	addi	a0,sp,320
  8e:	0c44                	addi	s1,sp,532
  90:	0008                	0x8
  92:	5802                	lw	a6,32(sp)
  94:	0cc8                	addi	a0,sp,596
  96:	4002                	0x4002
  98:	0e44                	addi	s1,sp,788
  9a:	0000                	unimp
  9c:	0000                	unimp
  9e:	0000                	unimp
  a0:	002c                	addi	a1,sp,8
  a2:	0000                	unimp
  a4:	0000                	unimp
  a6:	0000                	unimp
  a8:	2214                	fld	fa3,0(a2)
  aa:	0002                	c.slli64	zero
  ac:	0000                	unimp
  ae:	0000                	unimp
  b0:	0048                	addi	a0,sp,4
  b2:	0000                	unimp
  b4:	0000                	unimp
  b6:	0000                	unimp
  b8:	0e44                	addi	s1,sp,788
  ba:	4430                	lw	a2,72(s0)
  bc:	0288                	addi	a0,sp,320
  be:	0c44                	addi	s1,sp,532
  c0:	0008                	0x8
  c2:	c874                	sw	a3,84(s0)
  c4:	020c                	addi	a1,sp,256
  c6:	4430                	lw	a2,72(s0)
  c8:	000e                	c.slli	zero,0x3
  ca:	0000                	unimp
  cc:	0000                	unimp
  ce:	0000                	unimp
  d0:	002c                	addi	a1,sp,8
  d2:	0000                	unimp
  d4:	0000                	unimp
  d6:	0000                	unimp
  d8:	225c                	fld	fa5,128(a2)
  da:	0002                	c.slli64	zero
  dc:	0000                	unimp
  de:	0000                	unimp
  e0:	0048                	addi	a0,sp,4
  e2:	0000                	unimp
  e4:	0000                	unimp
  e6:	0000                	unimp
  e8:	0e44                	addi	s1,sp,788
  ea:	4430                	lw	a2,72(s0)
  ec:	0288                	addi	a0,sp,320
  ee:	0c44                	addi	s1,sp,532
  f0:	0008                	0x8
  f2:	c874                	sw	a3,84(s0)
  f4:	020c                	addi	a1,sp,256
  f6:	4430                	lw	a2,72(s0)
  f8:	000e                	c.slli	zero,0x3
  fa:	0000                	unimp
  fc:	0000                	unimp
  fe:	0000                	unimp
 100:	002c                	addi	a1,sp,8
 102:	0000                	unimp
 104:	0000                	unimp
 106:	0000                	unimp
 108:	22a4                	fld	fs1,64(a3)
 10a:	0002                	c.slli64	zero
 10c:	0000                	unimp
 10e:	0000                	unimp
 110:	0048                	addi	a0,sp,4
 112:	0000                	unimp
 114:	0000                	unimp
 116:	0000                	unimp
 118:	0e44                	addi	s1,sp,788
 11a:	4430                	lw	a2,72(s0)
 11c:	0288                	addi	a0,sp,320
 11e:	0c44                	addi	s1,sp,532
 120:	0008                	0x8
 122:	c874                	sw	a3,84(s0)
 124:	020c                	addi	a1,sp,256
 126:	4430                	lw	a2,72(s0)
 128:	000e                	c.slli	zero,0x3
 12a:	0000                	unimp
 12c:	0000                	unimp
 12e:	0000                	unimp
 130:	002c                	addi	a1,sp,8
 132:	0000                	unimp
 134:	0000                	unimp
 136:	0000                	unimp
 138:	22ec                	fld	fa1,192(a3)
 13a:	0002                	c.slli64	zero
 13c:	0000                	unimp
 13e:	0000                	unimp
 140:	00a8                	addi	a0,sp,72
 142:	0000                	unimp
 144:	0000                	unimp
 146:	0000                	unimp
 148:	0e44                	addi	s1,sp,788
 14a:	4820                	lw	s0,80(s0)
 14c:	0281                	addi	t0,t0,0
 14e:	0488                	addi	a0,sp,576
 150:	0c44                	addi	s1,sp,532
 152:	0008                	0x8
 154:	8c02                	jr	s8
 156:	44c1                	li	s1,16
 158:	0cc8                	addi	a0,sp,596
 15a:	2002                	fld	ft0,0(sp)
 15c:	0e44                	addi	s1,sp,788
 15e:	0000                	unimp
 160:	002c                	addi	a1,sp,8
 162:	0000                	unimp
 164:	0000                	unimp
 166:	0000                	unimp
 168:	2394                	fld	fa3,0(a5)
 16a:	0002                	c.slli64	zero
 16c:	0000                	unimp
 16e:	0000                	unimp
 170:	0044                	addi	s1,sp,4
 172:	0000                	unimp
 174:	0000                	unimp
 176:	0000                	unimp
 178:	0e44                	addi	s1,sp,788
 17a:	4820                	lw	s0,80(s0)
 17c:	0281                	addi	t0,t0,0
 17e:	0488                	addi	a0,sp,576
 180:	0c44                	addi	s1,sp,532
 182:	0008                	0x8
 184:	c168                	sw	a0,68(a0)
 186:	c844                	sw	s1,20(s0)
 188:	020c                	addi	a1,sp,256
 18a:	4420                	lw	s0,72(s0)
 18c:	000e                	c.slli	zero,0x3
 18e:	0000                	unimp
 190:	002c                	addi	a1,sp,8
 192:	0000                	unimp
 194:	0000                	unimp
 196:	0000                	unimp
 198:	23d8                	fld	fa4,128(a5)
 19a:	0002                	c.slli64	zero
 19c:	0000                	unimp
 19e:	0000                	unimp
 1a0:	0060                	addi	s0,sp,12
 1a2:	0000                	unimp
 1a4:	0000                	unimp
 1a6:	0000                	unimp
 1a8:	0e44                	addi	s1,sp,788
 1aa:	4820                	lw	s0,80(s0)
 1ac:	0281                	addi	t0,t0,0
 1ae:	0488                	addi	a0,sp,576
 1b0:	0c44                	addi	s1,sp,532
 1b2:	0008                	0x8
 1b4:	4402                	lw	s0,0(sp)
 1b6:	44c1                	li	s1,16
 1b8:	0cc8                	addi	a0,sp,596
 1ba:	2002                	fld	ft0,0(sp)
 1bc:	0e44                	addi	s1,sp,788
 1be:	0000                	unimp
 1c0:	002c                	addi	a1,sp,8
 1c2:	0000                	unimp
 1c4:	0000                	unimp
 1c6:	0000                	unimp
 1c8:	2438                	fld	fa4,72(s0)
 1ca:	0002                	c.slli64	zero
 1cc:	0000                	unimp
 1ce:	0000                	unimp
 1d0:	00b4                	addi	a3,sp,72
 1d2:	0000                	unimp
 1d4:	0000                	unimp
 1d6:	0000                	unimp
 1d8:	0e44                	addi	s1,sp,788
 1da:	4820                	lw	s0,80(s0)
 1dc:	0281                	addi	t0,t0,0
 1de:	0488                	addi	a0,sp,576
 1e0:	0c44                	addi	s1,sp,532
 1e2:	0008                	0x8
 1e4:	9802                	jalr	a6
 1e6:	44c1                	li	s1,16
 1e8:	0cc8                	addi	a0,sp,596
 1ea:	2002                	fld	ft0,0(sp)
 1ec:	0e44                	addi	s1,sp,788
 1ee:	0000                	unimp
 1f0:	002c                	addi	a1,sp,8
 1f2:	0000                	unimp
 1f4:	0000                	unimp
 1f6:	0000                	unimp
 1f8:	24ec                	fld	fa1,200(s1)
 1fa:	0002                	c.slli64	zero
 1fc:	0000                	unimp
 1fe:	0000                	unimp
 200:	0110                	addi	a2,sp,128
 202:	0000                	unimp
 204:	0000                	unimp
 206:	0000                	unimp
 208:	0e44                	addi	s1,sp,788
 20a:	4820                	lw	s0,80(s0)
 20c:	0281                	addi	t0,t0,0
 20e:	0488                	addi	a0,sp,576
 210:	0c44                	addi	s1,sp,532
 212:	0008                	0x8
 214:	c100f403          	0xc100f403
 218:	c844                	sw	s1,20(s0)
 21a:	020c                	addi	a1,sp,256
 21c:	4420                	lw	s0,72(s0)
 21e:	000e                	c.slli	zero,0x3
 220:	002c                	addi	a1,sp,8
 222:	0000                	unimp
 224:	0000                	unimp
 226:	0000                	unimp
 228:	25fc                	fld	fa5,200(a1)
 22a:	0002                	c.slli64	zero
 22c:	0000                	unimp
 22e:	0000                	unimp
 230:	0134                	addi	a3,sp,136
 232:	0000                	unimp
 234:	0000                	unimp
 236:	0000                	unimp
 238:	0e44                	addi	s1,sp,788
 23a:	4810                	lw	a2,16(s0)
 23c:	0281                	addi	t0,t0,0
 23e:	0488                	addi	a0,sp,576
 240:	0c44                	addi	s1,sp,532
 242:	0008                	0x8
 244:	c1011803          	lh	a6,-1008(sp)
 248:	c844                	sw	s1,20(s0)
 24a:	020c                	addi	a1,sp,256
 24c:	4410                	lw	a2,8(s0)
 24e:	000e                	c.slli	zero,0x3
 250:	002c                	addi	a1,sp,8
 252:	0000                	unimp
 254:	0000                	unimp
 256:	0000                	unimp
 258:	2730                	fld	fa2,72(a4)
 25a:	0002                	c.slli64	zero
 25c:	0000                	unimp
 25e:	0000                	unimp
 260:	006c                	addi	a1,sp,12
 262:	0000                	unimp
 264:	0000                	unimp
 266:	0000                	unimp
 268:	0e44                	addi	s1,sp,788
 26a:	4830                	lw	a2,80(s0)
 26c:	0281                	addi	t0,t0,0
 26e:	0488                	addi	a0,sp,576
 270:	0c44                	addi	s1,sp,532
 272:	0008                	0x8
 274:	5002                	0x5002
 276:	44c1                	li	s1,16
 278:	0cc8                	addi	a0,sp,596
 27a:	3002                	fld	ft0,32(sp)
 27c:	0e44                	addi	s1,sp,788
 27e:	0000                	unimp
 280:	0024                	addi	s1,sp,8
 282:	0000                	unimp
 284:	0000                	unimp
 286:	0000                	unimp
 288:	279c                	fld	fa5,8(a5)
 28a:	0002                	c.slli64	zero
 28c:	0000                	unimp
 28e:	0000                	unimp
 290:	0068                	addi	a0,sp,12
 292:	0000                	unimp
 294:	0000                	unimp
 296:	0000                	unimp
 298:	0e44                	addi	s1,sp,788
 29a:	4810                	lw	a2,16(s0)
 29c:	0281                	addi	t0,t0,0
 29e:	0488                	addi	a0,sp,576
 2a0:	0c44                	addi	s1,sp,532
 2a2:	0008                	0x8
 2a4:	0000                	unimp
 2a6:	0000                	unimp
 2a8:	000c                	0xc
 2aa:	0000                	unimp
 2ac:	ffffffff          	0xffffffff
 2b0:	7c010003          	lb	zero,1984(sp)
 2b4:	0d01                	addi	s10,s10,0
 2b6:	0002                	c.slli64	zero
 2b8:	002c                	addi	a1,sp,8
 2ba:	0000                	unimp
 2bc:	02a8                	addi	a0,sp,328
 2be:	0000                	unimp
 2c0:	2804                	fld	fs1,16(s0)
 2c2:	0002                	c.slli64	zero
 2c4:	0000                	unimp
 2c6:	0000                	unimp
 2c8:	005c                	addi	a5,sp,4
 2ca:	0000                	unimp
 2cc:	0000                	unimp
 2ce:	0000                	unimp
 2d0:	0e44                	addi	s1,sp,788
 2d2:	4440                	lw	s0,12(s0)
 2d4:	0288                	addi	a0,sp,320
 2d6:	0c44                	addi	s1,sp,532
 2d8:	0008                	0x8
 2da:	4802                	lw	a6,0(sp)
 2dc:	0cc8                	addi	a0,sp,596
 2de:	4002                	0x4002
 2e0:	0e44                	addi	s1,sp,788
 2e2:	0000                	unimp
 2e4:	0000                	unimp
 2e6:	0000                	unimp
 2e8:	002c                	addi	a1,sp,8
 2ea:	0000                	unimp
 2ec:	02a8                	addi	a0,sp,328
 2ee:	0000                	unimp
 2f0:	2860                	fld	fs0,208(s0)
 2f2:	0002                	c.slli64	zero
 2f4:	0000                	unimp
 2f6:	0000                	unimp
 2f8:	0064                	addi	s1,sp,12
 2fa:	0000                	unimp
 2fc:	0000                	unimp
 2fe:	0000                	unimp
 300:	0e44                	addi	s1,sp,788
 302:	4440                	lw	s0,12(s0)
 304:	0288                	addi	a0,sp,320
 306:	0c44                	addi	s1,sp,532
 308:	0008                	0x8
 30a:	5002                	0x5002
 30c:	0cc8                	addi	a0,sp,596
 30e:	4002                	0x4002
 310:	0e44                	addi	s1,sp,788
 312:	0000                	unimp
 314:	0000                	unimp
 316:	0000                	unimp
 318:	002c                	addi	a1,sp,8
 31a:	0000                	unimp
 31c:	02a8                	addi	a0,sp,328
 31e:	0000                	unimp
 320:	28c4                	fld	fs1,144(s1)
 322:	0002                	c.slli64	zero
 324:	0000                	unimp
 326:	0000                	unimp
 328:	018c                	addi	a1,sp,192
 32a:	0000                	unimp
 32c:	0000                	unimp
 32e:	0000                	unimp
 330:	0e44                	addi	s1,sp,788
 332:	4870                	lw	a2,84(s0)
 334:	0281                	addi	t0,t0,0
 336:	0488                	addi	a0,sp,576
 338:	0c44                	addi	s1,sp,532
 33a:	0008                	0x8
 33c:	c1017003          	0xc1017003
 340:	c844                	sw	s1,20(s0)
 342:	020c                	addi	a1,sp,256
 344:	4470                	lw	a2,76(s0)
 346:	000e                	c.slli	zero,0x3
 348:	002c                	addi	a1,sp,8
 34a:	0000                	unimp
 34c:	02a8                	addi	a0,sp,328
 34e:	0000                	unimp
 350:	2a50                	fld	fa2,144(a2)
 352:	0002                	c.slli64	zero
 354:	0000                	unimp
 356:	0000                	unimp
 358:	004c                	addi	a1,sp,4
 35a:	0000                	unimp
 35c:	0000                	unimp
 35e:	0000                	unimp
 360:	0e44                	addi	s1,sp,788
 362:	4830                	lw	a2,80(s0)
 364:	0281                	addi	t0,t0,0
 366:	0488                	addi	a0,sp,576
 368:	0c44                	addi	s1,sp,532
 36a:	0008                	0x8
 36c:	c170                	sw	a2,68(a0)
 36e:	c844                	sw	s1,20(s0)
 370:	020c                	addi	a1,sp,256
 372:	4430                	lw	a2,72(s0)
 374:	000e                	c.slli	zero,0x3
 376:	0000                	unimp
 378:	000c                	0xc
 37a:	0000                	unimp
 37c:	ffffffff          	0xffffffff
 380:	7c010003          	lb	zero,1984(sp)
 384:	0d01                	addi	s10,s10,0
 386:	0002                	c.slli64	zero
 388:	002c                	addi	a1,sp,8
 38a:	0000                	unimp
 38c:	0378                	addi	a4,sp,396
 38e:	0000                	unimp
 390:	2a9c                	fld	fa5,16(a3)
 392:	0002                	c.slli64	zero
 394:	0000                	unimp
 396:	0000                	unimp
 398:	00a4                	addi	s1,sp,72
 39a:	0000                	unimp
 39c:	0000                	unimp
 39e:	0000                	unimp
 3a0:	0e44                	addi	s1,sp,788
 3a2:	4430                	lw	a2,72(s0)
 3a4:	0288                	addi	a0,sp,320
 3a6:	0c44                	addi	s1,sp,532
 3a8:	0008                	0x8
 3aa:	9002                	ebreak
 3ac:	0cc8                	addi	a0,sp,596
 3ae:	3002                	fld	ft0,32(sp)
 3b0:	0e44                	addi	s1,sp,788
 3b2:	0000                	unimp
 3b4:	0000                	unimp
 3b6:	0000                	unimp
 3b8:	002c                	addi	a1,sp,8
 3ba:	0000                	unimp
 3bc:	0378                	addi	a4,sp,396
 3be:	0000                	unimp
 3c0:	2b40                	fld	fs0,144(a4)
 3c2:	0002                	c.slli64	zero
 3c4:	0000                	unimp
 3c6:	0000                	unimp
 3c8:	0400                	addi	s0,sp,512
 3ca:	0000                	unimp
 3cc:	0000                	unimp
 3ce:	0000                	unimp
 3d0:	0e44                	addi	s1,sp,788
 3d2:	01e0                	addi	s0,sp,204
 3d4:	8844                	0x8844
 3d6:	4402                	lw	s0,0(sp)
 3d8:	080c                	addi	a1,sp,16
 3da:	0300                	addi	s0,sp,384
 3dc:	03ec                	addi	a1,sp,460
 3de:	0cc8                	addi	a0,sp,596
 3e0:	e002                	sd	zero,0(sp)
 3e2:	4401                	li	s0,0
 3e4:	000e                	c.slli	zero,0x3
 3e6:	0000                	unimp
 3e8:	002c                	addi	a1,sp,8
 3ea:	0000                	unimp
 3ec:	0378                	addi	a4,sp,396
 3ee:	0000                	unimp
 3f0:	2f40                	fld	fs0,152(a4)
 3f2:	0002                	c.slli64	zero
 3f4:	0000                	unimp
 3f6:	0000                	unimp
 3f8:	07a8                	addi	a0,sp,968
 3fa:	0000                	unimp
 3fc:	0000                	unimp
 3fe:	0000                	unimp
 400:	0e44                	addi	s1,sp,788
 402:	4870                	lw	a2,84(s0)
 404:	0281                	addi	t0,t0,0
 406:	0488                	addi	a0,sp,576
 408:	0c44                	addi	s1,sp,532
 40a:	0008                	0x8
 40c:	c1078c03          	lb	s8,-1008(a5)
 410:	c844                	sw	s1,20(s0)
 412:	020c                	addi	a1,sp,256
 414:	4470                	lw	a2,76(s0)
 416:	000e                	c.slli	zero,0x3
 418:	002c                	addi	a1,sp,8
 41a:	0000                	unimp
 41c:	0378                	addi	a4,sp,396
 41e:	0000                	unimp
 420:	36e8                	fld	fa0,232(a3)
 422:	0002                	c.slli64	zero
 424:	0000                	unimp
 426:	0000                	unimp
 428:	009c                	addi	a5,sp,64
 42a:	0000                	unimp
 42c:	0000                	unimp
 42e:	0000                	unimp
 430:	0e44                	addi	s1,sp,788
 432:	4820                	lw	s0,80(s0)
 434:	0281                	addi	t0,t0,0
 436:	0488                	addi	a0,sp,576
 438:	0c44                	addi	s1,sp,532
 43a:	0008                	0x8
 43c:	8002                	0x8002
 43e:	44c1                	li	s1,16
 440:	0cc8                	addi	a0,sp,596
 442:	2002                	fld	ft0,0(sp)
 444:	0e44                	addi	s1,sp,788
 446:	0000                	unimp
 448:	002c                	addi	a1,sp,8
 44a:	0000                	unimp
 44c:	0378                	addi	a4,sp,396
 44e:	0000                	unimp
 450:	3784                	fld	fs1,40(a5)
 452:	0002                	c.slli64	zero
 454:	0000                	unimp
 456:	0000                	unimp
 458:	0180                	addi	s0,sp,192
 45a:	0000                	unimp
 45c:	0000                	unimp
 45e:	0000                	unimp
 460:	0e44                	addi	s1,sp,788
 462:	4870                	lw	a2,84(s0)
 464:	1281                	addi	t0,t0,-32
 466:	1488                	addi	a0,sp,608
 468:	0c44                	addi	s1,sp,532
 46a:	4008                	lw	a0,0(s0)
 46c:	c1016403          	lwu	s0,-1008(sp)
 470:	c844                	sw	s1,20(s0)
 472:	020c                	addi	a1,sp,256
 474:	4470                	lw	a2,76(s0)
 476:	000e                	c.slli	zero,0x3
 478:	000c                	0xc
 47a:	0000                	unimp
 47c:	ffffffff          	0xffffffff
 480:	7c010003          	lb	zero,1984(sp)
 484:	0d01                	addi	s10,s10,0
 486:	0002                	c.slli64	zero
 488:	002c                	addi	a1,sp,8
 48a:	0000                	unimp
 48c:	0478                	addi	a4,sp,524
 48e:	0000                	unimp
 490:	3904                	fld	fs1,48(a0)
 492:	0002                	c.slli64	zero
 494:	0000                	unimp
 496:	0000                	unimp
 498:	0050                	addi	a2,sp,4
 49a:	0000                	unimp
 49c:	0000                	unimp
 49e:	0000                	unimp
 4a0:	0e44                	addi	s1,sp,788
 4a2:	4430                	lw	a2,72(s0)
 4a4:	0288                	addi	a0,sp,320
 4a6:	0c44                	addi	s1,sp,532
 4a8:	0008                	0x8
 4aa:	c87c                	sw	a5,84(s0)
 4ac:	020c                	addi	a1,sp,256
 4ae:	4430                	lw	a2,72(s0)
 4b0:	000e                	c.slli	zero,0x3
 4b2:	0000                	unimp
 4b4:	0000                	unimp
 4b6:	0000                	unimp
 4b8:	002c                	addi	a1,sp,8
 4ba:	0000                	unimp
 4bc:	0478                	addi	a4,sp,524
 4be:	0000                	unimp
 4c0:	3954                	fld	fa3,176(a0)
 4c2:	0002                	c.slli64	zero
 4c4:	0000                	unimp
 4c6:	0000                	unimp
 4c8:	0070                	addi	a2,sp,12
 4ca:	0000                	unimp
 4cc:	0000                	unimp
 4ce:	0000                	unimp
 4d0:	0e44                	addi	s1,sp,788
 4d2:	4440                	lw	s0,12(s0)
 4d4:	0288                	addi	a0,sp,320
 4d6:	0c44                	addi	s1,sp,532
 4d8:	0008                	0x8
 4da:	5c02                	lw	s8,32(sp)
 4dc:	0cc8                	addi	a0,sp,596
 4de:	4002                	0x4002
 4e0:	0e44                	addi	s1,sp,788
 4e2:	0000                	unimp
 4e4:	0000                	unimp
 4e6:	0000                	unimp
 4e8:	000c                	0xc
 4ea:	0000                	unimp
 4ec:	ffffffff          	0xffffffff
 4f0:	7c010003          	lb	zero,1984(sp)
 4f4:	0d01                	addi	s10,s10,0
 4f6:	0002                	c.slli64	zero
 4f8:	002c                	addi	a1,sp,8
 4fa:	0000                	unimp
 4fc:	04e8                	addi	a0,sp,588
 4fe:	0000                	unimp
 500:	39c4                	fld	fs1,176(a1)
 502:	0002                	c.slli64	zero
 504:	0000                	unimp
 506:	0000                	unimp
 508:	002c                	addi	a1,sp,8
 50a:	0000                	unimp
 50c:	0000                	unimp
 50e:	0000                	unimp
 510:	0e44                	addi	s1,sp,788
 512:	4420                	lw	s0,72(s0)
 514:	0288                	addi	a0,sp,320
 516:	0c44                	addi	s1,sp,532
 518:	0008                	0x8
 51a:	c858                	sw	a4,20(s0)
 51c:	020c                	addi	a1,sp,256
 51e:	4420                	lw	s0,72(s0)
 520:	000e                	c.slli	zero,0x3
 522:	0000                	unimp
 524:	0000                	unimp
 526:	0000                	unimp
 528:	002c                	addi	a1,sp,8
 52a:	0000                	unimp
 52c:	04e8                	addi	a0,sp,588
 52e:	0000                	unimp
 530:	39f0                	fld	fa2,240(a1)
 532:	0002                	c.slli64	zero
 534:	0000                	unimp
 536:	0000                	unimp
 538:	0034                	addi	a3,sp,8
 53a:	0000                	unimp
 53c:	0000                	unimp
 53e:	0000                	unimp
 540:	0e44                	addi	s1,sp,788
 542:	4420                	lw	s0,72(s0)
 544:	0288                	addi	a0,sp,320
 546:	0c44                	addi	s1,sp,532
 548:	0008                	0x8
 54a:	c860                	sw	s0,84(s0)
 54c:	020c                	addi	a1,sp,256
 54e:	4420                	lw	s0,72(s0)
 550:	000e                	c.slli	zero,0x3
 552:	0000                	unimp
 554:	0000                	unimp
 556:	0000                	unimp
 558:	002c                	addi	a1,sp,8
 55a:	0000                	unimp
 55c:	04e8                	addi	a0,sp,588
 55e:	0000                	unimp
 560:	3a24                	fld	fs1,112(a2)
 562:	0002                	c.slli64	zero
 564:	0000                	unimp
 566:	0000                	unimp
 568:	0044                	addi	s1,sp,4
 56a:	0000                	unimp
 56c:	0000                	unimp
 56e:	0000                	unimp
 570:	0e44                	addi	s1,sp,788
 572:	4420                	lw	s0,72(s0)
 574:	0288                	addi	a0,sp,320
 576:	0c44                	addi	s1,sp,532
 578:	0008                	0x8
 57a:	c870                	sw	a2,84(s0)
 57c:	020c                	addi	a1,sp,256
 57e:	4420                	lw	s0,72(s0)
 580:	000e                	c.slli	zero,0x3
 582:	0000                	unimp
 584:	0000                	unimp
 586:	0000                	unimp
 588:	002c                	addi	a1,sp,8
 58a:	0000                	unimp
 58c:	04e8                	addi	a0,sp,588
 58e:	0000                	unimp
 590:	3a68                	fld	fa0,240(a2)
 592:	0002                	c.slli64	zero
 594:	0000                	unimp
 596:	0000                	unimp
 598:	0244                	addi	s1,sp,260
 59a:	0000                	unimp
 59c:	0000                	unimp
 59e:	0000                	unimp
 5a0:	0e44                	addi	s1,sp,788
 5a2:	4820                	lw	s0,80(s0)
 5a4:	0281                	addi	t0,t0,0
 5a6:	0488                	addi	a0,sp,576
 5a8:	0c44                	addi	s1,sp,532
 5aa:	0008                	0x8
 5ac:	c1022803          	lw	a6,-1008(tp) # fffffffffffe0c10 <_ebss+0xfffffffffffb99f8>
 5b0:	c844                	sw	s1,20(s0)
 5b2:	020c                	addi	a1,sp,256
 5b4:	4420                	lw	s0,72(s0)
 5b6:	000e                	c.slli	zero,0x3
 5b8:	002c                	addi	a1,sp,8
 5ba:	0000                	unimp
 5bc:	04e8                	addi	a0,sp,588
 5be:	0000                	unimp
 5c0:	3cac                	fld	fa1,120(s1)
 5c2:	0002                	c.slli64	zero
 5c4:	0000                	unimp
 5c6:	0000                	unimp
 5c8:	0174                	addi	a3,sp,140
 5ca:	0000                	unimp
 5cc:	0000                	unimp
 5ce:	0000                	unimp
 5d0:	0e44                	addi	s1,sp,788
 5d2:	4820                	lw	s0,80(s0)
 5d4:	0281                	addi	t0,t0,0
 5d6:	0488                	addi	a0,sp,576
 5d8:	0c44                	addi	s1,sp,532
 5da:	0008                	0x8
 5dc:	c1015803          	lhu	a6,-1008(sp)
 5e0:	c844                	sw	s1,20(s0)
 5e2:	020c                	addi	a1,sp,256
 5e4:	4420                	lw	s0,72(s0)
 5e6:	000e                	c.slli	zero,0x3
 5e8:	002c                	addi	a1,sp,8
 5ea:	0000                	unimp
 5ec:	04e8                	addi	a0,sp,588
 5ee:	0000                	unimp
 5f0:	3e20                	fld	fs0,120(a2)
 5f2:	0002                	c.slli64	zero
 5f4:	0000                	unimp
 5f6:	0000                	unimp
 5f8:	0070                	addi	a2,sp,12
 5fa:	0000                	unimp
 5fc:	0000                	unimp
 5fe:	0000                	unimp
 600:	0e44                	addi	s1,sp,788
 602:	4810                	lw	a2,16(s0)
 604:	0281                	addi	t0,t0,0
 606:	0488                	addi	a0,sp,576
 608:	0c44                	addi	s1,sp,532
 60a:	0008                	0x8
 60c:	5402                	lw	s0,32(sp)
 60e:	44c1                	li	s1,16
 610:	0cc8                	addi	a0,sp,596
 612:	1002                	c.slli	zero,0x20
 614:	0e44                	addi	s1,sp,788
 616:	0000                	unimp
 618:	002c                	addi	a1,sp,8
 61a:	0000                	unimp
 61c:	04e8                	addi	a0,sp,588
 61e:	0000                	unimp
 620:	3e90                	fld	fa2,56(a3)
 622:	0002                	c.slli64	zero
 624:	0000                	unimp
 626:	0000                	unimp
 628:	0070                	addi	a2,sp,12
 62a:	0000                	unimp
 62c:	0000                	unimp
 62e:	0000                	unimp
 630:	0e44                	addi	s1,sp,788
 632:	4810                	lw	a2,16(s0)
 634:	0281                	addi	t0,t0,0
 636:	0488                	addi	a0,sp,576
 638:	0c44                	addi	s1,sp,532
 63a:	0008                	0x8
 63c:	5402                	lw	s0,32(sp)
 63e:	44c1                	li	s1,16
 640:	0cc8                	addi	a0,sp,596
 642:	1002                	c.slli	zero,0x20
 644:	0e44                	addi	s1,sp,788
 646:	0000                	unimp
 648:	002c                	addi	a1,sp,8
 64a:	0000                	unimp
 64c:	04e8                	addi	a0,sp,588
 64e:	0000                	unimp
 650:	3f00                	fld	fs0,56(a4)
 652:	0002                	c.slli64	zero
 654:	0000                	unimp
 656:	0000                	unimp
 658:	008c                	addi	a1,sp,64
 65a:	0000                	unimp
 65c:	0000                	unimp
 65e:	0000                	unimp
 660:	0e44                	addi	s1,sp,788
 662:	4810                	lw	a2,16(s0)
 664:	0281                	addi	t0,t0,0
 666:	0488                	addi	a0,sp,576
 668:	0c44                	addi	s1,sp,532
 66a:	0008                	0x8
 66c:	7002                	0x7002
 66e:	44c1                	li	s1,16
 670:	0cc8                	addi	a0,sp,596
 672:	1002                	c.slli	zero,0x20
 674:	0e44                	addi	s1,sp,788
 676:	0000                	unimp
 678:	002c                	addi	a1,sp,8
 67a:	0000                	unimp
 67c:	04e8                	addi	a0,sp,588
 67e:	0000                	unimp
 680:	3f8c                	fld	fa1,56(a5)
 682:	0002                	c.slli64	zero
 684:	0000                	unimp
 686:	0000                	unimp
 688:	0064                	addi	s1,sp,12
 68a:	0000                	unimp
 68c:	0000                	unimp
 68e:	0000                	unimp
 690:	0e44                	addi	s1,sp,788
 692:	4820                	lw	s0,80(s0)
 694:	0281                	addi	t0,t0,0
 696:	0488                	addi	a0,sp,576
 698:	0c44                	addi	s1,sp,532
 69a:	0008                	0x8
 69c:	4802                	lw	a6,0(sp)
 69e:	44c1                	li	s1,16
 6a0:	0cc8                	addi	a0,sp,596
 6a2:	2002                	fld	ft0,0(sp)
 6a4:	0e44                	addi	s1,sp,788
 6a6:	0000                	unimp
 6a8:	002c                	addi	a1,sp,8
 6aa:	0000                	unimp
 6ac:	04e8                	addi	a0,sp,588
 6ae:	0000                	unimp
 6b0:	3ff0                	fld	fa2,248(a5)
 6b2:	0002                	c.slli64	zero
 6b4:	0000                	unimp
 6b6:	0000                	unimp
 6b8:	0100                	addi	s0,sp,128
 6ba:	0000                	unimp
 6bc:	0000                	unimp
 6be:	0000                	unimp
 6c0:	0e44                	addi	s1,sp,788
 6c2:	4830                	lw	a2,80(s0)
 6c4:	0281                	addi	t0,t0,0
 6c6:	0488                	addi	a0,sp,576
 6c8:	0c44                	addi	s1,sp,532
 6ca:	0008                	0x8
 6cc:	c100e403          	lwu	s0,-1008(ra) # 3c10 <_start-0x1e3f0>
 6d0:	c844                	sw	s1,20(s0)
 6d2:	020c                	addi	a1,sp,256
 6d4:	4430                	lw	a2,72(s0)
 6d6:	000e                	c.slli	zero,0x3
 6d8:	002c                	addi	a1,sp,8
 6da:	0000                	unimp
 6dc:	04e8                	addi	a0,sp,588
 6de:	0000                	unimp
 6e0:	40f0                	lw	a2,68(s1)
 6e2:	0002                	c.slli64	zero
 6e4:	0000                	unimp
 6e6:	0000                	unimp
 6e8:	0084                	addi	s1,sp,64
 6ea:	0000                	unimp
 6ec:	0000                	unimp
 6ee:	0000                	unimp
 6f0:	0e44                	addi	s1,sp,788
 6f2:	4810                	lw	a2,16(s0)
 6f4:	0281                	addi	t0,t0,0
 6f6:	0488                	addi	a0,sp,576
 6f8:	0c44                	addi	s1,sp,532
 6fa:	0008                	0x8
 6fc:	6802                	ld	a6,0(sp)
 6fe:	44c1                	li	s1,16
 700:	0cc8                	addi	a0,sp,596
 702:	1002                	c.slli	zero,0x20
 704:	0e44                	addi	s1,sp,788
 706:	0000                	unimp
 708:	000c                	0xc
 70a:	0000                	unimp
 70c:	ffffffff          	0xffffffff
 710:	7c010003          	lb	zero,1984(sp)
 714:	0d01                	addi	s10,s10,0
 716:	0002                	c.slli64	zero
 718:	002c                	addi	a1,sp,8
 71a:	0000                	unimp
 71c:	0708                	addi	a0,sp,896
 71e:	0000                	unimp
 720:	4174                	lw	a3,68(a0)
 722:	0002                	c.slli64	zero
 724:	0000                	unimp
 726:	0000                	unimp
 728:	002c                	addi	a1,sp,8
 72a:	0000                	unimp
 72c:	0000                	unimp
 72e:	0000                	unimp
 730:	0e44                	addi	s1,sp,788
 732:	4420                	lw	s0,72(s0)
 734:	0288                	addi	a0,sp,320
 736:	0c44                	addi	s1,sp,532
 738:	0008                	0x8
 73a:	c858                	sw	a4,20(s0)
 73c:	020c                	addi	a1,sp,256
 73e:	4420                	lw	s0,72(s0)
 740:	000e                	c.slli	zero,0x3
 742:	0000                	unimp
 744:	0000                	unimp
 746:	0000                	unimp
 748:	002c                	addi	a1,sp,8
 74a:	0000                	unimp
 74c:	0708                	addi	a0,sp,896
 74e:	0000                	unimp
 750:	41a0                	lw	s0,64(a1)
 752:	0002                	c.slli64	zero
 754:	0000                	unimp
 756:	0000                	unimp
 758:	002c                	addi	a1,sp,8
 75a:	0000                	unimp
 75c:	0000                	unimp
 75e:	0000                	unimp
 760:	0e44                	addi	s1,sp,788
 762:	4420                	lw	s0,72(s0)
 764:	0288                	addi	a0,sp,320
 766:	0c44                	addi	s1,sp,532
 768:	0008                	0x8
 76a:	c858                	sw	a4,20(s0)
 76c:	020c                	addi	a1,sp,256
 76e:	4420                	lw	s0,72(s0)
 770:	000e                	c.slli	zero,0x3
 772:	0000                	unimp
 774:	0000                	unimp
 776:	0000                	unimp
 778:	002c                	addi	a1,sp,8
 77a:	0000                	unimp
 77c:	0708                	addi	a0,sp,896
 77e:	0000                	unimp
 780:	41cc                	lw	a1,4(a1)
 782:	0002                	c.slli64	zero
 784:	0000                	unimp
 786:	0000                	unimp
 788:	0034                	addi	a3,sp,8
 78a:	0000                	unimp
 78c:	0000                	unimp
 78e:	0000                	unimp
 790:	0e44                	addi	s1,sp,788
 792:	4420                	lw	s0,72(s0)
 794:	0288                	addi	a0,sp,320
 796:	0c44                	addi	s1,sp,532
 798:	0008                	0x8
 79a:	c860                	sw	s0,84(s0)
 79c:	020c                	addi	a1,sp,256
 79e:	4420                	lw	s0,72(s0)
 7a0:	000e                	c.slli	zero,0x3
 7a2:	0000                	unimp
 7a4:	0000                	unimp
 7a6:	0000                	unimp
 7a8:	002c                	addi	a1,sp,8
 7aa:	0000                	unimp
 7ac:	0708                	addi	a0,sp,896
 7ae:	0000                	unimp
 7b0:	4200                	lw	s0,0(a2)
 7b2:	0002                	c.slli64	zero
 7b4:	0000                	unimp
 7b6:	0000                	unimp
 7b8:	024c                	addi	a1,sp,260
 7ba:	0000                	unimp
 7bc:	0000                	unimp
 7be:	0000                	unimp
 7c0:	0e44                	addi	s1,sp,788
 7c2:	4820                	lw	s0,80(s0)
 7c4:	0281                	addi	t0,t0,0
 7c6:	0488                	addi	a0,sp,576
 7c8:	0c44                	addi	s1,sp,532
 7ca:	0008                	0x8
 7cc:	c1023003          	ld	zero,-1008(tp) # fffffffffffffc10 <_ebss+0xfffffffffffd89f8>
 7d0:	c844                	sw	s1,20(s0)
 7d2:	020c                	addi	a1,sp,256
 7d4:	4420                	lw	s0,72(s0)
 7d6:	000e                	c.slli	zero,0x3
 7d8:	002c                	addi	a1,sp,8
 7da:	0000                	unimp
 7dc:	0708                	addi	a0,sp,896
 7de:	0000                	unimp
 7e0:	444c                	lw	a1,12(s0)
 7e2:	0002                	c.slli64	zero
 7e4:	0000                	unimp
 7e6:	0000                	unimp
 7e8:	0070                	addi	a2,sp,12
 7ea:	0000                	unimp
 7ec:	0000                	unimp
 7ee:	0000                	unimp
 7f0:	0e44                	addi	s1,sp,788
 7f2:	4830                	lw	a2,80(s0)
 7f4:	0281                	addi	t0,t0,0
 7f6:	0488                	addi	a0,sp,576
 7f8:	0c44                	addi	s1,sp,532
 7fa:	0008                	0x8
 7fc:	5402                	lw	s0,32(sp)
 7fe:	44c1                	li	s1,16
 800:	0cc8                	addi	a0,sp,596
 802:	3002                	fld	ft0,32(sp)
 804:	0e44                	addi	s1,sp,788
 806:	0000                	unimp
 808:	002c                	addi	a1,sp,8
 80a:	0000                	unimp
 80c:	0708                	addi	a0,sp,896
 80e:	0000                	unimp
 810:	44bc                	lw	a5,72(s1)
 812:	0002                	c.slli64	zero
 814:	0000                	unimp
 816:	0000                	unimp
 818:	0040                	addi	s0,sp,4
 81a:	0000                	unimp
 81c:	0000                	unimp
 81e:	0000                	unimp
 820:	0e44                	addi	s1,sp,788
 822:	4820                	lw	s0,80(s0)
 824:	0281                	addi	t0,t0,0
 826:	0488                	addi	a0,sp,576
 828:	0c44                	addi	s1,sp,532
 82a:	0008                	0x8
 82c:	c164                	sw	s1,68(a0)
 82e:	c844                	sw	s1,20(s0)
 830:	020c                	addi	a1,sp,256
 832:	4420                	lw	s0,72(s0)
 834:	000e                	c.slli	zero,0x3
 836:	0000                	unimp
 838:	002c                	addi	a1,sp,8
 83a:	0000                	unimp
 83c:	0708                	addi	a0,sp,896
 83e:	0000                	unimp
 840:	44fc                	lw	a5,76(s1)
 842:	0002                	c.slli64	zero
 844:	0000                	unimp
 846:	0000                	unimp
 848:	0060                	addi	s0,sp,12
 84a:	0000                	unimp
 84c:	0000                	unimp
 84e:	0000                	unimp
 850:	0e44                	addi	s1,sp,788
 852:	4820                	lw	s0,80(s0)
 854:	0281                	addi	t0,t0,0
 856:	0488                	addi	a0,sp,576
 858:	0c44                	addi	s1,sp,532
 85a:	0008                	0x8
 85c:	4402                	lw	s0,0(sp)
 85e:	44c1                	li	s1,16
 860:	0cc8                	addi	a0,sp,596
 862:	2002                	fld	ft0,0(sp)
 864:	0e44                	addi	s1,sp,788
 866:	0000                	unimp
 868:	002c                	addi	a1,sp,8
 86a:	0000                	unimp
 86c:	0708                	addi	a0,sp,896
 86e:	0000                	unimp
 870:	455c                	lw	a5,12(a0)
 872:	0002                	c.slli64	zero
 874:	0000                	unimp
 876:	0000                	unimp
 878:	0090                	addi	a2,sp,64
 87a:	0000                	unimp
 87c:	0000                	unimp
 87e:	0000                	unimp
 880:	0e44                	addi	s1,sp,788
 882:	4830                	lw	a2,80(s0)
 884:	0281                	addi	t0,t0,0
 886:	0488                	addi	a0,sp,576
 888:	0c44                	addi	s1,sp,532
 88a:	0008                	0x8
 88c:	7402                	ld	s0,32(sp)
 88e:	44c1                	li	s1,16
 890:	0cc8                	addi	a0,sp,596
 892:	3002                	fld	ft0,32(sp)
 894:	0e44                	addi	s1,sp,788
 896:	0000                	unimp
 898:	002c                	addi	a1,sp,8
 89a:	0000                	unimp
 89c:	0708                	addi	a0,sp,896
 89e:	0000                	unimp
 8a0:	45ec                	lw	a1,76(a1)
 8a2:	0002                	c.slli64	zero
 8a4:	0000                	unimp
 8a6:	0000                	unimp
 8a8:	00f0                	addi	a2,sp,76
 8aa:	0000                	unimp
 8ac:	0000                	unimp
 8ae:	0000                	unimp
 8b0:	0e44                	addi	s1,sp,788
 8b2:	4440                	lw	s0,12(s0)
 8b4:	0288                	addi	a0,sp,320
 8b6:	0c44                	addi	s1,sp,532
 8b8:	0008                	0x8
 8ba:	dc02                	sw	zero,56(sp)
 8bc:	0cc8                	addi	a0,sp,596
 8be:	4002                	0x4002
 8c0:	0e44                	addi	s1,sp,788
 8c2:	0000                	unimp
 8c4:	0000                	unimp
 8c6:	0000                	unimp
 8c8:	002c                	addi	a1,sp,8
 8ca:	0000                	unimp
 8cc:	0708                	addi	a0,sp,896
 8ce:	0000                	unimp
 8d0:	46dc                	lw	a5,12(a3)
 8d2:	0002                	c.slli64	zero
 8d4:	0000                	unimp
 8d6:	0000                	unimp
 8d8:	01c8                	addi	a0,sp,196
 8da:	0000                	unimp
 8dc:	0000                	unimp
 8de:	0000                	unimp
 8e0:	0e44                	addi	s1,sp,788
 8e2:	4850                	lw	a2,20(s0)
 8e4:	0281                	addi	t0,t0,0
 8e6:	0488                	addi	a0,sp,576
 8e8:	0c44                	addi	s1,sp,532
 8ea:	0008                	0x8
 8ec:	c101ac03          	lw	s8,-1008(gp)
 8f0:	c844                	sw	s1,20(s0)
 8f2:	020c                	addi	a1,sp,256
 8f4:	4450                	lw	a2,12(s0)
 8f6:	000e                	c.slli	zero,0x3
 8f8:	002c                	addi	a1,sp,8
 8fa:	0000                	unimp
 8fc:	0708                	addi	a0,sp,896
 8fe:	0000                	unimp
 900:	48a4                	lw	s1,80(s1)
 902:	0002                	c.slli64	zero
 904:	0000                	unimp
 906:	0000                	unimp
 908:	01d4                	addi	a3,sp,196
 90a:	0000                	unimp
 90c:	0000                	unimp
 90e:	0000                	unimp
 910:	0e44                	addi	s1,sp,788
 912:	4850                	lw	a2,20(s0)
 914:	0281                	addi	t0,t0,0
 916:	0488                	addi	a0,sp,576
 918:	0c44                	addi	s1,sp,532
 91a:	0008                	0x8
 91c:	c101b803          	ld	a6,-1008(gp)
 920:	c844                	sw	s1,20(s0)
 922:	020c                	addi	a1,sp,256
 924:	4450                	lw	a2,12(s0)
 926:	000e                	c.slli	zero,0x3
 928:	002c                	addi	a1,sp,8
 92a:	0000                	unimp
 92c:	0708                	addi	a0,sp,896
 92e:	0000                	unimp
 930:	4a78                	lw	a4,84(a2)
 932:	0002                	c.slli64	zero
 934:	0000                	unimp
 936:	0000                	unimp
 938:	006c                	addi	a1,sp,12
 93a:	0000                	unimp
 93c:	0000                	unimp
 93e:	0000                	unimp
 940:	0e44                	addi	s1,sp,788
 942:	4870                	lw	a2,84(s0)
 944:	1281                	addi	t0,t0,-32
 946:	1488                	addi	a0,sp,608
 948:	0c44                	addi	s1,sp,532
 94a:	4008                	lw	a0,0(s0)
 94c:	5002                	0x5002
 94e:	44c1                	li	s1,16
 950:	0cc8                	addi	a0,sp,596
 952:	7002                	0x7002
 954:	0e44                	addi	s1,sp,788
 956:	0000                	unimp
 958:	002c                	addi	a1,sp,8
 95a:	0000                	unimp
 95c:	0708                	addi	a0,sp,896
 95e:	0000                	unimp
 960:	4ae4                	lw	s1,84(a3)
 962:	0002                	c.slli64	zero
 964:	0000                	unimp
 966:	0000                	unimp
 968:	00d0                	addi	a2,sp,68
 96a:	0000                	unimp
 96c:	0000                	unimp
 96e:	0000                	unimp
 970:	0e44                	addi	s1,sp,788
 972:	4830                	lw	a2,80(s0)
 974:	0281                	addi	t0,t0,0
 976:	0488                	addi	a0,sp,576
 978:	0c44                	addi	s1,sp,532
 97a:	0008                	0x8
 97c:	b402                	fsd	ft0,40(sp)
 97e:	44c1                	li	s1,16
 980:	0cc8                	addi	a0,sp,596
 982:	3002                	fld	ft0,32(sp)
 984:	0e44                	addi	s1,sp,788
	...
