
benos_payload.elf:     file format elf64-littleriscv


Disassembly of section .text.boot:

0000000000020000 <_start>:
   20000:	0300006f          	j	20030 <reset>
   20004:	4765                	li	a4,25
   20006:	422e4e4f          	fnmadd.d	ft8,ft8,ft2,fs0,rmm
   2000a:	3054                	fld	fa3,160(s0)
   2000c:	5678                	lw	a4,108(a2)
   2000e:	1234                	addi	a3,sp,296
   20010:	7008                	ld	a0,32(s0)
   20012:	0000                	unimp
   20014:	0030                	addi	a2,sp,8
   20016:	0000                	unimp
   20018:	30303033          	0x30303033
   2001c:	0000                	unimp
   2001e:	0002                	c.slli64	zero
   20020:	0000                	unimp
   20022:	0002                	c.slli64	zero
	...
   2002c:	2e34                	fld	fa3,88(a2)
   2002e:	0030                	addi	a2,sp,8

0000000000020030 <reset>:
   20030:	00001117          	auipc	sp,0x1
   20034:	fd010113          	addi	sp,sp,-48 # 21000 <stacks_start>
   20038:	000012b7          	lui	t0,0x1
   2003c:	00510133          	add	sp,sp,t0
   20040:	4a00006f          	j	204e0 <sbi_main>

Disassembly of section .text:

0000000000020044 <read_csr_num>:
   20044:	fd010113          	addi	sp,sp,-48
   20048:	02813423          	sd	s0,40(sp)
   2004c:	02913023          	sd	s1,32(sp)
   20050:	03010413          	addi	s0,sp,48
   20054:	00050793          	mv	a5,a0
   20058:	fcf42e23          	sw	a5,-36(s0)
   2005c:	fe043423          	sd	zero,-24(s0)
   20060:	fdc42783          	lw	a5,-36(s0)
   20064:	c607869b          	addiw	a3,a5,-928
   20068:	0006871b          	sext.w	a4,a3
   2006c:	01700793          	li	a5,23
   20070:	0ee7e463          	bltu	a5,a4,20158 <read_csr_num+0x114>
   20074:	02069793          	slli	a5,a3,0x20
   20078:	0207d793          	srli	a5,a5,0x20
   2007c:	00279713          	slli	a4,a5,0x2
   20080:	00000797          	auipc	a5,0x0
   20084:	53878793          	addi	a5,a5,1336 # 205b8 <sbi_main+0xd8>
   20088:	00f707b3          	add	a5,a4,a5
   2008c:	0007a783          	lw	a5,0(a5)
   20090:	0007871b          	sext.w	a4,a5
   20094:	00000797          	auipc	a5,0x0
   20098:	52478793          	addi	a5,a5,1316 # 205b8 <sbi_main+0xd8>
   2009c:	00f707b3          	add	a5,a4,a5
   200a0:	00078067          	jr	a5
   200a4:	3a0027f3          	csrr	a5,pmpcfg0
   200a8:	00078493          	mv	s1,a5
   200ac:	00048793          	mv	a5,s1
   200b0:	fef43423          	sd	a5,-24(s0)
   200b4:	0a80006f          	j	2015c <read_csr_num+0x118>
   200b8:	3b0027f3          	csrr	a5,pmpaddr0
   200bc:	00078493          	mv	s1,a5
   200c0:	00048793          	mv	a5,s1
   200c4:	fef43423          	sd	a5,-24(s0)
   200c8:	0940006f          	j	2015c <read_csr_num+0x118>
   200cc:	3b1027f3          	csrr	a5,pmpaddr1
   200d0:	00078493          	mv	s1,a5
   200d4:	00048793          	mv	a5,s1
   200d8:	fef43423          	sd	a5,-24(s0)
   200dc:	0800006f          	j	2015c <read_csr_num+0x118>
   200e0:	3b2027f3          	csrr	a5,pmpaddr2
   200e4:	00078493          	mv	s1,a5
   200e8:	00048793          	mv	a5,s1
   200ec:	fef43423          	sd	a5,-24(s0)
   200f0:	06c0006f          	j	2015c <read_csr_num+0x118>
   200f4:	3b3027f3          	csrr	a5,pmpaddr3
   200f8:	00078493          	mv	s1,a5
   200fc:	00048793          	mv	a5,s1
   20100:	fef43423          	sd	a5,-24(s0)
   20104:	0580006f          	j	2015c <read_csr_num+0x118>
   20108:	3b4027f3          	csrr	a5,pmpaddr4
   2010c:	00078493          	mv	s1,a5
   20110:	00048793          	mv	a5,s1
   20114:	fef43423          	sd	a5,-24(s0)
   20118:	0440006f          	j	2015c <read_csr_num+0x118>
   2011c:	3b5027f3          	csrr	a5,pmpaddr5
   20120:	00078493          	mv	s1,a5
   20124:	00048793          	mv	a5,s1
   20128:	fef43423          	sd	a5,-24(s0)
   2012c:	0300006f          	j	2015c <read_csr_num+0x118>
   20130:	3b6027f3          	csrr	a5,pmpaddr6
   20134:	00078493          	mv	s1,a5
   20138:	00048793          	mv	a5,s1
   2013c:	fef43423          	sd	a5,-24(s0)
   20140:	01c0006f          	j	2015c <read_csr_num+0x118>
   20144:	3b7027f3          	csrr	a5,pmpaddr7
   20148:	00078493          	mv	s1,a5
   2014c:	00048793          	mv	a5,s1
   20150:	fef43423          	sd	a5,-24(s0)
   20154:	0080006f          	j	2015c <read_csr_num+0x118>
   20158:	00000013          	nop
   2015c:	fe843783          	ld	a5,-24(s0)
   20160:	00078513          	mv	a0,a5
   20164:	02813403          	ld	s0,40(sp)
   20168:	02013483          	ld	s1,32(sp)
   2016c:	03010113          	addi	sp,sp,48
   20170:	00008067          	ret

0000000000020174 <write_csr_num>:
   20174:	f9010113          	addi	sp,sp,-112
   20178:	06813423          	sd	s0,104(sp)
   2017c:	07010413          	addi	s0,sp,112
   20180:	00050793          	mv	a5,a0
   20184:	f8b43823          	sd	a1,-112(s0)
   20188:	f8f42e23          	sw	a5,-100(s0)
   2018c:	f9c42783          	lw	a5,-100(s0)
   20190:	c607869b          	addiw	a3,a5,-928
   20194:	0006871b          	sext.w	a4,a3
   20198:	01700793          	li	a5,23
   2019c:	0ee7e463          	bltu	a5,a4,20284 <write_csr_num+0x110>
   201a0:	02069793          	slli	a5,a3,0x20
   201a4:	0207d793          	srli	a5,a5,0x20
   201a8:	00279713          	slli	a4,a5,0x2
   201ac:	00000797          	auipc	a5,0x0
   201b0:	46c78793          	addi	a5,a5,1132 # 20618 <sbi_main+0x138>
   201b4:	00f707b3          	add	a5,a4,a5
   201b8:	0007a783          	lw	a5,0(a5)
   201bc:	0007871b          	sext.w	a4,a5
   201c0:	00000797          	auipc	a5,0x0
   201c4:	45878793          	addi	a5,a5,1112 # 20618 <sbi_main+0x138>
   201c8:	00f707b3          	add	a5,a4,a5
   201cc:	00078067          	jr	a5
   201d0:	f9043783          	ld	a5,-112(s0)
   201d4:	faf43423          	sd	a5,-88(s0)
   201d8:	fa843783          	ld	a5,-88(s0)
   201dc:	3a079073          	csrw	pmpcfg0,a5
   201e0:	0a80006f          	j	20288 <write_csr_num+0x114>
   201e4:	f9043783          	ld	a5,-112(s0)
   201e8:	faf43823          	sd	a5,-80(s0)
   201ec:	fb043783          	ld	a5,-80(s0)
   201f0:	3b079073          	csrw	pmpaddr0,a5
   201f4:	0940006f          	j	20288 <write_csr_num+0x114>
   201f8:	f9043783          	ld	a5,-112(s0)
   201fc:	faf43c23          	sd	a5,-72(s0)
   20200:	fb843783          	ld	a5,-72(s0)
   20204:	3b179073          	csrw	pmpaddr1,a5
   20208:	0800006f          	j	20288 <write_csr_num+0x114>
   2020c:	f9043783          	ld	a5,-112(s0)
   20210:	fcf43023          	sd	a5,-64(s0)
   20214:	fc043783          	ld	a5,-64(s0)
   20218:	3b279073          	csrw	pmpaddr2,a5
   2021c:	06c0006f          	j	20288 <write_csr_num+0x114>
   20220:	f9043783          	ld	a5,-112(s0)
   20224:	fcf43423          	sd	a5,-56(s0)
   20228:	fc843783          	ld	a5,-56(s0)
   2022c:	3b379073          	csrw	pmpaddr3,a5
   20230:	0580006f          	j	20288 <write_csr_num+0x114>
   20234:	f9043783          	ld	a5,-112(s0)
   20238:	fcf43823          	sd	a5,-48(s0)
   2023c:	fd043783          	ld	a5,-48(s0)
   20240:	3b479073          	csrw	pmpaddr4,a5
   20244:	0440006f          	j	20288 <write_csr_num+0x114>
   20248:	f9043783          	ld	a5,-112(s0)
   2024c:	fcf43c23          	sd	a5,-40(s0)
   20250:	fd843783          	ld	a5,-40(s0)
   20254:	3b579073          	csrw	pmpaddr5,a5
   20258:	0300006f          	j	20288 <write_csr_num+0x114>
   2025c:	f9043783          	ld	a5,-112(s0)
   20260:	fef43023          	sd	a5,-32(s0)
   20264:	fe043783          	ld	a5,-32(s0)
   20268:	3b679073          	csrw	pmpaddr6,a5
   2026c:	01c0006f          	j	20288 <write_csr_num+0x114>
   20270:	f9043783          	ld	a5,-112(s0)
   20274:	fef43423          	sd	a5,-24(s0)
   20278:	fe843783          	ld	a5,-24(s0)
   2027c:	3b779073          	csrw	pmpaddr7,a5
   20280:	0080006f          	j	20288 <write_csr_num+0x114>
   20284:	00000013          	nop
   20288:	00000013          	nop
   2028c:	06813403          	ld	s0,104(sp)
   20290:	07010113          	addi	sp,sp,112
   20294:	00008067          	ret

0000000000020298 <log2roundup>:
   20298:	fd010113          	addi	sp,sp,-48
   2029c:	02813423          	sd	s0,40(sp)
   202a0:	03010413          	addi	s0,sp,48
   202a4:	fca43c23          	sd	a0,-40(s0)
   202a8:	fe043423          	sd	zero,-24(s0)
   202ac:	02c0006f          	j	202d8 <log2roundup+0x40>
   202b0:	fe843783          	ld	a5,-24(s0)
   202b4:	0007879b          	sext.w	a5,a5
   202b8:	00078713          	mv	a4,a5
   202bc:	00100793          	li	a5,1
   202c0:	00e797b3          	sll	a5,a5,a4
   202c4:	fd843703          	ld	a4,-40(s0)
   202c8:	02e7f063          	bgeu	a5,a4,202e8 <log2roundup+0x50>
   202cc:	fe843783          	ld	a5,-24(s0)
   202d0:	00178793          	addi	a5,a5,1
   202d4:	fef43423          	sd	a5,-24(s0)
   202d8:	fe843703          	ld	a4,-24(s0)
   202dc:	03f00793          	li	a5,63
   202e0:	fce7f8e3          	bgeu	a5,a4,202b0 <log2roundup+0x18>
   202e4:	0080006f          	j	202ec <log2roundup+0x54>
   202e8:	00000013          	nop
   202ec:	fe843783          	ld	a5,-24(s0)
   202f0:	00078513          	mv	a0,a5
   202f4:	02813403          	ld	s0,40(sp)
   202f8:	03010113          	addi	sp,sp,48
   202fc:	00008067          	ret

0000000000020300 <sbi_set_pmp>:
   20300:	fa010113          	addi	sp,sp,-96
   20304:	04113c23          	sd	ra,88(sp)
   20308:	04813823          	sd	s0,80(sp)
   2030c:	06010413          	addi	s0,sp,96
   20310:	00050793          	mv	a5,a0
   20314:	fab43823          	sd	a1,-80(s0)
   20318:	fac43423          	sd	a2,-88(s0)
   2031c:	fad43023          	sd	a3,-96(s0)
   20320:	faf42e23          	sw	a5,-68(s0)
   20324:	fbc42783          	lw	a5,-68(s0)
   20328:	0007871b          	sext.w	a4,a5
   2032c:	00800793          	li	a5,8
   20330:	00e7d663          	bge	a5,a4,2033c <sbi_set_pmp+0x3c>
   20334:	fff00793          	li	a5,-1
   20338:	1940006f          	j	204cc <sbi_set_pmp+0x1cc>
   2033c:	fa843503          	ld	a0,-88(s0)
   20340:	f59ff0ef          	jal	ra,20298 <log2roundup>
   20344:	00050793          	mv	a5,a0
   20348:	fef42223          	sw	a5,-28(s0)
   2034c:	fe442783          	lw	a5,-28(s0)
   20350:	0007871b          	sext.w	a4,a5
   20354:	00100793          	li	a5,1
   20358:	00e7c663          	blt	a5,a4,20364 <sbi_set_pmp+0x64>
   2035c:	fff00793          	li	a5,-1
   20360:	16c0006f          	j	204cc <sbi_set_pmp+0x1cc>
   20364:	fb043783          	ld	a5,-80(s0)
   20368:	0027d793          	srli	a5,a5,0x2
   2036c:	fef43423          	sd	a5,-24(s0)
   20370:	fbc42783          	lw	a5,-68(s0)
   20374:	4027d79b          	sraiw	a5,a5,0x2
   20378:	0007879b          	sext.w	a5,a5
   2037c:	3a07879b          	addiw	a5,a5,928
   20380:	0007879b          	sext.w	a5,a5
   20384:	ffe7f793          	andi	a5,a5,-2
   20388:	fef42023          	sw	a5,-32(s0)
   2038c:	fbc42783          	lw	a5,-68(s0)
   20390:	0037979b          	slliw	a5,a5,0x3
   20394:	0007879b          	sext.w	a5,a5
   20398:	0387f793          	andi	a5,a5,56
   2039c:	fcf42e23          	sw	a5,-36(s0)
   203a0:	fbc42783          	lw	a5,-68(s0)
   203a4:	3b07879b          	addiw	a5,a5,944
   203a8:	fcf42c23          	sw	a5,-40(s0)
   203ac:	fa043783          	ld	a5,-96(s0)
   203b0:	fe77f793          	andi	a5,a5,-25
   203b4:	faf43023          	sd	a5,-96(s0)
   203b8:	fe442783          	lw	a5,-28(s0)
   203bc:	0007871b          	sext.w	a4,a5
   203c0:	00200793          	li	a5,2
   203c4:	00f71663          	bne	a4,a5,203d0 <sbi_set_pmp+0xd0>
   203c8:	01000793          	li	a5,16
   203cc:	0080006f          	j	203d4 <sbi_set_pmp+0xd4>
   203d0:	01800793          	li	a5,24
   203d4:	fa043703          	ld	a4,-96(s0)
   203d8:	00f767b3          	or	a5,a4,a5
   203dc:	faf43023          	sd	a5,-96(s0)
   203e0:	fdc42783          	lw	a5,-36(s0)
   203e4:	0ff00713          	li	a4,255
   203e8:	00f717b3          	sll	a5,a4,a5
   203ec:	fff7c793          	not	a5,a5
   203f0:	fcf43823          	sd	a5,-48(s0)
   203f4:	fe042783          	lw	a5,-32(s0)
   203f8:	00078513          	mv	a0,a5
   203fc:	c49ff0ef          	jal	ra,20044 <read_csr_num>
   20400:	00050713          	mv	a4,a0
   20404:	fd043783          	ld	a5,-48(s0)
   20408:	00e7f7b3          	and	a5,a5,a4
   2040c:	fcf43423          	sd	a5,-56(s0)
   20410:	fdc42783          	lw	a5,-36(s0)
   20414:	fa043703          	ld	a4,-96(s0)
   20418:	00f71733          	sll	a4,a4,a5
   2041c:	fd043783          	ld	a5,-48(s0)
   20420:	fff7c793          	not	a5,a5
   20424:	00f777b3          	and	a5,a4,a5
   20428:	fc843703          	ld	a4,-56(s0)
   2042c:	00f767b3          	or	a5,a4,a5
   20430:	fcf43423          	sd	a5,-56(s0)
   20434:	fe442783          	lw	a5,-28(s0)
   20438:	0007871b          	sext.w	a4,a5
   2043c:	00200793          	li	a5,2
   20440:	06e7d463          	bge	a5,a4,204a8 <sbi_set_pmp+0x1a8>
   20444:	fe442783          	lw	a5,-28(s0)
   20448:	0007871b          	sext.w	a4,a5
   2044c:	04000793          	li	a5,64
   20450:	00f71863          	bne	a4,a5,20460 <sbi_set_pmp+0x160>
   20454:	fff00793          	li	a5,-1
   20458:	fef43423          	sd	a5,-24(s0)
   2045c:	04c0006f          	j	204a8 <sbi_set_pmp+0x1a8>
   20460:	fe442783          	lw	a5,-28(s0)
   20464:	ffe7879b          	addiw	a5,a5,-2
   20468:	0007879b          	sext.w	a5,a5
   2046c:	00078713          	mv	a4,a5
   20470:	00100793          	li	a5,1
   20474:	00e797b3          	sll	a5,a5,a4
   20478:	fff78793          	addi	a5,a5,-1
   2047c:	fcf43023          	sd	a5,-64(s0)
   20480:	fc043783          	ld	a5,-64(s0)
   20484:	fff7c793          	not	a5,a5
   20488:	fe843703          	ld	a4,-24(s0)
   2048c:	00f777b3          	and	a5,a4,a5
   20490:	fef43423          	sd	a5,-24(s0)
   20494:	fc043783          	ld	a5,-64(s0)
   20498:	0017d793          	srli	a5,a5,0x1
   2049c:	fe843703          	ld	a4,-24(s0)
   204a0:	00f767b3          	or	a5,a4,a5
   204a4:	fef43423          	sd	a5,-24(s0)
   204a8:	fd842783          	lw	a5,-40(s0)
   204ac:	fe843583          	ld	a1,-24(s0)
   204b0:	00078513          	mv	a0,a5
   204b4:	cc1ff0ef          	jal	ra,20174 <write_csr_num>
   204b8:	fe042783          	lw	a5,-32(s0)
   204bc:	fc843583          	ld	a1,-56(s0)
   204c0:	00078513          	mv	a0,a5
   204c4:	cb1ff0ef          	jal	ra,20174 <write_csr_num>
   204c8:	00000793          	li	a5,0
   204cc:	00078513          	mv	a0,a5
   204d0:	05813083          	ld	ra,88(sp)
   204d4:	05013403          	ld	s0,80(sp)
   204d8:	06010113          	addi	sp,sp,96
   204dc:	00008067          	ret

00000000000204e0 <sbi_main>:
   204e0:	fa010113          	addi	sp,sp,-96
   204e4:	04113c23          	sd	ra,88(sp)
   204e8:	04813823          	sd	s0,80(sp)
   204ec:	04913423          	sd	s1,72(sp)
   204f0:	06010413          	addi	s0,sp,96
   204f4:	00700693          	li	a3,7
   204f8:	fff00613          	li	a2,-1
   204fc:	00000593          	li	a1,0
   20500:	00000513          	li	a0,0
   20504:	dfdff0ef          	jal	ra,20300 <sbi_set_pmp>
   20508:	300027f3          	csrr	a5,mstatus
   2050c:	00078493          	mv	s1,a5
   20510:	00048793          	mv	a5,s1
   20514:	fcf43c23          	sd	a5,-40(s0)
   20518:	fd843703          	ld	a4,-40(s0)
   2051c:	ffffe7b7          	lui	a5,0xffffe
   20520:	7ff78793          	addi	a5,a5,2047 # ffffffffffffe7ff <_payload_end+0xfffffffffffd77f7>
   20524:	00f77733          	and	a4,a4,a5
   20528:	000017b7          	lui	a5,0x1
   2052c:	80078793          	addi	a5,a5,-2048 # 800 <__bin_size-0x6808>
   20530:	00f767b3          	or	a5,a4,a5
   20534:	fcf43c23          	sd	a5,-40(s0)
   20538:	fd843783          	ld	a5,-40(s0)
   2053c:	f7f7f793          	andi	a5,a5,-129
   20540:	fcf43c23          	sd	a5,-40(s0)
   20544:	fd843783          	ld	a5,-40(s0)
   20548:	fcf43823          	sd	a5,-48(s0)
   2054c:	fd043783          	ld	a5,-48(s0)
   20550:	30079073          	csrw	mstatus,a5
   20554:	000227b7          	lui	a5,0x22
   20558:	fcf43423          	sd	a5,-56(s0)
   2055c:	fc843783          	ld	a5,-56(s0)
   20560:	34179073          	csrw	mepc,a5
   20564:	000207b7          	lui	a5,0x20
   20568:	fcf43023          	sd	a5,-64(s0)
   2056c:	fc043783          	ld	a5,-64(s0)
   20570:	30579073          	csrw	mtvec,a5
   20574:	000227b7          	lui	a5,0x22
   20578:	faf43c23          	sd	a5,-72(s0)
   2057c:	fb843783          	ld	a5,-72(s0)
   20580:	10579073          	csrw	stvec,a5
   20584:	fa043823          	sd	zero,-80(s0)
   20588:	fb043783          	ld	a5,-80(s0)
   2058c:	10479073          	csrw	sie,a5
   20590:	fa043423          	sd	zero,-88(s0)
   20594:	fa843783          	ld	a5,-88(s0)
   20598:	18079073          	csrw	satp,a5
   2059c:	30200073          	mret
   205a0:	00000013          	nop
   205a4:	05813083          	ld	ra,88(sp)
   205a8:	05013403          	ld	s0,80(sp)
   205ac:	04813483          	ld	s1,72(sp)
   205b0:	06010113          	addi	sp,sp,96
   205b4:	00008067          	ret

Disassembly of section .rodata:

00000000000205b8 <.rodata>:
   205b8:	faec                	sd	a1,240(a3)
   205ba:	fba0ffff          	0xfba0ffff
   205be:	fba0ffff          	0xfba0ffff
   205c2:	fba0ffff          	0xfba0ffff
   205c6:	fba0ffff          	0xfba0ffff
   205ca:	fba0ffff          	0xfba0ffff
   205ce:	fba0ffff          	0xfba0ffff
   205d2:	fba0ffff          	0xfba0ffff
   205d6:	fba0ffff          	0xfba0ffff
   205da:	fba0ffff          	0xfba0ffff
   205de:	fba0ffff          	0xfba0ffff
   205e2:	fba0ffff          	0xfba0ffff
   205e6:	fba0ffff          	0xfba0ffff
   205ea:	fba0ffff          	0xfba0ffff
   205ee:	fba0ffff          	0xfba0ffff
   205f2:	fba0ffff          	0xfba0ffff
   205f6:	fb00ffff          	0xfb00ffff
   205fa:	fb14ffff          	0xfb14ffff
   205fe:	fb28ffff          	0xfb28ffff
   20602:	fb3cffff          	0xfb3cffff
   20606:	fb50ffff          	0xfb50ffff
   2060a:	fb64ffff          	0xfb64ffff
   2060e:	fb78ffff          	0xfb78ffff
   20612:	fb8cffff          	0xfb8cffff
   20616:	fbb8ffff          	0xfbb8ffff
   2061a:	fc6cffff          	0xfc6cffff
   2061e:	fc6cffff          	0xfc6cffff
   20622:	fc6cffff          	0xfc6cffff
   20626:	fc6cffff          	0xfc6cffff
   2062a:	fc6cffff          	0xfc6cffff
   2062e:	fc6cffff          	0xfc6cffff
   20632:	fc6cffff          	0xfc6cffff
   20636:	fc6cffff          	0xfc6cffff
   2063a:	fc6cffff          	0xfc6cffff
   2063e:	fc6cffff          	0xfc6cffff
   20642:	fc6cffff          	0xfc6cffff
   20646:	fc6cffff          	0xfc6cffff
   2064a:	fc6cffff          	0xfc6cffff
   2064e:	fc6cffff          	0xfc6cffff
   20652:	fc6cffff          	0xfc6cffff
   20656:	fbccffff          	0xfbccffff
   2065a:	fbe0ffff          	0xfbe0ffff
   2065e:	fbf4ffff          	0xfbf4ffff
   20662:	fc08ffff          	0xfc08ffff
   20666:	fc1cffff          	0xfc1cffff
   2066a:	fc30ffff          	0xfc30ffff
   2066e:	fc44ffff          	0xfc44ffff
   20672:	fc58ffff          	0xfc58ffff
   20676:	          	0xffff

Disassembly of section .data:

0000000000021000 <stacks_start>:
	...

Disassembly of section .payload:

0000000000022000 <bss_begin>:
   22000:	10401073          	csrw	sie,zero
   22004:	5bd020ef          	jal	ra,24dc0 <bss_begin+0x2dc0>
   22008:	00000097          	auipc	ra,0x0
   2200c:	01c080e7          	jalr	28(ra) # 22024 <bss_begin+0x24>
   22010:	00004117          	auipc	sp,0x4
   22014:	ff010113          	addi	sp,sp,-16 # 26000 <bss_begin+0x4000>
   22018:	000012b7          	lui	t0,0x1
   2201c:	00510133          	add	sp,sp,t0
   22020:	77c0006f          	j	2279c <bss_begin+0x79c>
   22024:	00008493          	mv	s1,ra
   22028:	00003517          	auipc	a0,0x3
   2202c:	22050513          	addi	a0,a0,544 # 25248 <bss_begin+0x3248>
   22030:	651020ef          	jal	ra,24e80 <bss_begin+0x2e80>
   22034:	00048093          	mv	ra,s1
   22038:	00008067          	ret
   2203c:	0000                	unimp
   2203e:	0000                	unimp
   22040:	fc010113          	addi	sp,sp,-64
   22044:	02113c23          	sd	ra,56(sp)
   22048:	02813823          	sd	s0,48(sp)
   2204c:	04010413          	addi	s0,sp,64
   22050:	fca43423          	sd	a0,-56(s0)
   22054:	fe042623          	sw	zero,-20(s0)
   22058:	0300006f          	j	22088 <bss_begin+0x88>
   2205c:	00003717          	auipc	a4,0x3
   22060:	cc470713          	addi	a4,a4,-828 # 24d20 <bss_begin+0x2d20>
   22064:	fec42783          	lw	a5,-20(s0)
   22068:	00379793          	slli	a5,a5,0x3
   2206c:	00f707b3          	add	a5,a4,a5
   22070:	0007b783          	ld	a5,0(a5) # 22000 <bss_begin>
   22074:	fc843703          	ld	a4,-56(s0)
   22078:	02f70663          	beq	a4,a5,220a4 <bss_begin+0xa4>
   2207c:	fec42783          	lw	a5,-20(s0)
   22080:	0017879b          	addiw	a5,a5,1
   22084:	fef42623          	sw	a5,-20(s0)
   22088:	fec42703          	lw	a4,-20(s0)
   2208c:	00003797          	auipc	a5,0x3
   22090:	cc478793          	addi	a5,a5,-828 # 24d50 <bss_begin+0x2d50>
   22094:	0007b783          	ld	a5,0(a5)
   22098:	fcf762e3          	bltu	a4,a5,2205c <bss_begin+0x5c>
   2209c:	00000793          	li	a5,0
   220a0:	0880006f          	j	22128 <bss_begin+0x128>
   220a4:	00000013          	nop
   220a8:	00003797          	auipc	a5,0x3
   220ac:	c9078793          	addi	a5,a5,-880 # 24d38 <bss_begin+0x2d38>
   220b0:	fef43023          	sd	a5,-32(s0)
   220b4:	fec42783          	lw	a5,-20(s0)
   220b8:	0007879b          	sext.w	a5,a5
   220bc:	00079863          	bnez	a5,220cc <bss_begin+0xcc>
   220c0:	fe043783          	ld	a5,-32(s0)
   220c4:	fcf43c23          	sd	a5,-40(s0)
   220c8:	0480006f          	j	22110 <bss_begin+0x110>
   220cc:	fe043783          	ld	a5,-32(s0)
   220d0:	00178793          	addi	a5,a5,1
   220d4:	fef43023          	sd	a5,-32(s0)
   220d8:	fe043783          	ld	a5,-32(s0)
   220dc:	0007c783          	lbu	a5,0(a5)
   220e0:	00079863          	bnez	a5,220f0 <bss_begin+0xf0>
   220e4:	fec42783          	lw	a5,-20(s0)
   220e8:	fff7879b          	addiw	a5,a5,-1
   220ec:	fef42623          	sw	a5,-20(s0)
   220f0:	fec42783          	lw	a5,-20(s0)
   220f4:	0007879b          	sext.w	a5,a5
   220f8:	fc079ae3          	bnez	a5,220cc <bss_begin+0xcc>
   220fc:	fe043783          	ld	a5,-32(s0)
   22100:	00178793          	addi	a5,a5,1
   22104:	fef43023          	sd	a5,-32(s0)
   22108:	fe043783          	ld	a5,-32(s0)
   2210c:	fcf43c23          	sd	a5,-40(s0)
   22110:	fd843603          	ld	a2,-40(s0)
   22114:	fc843583          	ld	a1,-56(s0)
   22118:	00003517          	auipc	a0,0x3
   2211c:	da850513          	addi	a0,a0,-600 # 24ec0 <bss_begin+0x2ec0>
   22120:	664010ef          	jal	ra,23784 <bss_begin+0x1784>
   22124:	00000793          	li	a5,0
   22128:	00078513          	mv	a0,a5
   2212c:	03813083          	ld	ra,56(sp)
   22130:	03013403          	ld	s0,48(sp)
   22134:	04010113          	addi	sp,sp,64
   22138:	00008067          	ret
   2213c:	fc010113          	addi	sp,sp,-64
   22140:	02813c23          	sd	s0,56(sp)
   22144:	04010413          	addi	s0,sp,64
   22148:	fca43c23          	sd	a0,-40(s0)
   2214c:	fcb43823          	sd	a1,-48(s0)
   22150:	fcc43423          	sd	a2,-56(s0)
   22154:	fe043423          	sd	zero,-24(s0)
   22158:	fd843703          	ld	a4,-40(s0)
   2215c:	fc843783          	ld	a5,-56(s0)
   22160:	00f707b3          	add	a5,a4,a5
   22164:	fef43023          	sd	a5,-32(s0)
   22168:	fe043603          	ld	a2,-32(s0)
   2216c:	fd043683          	ld	a3,-48(s0)
   22170:	fe843703          	ld	a4,-24(s0)
   22174:	fd843783          	ld	a5,-40(s0)
   22178:	0007b703          	ld	a4,0(a5)
   2217c:	00e6b023          	sd	a4,0(a3)
   22180:	00868693          	addi	a3,a3,8
   22184:	00878793          	addi	a5,a5,8
   22188:	fec7c8e3          	blt	a5,a2,22178 <bss_begin+0x178>
   2218c:	fcd43823          	sd	a3,-48(s0)
   22190:	fee43423          	sd	a4,-24(s0)
   22194:	fcf43c23          	sd	a5,-40(s0)
   22198:	00000013          	nop
   2219c:	03813403          	ld	s0,56(sp)
   221a0:	04010113          	addi	sp,sp,64
   221a4:	00008067          	ret
   221a8:	fc010113          	addi	sp,sp,-64
   221ac:	02813c23          	sd	s0,56(sp)
   221b0:	04010413          	addi	s0,sp,64
   221b4:	fca43c23          	sd	a0,-40(s0)
   221b8:	fcb43823          	sd	a1,-48(s0)
   221bc:	fcc43423          	sd	a2,-56(s0)
   221c0:	fe043423          	sd	zero,-24(s0)
   221c4:	fd843703          	ld	a4,-40(s0)
   221c8:	fc843783          	ld	a5,-56(s0)
   221cc:	00f707b3          	add	a5,a4,a5
   221d0:	fef43023          	sd	a5,-32(s0)
   221d4:	fe043603          	ld	a2,-32(s0)
   221d8:	fd043683          	ld	a3,-48(s0)
   221dc:	fe843703          	ld	a4,-24(s0)
   221e0:	fd843783          	ld	a5,-40(s0)
   221e4:	0007b703          	ld	a4,0(a5)
   221e8:	00e6b023          	sd	a4,0(a3)
   221ec:	00868693          	addi	a3,a3,8
   221f0:	00878793          	addi	a5,a5,8
   221f4:	fec7c8e3          	blt	a5,a2,221e4 <bss_begin+0x1e4>
   221f8:	fcd43823          	sd	a3,-48(s0)
   221fc:	fee43423          	sd	a4,-24(s0)
   22200:	fcf43c23          	sd	a5,-40(s0)
   22204:	00000013          	nop
   22208:	03813403          	ld	s0,56(sp)
   2220c:	04010113          	addi	sp,sp,64
   22210:	00008067          	ret
   22214:	fd010113          	addi	sp,sp,-48
   22218:	02813423          	sd	s0,40(sp)
   2221c:	03010413          	addi	s0,sp,48
   22220:	fca43c23          	sd	a0,-40(s0)
   22224:	fcb43823          	sd	a1,-48(s0)
   22228:	fe043423          	sd	zero,-24(s0)
   2222c:	fd843683          	ld	a3,-40(s0)
   22230:	fd043703          	ld	a4,-48(s0)
   22234:	fe843783          	ld	a5,-24(s0)
   22238:	00073783          	ld	a5,0(a4)
   2223c:	00d7e7b3          	or	a5,a5,a3
   22240:	00f73023          	sd	a5,0(a4)
   22244:	fce43823          	sd	a4,-48(s0)
   22248:	fef43423          	sd	a5,-24(s0)
   2224c:	00000013          	nop
   22250:	02813403          	ld	s0,40(sp)
   22254:	03010113          	addi	sp,sp,48
   22258:	00008067          	ret
   2225c:	fd010113          	addi	sp,sp,-48
   22260:	02813423          	sd	s0,40(sp)
   22264:	03010413          	addi	s0,sp,48
   22268:	fca43c23          	sd	a0,-40(s0)
   2226c:	fcb43823          	sd	a1,-48(s0)
   22270:	fe043423          	sd	zero,-24(s0)
   22274:	fd843683          	ld	a3,-40(s0)
   22278:	fd043703          	ld	a4,-48(s0)
   2227c:	fe843783          	ld	a5,-24(s0)
   22280:	00073783          	ld	a5,0(a4)
   22284:	00d7f7b3          	and	a5,a5,a3
   22288:	00f73023          	sd	a5,0(a4)
   2228c:	fce43823          	sd	a4,-48(s0)
   22290:	fef43423          	sd	a5,-24(s0)
   22294:	00000013          	nop
   22298:	02813403          	ld	s0,40(sp)
   2229c:	03010113          	addi	sp,sp,48
   222a0:	00008067          	ret
   222a4:	fd010113          	addi	sp,sp,-48
   222a8:	02813423          	sd	s0,40(sp)
   222ac:	03010413          	addi	s0,sp,48
   222b0:	fca43c23          	sd	a0,-40(s0)
   222b4:	fcb43823          	sd	a1,-48(s0)
   222b8:	fe043423          	sd	zero,-24(s0)
   222bc:	fd843683          	ld	a3,-40(s0)
   222c0:	fd043703          	ld	a4,-48(s0)
   222c4:	fe843783          	ld	a5,-24(s0)
   222c8:	00073783          	ld	a5,0(a4)
   222cc:	00d787b3          	add	a5,a5,a3
   222d0:	00f73023          	sd	a5,0(a4)
   222d4:	fce43823          	sd	a4,-48(s0)
   222d8:	fef43423          	sd	a5,-24(s0)
   222dc:	00000013          	nop
   222e0:	02813403          	ld	s0,40(sp)
   222e4:	03010113          	addi	sp,sp,48
   222e8:	00008067          	ret
   222ec:	fe010113          	addi	sp,sp,-32
   222f0:	00113c23          	sd	ra,24(sp)
   222f4:	00813823          	sd	s0,16(sp)
   222f8:	02010413          	addi	s0,sp,32
   222fc:	00f00793          	li	a5,15
   22300:	fef43423          	sd	a5,-24(s0)
   22304:	fe840793          	addi	a5,s0,-24
   22308:	00078593          	mv	a1,a5
   2230c:	00200513          	li	a0,2
   22310:	f4dff0ef          	jal	ra,2225c <bss_begin+0x25c>
   22314:	fe843783          	ld	a5,-24(s0)
   22318:	00078593          	mv	a1,a5
   2231c:	00003517          	auipc	a0,0x3
   22320:	bb450513          	addi	a0,a0,-1100 # 24ed0 <bss_begin+0x2ed0>
   22324:	460010ef          	jal	ra,23784 <bss_begin+0x1784>
   22328:	08000793          	li	a5,128
   2232c:	fef43423          	sd	a5,-24(s0)
   22330:	fe840793          	addi	a5,s0,-24
   22334:	00078593          	mv	a1,a5
   22338:	00300513          	li	a0,3
   2233c:	ed9ff0ef          	jal	ra,22214 <bss_begin+0x214>
   22340:	fe843783          	ld	a5,-24(s0)
   22344:	00078593          	mv	a1,a5
   22348:	00003517          	auipc	a0,0x3
   2234c:	ba050513          	addi	a0,a0,-1120 # 24ee8 <bss_begin+0x2ee8>
   22350:	434010ef          	jal	ra,23784 <bss_begin+0x1784>
   22354:	00300793          	li	a5,3
   22358:	fef43423          	sd	a5,-24(s0)
   2235c:	fe840793          	addi	a5,s0,-24
   22360:	00078593          	mv	a1,a5
   22364:	00200513          	li	a0,2
   22368:	f3dff0ef          	jal	ra,222a4 <bss_begin+0x2a4>
   2236c:	fe843783          	ld	a5,-24(s0)
   22370:	00078593          	mv	a1,a5
   22374:	00003517          	auipc	a0,0x3
   22378:	b8c50513          	addi	a0,a0,-1140 # 24f00 <bss_begin+0x2f00>
   2237c:	408010ef          	jal	ra,23784 <bss_begin+0x1784>
   22380:	00000013          	nop
   22384:	01813083          	ld	ra,24(sp)
   22388:	01013403          	ld	s0,16(sp)
   2238c:	02010113          	addi	sp,sp,32
   22390:	00008067          	ret
   22394:	fe010113          	addi	sp,sp,-32
   22398:	00113c23          	sd	ra,24(sp)
   2239c:	00813823          	sd	s0,16(sp)
   223a0:	02010413          	addi	s0,sp,32
   223a4:	100027f3          	csrr	a5,sstatus
   223a8:	00078093          	mv	ra,a5
   223ac:	00008793          	mv	a5,ra
   223b0:	fef43423          	sd	a5,-24(s0)
   223b4:	fe843583          	ld	a1,-24(s0)
   223b8:	00003517          	auipc	a0,0x3
   223bc:	b6050513          	addi	a0,a0,-1184 # 24f18 <bss_begin+0x2f18>
   223c0:	3c4010ef          	jal	ra,23784 <bss_begin+0x1784>
   223c4:	00000013          	nop
   223c8:	01813083          	ld	ra,24(sp)
   223cc:	01013403          	ld	s0,16(sp)
   223d0:	02010113          	addi	sp,sp,32
   223d4:	00008067          	ret
   223d8:	fe010113          	addi	sp,sp,-32
   223dc:	00113c23          	sd	ra,24(sp)
   223e0:	00813823          	sd	s0,16(sp)
   223e4:	02010413          	addi	s0,sp,32
   223e8:	00050793          	mv	a5,a0
   223ec:	fef42623          	sw	a5,-20(s0)
   223f0:	fec42783          	lw	a5,-20(s0)
   223f4:	fff78793          	addi	a5,a5,-1
   223f8:	00078663          	beqz	a5,22404 <bss_begin+0x404>
   223fc:	00000793          	li	a5,0
   22400:	0240006f          	j	22424 <bss_begin+0x424>
   22404:	fec42783          	lw	a5,-20(s0)
   22408:	00078613          	mv	a2,a5
   2240c:	00003597          	auipc	a1,0x3
   22410:	d0c58593          	addi	a1,a1,-756 # 25118 <bss_begin+0x3118>
   22414:	00003517          	auipc	a0,0x3
   22418:	b1450513          	addi	a0,a0,-1260 # 24f28 <bss_begin+0x2f28>
   2241c:	368010ef          	jal	ra,23784 <bss_begin+0x1784>
   22420:	00100793          	li	a5,1
   22424:	00078513          	mv	a0,a5
   22428:	01813083          	ld	ra,24(sp)
   2242c:	01013403          	ld	s0,16(sp)
   22430:	02010113          	addi	sp,sp,32
   22434:	00008067          	ret
   22438:	fe010113          	addi	sp,sp,-32
   2243c:	00113c23          	sd	ra,24(sp)
   22440:	00813823          	sd	s0,16(sp)
   22444:	02010413          	addi	s0,sp,32
   22448:	02000613          	li	a2,32
   2244c:	000285b7          	lui	a1,0x28
   22450:	00020537          	lui	a0,0x20
   22454:	ce9ff0ef          	jal	ra,2213c <bss_begin+0x13c>
   22458:	02000613          	li	a2,32
   2245c:	000285b7          	lui	a1,0x28
   22460:	00020537          	lui	a0,0x20
   22464:	d45ff0ef          	jal	ra,221a8 <bss_begin+0x1a8>
   22468:	03000613          	li	a2,48
   2246c:	05500593          	li	a1,85
   22470:	000287b7          	lui	a5,0x28
   22474:	00278513          	addi	a0,a5,2 # 28002 <_payload_end+0xffa>
   22478:	5d8000ef          	jal	ra,22a50 <bss_begin+0xa50>
   2247c:	e71ff0ef          	jal	ra,222ec <bss_begin+0x2ec>
   22480:	f15ff0ef          	jal	ra,22394 <bss_begin+0x394>
   22484:	00100793          	li	a5,1
   22488:	fef42623          	sw	a5,-20(s0)
   2248c:	fec42783          	lw	a5,-20(s0)
   22490:	00078513          	mv	a0,a5
   22494:	f45ff0ef          	jal	ra,223d8 <bss_begin+0x3d8>
   22498:	00050793          	mv	a5,a0
   2249c:	00078713          	mv	a4,a5
   224a0:	00100793          	li	a5,1
   224a4:	00f71863          	bne	a4,a5,224b4 <bss_begin+0x4b4>
   224a8:	00003517          	auipc	a0,0x3
   224ac:	a9050513          	addi	a0,a0,-1392 # 24f38 <bss_begin+0x2f38>
   224b0:	2d4010ef          	jal	ra,23784 <bss_begin+0x1784>
   224b4:	fe042423          	sw	zero,-24(s0)
   224b8:	fe842783          	lw	a5,-24(s0)
   224bc:	00078513          	mv	a0,a5
   224c0:	f19ff0ef          	jal	ra,223d8 <bss_begin+0x3d8>
   224c4:	00050793          	mv	a5,a0
   224c8:	00079863          	bnez	a5,224d8 <bss_begin+0x4d8>
   224cc:	00003517          	auipc	a0,0x3
   224d0:	a8450513          	addi	a0,a0,-1404 # 24f50 <bss_begin+0x2f50>
   224d4:	2b0010ef          	jal	ra,23784 <bss_begin+0x1784>
   224d8:	00000013          	nop
   224dc:	01813083          	ld	ra,24(sp)
   224e0:	01013403          	ld	s0,16(sp)
   224e4:	02010113          	addi	sp,sp,32
   224e8:	00008067          	ret
   224ec:	fe010113          	addi	sp,sp,-32
   224f0:	00113c23          	sd	ra,24(sp)
   224f4:	00813823          	sd	s0,16(sp)
   224f8:	02010413          	addi	s0,sp,32
   224fc:	6c4020ef          	jal	ra,24bc0 <bss_begin+0x2bc0>
   22500:	6f4020ef          	jal	ra,24bf4 <bss_begin+0x2bf4>
   22504:	738020ef          	jal	ra,24c3c <bss_begin+0x2c3c>
   22508:	784020ef          	jal	ra,24c8c <bss_begin+0x2c8c>
   2250c:	7a4020ef          	jal	ra,24cb0 <bss_begin+0x2cb0>
   22510:	02800613          	li	a2,40
   22514:	05500593          	li	a1,85
   22518:	00028537          	lui	a0,0x28
   2251c:	534000ef          	jal	ra,22a50 <bss_begin+0xa50>
   22520:	00900593          	li	a1,9
   22524:	00a00513          	li	a0,10
   22528:	7ac020ef          	jal	ra,24cd4 <bss_begin+0x2cd4>
   2252c:	fea43423          	sd	a0,-24(s0)
   22530:	fe843783          	ld	a5,-24(s0)
   22534:	00079863          	bnez	a5,22544 <bss_begin+0x544>
   22538:	00003517          	auipc	a0,0x3
   2253c:	a3050513          	addi	a0,a0,-1488 # 24f68 <bss_begin+0x2f68>
   22540:	01c020ef          	jal	ra,2455c <bss_begin+0x255c>
   22544:	00a00593          	li	a1,10
   22548:	00900513          	li	a0,9
   2254c:	788020ef          	jal	ra,24cd4 <bss_begin+0x2cd4>
   22550:	fea43023          	sd	a0,-32(s0)
   22554:	fe043703          	ld	a4,-32(s0)
   22558:	fff00793          	li	a5,-1
   2255c:	00f71863          	bne	a4,a5,2256c <bss_begin+0x56c>
   22560:	00003517          	auipc	a0,0x3
   22564:	a0850513          	addi	a0,a0,-1528 # 24f68 <bss_begin+0x2f68>
   22568:	7f5010ef          	jal	ra,2455c <bss_begin+0x255c>
   2256c:	00900593          	li	a1,9
   22570:	00000513          	li	a0,0
   22574:	778020ef          	jal	ra,24cec <bss_begin+0x2cec>
   22578:	fea43423          	sd	a0,-24(s0)
   2257c:	00200593          	li	a1,2
   22580:	00500513          	li	a0,5
   22584:	768020ef          	jal	ra,24cec <bss_begin+0x2cec>
   22588:	fea43023          	sd	a0,-32(s0)
   2258c:	778020ef          	jal	ra,24d04 <bss_begin+0x2d04>
   22590:	00003517          	auipc	a0,0x3
   22594:	9f850513          	addi	a0,a0,-1544 # 24f88 <bss_begin+0x2f88>
   22598:	7c5010ef          	jal	ra,2455c <bss_begin+0x255c>
   2259c:	00500593          	li	a1,5
   225a0:	00500513          	li	a0,5
   225a4:	7c4020ef          	jal	ra,24d68 <bss_begin+0x2d68>
   225a8:	fea43423          	sd	a0,-24(s0)
   225ac:	fe843703          	ld	a4,-24(s0)
   225b0:	00a00793          	li	a5,10
   225b4:	00f71863          	bne	a4,a5,225c4 <bss_begin+0x5c4>
   225b8:	00003517          	auipc	a0,0x3
   225bc:	9e850513          	addi	a0,a0,-1560 # 24fa0 <bss_begin+0x2fa0>
   225c0:	79d010ef          	jal	ra,2455c <bss_begin+0x255c>
   225c4:	00500593          	li	a1,5
   225c8:	00500513          	li	a0,5
   225cc:	7c4020ef          	jal	ra,24d90 <bss_begin+0x2d90>
   225d0:	fea43023          	sd	a0,-32(s0)
   225d4:	fe043783          	ld	a5,-32(s0)
   225d8:	00079863          	bnez	a5,225e8 <bss_begin+0x5e8>
   225dc:	00003517          	auipc	a0,0x3
   225e0:	9e450513          	addi	a0,a0,-1564 # 24fc0 <bss_begin+0x2fc0>
   225e4:	779010ef          	jal	ra,2455c <bss_begin+0x255c>
   225e8:	00000013          	nop
   225ec:	01813083          	ld	ra,24(sp)
   225f0:	01013403          	ld	s0,16(sp)
   225f4:	02010113          	addi	sp,sp,32
   225f8:	00008067          	ret
   225fc:	ff010113          	addi	sp,sp,-16
   22600:	00113423          	sd	ra,8(sp)
   22604:	00813023          	sd	s0,0(sp)
   22608:	01010413          	addi	s0,sp,16
   2260c:	00003517          	auipc	a0,0x3
   22610:	9d450513          	addi	a0,a0,-1580 # 24fe0 <bss_begin+0x2fe0>
   22614:	170010ef          	jal	ra,23784 <bss_begin+0x1784>
   22618:	00000597          	auipc	a1,0x0
   2261c:	9e858593          	addi	a1,a1,-1560 # 22000 <bss_begin>
   22620:	00000617          	auipc	a2,0x0
   22624:	a1c60613          	addi	a2,a2,-1508 # 2203c <bss_begin+0x3c>
   22628:	00000717          	auipc	a4,0x0
   2262c:	a1470713          	addi	a4,a4,-1516 # 2203c <bss_begin+0x3c>
   22630:	00000797          	auipc	a5,0x0
   22634:	9d078793          	addi	a5,a5,-1584 # 22000 <bss_begin>
   22638:	40f707b3          	sub	a5,a4,a5
   2263c:	00078693          	mv	a3,a5
   22640:	00003517          	auipc	a0,0x3
   22644:	9b850513          	addi	a0,a0,-1608 # 24ff8 <bss_begin+0x2ff8>
   22648:	13c010ef          	jal	ra,23784 <bss_begin+0x1784>
   2264c:	00000597          	auipc	a1,0x0
   22650:	9f058593          	addi	a1,a1,-1552 # 2203c <bss_begin+0x3c>
   22654:	00003617          	auipc	a2,0x3
   22658:	86860613          	addi	a2,a2,-1944 # 24ebc <bss_begin+0x2ebc>
   2265c:	00003717          	auipc	a4,0x3
   22660:	86070713          	addi	a4,a4,-1952 # 24ebc <bss_begin+0x2ebc>
   22664:	00000797          	auipc	a5,0x0
   22668:	9d878793          	addi	a5,a5,-1576 # 2203c <bss_begin+0x3c>
   2266c:	40f707b3          	sub	a5,a4,a5
   22670:	00078693          	mv	a3,a5
   22674:	00003517          	auipc	a0,0x3
   22678:	9b450513          	addi	a0,a0,-1612 # 25028 <bss_begin+0x3028>
   2267c:	108010ef          	jal	ra,23784 <bss_begin+0x1784>
   22680:	00003597          	auipc	a1,0x3
   22684:	83c58593          	addi	a1,a1,-1988 # 24ebc <bss_begin+0x2ebc>
   22688:	00003617          	auipc	a2,0x3
   2268c:	bd360613          	addi	a2,a2,-1069 # 2525b <bss_begin+0x325b>
   22690:	00003717          	auipc	a4,0x3
   22694:	bcb70713          	addi	a4,a4,-1077 # 2525b <bss_begin+0x325b>
   22698:	00003797          	auipc	a5,0x3
   2269c:	82478793          	addi	a5,a5,-2012 # 24ebc <bss_begin+0x2ebc>
   226a0:	40f707b3          	sub	a5,a4,a5
   226a4:	00078693          	mv	a3,a5
   226a8:	00003517          	auipc	a0,0x3
   226ac:	9b050513          	addi	a0,a0,-1616 # 25058 <bss_begin+0x3058>
   226b0:	0d4010ef          	jal	ra,23784 <bss_begin+0x1784>
   226b4:	00003597          	auipc	a1,0x3
   226b8:	ba758593          	addi	a1,a1,-1113 # 2525b <bss_begin+0x325b>
   226bc:	00005617          	auipc	a2,0x5
   226c0:	94460613          	addi	a2,a2,-1724 # 27000 <bss_begin+0x5000>
   226c4:	00005717          	auipc	a4,0x5
   226c8:	93c70713          	addi	a4,a4,-1732 # 27000 <bss_begin+0x5000>
   226cc:	00003797          	auipc	a5,0x3
   226d0:	b8f78793          	addi	a5,a5,-1137 # 2525b <bss_begin+0x325b>
   226d4:	40f707b3          	sub	a5,a4,a5
   226d8:	00078693          	mv	a3,a5
   226dc:	00003517          	auipc	a0,0x3
   226e0:	9ac50513          	addi	a0,a0,-1620 # 25088 <bss_begin+0x3088>
   226e4:	0a0010ef          	jal	ra,23784 <bss_begin+0x1784>
   226e8:	00005597          	auipc	a1,0x5
   226ec:	92058593          	addi	a1,a1,-1760 # 27008 <_payload_end>
   226f0:	00005617          	auipc	a2,0x5
   226f4:	b2860613          	addi	a2,a2,-1240 # 27218 <_payload_end+0x210>
   226f8:	00005717          	auipc	a4,0x5
   226fc:	b2070713          	addi	a4,a4,-1248 # 27218 <_payload_end+0x210>
   22700:	00005797          	auipc	a5,0x5
   22704:	90878793          	addi	a5,a5,-1784 # 27008 <_payload_end>
   22708:	40f707b3          	sub	a5,a4,a5
   2270c:	00078693          	mv	a3,a5
   22710:	00003517          	auipc	a0,0x3
   22714:	9a850513          	addi	a0,a0,-1624 # 250b8 <bss_begin+0x30b8>
   22718:	06c010ef          	jal	ra,23784 <bss_begin+0x1784>
   2271c:	00000013          	nop
   22720:	00813083          	ld	ra,8(sp)
   22724:	00013403          	ld	s0,0(sp)
   22728:	01010113          	addi	sp,sp,16
   2272c:	00008067          	ret
   22730:	fd010113          	addi	sp,sp,-48
   22734:	02113423          	sd	ra,40(sp)
   22738:	02813023          	sd	s0,32(sp)
   2273c:	03010413          	addi	s0,sp,48
   22740:	00005797          	auipc	a5,0x5
   22744:	8c878793          	addi	a5,a5,-1848 # 27008 <_payload_end>
   22748:	fef43423          	sd	a5,-24(s0)
   2274c:	00005797          	auipc	a5,0x5
   22750:	acc78793          	addi	a5,a5,-1332 # 27218 <_payload_end+0x210>
   22754:	fef43023          	sd	a5,-32(s0)
   22758:	fe043783          	ld	a5,-32(s0)
   2275c:	0007871b          	sext.w	a4,a5
   22760:	fe843783          	ld	a5,-24(s0)
   22764:	0007879b          	sext.w	a5,a5
   22768:	40f707bb          	subw	a5,a4,a5
   2276c:	fcf42e23          	sw	a5,-36(s0)
   22770:	fe843783          	ld	a5,-24(s0)
   22774:	fdc46703          	lwu	a4,-36(s0)
   22778:	00070613          	mv	a2,a4
   2277c:	00000593          	li	a1,0
   22780:	00078513          	mv	a0,a5
   22784:	2cc000ef          	jal	ra,22a50 <bss_begin+0xa50>
   22788:	00000013          	nop
   2278c:	02813083          	ld	ra,40(sp)
   22790:	02013403          	ld	s0,32(sp)
   22794:	03010113          	addi	sp,sp,48
   22798:	00008067          	ret
   2279c:	ff010113          	addi	sp,sp,-16
   227a0:	00113423          	sd	ra,8(sp)
   227a4:	00813023          	sd	s0,0(sp)
   227a8:	01010413          	addi	s0,sp,16
   227ac:	f85ff0ef          	jal	ra,22730 <bss_begin+0x730>
   227b0:	251010ef          	jal	ra,24200 <bss_begin+0x2200>
   227b4:	00003517          	auipc	a0,0x3
   227b8:	93450513          	addi	a0,a0,-1740 # 250e8 <bss_begin+0x30e8>
   227bc:	5a1010ef          	jal	ra,2455c <bss_begin+0x255c>
   227c0:	729000ef          	jal	ra,236e8 <bss_begin+0x16e8>
   227c4:	00003517          	auipc	a0,0x3
   227c8:	93c50513          	addi	a0,a0,-1732 # 25100 <bss_begin+0x3100>
   227cc:	7b9000ef          	jal	ra,23784 <bss_begin+0x1784>
   227d0:	d1dff0ef          	jal	ra,224ec <bss_begin+0x4ec>
   227d4:	c65ff0ef          	jal	ra,22438 <bss_begin+0x438>
   227d8:	008017b7          	lui	a5,0x801
   227dc:	88078513          	addi	a0,a5,-1920 # 800880 <_payload_end+0x7d9878>
   227e0:	861ff0ef          	jal	ra,22040 <bss_begin+0x40>
   227e4:	008017b7          	lui	a5,0x801
   227e8:	86078513          	addi	a0,a5,-1952 # 800860 <_payload_end+0x7d9858>
   227ec:	855ff0ef          	jal	ra,22040 <bss_begin+0x40>
   227f0:	008017b7          	lui	a5,0x801
   227f4:	80078513          	addi	a0,a5,-2048 # 800800 <_payload_end+0x7d97f8>
   227f8:	849ff0ef          	jal	ra,22040 <bss_begin+0x40>
   227fc:	e01ff0ef          	jal	ra,225fc <bss_begin+0x5fc>
   22800:	0000006f          	j	22800 <bss_begin+0x800>
   22804:	fc010113          	addi	sp,sp,-64
   22808:	02813c23          	sd	s0,56(sp)
   2280c:	04010413          	addi	s0,sp,64
   22810:	fca43c23          	sd	a0,-40(s0)
   22814:	fcb43823          	sd	a1,-48(s0)
   22818:	00060793          	mv	a5,a2
   2281c:	fcf42623          	sw	a5,-52(s0)
   22820:	fe042623          	sw	zero,-20(s0)
   22824:	fd043603          	ld	a2,-48(s0)
   22828:	fd843683          	ld	a3,-40(s0)
   2282c:	fcc42703          	lw	a4,-52(s0)
   22830:	fec42783          	lw	a5,-20(s0)
   22834:	00c6b023          	sd	a2,0(a3)
   22838:	00c6b423          	sd	a2,8(a3)
   2283c:	01078793          	addi	a5,a5,16
   22840:	fee7cae3          	blt	a5,a4,22834 <bss_begin+0x834>
   22844:	fcd43c23          	sd	a3,-40(s0)
   22848:	fce42623          	sw	a4,-52(s0)
   2284c:	fef42623          	sw	a5,-20(s0)
   22850:	00000013          	nop
   22854:	03813403          	ld	s0,56(sp)
   22858:	04010113          	addi	sp,sp,64
   2285c:	00008067          	ret
   22860:	fc010113          	addi	sp,sp,-64
   22864:	02813c23          	sd	s0,56(sp)
   22868:	04010413          	addi	s0,sp,64
   2286c:	fca43c23          	sd	a0,-40(s0)
   22870:	00058793          	mv	a5,a1
   22874:	fcc43423          	sd	a2,-56(s0)
   22878:	fcf42a23          	sw	a5,-44(s0)
   2287c:	fd843783          	ld	a5,-40(s0)
   22880:	fef43423          	sd	a5,-24(s0)
   22884:	01c0006f          	j	228a0 <bss_begin+0x8a0>
   22888:	fe843783          	ld	a5,-24(s0)
   2288c:	00178713          	addi	a4,a5,1
   22890:	fee43423          	sd	a4,-24(s0)
   22894:	fd442703          	lw	a4,-44(s0)
   22898:	0ff77713          	andi	a4,a4,255
   2289c:	00e78023          	sb	a4,0(a5)
   228a0:	fc843783          	ld	a5,-56(s0)
   228a4:	fff78713          	addi	a4,a5,-1
   228a8:	fce43423          	sd	a4,-56(s0)
   228ac:	fc079ee3          	bnez	a5,22888 <bss_begin+0x888>
   228b0:	fd843783          	ld	a5,-40(s0)
   228b4:	00078513          	mv	a0,a5
   228b8:	03813403          	ld	s0,56(sp)
   228bc:	04010113          	addi	sp,sp,64
   228c0:	00008067          	ret
   228c4:	f9010113          	addi	sp,sp,-112
   228c8:	06113423          	sd	ra,104(sp)
   228cc:	06813023          	sd	s0,96(sp)
   228d0:	07010413          	addi	s0,sp,112
   228d4:	faa43423          	sd	a0,-88(s0)
   228d8:	00058793          	mv	a5,a1
   228dc:	f8c43c23          	sd	a2,-104(s0)
   228e0:	faf42223          	sw	a5,-92(s0)
   228e4:	fa843783          	ld	a5,-88(s0)
   228e8:	fef43423          	sd	a5,-24(s0)
   228ec:	01000793          	li	a5,16
   228f0:	fcf43423          	sd	a5,-56(s0)
   228f4:	f9843783          	ld	a5,-104(s0)
   228f8:	fef43023          	sd	a5,-32(s0)
   228fc:	fe843783          	ld	a5,-24(s0)
   22900:	fcf43023          	sd	a5,-64(s0)
   22904:	fc043823          	sd	zero,-48(s0)
   22908:	fc042e23          	sw	zero,-36(s0)
   2290c:	0340006f          	j	22940 <bss_begin+0x940>
   22910:	fa442783          	lw	a5,-92(s0)
   22914:	0ff7f793          	andi	a5,a5,255
   22918:	fdc42703          	lw	a4,-36(s0)
   2291c:	0037171b          	slliw	a4,a4,0x3
   22920:	0007071b          	sext.w	a4,a4
   22924:	00e797b3          	sll	a5,a5,a4
   22928:	fd043703          	ld	a4,-48(s0)
   2292c:	00f767b3          	or	a5,a4,a5
   22930:	fcf43823          	sd	a5,-48(s0)
   22934:	fdc42783          	lw	a5,-36(s0)
   22938:	0017879b          	addiw	a5,a5,1
   2293c:	fcf42e23          	sw	a5,-36(s0)
   22940:	fdc42783          	lw	a5,-36(s0)
   22944:	0007871b          	sext.w	a4,a5
   22948:	00700793          	li	a5,7
   2294c:	fce7d2e3          	bge	a5,a4,22910 <bss_begin+0x910>
   22950:	fc843783          	ld	a5,-56(s0)
   22954:	fff78713          	addi	a4,a5,-1
   22958:	fc043783          	ld	a5,-64(s0)
   2295c:	00f777b3          	and	a5,a4,a5
   22960:	04078e63          	beqz	a5,229bc <bss_begin+0x9bc>
   22964:	fc843783          	ld	a5,-56(s0)
   22968:	fff78793          	addi	a5,a5,-1
   2296c:	fc043703          	ld	a4,-64(s0)
   22970:	00f777b3          	and	a5,a4,a5
   22974:	faf43c23          	sd	a5,-72(s0)
   22978:	fc843703          	ld	a4,-56(s0)
   2297c:	fb843783          	ld	a5,-72(s0)
   22980:	40f707b3          	sub	a5,a4,a5
   22984:	faf43c23          	sd	a5,-72(s0)
   22988:	fa442783          	lw	a5,-92(s0)
   2298c:	fb843603          	ld	a2,-72(s0)
   22990:	00078593          	mv	a1,a5
   22994:	fe843503          	ld	a0,-24(s0)
   22998:	ec9ff0ef          	jal	ra,22860 <bss_begin+0x860>
   2299c:	fe843703          	ld	a4,-24(s0)
   229a0:	fb843783          	ld	a5,-72(s0)
   229a4:	00f707b3          	add	a5,a4,a5
   229a8:	fef43423          	sd	a5,-24(s0)
   229ac:	f9843703          	ld	a4,-104(s0)
   229b0:	fb843783          	ld	a5,-72(s0)
   229b4:	40f707b3          	sub	a5,a4,a5
   229b8:	fef43023          	sd	a5,-32(s0)
   229bc:	fe043703          	ld	a4,-32(s0)
   229c0:	fc843783          	ld	a5,-56(s0)
   229c4:	06e7fa63          	bgeu	a5,a4,22a38 <bss_begin+0xa38>
   229c8:	fe043703          	ld	a4,-32(s0)
   229cc:	fc843783          	ld	a5,-56(s0)
   229d0:	02f757b3          	divu	a5,a4,a5
   229d4:	faf42a23          	sw	a5,-76(s0)
   229d8:	fe043703          	ld	a4,-32(s0)
   229dc:	fc843783          	ld	a5,-56(s0)
   229e0:	02f777b3          	remu	a5,a4,a5
   229e4:	fef43023          	sd	a5,-32(s0)
   229e8:	fb442783          	lw	a5,-76(s0)
   229ec:	0047979b          	slliw	a5,a5,0x4
   229f0:	0007879b          	sext.w	a5,a5
   229f4:	00078613          	mv	a2,a5
   229f8:	fd043583          	ld	a1,-48(s0)
   229fc:	fe843503          	ld	a0,-24(s0)
   22a00:	e05ff0ef          	jal	ra,22804 <bss_begin+0x804>
   22a04:	fe043783          	ld	a5,-32(s0)
   22a08:	02078863          	beqz	a5,22a38 <bss_begin+0xa38>
   22a0c:	fb442783          	lw	a5,-76(s0)
   22a10:	0047979b          	slliw	a5,a5,0x4
   22a14:	0007879b          	sext.w	a5,a5
   22a18:	00078713          	mv	a4,a5
   22a1c:	fe843783          	ld	a5,-24(s0)
   22a20:	00e787b3          	add	a5,a5,a4
   22a24:	fa442703          	lw	a4,-92(s0)
   22a28:	fe043603          	ld	a2,-32(s0)
   22a2c:	00070593          	mv	a1,a4
   22a30:	00078513          	mv	a0,a5
   22a34:	e2dff0ef          	jal	ra,22860 <bss_begin+0x860>
   22a38:	fa843783          	ld	a5,-88(s0)
   22a3c:	00078513          	mv	a0,a5
   22a40:	06813083          	ld	ra,104(sp)
   22a44:	06013403          	ld	s0,96(sp)
   22a48:	07010113          	addi	sp,sp,112
   22a4c:	00008067          	ret
   22a50:	fd010113          	addi	sp,sp,-48
   22a54:	02113423          	sd	ra,40(sp)
   22a58:	02813023          	sd	s0,32(sp)
   22a5c:	03010413          	addi	s0,sp,48
   22a60:	fea43423          	sd	a0,-24(s0)
   22a64:	00058793          	mv	a5,a1
   22a68:	fcc43c23          	sd	a2,-40(s0)
   22a6c:	fef42223          	sw	a5,-28(s0)
   22a70:	fe442783          	lw	a5,-28(s0)
   22a74:	fd843603          	ld	a2,-40(s0)
   22a78:	00078593          	mv	a1,a5
   22a7c:	fe843503          	ld	a0,-24(s0)
   22a80:	e45ff0ef          	jal	ra,228c4 <bss_begin+0x8c4>
   22a84:	00050793          	mv	a5,a0
   22a88:	00078513          	mv	a0,a5
   22a8c:	02813083          	ld	ra,40(sp)
   22a90:	02013403          	ld	s0,32(sp)
   22a94:	03010113          	addi	sp,sp,48
   22a98:	00008067          	ret
   22a9c:	fd010113          	addi	sp,sp,-48
   22aa0:	02813423          	sd	s0,40(sp)
   22aa4:	03010413          	addi	s0,sp,48
   22aa8:	fca43c23          	sd	a0,-40(s0)
   22aac:	fcb43823          	sd	a1,-48(s0)
   22ab0:	fe042623          	sw	zero,-20(s0)
   22ab4:	0440006f          	j	22af8 <bss_begin+0xaf8>
   22ab8:	fec42703          	lw	a4,-20(s0)
   22abc:	00070793          	mv	a5,a4
   22ac0:	0027979b          	slliw	a5,a5,0x2
   22ac4:	00e787bb          	addw	a5,a5,a4
   22ac8:	0017979b          	slliw	a5,a5,0x1
   22acc:	fef42623          	sw	a5,-20(s0)
   22ad0:	fd843783          	ld	a5,-40(s0)
   22ad4:	00178713          	addi	a4,a5,1
   22ad8:	fce43c23          	sd	a4,-40(s0)
   22adc:	0007c783          	lbu	a5,0(a5)
   22ae0:	0007879b          	sext.w	a5,a5
   22ae4:	fd07879b          	addiw	a5,a5,-48
   22ae8:	0007879b          	sext.w	a5,a5
   22aec:	fec42703          	lw	a4,-20(s0)
   22af0:	00f707bb          	addw	a5,a4,a5
   22af4:	fef42623          	sw	a5,-20(s0)
   22af8:	fd843783          	ld	a5,-40(s0)
   22afc:	0007c783          	lbu	a5,0(a5)
   22b00:	00078713          	mv	a4,a5
   22b04:	02f00793          	li	a5,47
   22b08:	00e7fc63          	bgeu	a5,a4,22b20 <bss_begin+0xb20>
   22b0c:	fd843783          	ld	a5,-40(s0)
   22b10:	0007c783          	lbu	a5,0(a5)
   22b14:	00078713          	mv	a4,a5
   22b18:	03900793          	li	a5,57
   22b1c:	f8e7fee3          	bgeu	a5,a4,22ab8 <bss_begin+0xab8>
   22b20:	fd043783          	ld	a5,-48(s0)
   22b24:	fec42703          	lw	a4,-20(s0)
   22b28:	00e7a023          	sw	a4,0(a5)
   22b2c:	fd843783          	ld	a5,-40(s0)
   22b30:	00078513          	mv	a0,a5
   22b34:	02813403          	ld	s0,40(sp)
   22b38:	03010113          	addi	sp,sp,48
   22b3c:	00008067          	ret
   22b40:	f2010113          	addi	sp,sp,-224
   22b44:	0c813c23          	sd	s0,216(sp)
   22b48:	0e010413          	addi	s0,sp,224
   22b4c:	f2a43c23          	sd	a0,-200(s0)
   22b50:	f2b43823          	sd	a1,-208(s0)
   22b54:	00060593          	mv	a1,a2
   22b58:	00068613          	mv	a2,a3
   22b5c:	00070693          	mv	a3,a4
   22b60:	00078713          	mv	a4,a5
   22b64:	00058793          	mv	a5,a1
   22b68:	f2f42623          	sw	a5,-212(s0)
   22b6c:	00060793          	mv	a5,a2
   22b70:	f2f42423          	sw	a5,-216(s0)
   22b74:	00068793          	mv	a5,a3
   22b78:	f2f42223          	sw	a5,-220(s0)
   22b7c:	00070793          	mv	a5,a4
   22b80:	f2f42023          	sw	a5,-224(s0)
   22b84:	fe0407a3          	sb	zero,-17(s0)
   22b88:	00002797          	auipc	a5,0x2
   22b8c:	5a078793          	addi	a5,a5,1440 # 25128 <bss_begin+0x3128>
   22b90:	fef43023          	sd	a5,-32(s0)
   22b94:	f2042783          	lw	a5,-224(s0)
   22b98:	0407f793          	andi	a5,a5,64
   22b9c:	0007879b          	sext.w	a5,a5
   22ba0:	00078863          	beqz	a5,22bb0 <bss_begin+0xbb0>
   22ba4:	00002797          	auipc	a5,0x2
   22ba8:	5ac78793          	addi	a5,a5,1452 # 25150 <bss_begin+0x3150>
   22bac:	fef43023          	sd	a5,-32(s0)
   22bb0:	f2042783          	lw	a5,-224(s0)
   22bb4:	0107f793          	andi	a5,a5,16
   22bb8:	0007879b          	sext.w	a5,a5
   22bbc:	00078863          	beqz	a5,22bcc <bss_begin+0xbcc>
   22bc0:	f2042783          	lw	a5,-224(s0)
   22bc4:	ffe7f793          	andi	a5,a5,-2
   22bc8:	f2f42023          	sw	a5,-224(s0)
   22bcc:	f2c42783          	lw	a5,-212(s0)
   22bd0:	0007871b          	sext.w	a4,a5
   22bd4:	00100793          	li	a5,1
   22bd8:	00e7da63          	bge	a5,a4,22bec <bss_begin+0xbec>
   22bdc:	f2c42783          	lw	a5,-212(s0)
   22be0:	0007871b          	sext.w	a4,a5
   22be4:	02400793          	li	a5,36
   22be8:	00e7d663          	bge	a5,a4,22bf4 <bss_begin+0xbf4>
   22bec:	00000793          	li	a5,0
   22bf0:	3400006f          	j	22f30 <bss_begin+0xf30>
   22bf4:	f2042783          	lw	a5,-224(s0)
   22bf8:	0017f793          	andi	a5,a5,1
   22bfc:	0007879b          	sext.w	a5,a5
   22c00:	00078663          	beqz	a5,22c0c <bss_begin+0xc0c>
   22c04:	03000793          	li	a5,48
   22c08:	0080006f          	j	22c10 <bss_begin+0xc10>
   22c0c:	02000793          	li	a5,32
   22c10:	fcf40da3          	sb	a5,-37(s0)
   22c14:	f2042783          	lw	a5,-224(s0)
   22c18:	0027f793          	andi	a5,a5,2
   22c1c:	0007879b          	sext.w	a5,a5
   22c20:	06078c63          	beqz	a5,22c98 <bss_begin+0xc98>
   22c24:	f3043783          	ld	a5,-208(s0)
   22c28:	fcf43823          	sd	a5,-48(s0)
   22c2c:	fd043783          	ld	a5,-48(s0)
   22c30:	0007de63          	bgez	a5,22c4c <bss_begin+0xc4c>
   22c34:	02d00793          	li	a5,45
   22c38:	fef407a3          	sb	a5,-17(s0)
   22c3c:	fd043783          	ld	a5,-48(s0)
   22c40:	40f007b3          	neg	a5,a5
   22c44:	f2f43823          	sd	a5,-208(s0)
   22c48:	0500006f          	j	22c98 <bss_begin+0xc98>
   22c4c:	f2042783          	lw	a5,-224(s0)
   22c50:	0047f793          	andi	a5,a5,4
   22c54:	0007879b          	sext.w	a5,a5
   22c58:	00078e63          	beqz	a5,22c74 <bss_begin+0xc74>
   22c5c:	02b00793          	li	a5,43
   22c60:	fef407a3          	sb	a5,-17(s0)
   22c64:	f2842783          	lw	a5,-216(s0)
   22c68:	fff7879b          	addiw	a5,a5,-1
   22c6c:	f2f42423          	sw	a5,-216(s0)
   22c70:	0280006f          	j	22c98 <bss_begin+0xc98>
   22c74:	f2042783          	lw	a5,-224(s0)
   22c78:	0087f793          	andi	a5,a5,8
   22c7c:	0007879b          	sext.w	a5,a5
   22c80:	00078c63          	beqz	a5,22c98 <bss_begin+0xc98>
   22c84:	02000793          	li	a5,32
   22c88:	fef407a3          	sb	a5,-17(s0)
   22c8c:	f2842783          	lw	a5,-216(s0)
   22c90:	fff7879b          	addiw	a5,a5,-1
   22c94:	f2f42423          	sw	a5,-216(s0)
   22c98:	f2042783          	lw	a5,-224(s0)
   22c9c:	0207f793          	andi	a5,a5,32
   22ca0:	0007879b          	sext.w	a5,a5
   22ca4:	04078063          	beqz	a5,22ce4 <bss_begin+0xce4>
   22ca8:	f2c42783          	lw	a5,-212(s0)
   22cac:	0007871b          	sext.w	a4,a5
   22cb0:	01000793          	li	a5,16
   22cb4:	00f71a63          	bne	a4,a5,22cc8 <bss_begin+0xcc8>
   22cb8:	f2842783          	lw	a5,-216(s0)
   22cbc:	ffe7879b          	addiw	a5,a5,-2
   22cc0:	f2f42423          	sw	a5,-216(s0)
   22cc4:	0200006f          	j	22ce4 <bss_begin+0xce4>
   22cc8:	f2c42783          	lw	a5,-212(s0)
   22ccc:	0007871b          	sext.w	a4,a5
   22cd0:	00800793          	li	a5,8
   22cd4:	00f71863          	bne	a4,a5,22ce4 <bss_begin+0xce4>
   22cd8:	f2842783          	lw	a5,-216(s0)
   22cdc:	fff7879b          	addiw	a5,a5,-1
   22ce0:	f2f42423          	sw	a5,-216(s0)
   22ce4:	fc042e23          	sw	zero,-36(s0)
   22ce8:	f3043783          	ld	a5,-208(s0)
   22cec:	06079e63          	bnez	a5,22d68 <bss_begin+0xd68>
   22cf0:	fdc42783          	lw	a5,-36(s0)
   22cf4:	0017871b          	addiw	a4,a5,1
   22cf8:	fce42e23          	sw	a4,-36(s0)
   22cfc:	ff040713          	addi	a4,s0,-16
   22d00:	00f707b3          	add	a5,a4,a5
   22d04:	03000713          	li	a4,48
   22d08:	f4e78c23          	sb	a4,-168(a5)
   22d0c:	0640006f          	j	22d70 <bss_begin+0xd70>
   22d10:	f2c42783          	lw	a5,-212(s0)
   22d14:	fcf42623          	sw	a5,-52(s0)
   22d18:	fcc46783          	lwu	a5,-52(s0)
   22d1c:	f3043703          	ld	a4,-208(s0)
   22d20:	02f777b3          	remu	a5,a4,a5
   22d24:	fcf42423          	sw	a5,-56(s0)
   22d28:	fcc46783          	lwu	a5,-52(s0)
   22d2c:	f3043703          	ld	a4,-208(s0)
   22d30:	02f757b3          	divu	a5,a4,a5
   22d34:	f2f43823          	sd	a5,-208(s0)
   22d38:	fc842783          	lw	a5,-56(s0)
   22d3c:	02079793          	slli	a5,a5,0x20
   22d40:	0207d793          	srli	a5,a5,0x20
   22d44:	fe043703          	ld	a4,-32(s0)
   22d48:	00f70733          	add	a4,a4,a5
   22d4c:	fdc42783          	lw	a5,-36(s0)
   22d50:	0017869b          	addiw	a3,a5,1
   22d54:	fcd42e23          	sw	a3,-36(s0)
   22d58:	00074703          	lbu	a4,0(a4)
   22d5c:	ff040693          	addi	a3,s0,-16
   22d60:	00f687b3          	add	a5,a3,a5
   22d64:	f4e78c23          	sb	a4,-168(a5)
   22d68:	f3043783          	ld	a5,-208(s0)
   22d6c:	fa0792e3          	bnez	a5,22d10 <bss_begin+0xd10>
   22d70:	fdc42703          	lw	a4,-36(s0)
   22d74:	f2442783          	lw	a5,-220(s0)
   22d78:	0007071b          	sext.w	a4,a4
   22d7c:	0007879b          	sext.w	a5,a5
   22d80:	00e7d663          	bge	a5,a4,22d8c <bss_begin+0xd8c>
   22d84:	fdc42783          	lw	a5,-36(s0)
   22d88:	f2f42223          	sw	a5,-220(s0)
   22d8c:	f2842703          	lw	a4,-216(s0)
   22d90:	f2442783          	lw	a5,-220(s0)
   22d94:	40f707bb          	subw	a5,a4,a5
   22d98:	f2f42423          	sw	a5,-216(s0)
   22d9c:	f2042783          	lw	a5,-224(s0)
   22da0:	0117f793          	andi	a5,a5,17
   22da4:	0007879b          	sext.w	a5,a5
   22da8:	02079663          	bnez	a5,22dd4 <bss_begin+0xdd4>
   22dac:	0180006f          	j	22dc4 <bss_begin+0xdc4>
   22db0:	f3843783          	ld	a5,-200(s0)
   22db4:	00178713          	addi	a4,a5,1
   22db8:	f2e43c23          	sd	a4,-200(s0)
   22dbc:	02000713          	li	a4,32
   22dc0:	00e78023          	sb	a4,0(a5)
   22dc4:	f2842783          	lw	a5,-216(s0)
   22dc8:	fff7871b          	addiw	a4,a5,-1
   22dcc:	f2e42423          	sw	a4,-216(s0)
   22dd0:	fef040e3          	bgtz	a5,22db0 <bss_begin+0xdb0>
   22dd4:	fef44783          	lbu	a5,-17(s0)
   22dd8:	0ff7f793          	andi	a5,a5,255
   22ddc:	00078c63          	beqz	a5,22df4 <bss_begin+0xdf4>
   22de0:	f3843783          	ld	a5,-200(s0)
   22de4:	00178713          	addi	a4,a5,1
   22de8:	f2e43c23          	sd	a4,-200(s0)
   22dec:	fef44703          	lbu	a4,-17(s0)
   22df0:	00e78023          	sb	a4,0(a5)
   22df4:	f2042783          	lw	a5,-224(s0)
   22df8:	0207f793          	andi	a5,a5,32
   22dfc:	0007879b          	sext.w	a5,a5
   22e00:	06078463          	beqz	a5,22e68 <bss_begin+0xe68>
   22e04:	f2c42783          	lw	a5,-212(s0)
   22e08:	0007871b          	sext.w	a4,a5
   22e0c:	00800793          	li	a5,8
   22e10:	00f71e63          	bne	a4,a5,22e2c <bss_begin+0xe2c>
   22e14:	f3843783          	ld	a5,-200(s0)
   22e18:	00178713          	addi	a4,a5,1
   22e1c:	f2e43c23          	sd	a4,-200(s0)
   22e20:	03000713          	li	a4,48
   22e24:	00e78023          	sb	a4,0(a5)
   22e28:	0400006f          	j	22e68 <bss_begin+0xe68>
   22e2c:	f2c42783          	lw	a5,-212(s0)
   22e30:	0007871b          	sext.w	a4,a5
   22e34:	01000793          	li	a5,16
   22e38:	02f71863          	bne	a4,a5,22e68 <bss_begin+0xe68>
   22e3c:	f3843783          	ld	a5,-200(s0)
   22e40:	00178713          	addi	a4,a5,1
   22e44:	f2e43c23          	sd	a4,-200(s0)
   22e48:	03000713          	li	a4,48
   22e4c:	00e78023          	sb	a4,0(a5)
   22e50:	f3843783          	ld	a5,-200(s0)
   22e54:	00178713          	addi	a4,a5,1
   22e58:	f2e43c23          	sd	a4,-200(s0)
   22e5c:	fe043703          	ld	a4,-32(s0)
   22e60:	02174703          	lbu	a4,33(a4)
   22e64:	00e78023          	sb	a4,0(a5)
   22e68:	f2042783          	lw	a5,-224(s0)
   22e6c:	0107f793          	andi	a5,a5,16
   22e70:	0007879b          	sext.w	a5,a5
   22e74:	04079263          	bnez	a5,22eb8 <bss_begin+0xeb8>
   22e78:	0180006f          	j	22e90 <bss_begin+0xe90>
   22e7c:	f3843783          	ld	a5,-200(s0)
   22e80:	00178713          	addi	a4,a5,1
   22e84:	f2e43c23          	sd	a4,-200(s0)
   22e88:	fdb44703          	lbu	a4,-37(s0)
   22e8c:	00e78023          	sb	a4,0(a5)
   22e90:	f2842783          	lw	a5,-216(s0)
   22e94:	fff7871b          	addiw	a4,a5,-1
   22e98:	f2e42423          	sw	a4,-216(s0)
   22e9c:	fef040e3          	bgtz	a5,22e7c <bss_begin+0xe7c>
   22ea0:	0180006f          	j	22eb8 <bss_begin+0xeb8>
   22ea4:	f3843783          	ld	a5,-200(s0)
   22ea8:	00178713          	addi	a4,a5,1
   22eac:	f2e43c23          	sd	a4,-200(s0)
   22eb0:	03000713          	li	a4,48
   22eb4:	00e78023          	sb	a4,0(a5)
   22eb8:	f2442783          	lw	a5,-220(s0)
   22ebc:	fff7871b          	addiw	a4,a5,-1
   22ec0:	f2e42223          	sw	a4,-220(s0)
   22ec4:	fdc42703          	lw	a4,-36(s0)
   22ec8:	0007071b          	sext.w	a4,a4
   22ecc:	fcf74ce3          	blt	a4,a5,22ea4 <bss_begin+0xea4>
   22ed0:	0240006f          	j	22ef4 <bss_begin+0xef4>
   22ed4:	f3843783          	ld	a5,-200(s0)
   22ed8:	00178713          	addi	a4,a5,1
   22edc:	f2e43c23          	sd	a4,-200(s0)
   22ee0:	fdc42703          	lw	a4,-36(s0)
   22ee4:	ff040693          	addi	a3,s0,-16
   22ee8:	00e68733          	add	a4,a3,a4
   22eec:	f5874703          	lbu	a4,-168(a4)
   22ef0:	00e78023          	sb	a4,0(a5)
   22ef4:	fdc42783          	lw	a5,-36(s0)
   22ef8:	fff7871b          	addiw	a4,a5,-1
   22efc:	fce42e23          	sw	a4,-36(s0)
   22f00:	fcf04ae3          	bgtz	a5,22ed4 <bss_begin+0xed4>
   22f04:	0180006f          	j	22f1c <bss_begin+0xf1c>
   22f08:	f3843783          	ld	a5,-200(s0)
   22f0c:	00178713          	addi	a4,a5,1
   22f10:	f2e43c23          	sd	a4,-200(s0)
   22f14:	02000713          	li	a4,32
   22f18:	00e78023          	sb	a4,0(a5)
   22f1c:	f2842783          	lw	a5,-216(s0)
   22f20:	fff7871b          	addiw	a4,a5,-1
   22f24:	f2e42423          	sw	a4,-216(s0)
   22f28:	fef040e3          	bgtz	a5,22f08 <bss_begin+0xf08>
   22f2c:	f3843783          	ld	a5,-200(s0)
   22f30:	00078513          	mv	a0,a5
   22f34:	0d813403          	ld	s0,216(sp)
   22f38:	0e010113          	addi	sp,sp,224
   22f3c:	00008067          	ret
   22f40:	f9010113          	addi	sp,sp,-112
   22f44:	06113423          	sd	ra,104(sp)
   22f48:	06813023          	sd	s0,96(sp)
   22f4c:	07010413          	addi	s0,sp,112
   22f50:	faa43423          	sd	a0,-88(s0)
   22f54:	00058793          	mv	a5,a1
   22f58:	f8c43c23          	sd	a2,-104(s0)
   22f5c:	f8d43823          	sd	a3,-112(s0)
   22f60:	faf42223          	sw	a5,-92(s0)
   22f64:	fa843783          	ld	a5,-88(s0)
   22f68:	fef43423          	sd	a5,-24(s0)
   22f6c:	7440006f          	j	236b0 <bss_begin+0x16b0>
   22f70:	f9843783          	ld	a5,-104(s0)
   22f74:	0007c783          	lbu	a5,0(a5)
   22f78:	00078713          	mv	a4,a5
   22f7c:	02500793          	li	a5,37
   22f80:	02f70063          	beq	a4,a5,22fa0 <bss_begin+0xfa0>
   22f84:	fe843783          	ld	a5,-24(s0)
   22f88:	00178713          	addi	a4,a5,1
   22f8c:	fee43423          	sd	a4,-24(s0)
   22f90:	f9843703          	ld	a4,-104(s0)
   22f94:	00074703          	lbu	a4,0(a4)
   22f98:	00e78023          	sb	a4,0(a5)
   22f9c:	7080006f          	j	236a4 <bss_begin+0x16a4>
   22fa0:	fe042223          	sw	zero,-28(s0)
   22fa4:	f9843783          	ld	a5,-104(s0)
   22fa8:	00178793          	addi	a5,a5,1
   22fac:	f8f43c23          	sd	a5,-104(s0)
   22fb0:	f9843783          	ld	a5,-104(s0)
   22fb4:	0007c783          	lbu	a5,0(a5)
   22fb8:	0007879b          	sext.w	a5,a5
   22fbc:	fe07869b          	addiw	a3,a5,-32
   22fc0:	0006871b          	sext.w	a4,a3
   22fc4:	01000793          	li	a5,16
   22fc8:	08e7e263          	bltu	a5,a4,2304c <bss_begin+0x104c>
   22fcc:	02069793          	slli	a5,a3,0x20
   22fd0:	0207d793          	srli	a5,a5,0x20
   22fd4:	00279713          	slli	a4,a5,0x2
   22fd8:	00002797          	auipc	a5,0x2
   22fdc:	1a878793          	addi	a5,a5,424 # 25180 <bss_begin+0x3180>
   22fe0:	00f707b3          	add	a5,a4,a5
   22fe4:	0007a783          	lw	a5,0(a5)
   22fe8:	0007871b          	sext.w	a4,a5
   22fec:	00002797          	auipc	a5,0x2
   22ff0:	19478793          	addi	a5,a5,404 # 25180 <bss_begin+0x3180>
   22ff4:	00f707b3          	add	a5,a4,a5
   22ff8:	00078067          	jr	a5
   22ffc:	fe442783          	lw	a5,-28(s0)
   23000:	0107e793          	ori	a5,a5,16
   23004:	fef42223          	sw	a5,-28(s0)
   23008:	f9dff06f          	j	22fa4 <bss_begin+0xfa4>
   2300c:	fe442783          	lw	a5,-28(s0)
   23010:	0047e793          	ori	a5,a5,4
   23014:	fef42223          	sw	a5,-28(s0)
   23018:	f8dff06f          	j	22fa4 <bss_begin+0xfa4>
   2301c:	fe442783          	lw	a5,-28(s0)
   23020:	0087e793          	ori	a5,a5,8
   23024:	fef42223          	sw	a5,-28(s0)
   23028:	f7dff06f          	j	22fa4 <bss_begin+0xfa4>
   2302c:	fe442783          	lw	a5,-28(s0)
   23030:	0207e793          	ori	a5,a5,32
   23034:	fef42223          	sw	a5,-28(s0)
   23038:	f6dff06f          	j	22fa4 <bss_begin+0xfa4>
   2303c:	fe442783          	lw	a5,-28(s0)
   23040:	0017e793          	ori	a5,a5,1
   23044:	fef42223          	sw	a5,-28(s0)
   23048:	f5dff06f          	j	22fa4 <bss_begin+0xfa4>
   2304c:	fff00793          	li	a5,-1
   23050:	faf42a23          	sw	a5,-76(s0)
   23054:	f9843783          	ld	a5,-104(s0)
   23058:	0007c783          	lbu	a5,0(a5)
   2305c:	00078713          	mv	a4,a5
   23060:	02f00793          	li	a5,47
   23064:	02e7f863          	bgeu	a5,a4,23094 <bss_begin+0x1094>
   23068:	f9843783          	ld	a5,-104(s0)
   2306c:	0007c783          	lbu	a5,0(a5)
   23070:	00078713          	mv	a4,a5
   23074:	03900793          	li	a5,57
   23078:	00e7ee63          	bltu	a5,a4,23094 <bss_begin+0x1094>
   2307c:	fb440793          	addi	a5,s0,-76
   23080:	00078593          	mv	a1,a5
   23084:	f9843503          	ld	a0,-104(s0)
   23088:	a15ff0ef          	jal	ra,22a9c <bss_begin+0xa9c>
   2308c:	f8a43c23          	sd	a0,-104(s0)
   23090:	0500006f          	j	230e0 <bss_begin+0x10e0>
   23094:	f9843783          	ld	a5,-104(s0)
   23098:	0007c783          	lbu	a5,0(a5)
   2309c:	00078713          	mv	a4,a5
   230a0:	02a00793          	li	a5,42
   230a4:	02f71e63          	bne	a4,a5,230e0 <bss_begin+0x10e0>
   230a8:	f9043783          	ld	a5,-112(s0)
   230ac:	00878713          	addi	a4,a5,8
   230b0:	f8e43823          	sd	a4,-112(s0)
   230b4:	0007a783          	lw	a5,0(a5)
   230b8:	faf42a23          	sw	a5,-76(s0)
   230bc:	fb442783          	lw	a5,-76(s0)
   230c0:	0207d063          	bgez	a5,230e0 <bss_begin+0x10e0>
   230c4:	fb442783          	lw	a5,-76(s0)
   230c8:	40f007bb          	negw	a5,a5
   230cc:	0007879b          	sext.w	a5,a5
   230d0:	faf42a23          	sw	a5,-76(s0)
   230d4:	fe442783          	lw	a5,-28(s0)
   230d8:	0107e793          	ori	a5,a5,16
   230dc:	fef42223          	sw	a5,-28(s0)
   230e0:	fff00793          	li	a5,-1
   230e4:	faf42823          	sw	a5,-80(s0)
   230e8:	f9843783          	ld	a5,-104(s0)
   230ec:	0007c783          	lbu	a5,0(a5)
   230f0:	00078713          	mv	a4,a5
   230f4:	02e00793          	li	a5,46
   230f8:	08f71263          	bne	a4,a5,2317c <bss_begin+0x117c>
   230fc:	f9843783          	ld	a5,-104(s0)
   23100:	00178793          	addi	a5,a5,1
   23104:	f8f43c23          	sd	a5,-104(s0)
   23108:	f9843783          	ld	a5,-104(s0)
   2310c:	0007c783          	lbu	a5,0(a5)
   23110:	00078713          	mv	a4,a5
   23114:	02f00793          	li	a5,47
   23118:	02e7f863          	bgeu	a5,a4,23148 <bss_begin+0x1148>
   2311c:	f9843783          	ld	a5,-104(s0)
   23120:	0007c783          	lbu	a5,0(a5)
   23124:	00078713          	mv	a4,a5
   23128:	03900793          	li	a5,57
   2312c:	00e7ee63          	bltu	a5,a4,23148 <bss_begin+0x1148>
   23130:	fb040793          	addi	a5,s0,-80
   23134:	00078593          	mv	a1,a5
   23138:	f9843503          	ld	a0,-104(s0)
   2313c:	961ff0ef          	jal	ra,22a9c <bss_begin+0xa9c>
   23140:	f8a43c23          	sd	a0,-104(s0)
   23144:	02c0006f          	j	23170 <bss_begin+0x1170>
   23148:	f9843783          	ld	a5,-104(s0)
   2314c:	0007c783          	lbu	a5,0(a5)
   23150:	00078713          	mv	a4,a5
   23154:	02a00793          	li	a5,42
   23158:	00f71c63          	bne	a4,a5,23170 <bss_begin+0x1170>
   2315c:	f9043783          	ld	a5,-112(s0)
   23160:	00878713          	addi	a4,a5,8
   23164:	f8e43823          	sd	a4,-112(s0)
   23168:	0007a783          	lw	a5,0(a5)
   2316c:	faf42823          	sw	a5,-80(s0)
   23170:	fb042783          	lw	a5,-80(s0)
   23174:	0007d463          	bgez	a5,2317c <bss_begin+0x117c>
   23178:	fa042823          	sw	zero,-80(s0)
   2317c:	fff00793          	li	a5,-1
   23180:	fef42023          	sw	a5,-32(s0)
   23184:	f9843783          	ld	a5,-104(s0)
   23188:	0007c783          	lbu	a5,0(a5)
   2318c:	00078713          	mv	a4,a5
   23190:	06800793          	li	a5,104
   23194:	02f70663          	beq	a4,a5,231c0 <bss_begin+0x11c0>
   23198:	f9843783          	ld	a5,-104(s0)
   2319c:	0007c783          	lbu	a5,0(a5)
   231a0:	00078713          	mv	a4,a5
   231a4:	06c00793          	li	a5,108
   231a8:	00f70c63          	beq	a4,a5,231c0 <bss_begin+0x11c0>
   231ac:	f9843783          	ld	a5,-104(s0)
   231b0:	0007c783          	lbu	a5,0(a5)
   231b4:	00078713          	mv	a4,a5
   231b8:	04c00793          	li	a5,76
   231bc:	04f71a63          	bne	a4,a5,23210 <bss_begin+0x1210>
   231c0:	f9843783          	ld	a5,-104(s0)
   231c4:	0007c783          	lbu	a5,0(a5)
   231c8:	fef42023          	sw	a5,-32(s0)
   231cc:	f9843783          	ld	a5,-104(s0)
   231d0:	00178793          	addi	a5,a5,1
   231d4:	f8f43c23          	sd	a5,-104(s0)
   231d8:	fe042783          	lw	a5,-32(s0)
   231dc:	0007871b          	sext.w	a4,a5
   231e0:	06c00793          	li	a5,108
   231e4:	02f71663          	bne	a4,a5,23210 <bss_begin+0x1210>
   231e8:	f9843783          	ld	a5,-104(s0)
   231ec:	0007c783          	lbu	a5,0(a5)
   231f0:	00078713          	mv	a4,a5
   231f4:	06c00793          	li	a5,108
   231f8:	00f71c63          	bne	a4,a5,23210 <bss_begin+0x1210>
   231fc:	04c00793          	li	a5,76
   23200:	fef42023          	sw	a5,-32(s0)
   23204:	f9843783          	ld	a5,-104(s0)
   23208:	00178793          	addi	a5,a5,1
   2320c:	f8f43c23          	sd	a5,-104(s0)
   23210:	f9843783          	ld	a5,-104(s0)
   23214:	0007c783          	lbu	a5,0(a5)
   23218:	0007879b          	sext.w	a5,a5
   2321c:	fa87869b          	addiw	a3,a5,-88
   23220:	0006871b          	sext.w	a4,a3
   23224:	02000793          	li	a5,32
   23228:	2ae7ec63          	bltu	a5,a4,234e0 <bss_begin+0x14e0>
   2322c:	02069793          	slli	a5,a3,0x20
   23230:	0207d793          	srli	a5,a5,0x20
   23234:	00279713          	slli	a4,a5,0x2
   23238:	00002797          	auipc	a5,0x2
   2323c:	f8c78793          	addi	a5,a5,-116 # 251c4 <bss_begin+0x31c4>
   23240:	00f707b3          	add	a5,a4,a5
   23244:	0007a783          	lw	a5,0(a5)
   23248:	0007871b          	sext.w	a4,a5
   2324c:	00002797          	auipc	a5,0x2
   23250:	f7878793          	addi	a5,a5,-136 # 251c4 <bss_begin+0x31c4>
   23254:	00f707b3          	add	a5,a4,a5
   23258:	00078067          	jr	a5
   2325c:	fe442783          	lw	a5,-28(s0)
   23260:	0107f793          	andi	a5,a5,16
   23264:	0007879b          	sext.w	a5,a5
   23268:	02079a63          	bnez	a5,2329c <bss_begin+0x129c>
   2326c:	0180006f          	j	23284 <bss_begin+0x1284>
   23270:	fe843783          	ld	a5,-24(s0)
   23274:	00178713          	addi	a4,a5,1
   23278:	fee43423          	sd	a4,-24(s0)
   2327c:	02000713          	li	a4,32
   23280:	00e78023          	sb	a4,0(a5)
   23284:	fb442783          	lw	a5,-76(s0)
   23288:	fff7879b          	addiw	a5,a5,-1
   2328c:	0007879b          	sext.w	a5,a5
   23290:	faf42a23          	sw	a5,-76(s0)
   23294:	fb442783          	lw	a5,-76(s0)
   23298:	fcf04ce3          	bgtz	a5,23270 <bss_begin+0x1270>
   2329c:	f9043783          	ld	a5,-112(s0)
   232a0:	00878713          	addi	a4,a5,8
   232a4:	f8e43823          	sd	a4,-112(s0)
   232a8:	0007a683          	lw	a3,0(a5)
   232ac:	fe843783          	ld	a5,-24(s0)
   232b0:	00178713          	addi	a4,a5,1
   232b4:	fee43423          	sd	a4,-24(s0)
   232b8:	0ff6f713          	andi	a4,a3,255
   232bc:	00e78023          	sb	a4,0(a5)
   232c0:	0180006f          	j	232d8 <bss_begin+0x12d8>
   232c4:	fe843783          	ld	a5,-24(s0)
   232c8:	00178713          	addi	a4,a5,1
   232cc:	fee43423          	sd	a4,-24(s0)
   232d0:	02000713          	li	a4,32
   232d4:	00e78023          	sb	a4,0(a5)
   232d8:	fb442783          	lw	a5,-76(s0)
   232dc:	fff7879b          	addiw	a5,a5,-1
   232e0:	0007879b          	sext.w	a5,a5
   232e4:	faf42a23          	sw	a5,-76(s0)
   232e8:	fb442783          	lw	a5,-76(s0)
   232ec:	fcf04ce3          	bgtz	a5,232c4 <bss_begin+0x12c4>
   232f0:	3b40006f          	j	236a4 <bss_begin+0x16a4>
   232f4:	f9043783          	ld	a5,-112(s0)
   232f8:	00878713          	addi	a4,a5,8
   232fc:	f8e43823          	sd	a4,-112(s0)
   23300:	0007b783          	ld	a5,0(a5)
   23304:	fcf43c23          	sd	a5,-40(s0)
   23308:	fd843783          	ld	a5,-40(s0)
   2330c:	00079863          	bnez	a5,2331c <bss_begin+0x131c>
   23310:	00002797          	auipc	a5,0x2
   23314:	e6878793          	addi	a5,a5,-408 # 25178 <bss_begin+0x3178>
   23318:	fcf43c23          	sd	a5,-40(s0)
   2331c:	fd843503          	ld	a0,-40(s0)
   23320:	5e4000ef          	jal	ra,23904 <bss_begin+0x1904>
   23324:	00050793          	mv	a5,a0
   23328:	fcf42823          	sw	a5,-48(s0)
   2332c:	fb042783          	lw	a5,-80(s0)
   23330:	0007d863          	bgez	a5,23340 <bss_begin+0x1340>
   23334:	fd042783          	lw	a5,-48(s0)
   23338:	faf42823          	sw	a5,-80(s0)
   2333c:	01c0006f          	j	23358 <bss_begin+0x1358>
   23340:	fb042703          	lw	a4,-80(s0)
   23344:	fd042783          	lw	a5,-48(s0)
   23348:	0007879b          	sext.w	a5,a5
   2334c:	00f75663          	bge	a4,a5,23358 <bss_begin+0x1358>
   23350:	fb042783          	lw	a5,-80(s0)
   23354:	fcf42823          	sw	a5,-48(s0)
   23358:	fe442783          	lw	a5,-28(s0)
   2335c:	0107f793          	andi	a5,a5,16
   23360:	0007879b          	sext.w	a5,a5
   23364:	02079c63          	bnez	a5,2339c <bss_begin+0x139c>
   23368:	0180006f          	j	23380 <bss_begin+0x1380>
   2336c:	fe843783          	ld	a5,-24(s0)
   23370:	00178713          	addi	a4,a5,1
   23374:	fee43423          	sd	a4,-24(s0)
   23378:	02000713          	li	a4,32
   2337c:	00e78023          	sb	a4,0(a5)
   23380:	fb442783          	lw	a5,-76(s0)
   23384:	fff7871b          	addiw	a4,a5,-1
   23388:	0007071b          	sext.w	a4,a4
   2338c:	fae42a23          	sw	a4,-76(s0)
   23390:	fd042703          	lw	a4,-48(s0)
   23394:	0007071b          	sext.w	a4,a4
   23398:	fcf74ae3          	blt	a4,a5,2336c <bss_begin+0x136c>
   2339c:	fc042a23          	sw	zero,-44(s0)
   233a0:	0300006f          	j	233d0 <bss_begin+0x13d0>
   233a4:	fd843703          	ld	a4,-40(s0)
   233a8:	00170793          	addi	a5,a4,1
   233ac:	fcf43c23          	sd	a5,-40(s0)
   233b0:	fe843783          	ld	a5,-24(s0)
   233b4:	00178693          	addi	a3,a5,1
   233b8:	fed43423          	sd	a3,-24(s0)
   233bc:	00074703          	lbu	a4,0(a4)
   233c0:	00e78023          	sb	a4,0(a5)
   233c4:	fd442783          	lw	a5,-44(s0)
   233c8:	0017879b          	addiw	a5,a5,1
   233cc:	fcf42a23          	sw	a5,-44(s0)
   233d0:	fd442703          	lw	a4,-44(s0)
   233d4:	fd042783          	lw	a5,-48(s0)
   233d8:	0007071b          	sext.w	a4,a4
   233dc:	0007879b          	sext.w	a5,a5
   233e0:	fcf742e3          	blt	a4,a5,233a4 <bss_begin+0x13a4>
   233e4:	0180006f          	j	233fc <bss_begin+0x13fc>
   233e8:	fe843783          	ld	a5,-24(s0)
   233ec:	00178713          	addi	a4,a5,1
   233f0:	fee43423          	sd	a4,-24(s0)
   233f4:	02000713          	li	a4,32
   233f8:	00e78023          	sb	a4,0(a5)
   233fc:	fb442783          	lw	a5,-76(s0)
   23400:	fff7871b          	addiw	a4,a5,-1
   23404:	0007071b          	sext.w	a4,a4
   23408:	fae42a23          	sw	a4,-76(s0)
   2340c:	fd042703          	lw	a4,-48(s0)
   23410:	0007071b          	sext.w	a4,a4
   23414:	fcf74ae3          	blt	a4,a5,233e8 <bss_begin+0x13e8>
   23418:	28c0006f          	j	236a4 <bss_begin+0x16a4>
   2341c:	f9043783          	ld	a5,-112(s0)
   23420:	00878713          	addi	a4,a5,8
   23424:	f8e43823          	sd	a4,-112(s0)
   23428:	0007b783          	ld	a5,0(a5)
   2342c:	faf43c23          	sd	a5,-72(s0)
   23430:	fe843703          	ld	a4,-24(s0)
   23434:	fa843783          	ld	a5,-88(s0)
   23438:	40f707b3          	sub	a5,a4,a5
   2343c:	0ff7f713          	andi	a4,a5,255
   23440:	fb843783          	ld	a5,-72(s0)
   23444:	00e78023          	sb	a4,0(a5)
   23448:	25c0006f          	j	236a4 <bss_begin+0x16a4>
   2344c:	fb442783          	lw	a5,-76(s0)
   23450:	00078713          	mv	a4,a5
   23454:	fff00793          	li	a5,-1
   23458:	00f71c63          	bne	a4,a5,23470 <bss_begin+0x1470>
   2345c:	01000793          	li	a5,16
   23460:	faf42a23          	sw	a5,-76(s0)
   23464:	fe442783          	lw	a5,-28(s0)
   23468:	0017e793          	ori	a5,a5,1
   2346c:	fef42223          	sw	a5,-28(s0)
   23470:	f9043783          	ld	a5,-112(s0)
   23474:	00878713          	addi	a4,a5,8
   23478:	f8e43823          	sd	a4,-112(s0)
   2347c:	0007b783          	ld	a5,0(a5)
   23480:	00078593          	mv	a1,a5
   23484:	fb442683          	lw	a3,-76(s0)
   23488:	fb042703          	lw	a4,-80(s0)
   2348c:	fe442783          	lw	a5,-28(s0)
   23490:	01000613          	li	a2,16
   23494:	fe843503          	ld	a0,-24(s0)
   23498:	ea8ff0ef          	jal	ra,22b40 <bss_begin+0xb40>
   2349c:	fea43423          	sd	a0,-24(s0)
   234a0:	2040006f          	j	236a4 <bss_begin+0x16a4>
   234a4:	00800793          	li	a5,8
   234a8:	fcf42223          	sw	a5,-60(s0)
   234ac:	0940006f          	j	23540 <bss_begin+0x1540>
   234b0:	fe442783          	lw	a5,-28(s0)
   234b4:	0407e793          	ori	a5,a5,64
   234b8:	fef42223          	sw	a5,-28(s0)
   234bc:	01000793          	li	a5,16
   234c0:	fcf42223          	sw	a5,-60(s0)
   234c4:	07c0006f          	j	23540 <bss_begin+0x1540>
   234c8:	fe442783          	lw	a5,-28(s0)
   234cc:	0027e793          	ori	a5,a5,2
   234d0:	fef42223          	sw	a5,-28(s0)
   234d4:	00a00793          	li	a5,10
   234d8:	fcf42223          	sw	a5,-60(s0)
   234dc:	0640006f          	j	23540 <bss_begin+0x1540>
   234e0:	f9843783          	ld	a5,-104(s0)
   234e4:	0007c783          	lbu	a5,0(a5)
   234e8:	00078713          	mv	a4,a5
   234ec:	02500793          	li	a5,37
   234f0:	00f70c63          	beq	a4,a5,23508 <bss_begin+0x1508>
   234f4:	fe843783          	ld	a5,-24(s0)
   234f8:	00178713          	addi	a4,a5,1
   234fc:	fee43423          	sd	a4,-24(s0)
   23500:	02500713          	li	a4,37
   23504:	00e78023          	sb	a4,0(a5)
   23508:	f9843783          	ld	a5,-104(s0)
   2350c:	0007c783          	lbu	a5,0(a5)
   23510:	02078063          	beqz	a5,23530 <bss_begin+0x1530>
   23514:	fe843783          	ld	a5,-24(s0)
   23518:	00178713          	addi	a4,a5,1
   2351c:	fee43423          	sd	a4,-24(s0)
   23520:	f9843703          	ld	a4,-104(s0)
   23524:	00074703          	lbu	a4,0(a4)
   23528:	00e78023          	sb	a4,0(a5)
   2352c:	0100006f          	j	2353c <bss_begin+0x153c>
   23530:	f9843783          	ld	a5,-104(s0)
   23534:	fff78793          	addi	a5,a5,-1
   23538:	f8f43c23          	sd	a5,-104(s0)
   2353c:	00000013          	nop
   23540:	fe042783          	lw	a5,-32(s0)
   23544:	0007871b          	sext.w	a4,a5
   23548:	04c00793          	li	a5,76
   2354c:	04f71263          	bne	a4,a5,23590 <bss_begin+0x1590>
   23550:	fe442783          	lw	a5,-28(s0)
   23554:	0027f793          	andi	a5,a5,2
   23558:	0007879b          	sext.w	a5,a5
   2355c:	00078e63          	beqz	a5,23578 <bss_begin+0x1578>
   23560:	f9043783          	ld	a5,-112(s0)
   23564:	00878713          	addi	a4,a5,8
   23568:	f8e43823          	sd	a4,-112(s0)
   2356c:	0007b783          	ld	a5,0(a5)
   23570:	fcf43423          	sd	a5,-56(s0)
   23574:	1100006f          	j	23684 <bss_begin+0x1684>
   23578:	f9043783          	ld	a5,-112(s0)
   2357c:	00878713          	addi	a4,a5,8
   23580:	f8e43823          	sd	a4,-112(s0)
   23584:	0007b783          	ld	a5,0(a5)
   23588:	fcf43423          	sd	a5,-56(s0)
   2358c:	0f80006f          	j	23684 <bss_begin+0x1684>
   23590:	fe042783          	lw	a5,-32(s0)
   23594:	0007871b          	sext.w	a4,a5
   23598:	06800793          	li	a5,104
   2359c:	04f71a63          	bne	a4,a5,235f0 <bss_begin+0x15f0>
   235a0:	fe442783          	lw	a5,-28(s0)
   235a4:	0027f793          	andi	a5,a5,2
   235a8:	0007879b          	sext.w	a5,a5
   235ac:	02078263          	beqz	a5,235d0 <bss_begin+0x15d0>
   235b0:	f9043783          	ld	a5,-112(s0)
   235b4:	00878713          	addi	a4,a5,8
   235b8:	f8e43823          	sd	a4,-112(s0)
   235bc:	0007a783          	lw	a5,0(a5)
   235c0:	0107979b          	slliw	a5,a5,0x10
   235c4:	4107d79b          	sraiw	a5,a5,0x10
   235c8:	fcf43423          	sd	a5,-56(s0)
   235cc:	0b80006f          	j	23684 <bss_begin+0x1684>
   235d0:	f9043783          	ld	a5,-112(s0)
   235d4:	00878713          	addi	a4,a5,8
   235d8:	f8e43823          	sd	a4,-112(s0)
   235dc:	0007a783          	lw	a5,0(a5)
   235e0:	03079793          	slli	a5,a5,0x30
   235e4:	0307d793          	srli	a5,a5,0x30
   235e8:	fcf43423          	sd	a5,-56(s0)
   235ec:	0980006f          	j	23684 <bss_begin+0x1684>
   235f0:	fe042783          	lw	a5,-32(s0)
   235f4:	0007871b          	sext.w	a4,a5
   235f8:	06c00793          	li	a5,108
   235fc:	04f71263          	bne	a4,a5,23640 <bss_begin+0x1640>
   23600:	fe442783          	lw	a5,-28(s0)
   23604:	0027f793          	andi	a5,a5,2
   23608:	0007879b          	sext.w	a5,a5
   2360c:	00078e63          	beqz	a5,23628 <bss_begin+0x1628>
   23610:	f9043783          	ld	a5,-112(s0)
   23614:	00878713          	addi	a4,a5,8
   23618:	f8e43823          	sd	a4,-112(s0)
   2361c:	0007b783          	ld	a5,0(a5)
   23620:	fcf43423          	sd	a5,-56(s0)
   23624:	0600006f          	j	23684 <bss_begin+0x1684>
   23628:	f9043783          	ld	a5,-112(s0)
   2362c:	00878713          	addi	a4,a5,8
   23630:	f8e43823          	sd	a4,-112(s0)
   23634:	0007b783          	ld	a5,0(a5)
   23638:	fcf43423          	sd	a5,-56(s0)
   2363c:	0480006f          	j	23684 <bss_begin+0x1684>
   23640:	fe442783          	lw	a5,-28(s0)
   23644:	0027f793          	andi	a5,a5,2
   23648:	0007879b          	sext.w	a5,a5
   2364c:	00078e63          	beqz	a5,23668 <bss_begin+0x1668>
   23650:	f9043783          	ld	a5,-112(s0)
   23654:	00878713          	addi	a4,a5,8
   23658:	f8e43823          	sd	a4,-112(s0)
   2365c:	0007a783          	lw	a5,0(a5)
   23660:	fcf43423          	sd	a5,-56(s0)
   23664:	0200006f          	j	23684 <bss_begin+0x1684>
   23668:	f9043783          	ld	a5,-112(s0)
   2366c:	00878713          	addi	a4,a5,8
   23670:	f8e43823          	sd	a4,-112(s0)
   23674:	0007a783          	lw	a5,0(a5)
   23678:	02079793          	slli	a5,a5,0x20
   2367c:	0207d793          	srli	a5,a5,0x20
   23680:	fcf43423          	sd	a5,-56(s0)
   23684:	fb442683          	lw	a3,-76(s0)
   23688:	fb042703          	lw	a4,-80(s0)
   2368c:	fe442783          	lw	a5,-28(s0)
   23690:	fc442603          	lw	a2,-60(s0)
   23694:	fc843583          	ld	a1,-56(s0)
   23698:	fe843503          	ld	a0,-24(s0)
   2369c:	ca4ff0ef          	jal	ra,22b40 <bss_begin+0xb40>
   236a0:	fea43423          	sd	a0,-24(s0)
   236a4:	f9843783          	ld	a5,-104(s0)
   236a8:	00178793          	addi	a5,a5,1
   236ac:	f8f43c23          	sd	a5,-104(s0)
   236b0:	f9843783          	ld	a5,-104(s0)
   236b4:	0007c783          	lbu	a5,0(a5)
   236b8:	8a079ce3          	bnez	a5,22f70 <bss_begin+0xf70>
   236bc:	fe843783          	ld	a5,-24(s0)
   236c0:	00078023          	sb	zero,0(a5)
   236c4:	fe843703          	ld	a4,-24(s0)
   236c8:	fa843783          	ld	a5,-88(s0)
   236cc:	40f707b3          	sub	a5,a4,a5
   236d0:	0007879b          	sext.w	a5,a5
   236d4:	00078513          	mv	a0,a5
   236d8:	06813083          	ld	ra,104(sp)
   236dc:	06013403          	ld	s0,96(sp)
   236e0:	07010113          	addi	sp,sp,112
   236e4:	00008067          	ret
   236e8:	fe010113          	addi	sp,sp,-32
   236ec:	00113c23          	sd	ra,24(sp)
   236f0:	00813823          	sd	s0,16(sp)
   236f4:	02010413          	addi	s0,sp,32
   236f8:	00004797          	auipc	a5,0x4
   236fc:	b1078793          	addi	a5,a5,-1264 # 27208 <_payload_end+0x200>
   23700:	00100713          	li	a4,1
   23704:	00e7a023          	sw	a4,0(a5)
   23708:	fe043423          	sd	zero,-24(s0)
   2370c:	0300006f          	j	2373c <bss_begin+0x173c>
   23710:	00004717          	auipc	a4,0x4
   23714:	9f870713          	addi	a4,a4,-1544 # 27108 <_payload_end+0x100>
   23718:	fe843783          	ld	a5,-24(s0)
   2371c:	00f707b3          	add	a5,a4,a5
   23720:	0007c783          	lbu	a5,0(a5)
   23724:	0007879b          	sext.w	a5,a5
   23728:	00078513          	mv	a0,a5
   2372c:	591000ef          	jal	ra,244bc <bss_begin+0x24bc>
   23730:	fe843783          	ld	a5,-24(s0)
   23734:	00178793          	addi	a5,a5,1
   23738:	fef43423          	sd	a5,-24(s0)
   2373c:	00004797          	auipc	a5,0x4
   23740:	ad478793          	addi	a5,a5,-1324 # 27210 <_payload_end+0x208>
   23744:	0007b783          	ld	a5,0(a5)
   23748:	fe843703          	ld	a4,-24(s0)
   2374c:	fcf762e3          	bltu	a4,a5,23710 <bss_begin+0x1710>
   23750:	00004797          	auipc	a5,0x4
   23754:	8b078793          	addi	a5,a5,-1872 # 27000 <bss_begin+0x5000>
   23758:	00004717          	auipc	a4,0x4
   2375c:	9b070713          	addi	a4,a4,-1616 # 27108 <_payload_end+0x100>
   23760:	00e7b023          	sd	a4,0(a5)
   23764:	00004797          	auipc	a5,0x4
   23768:	aac78793          	addi	a5,a5,-1364 # 27210 <_payload_end+0x208>
   2376c:	0007b023          	sd	zero,0(a5)
   23770:	00000013          	nop
   23774:	01813083          	ld	ra,24(sp)
   23778:	01013403          	ld	s0,16(sp)
   2377c:	02010113          	addi	sp,sp,32
   23780:	00008067          	ret
   23784:	f9010113          	addi	sp,sp,-112
   23788:	02113423          	sd	ra,40(sp)
   2378c:	02813023          	sd	s0,32(sp)
   23790:	03010413          	addi	s0,sp,48
   23794:	fca43c23          	sd	a0,-40(s0)
   23798:	00b43423          	sd	a1,8(s0)
   2379c:	00c43823          	sd	a2,16(s0)
   237a0:	00d43c23          	sd	a3,24(s0)
   237a4:	02e43023          	sd	a4,32(s0)
   237a8:	02f43423          	sd	a5,40(s0)
   237ac:	03043823          	sd	a6,48(s0)
   237b0:	03143c23          	sd	a7,56(s0)
   237b4:	04040793          	addi	a5,s0,64
   237b8:	fcf43823          	sd	a5,-48(s0)
   237bc:	fd043783          	ld	a5,-48(s0)
   237c0:	fc878793          	addi	a5,a5,-56
   237c4:	fef43023          	sd	a5,-32(s0)
   237c8:	fe043783          	ld	a5,-32(s0)
   237cc:	00078693          	mv	a3,a5
   237d0:	fd843603          	ld	a2,-40(s0)
   237d4:	10000593          	li	a1,256
   237d8:	00004517          	auipc	a0,0x4
   237dc:	83050513          	addi	a0,a0,-2000 # 27008 <_payload_end>
   237e0:	f60ff0ef          	jal	ra,22f40 <bss_begin+0xf40>
   237e4:	00050793          	mv	a5,a0
   237e8:	fef42423          	sw	a5,-24(s0)
   237ec:	00004797          	auipc	a5,0x4
   237f0:	a1c78793          	addi	a5,a5,-1508 # 27208 <_payload_end+0x200>
   237f4:	0007a783          	lw	a5,0(a5)
   237f8:	06079663          	bnez	a5,23864 <bss_begin+0x1864>
   237fc:	00004797          	auipc	a5,0x4
   23800:	80478793          	addi	a5,a5,-2044 # 27000 <bss_begin+0x5000>
   23804:	0007b783          	ld	a5,0(a5)
   23808:	fe842703          	lw	a4,-24(s0)
   2380c:	00070613          	mv	a2,a4
   23810:	00003597          	auipc	a1,0x3
   23814:	7f858593          	addi	a1,a1,2040 # 27008 <_payload_end>
   23818:	00078513          	mv	a0,a5
   2381c:	138000ef          	jal	ra,23954 <bss_begin+0x1954>
   23820:	fe842703          	lw	a4,-24(s0)
   23824:	00004797          	auipc	a5,0x4
   23828:	8e478793          	addi	a5,a5,-1820 # 27108 <_payload_end+0x100>
   2382c:	00f70733          	add	a4,a4,a5
   23830:	00003797          	auipc	a5,0x3
   23834:	7d078793          	addi	a5,a5,2000 # 27000 <bss_begin+0x5000>
   23838:	00e7b023          	sd	a4,0(a5)
   2383c:	fe842703          	lw	a4,-24(s0)
   23840:	00004797          	auipc	a5,0x4
   23844:	9d078793          	addi	a5,a5,-1584 # 27210 <_payload_end+0x208>
   23848:	0007b783          	ld	a5,0(a5)
   2384c:	00f70733          	add	a4,a4,a5
   23850:	00004797          	auipc	a5,0x4
   23854:	9c078793          	addi	a5,a5,-1600 # 27210 <_payload_end+0x208>
   23858:	00e7b023          	sd	a4,0(a5)
   2385c:	00000793          	li	a5,0
   23860:	0900006f          	j	238f0 <bss_begin+0x18f0>
   23864:	fe042623          	sw	zero,-20(s0)
   23868:	0680006f          	j	238d0 <bss_begin+0x18d0>
   2386c:	00003717          	auipc	a4,0x3
   23870:	79c70713          	addi	a4,a4,1948 # 27008 <_payload_end>
   23874:	fec42783          	lw	a5,-20(s0)
   23878:	00f707b3          	add	a5,a4,a5
   2387c:	0007c783          	lbu	a5,0(a5)
   23880:	00078713          	mv	a4,a5
   23884:	00a00793          	li	a5,10
   23888:	00f71663          	bne	a4,a5,23894 <bss_begin+0x1894>
   2388c:	00d00513          	li	a0,13
   23890:	42d000ef          	jal	ra,244bc <bss_begin+0x24bc>
   23894:	00003717          	auipc	a4,0x3
   23898:	77470713          	addi	a4,a4,1908 # 27008 <_payload_end>
   2389c:	fec42783          	lw	a5,-20(s0)
   238a0:	00f707b3          	add	a5,a4,a5
   238a4:	0007c783          	lbu	a5,0(a5)
   238a8:	0007879b          	sext.w	a5,a5
   238ac:	00078513          	mv	a0,a5
   238b0:	40d000ef          	jal	ra,244bc <bss_begin+0x24bc>
   238b4:	fec42783          	lw	a5,-20(s0)
   238b8:	00078713          	mv	a4,a5
   238bc:	10000793          	li	a5,256
   238c0:	02e7e463          	bltu	a5,a4,238e8 <bss_begin+0x18e8>
   238c4:	fec42783          	lw	a5,-20(s0)
   238c8:	0017879b          	addiw	a5,a5,1
   238cc:	fef42623          	sw	a5,-20(s0)
   238d0:	fec42703          	lw	a4,-20(s0)
   238d4:	fe842783          	lw	a5,-24(s0)
   238d8:	0007071b          	sext.w	a4,a4
   238dc:	0007879b          	sext.w	a5,a5
   238e0:	f8f746e3          	blt	a4,a5,2386c <bss_begin+0x186c>
   238e4:	0080006f          	j	238ec <bss_begin+0x18ec>
   238e8:	00000013          	nop
   238ec:	fe842783          	lw	a5,-24(s0)
   238f0:	00078513          	mv	a0,a5
   238f4:	02813083          	ld	ra,40(sp)
   238f8:	02013403          	ld	s0,32(sp)
   238fc:	07010113          	addi	sp,sp,112
   23900:	00008067          	ret
   23904:	fd010113          	addi	sp,sp,-48
   23908:	02813423          	sd	s0,40(sp)
   2390c:	03010413          	addi	s0,sp,48
   23910:	fca43c23          	sd	a0,-40(s0)
   23914:	fd843783          	ld	a5,-40(s0)
   23918:	fef43423          	sd	a5,-24(s0)
   2391c:	0100006f          	j	2392c <bss_begin+0x192c>
   23920:	fe843783          	ld	a5,-24(s0)
   23924:	00178793          	addi	a5,a5,1
   23928:	fef43423          	sd	a5,-24(s0)
   2392c:	fe843783          	ld	a5,-24(s0)
   23930:	0007c783          	lbu	a5,0(a5)
   23934:	fe0796e3          	bnez	a5,23920 <bss_begin+0x1920>
   23938:	fe843703          	ld	a4,-24(s0)
   2393c:	fd843783          	ld	a5,-40(s0)
   23940:	40f707b3          	sub	a5,a4,a5
   23944:	00078513          	mv	a0,a5
   23948:	02813403          	ld	s0,40(sp)
   2394c:	03010113          	addi	sp,sp,48
   23950:	00008067          	ret
   23954:	fc010113          	addi	sp,sp,-64
   23958:	02813c23          	sd	s0,56(sp)
   2395c:	04010413          	addi	s0,sp,64
   23960:	fca43c23          	sd	a0,-40(s0)
   23964:	fcb43823          	sd	a1,-48(s0)
   23968:	fcc43423          	sd	a2,-56(s0)
   2396c:	fd843783          	ld	a5,-40(s0)
   23970:	fef43423          	sd	a5,-24(s0)
   23974:	fd043783          	ld	a5,-48(s0)
   23978:	fef43023          	sd	a5,-32(s0)
   2397c:	0240006f          	j	239a0 <bss_begin+0x19a0>
   23980:	fe043703          	ld	a4,-32(s0)
   23984:	00170793          	addi	a5,a4,1
   23988:	fef43023          	sd	a5,-32(s0)
   2398c:	fe843783          	ld	a5,-24(s0)
   23990:	00178693          	addi	a3,a5,1
   23994:	fed43423          	sd	a3,-24(s0)
   23998:	00074703          	lbu	a4,0(a4)
   2399c:	00e78023          	sb	a4,0(a5)
   239a0:	fc843783          	ld	a5,-56(s0)
   239a4:	fff78713          	addi	a4,a5,-1
   239a8:	fce43423          	sd	a4,-56(s0)
   239ac:	fc079ae3          	bnez	a5,23980 <bss_begin+0x1980>
   239b0:	fd843783          	ld	a5,-40(s0)
   239b4:	00078513          	mv	a0,a5
   239b8:	03813403          	ld	s0,56(sp)
   239bc:	04010113          	addi	sp,sp,64
   239c0:	00008067          	ret
   239c4:	fe010113          	addi	sp,sp,-32
   239c8:	00813c23          	sd	s0,24(sp)
   239cc:	02010413          	addi	s0,sp,32
   239d0:	fea43423          	sd	a0,-24(s0)
   239d4:	fe843783          	ld	a5,-24(s0)
   239d8:	0007a783          	lw	a5,0(a5)
   239dc:	0007879b          	sext.w	a5,a5
   239e0:	00078513          	mv	a0,a5
   239e4:	01813403          	ld	s0,24(sp)
   239e8:	02010113          	addi	sp,sp,32
   239ec:	00008067          	ret
   239f0:	fe010113          	addi	sp,sp,-32
   239f4:	00813c23          	sd	s0,24(sp)
   239f8:	02010413          	addi	s0,sp,32
   239fc:	fea43423          	sd	a0,-24(s0)
   23a00:	00058793          	mv	a5,a1
   23a04:	fef42223          	sw	a5,-28(s0)
   23a08:	fe843783          	ld	a5,-24(s0)
   23a0c:	fe442703          	lw	a4,-28(s0)
   23a10:	00e7a023          	sw	a4,0(a5)
   23a14:	00000013          	nop
   23a18:	01813403          	ld	s0,24(sp)
   23a1c:	02010113          	addi	sp,sp,32
   23a20:	00008067          	ret
   23a24:	fe010113          	addi	sp,sp,-32
   23a28:	00813c23          	sd	s0,24(sp)
   23a2c:	02010413          	addi	s0,sp,32
   23a30:	fea43423          	sd	a0,-24(s0)
   23a34:	fe843783          	ld	a5,-24(s0)
   23a38:	00a79793          	slli	a5,a5,0xa
   23a3c:	fef43423          	sd	a5,-24(s0)
   23a40:	00000013          	nop
   23a44:	fe843783          	ld	a5,-24(s0)
   23a48:	fff78713          	addi	a4,a5,-1
   23a4c:	fee43423          	sd	a4,-24(s0)
   23a50:	fe079ae3          	bnez	a5,23a44 <bss_begin+0x1a44>
   23a54:	00000013          	nop
   23a58:	00000013          	nop
   23a5c:	01813403          	ld	s0,24(sp)
   23a60:	02010113          	addi	sp,sp,32
   23a64:	00008067          	ret
   23a68:	fe010113          	addi	sp,sp,-32
   23a6c:	00113c23          	sd	ra,24(sp)
   23a70:	00813823          	sd	s0,16(sp)
   23a74:	02010413          	addi	s0,sp,32
   23a78:	30100593          	li	a1,769
   23a7c:	020027b7          	lui	a5,0x2002
   23a80:	d0078513          	addi	a0,a5,-768 # 2001d00 <_payload_end+0x1fdacf8>
   23a84:	f6dff0ef          	jal	ra,239f0 <bss_begin+0x19f0>
   23a88:	00100513          	li	a0,1
   23a8c:	f99ff0ef          	jal	ra,23a24 <bss_begin+0x1a24>
   23a90:	02001537          	lui	a0,0x2001
   23a94:	f31ff0ef          	jal	ra,239c4 <bss_begin+0x19c4>
   23a98:	00050793          	mv	a5,a0
   23a9c:	fef42623          	sw	a5,-20(s0)
   23aa0:	fec42703          	lw	a4,-20(s0)
   23aa4:	f80007b7          	lui	a5,0xf8000
   23aa8:	fff78793          	addi	a5,a5,-1 # fffffffff7ffffff <_payload_end+0xfffffffff7fd8ff7>
   23aac:	00f777b3          	and	a5,a4,a5
   23ab0:	fef42623          	sw	a5,-20(s0)
   23ab4:	fec42783          	lw	a5,-20(s0)
   23ab8:	00078593          	mv	a1,a5
   23abc:	02001537          	lui	a0,0x2001
   23ac0:	f31ff0ef          	jal	ra,239f0 <bss_begin+0x19f0>
   23ac4:	02001537          	lui	a0,0x2001
   23ac8:	efdff0ef          	jal	ra,239c4 <bss_begin+0x19c4>
   23acc:	00050793          	mv	a5,a0
   23ad0:	fef42623          	sw	a5,-20(s0)
   23ad4:	fec42703          	lw	a4,-20(s0)
   23ad8:	400007b7          	lui	a5,0x40000
   23adc:	00f767b3          	or	a5,a4,a5
   23ae0:	fef42623          	sw	a5,-20(s0)
   23ae4:	fec42783          	lw	a5,-20(s0)
   23ae8:	00078593          	mv	a1,a5
   23aec:	02001537          	lui	a0,0x2001
   23af0:	f01ff0ef          	jal	ra,239f0 <bss_begin+0x19f0>
   23af4:	00500513          	li	a0,5
   23af8:	f2dff0ef          	jal	ra,23a24 <bss_begin+0x1a24>
   23afc:	02001537          	lui	a0,0x2001
   23b00:	ec5ff0ef          	jal	ra,239c4 <bss_begin+0x19c4>
   23b04:	00050793          	mv	a5,a0
   23b08:	fef42623          	sw	a5,-20(s0)
   23b0c:	fec42703          	lw	a4,-20(s0)
   23b10:	fffc07b7          	lui	a5,0xfffc0
   23b14:	0fc78793          	addi	a5,a5,252 # fffffffffffc00fc <_payload_end+0xfffffffffff990f4>
   23b18:	00f777b3          	and	a5,a4,a5
   23b1c:	fef42623          	sw	a5,-20(s0)
   23b20:	fec42703          	lw	a4,-20(s0)
   23b24:	000037b7          	lui	a5,0x3
   23b28:	90078793          	addi	a5,a5,-1792 # 2900 <__bin_size-0x4708>
   23b2c:	00f767b3          	or	a5,a4,a5
   23b30:	fef42623          	sw	a5,-20(s0)
   23b34:	fec42783          	lw	a5,-20(s0)
   23b38:	00078593          	mv	a1,a5
   23b3c:	02001537          	lui	a0,0x2001
   23b40:	eb1ff0ef          	jal	ra,239f0 <bss_begin+0x19f0>
   23b44:	02001537          	lui	a0,0x2001
   23b48:	e7dff0ef          	jal	ra,239c4 <bss_begin+0x19c4>
   23b4c:	00050793          	mv	a5,a0
   23b50:	fef42623          	sw	a5,-20(s0)
   23b54:	fec42703          	lw	a4,-20(s0)
   23b58:	200007b7          	lui	a5,0x20000
   23b5c:	00f767b3          	or	a5,a4,a5
   23b60:	fef42623          	sw	a5,-20(s0)
   23b64:	fec42783          	lw	a5,-20(s0)
   23b68:	00078593          	mv	a1,a5
   23b6c:	02001537          	lui	a0,0x2001
   23b70:	e81ff0ef          	jal	ra,239f0 <bss_begin+0x19f0>
   23b74:	02001537          	lui	a0,0x2001
   23b78:	e4dff0ef          	jal	ra,239c4 <bss_begin+0x19c4>
   23b7c:	00050793          	mv	a5,a0
   23b80:	fef42623          	sw	a5,-20(s0)
   23b84:	fec42703          	lw	a4,-20(s0)
   23b88:	800007b7          	lui	a5,0x80000
   23b8c:	00f767b3          	or	a5,a4,a5
   23b90:	fef42623          	sw	a5,-20(s0)
   23b94:	fec42783          	lw	a5,-20(s0)
   23b98:	00078593          	mv	a1,a5
   23b9c:	02001537          	lui	a0,0x2001
   23ba0:	e51ff0ef          	jal	ra,239f0 <bss_begin+0x19f0>
   23ba4:	00000013          	nop
   23ba8:	02001537          	lui	a0,0x2001
   23bac:	e19ff0ef          	jal	ra,239c4 <bss_begin+0x19c4>
   23bb0:	00050793          	mv	a5,a0
   23bb4:	0007879b          	sext.w	a5,a5
   23bb8:	00078713          	mv	a4,a5
   23bbc:	100007b7          	lui	a5,0x10000
   23bc0:	00f777b3          	and	a5,a4,a5
   23bc4:	0007879b          	sext.w	a5,a5
   23bc8:	fe0780e3          	beqz	a5,23ba8 <bss_begin+0x1ba8>
   23bcc:	01400513          	li	a0,20
   23bd0:	e55ff0ef          	jal	ra,23a24 <bss_begin+0x1a24>
   23bd4:	02001537          	lui	a0,0x2001
   23bd8:	dedff0ef          	jal	ra,239c4 <bss_begin+0x19c4>
   23bdc:	00050793          	mv	a5,a0
   23be0:	fef42623          	sw	a5,-20(s0)
   23be4:	fec42703          	lw	a4,-20(s0)
   23be8:	080007b7          	lui	a5,0x8000
   23bec:	00f767b3          	or	a5,a4,a5
   23bf0:	fef42623          	sw	a5,-20(s0)
   23bf4:	fec42783          	lw	a5,-20(s0)
   23bf8:	00078593          	mv	a1,a5
   23bfc:	02001537          	lui	a0,0x2001
   23c00:	df1ff0ef          	jal	ra,239f0 <bss_begin+0x19f0>
   23c04:	02001537          	lui	a0,0x2001
   23c08:	dbdff0ef          	jal	ra,239c4 <bss_begin+0x19c4>
   23c0c:	00050793          	mv	a5,a0
   23c10:	fef42623          	sw	a5,-20(s0)
   23c14:	fec42703          	lw	a4,-20(s0)
   23c18:	e00007b7          	lui	a5,0xe0000
   23c1c:	fff78793          	addi	a5,a5,-1 # ffffffffdfffffff <_payload_end+0xffffffffdffd8ff7>
   23c20:	00f777b3          	and	a5,a4,a5
   23c24:	fef42623          	sw	a5,-20(s0)
   23c28:	fec42783          	lw	a5,-20(s0)
   23c2c:	00078593          	mv	a1,a5
   23c30:	02001537          	lui	a0,0x2001
   23c34:	dbdff0ef          	jal	ra,239f0 <bss_begin+0x19f0>
   23c38:	00100513          	li	a0,1
   23c3c:	de9ff0ef          	jal	ra,23a24 <bss_begin+0x1a24>
   23c40:	020027b7          	lui	a5,0x2002
   23c44:	d0078513          	addi	a0,a5,-768 # 2001d00 <_payload_end+0x1fdacf8>
   23c48:	d7dff0ef          	jal	ra,239c4 <bss_begin+0x19c4>
   23c4c:	00050793          	mv	a5,a0
   23c50:	fef42623          	sw	a5,-20(s0)
   23c54:	fec42703          	lw	a4,-20(s0)
   23c58:	f90007b7          	lui	a5,0xf9000
   23c5c:	cf078793          	addi	a5,a5,-784 # fffffffff8fffcf0 <_payload_end+0xfffffffff8fd8ce8>
   23c60:	00f777b3          	and	a5,a4,a5
   23c64:	fef42623          	sw	a5,-20(s0)
   23c68:	fec42703          	lw	a4,-20(s0)
   23c6c:	050007b7          	lui	a5,0x5000
   23c70:	10078793          	addi	a5,a5,256 # 5000100 <_payload_end+0x4fd90f8>
   23c74:	00f767b3          	or	a5,a4,a5
   23c78:	fef42623          	sw	a5,-20(s0)
   23c7c:	fec42783          	lw	a5,-20(s0)
   23c80:	00078593          	mv	a1,a5
   23c84:	020027b7          	lui	a5,0x2002
   23c88:	d0078513          	addi	a0,a5,-768 # 2001d00 <_payload_end+0x1fdacf8>
   23c8c:	d65ff0ef          	jal	ra,239f0 <bss_begin+0x19f0>
   23c90:	00100513          	li	a0,1
   23c94:	d91ff0ef          	jal	ra,23a24 <bss_begin+0x1a24>
   23c98:	00000013          	nop
   23c9c:	01813083          	ld	ra,24(sp)
   23ca0:	01013403          	ld	s0,16(sp)
   23ca4:	02010113          	addi	sp,sp,32
   23ca8:	00008067          	ret
   23cac:	fe010113          	addi	sp,sp,-32
   23cb0:	00113c23          	sd	ra,24(sp)
   23cb4:	00813823          	sd	s0,16(sp)
   23cb8:	02010413          	addi	s0,sp,32
   23cbc:	020017b7          	lui	a5,0x2001
   23cc0:	02078513          	addi	a0,a5,32 # 2001020 <_payload_end+0x1fda018>
   23cc4:	d01ff0ef          	jal	ra,239c4 <bss_begin+0x19c4>
   23cc8:	00050793          	mv	a5,a0
   23ccc:	0007879b          	sext.w	a5,a5
   23cd0:	0007879b          	sext.w	a5,a5
   23cd4:	1207cc63          	bltz	a5,23e0c <bss_begin+0x1e0c>
   23cd8:	020017b7          	lui	a5,0x2001
   23cdc:	51078513          	addi	a0,a5,1296 # 2001510 <_payload_end+0x1fda508>
   23ce0:	ce5ff0ef          	jal	ra,239c4 <bss_begin+0x19c4>
   23ce4:	00050793          	mv	a5,a0
   23ce8:	fef42623          	sw	a5,-20(s0)
   23cec:	fec42703          	lw	a4,-20(s0)
   23cf0:	fd0007b7          	lui	a5,0xfd000
   23cf4:	fff78793          	addi	a5,a5,-1 # fffffffffcffffff <_payload_end+0xfffffffffcfd8ff7>
   23cf8:	00f777b3          	and	a5,a4,a5
   23cfc:	fef42623          	sw	a5,-20(s0)
   23d00:	fec46703          	lwu	a4,-20(s0)
   23d04:	020017b7          	lui	a5,0x2001
   23d08:	51078593          	addi	a1,a5,1296 # 2001510 <_payload_end+0x1fda508>
   23d0c:	00070513          	mv	a0,a4
   23d10:	ce1ff0ef          	jal	ra,239f0 <bss_begin+0x19f0>
   23d14:	000067b7          	lui	a5,0x6
   23d18:	30078593          	addi	a1,a5,768 # 6300 <__bin_size-0xd08>
   23d1c:	020017b7          	lui	a5,0x2001
   23d20:	02078513          	addi	a0,a5,32 # 2001020 <_payload_end+0x1fda018>
   23d24:	ccdff0ef          	jal	ra,239f0 <bss_begin+0x19f0>
   23d28:	020017b7          	lui	a5,0x2001
   23d2c:	02078513          	addi	a0,a5,32 # 2001020 <_payload_end+0x1fda018>
   23d30:	c95ff0ef          	jal	ra,239c4 <bss_begin+0x19c4>
   23d34:	00050793          	mv	a5,a0
   23d38:	fef42623          	sw	a5,-20(s0)
   23d3c:	fec42703          	lw	a4,-20(s0)
   23d40:	200007b7          	lui	a5,0x20000
   23d44:	00f767b3          	or	a5,a4,a5
   23d48:	fef42623          	sw	a5,-20(s0)
   23d4c:	fec42783          	lw	a5,-20(s0)
   23d50:	00078593          	mv	a1,a5
   23d54:	020017b7          	lui	a5,0x2001
   23d58:	02078513          	addi	a0,a5,32 # 2001020 <_payload_end+0x1fda018>
   23d5c:	c95ff0ef          	jal	ra,239f0 <bss_begin+0x19f0>
   23d60:	020017b7          	lui	a5,0x2001
   23d64:	02078513          	addi	a0,a5,32 # 2001020 <_payload_end+0x1fda018>
   23d68:	c5dff0ef          	jal	ra,239c4 <bss_begin+0x19c4>
   23d6c:	00050793          	mv	a5,a0
   23d70:	fef42623          	sw	a5,-20(s0)
   23d74:	fec42703          	lw	a4,-20(s0)
   23d78:	800007b7          	lui	a5,0x80000
   23d7c:	00f767b3          	or	a5,a4,a5
   23d80:	fef42623          	sw	a5,-20(s0)
   23d84:	fec42783          	lw	a5,-20(s0)
   23d88:	00078593          	mv	a1,a5
   23d8c:	020017b7          	lui	a5,0x2001
   23d90:	02078513          	addi	a0,a5,32 # 2001020 <_payload_end+0x1fda018>
   23d94:	c5dff0ef          	jal	ra,239f0 <bss_begin+0x19f0>
   23d98:	00000013          	nop
   23d9c:	020017b7          	lui	a5,0x2001
   23da0:	02078513          	addi	a0,a5,32 # 2001020 <_payload_end+0x1fda018>
   23da4:	c21ff0ef          	jal	ra,239c4 <bss_begin+0x19c4>
   23da8:	00050793          	mv	a5,a0
   23dac:	0007879b          	sext.w	a5,a5
   23db0:	00078713          	mv	a4,a5
   23db4:	100007b7          	lui	a5,0x10000
   23db8:	00f777b3          	and	a5,a4,a5
   23dbc:	0007879b          	sext.w	a5,a5
   23dc0:	fc078ee3          	beqz	a5,23d9c <bss_begin+0x1d9c>
   23dc4:	01400513          	li	a0,20
   23dc8:	c5dff0ef          	jal	ra,23a24 <bss_begin+0x1a24>
   23dcc:	020017b7          	lui	a5,0x2001
   23dd0:	02078513          	addi	a0,a5,32 # 2001020 <_payload_end+0x1fda018>
   23dd4:	bf1ff0ef          	jal	ra,239c4 <bss_begin+0x19c4>
   23dd8:	00050793          	mv	a5,a0
   23ddc:	fef42623          	sw	a5,-20(s0)
   23de0:	fec42703          	lw	a4,-20(s0)
   23de4:	e00007b7          	lui	a5,0xe0000
   23de8:	fff78793          	addi	a5,a5,-1 # ffffffffdfffffff <_payload_end+0xffffffffdffd8ff7>
   23dec:	00f777b3          	and	a5,a4,a5
   23df0:	fef42623          	sw	a5,-20(s0)
   23df4:	fec42783          	lw	a5,-20(s0)
   23df8:	00078593          	mv	a1,a5
   23dfc:	020017b7          	lui	a5,0x2001
   23e00:	02078513          	addi	a0,a5,32 # 2001020 <_payload_end+0x1fda018>
   23e04:	bedff0ef          	jal	ra,239f0 <bss_begin+0x19f0>
   23e08:	0080006f          	j	23e10 <bss_begin+0x1e10>
   23e0c:	00000013          	nop
   23e10:	01813083          	ld	ra,24(sp)
   23e14:	01013403          	ld	s0,16(sp)
   23e18:	02010113          	addi	sp,sp,32
   23e1c:	00008067          	ret
   23e20:	ff010113          	addi	sp,sp,-16
   23e24:	00113423          	sd	ra,8(sp)
   23e28:	00813023          	sd	s0,0(sp)
   23e2c:	01010413          	addi	s0,sp,16
   23e30:	00200593          	li	a1,2
   23e34:	020017b7          	lui	a5,0x2001
   23e38:	51078513          	addi	a0,a5,1296 # 2001510 <_payload_end+0x1fda508>
   23e3c:	bb5ff0ef          	jal	ra,239f0 <bss_begin+0x19f0>
   23e40:	020017b7          	lui	a5,0x2001
   23e44:	51078513          	addi	a0,a5,1296 # 2001510 <_payload_end+0x1fda508>
   23e48:	b7dff0ef          	jal	ra,239c4 <bss_begin+0x19c4>
   23e4c:	00050793          	mv	a5,a0
   23e50:	0007879b          	sext.w	a5,a5
   23e54:	00078713          	mv	a4,a5
   23e58:	030007b7          	lui	a5,0x3000
   23e5c:	00f767b3          	or	a5,a4,a5
   23e60:	0007879b          	sext.w	a5,a5
   23e64:	00078593          	mv	a1,a5
   23e68:	020017b7          	lui	a5,0x2001
   23e6c:	51078513          	addi	a0,a5,1296 # 2001510 <_payload_end+0x1fda508>
   23e70:	b81ff0ef          	jal	ra,239f0 <bss_begin+0x19f0>
   23e74:	00100513          	li	a0,1
   23e78:	badff0ef          	jal	ra,23a24 <bss_begin+0x1a24>
   23e7c:	00000013          	nop
   23e80:	00813083          	ld	ra,8(sp)
   23e84:	00013403          	ld	s0,0(sp)
   23e88:	01010113          	addi	sp,sp,16
   23e8c:	00008067          	ret
   23e90:	ff010113          	addi	sp,sp,-16
   23e94:	00113423          	sd	ra,8(sp)
   23e98:	00813023          	sd	s0,0(sp)
   23e9c:	01010413          	addi	s0,sp,16
   23ea0:	10200593          	li	a1,258
   23ea4:	020017b7          	lui	a5,0x2001
   23ea8:	52078513          	addi	a0,a5,1312 # 2001520 <_payload_end+0x1fda518>
   23eac:	b45ff0ef          	jal	ra,239f0 <bss_begin+0x19f0>
   23eb0:	020017b7          	lui	a5,0x2001
   23eb4:	52078513          	addi	a0,a5,1312 # 2001520 <_payload_end+0x1fda518>
   23eb8:	b0dff0ef          	jal	ra,239c4 <bss_begin+0x19c4>
   23ebc:	00050793          	mv	a5,a0
   23ec0:	0007879b          	sext.w	a5,a5
   23ec4:	00078713          	mv	a4,a5
   23ec8:	030007b7          	lui	a5,0x3000
   23ecc:	00f767b3          	or	a5,a4,a5
   23ed0:	0007879b          	sext.w	a5,a5
   23ed4:	00078593          	mv	a1,a5
   23ed8:	020017b7          	lui	a5,0x2001
   23edc:	52078513          	addi	a0,a5,1312 # 2001520 <_payload_end+0x1fda518>
   23ee0:	b11ff0ef          	jal	ra,239f0 <bss_begin+0x19f0>
   23ee4:	00100513          	li	a0,1
   23ee8:	b3dff0ef          	jal	ra,23a24 <bss_begin+0x1a24>
   23eec:	00000013          	nop
   23ef0:	00813083          	ld	ra,8(sp)
   23ef4:	00013403          	ld	s0,0(sp)
   23ef8:	01010113          	addi	sp,sp,16
   23efc:	00008067          	ret
   23f00:	ff010113          	addi	sp,sp,-16
   23f04:	00113423          	sd	ra,8(sp)
   23f08:	00813023          	sd	s0,0(sp)
   23f0c:	01010413          	addi	s0,sp,16
   23f10:	020017b7          	lui	a5,0x2001
   23f14:	70c78513          	addi	a0,a5,1804 # 200170c <_payload_end+0x1fda704>
   23f18:	aadff0ef          	jal	ra,239c4 <bss_begin+0x19c4>
   23f1c:	00050793          	mv	a5,a0
   23f20:	0007879b          	sext.w	a5,a5
   23f24:	00078713          	mv	a4,a5
   23f28:	000107b7          	lui	a5,0x10
   23f2c:	00f767b3          	or	a5,a4,a5
   23f30:	0007879b          	sext.w	a5,a5
   23f34:	00078593          	mv	a1,a5
   23f38:	020017b7          	lui	a5,0x2001
   23f3c:	70c78513          	addi	a0,a5,1804 # 200170c <_payload_end+0x1fda704>
   23f40:	ab1ff0ef          	jal	ra,239f0 <bss_begin+0x19f0>
   23f44:	01400513          	li	a0,20
   23f48:	addff0ef          	jal	ra,23a24 <bss_begin+0x1a24>
   23f4c:	020017b7          	lui	a5,0x2001
   23f50:	70c78513          	addi	a0,a5,1804 # 200170c <_payload_end+0x1fda704>
   23f54:	a71ff0ef          	jal	ra,239c4 <bss_begin+0x19c4>
   23f58:	00050793          	mv	a5,a0
   23f5c:	0007879b          	sext.w	a5,a5
   23f60:	0017e793          	ori	a5,a5,1
   23f64:	0007879b          	sext.w	a5,a5
   23f68:	00078593          	mv	a1,a5
   23f6c:	020017b7          	lui	a5,0x2001
   23f70:	70c78513          	addi	a0,a5,1804 # 200170c <_payload_end+0x1fda704>
   23f74:	a7dff0ef          	jal	ra,239f0 <bss_begin+0x19f0>
   23f78:	00000013          	nop
   23f7c:	00813083          	ld	ra,8(sp)
   23f80:	00013403          	ld	s0,0(sp)
   23f84:	01010113          	addi	sp,sp,16
   23f88:	00008067          	ret
   23f8c:	fe010113          	addi	sp,sp,-32
   23f90:	00113c23          	sd	ra,24(sp)
   23f94:	00813823          	sd	s0,16(sp)
   23f98:	02010413          	addi	s0,sp,32
   23f9c:	020017b7          	lui	a5,0x2001
   23fa0:	54078513          	addi	a0,a5,1344 # 2001540 <_payload_end+0x1fda538>
   23fa4:	a21ff0ef          	jal	ra,239c4 <bss_begin+0x19c4>
   23fa8:	00050793          	mv	a5,a0
   23fac:	fef42623          	sw	a5,-20(s0)
   23fb0:	fec42703          	lw	a4,-20(s0)
   23fb4:	400007b7          	lui	a5,0x40000
   23fb8:	00f767b3          	or	a5,a4,a5
   23fbc:	fef42623          	sw	a5,-20(s0)
   23fc0:	fec42783          	lw	a5,-20(s0)
   23fc4:	00078593          	mv	a1,a5
   23fc8:	020017b7          	lui	a5,0x2001
   23fcc:	54078513          	addi	a0,a5,1344 # 2001540 <_payload_end+0x1fda538>
   23fd0:	a21ff0ef          	jal	ra,239f0 <bss_begin+0x19f0>
   23fd4:	00100513          	li	a0,1
   23fd8:	a4dff0ef          	jal	ra,23a24 <bss_begin+0x1a24>
   23fdc:	00000013          	nop
   23fe0:	01813083          	ld	ra,24(sp)
   23fe4:	01013403          	ld	s0,16(sp)
   23fe8:	02010113          	addi	sp,sp,32
   23fec:	00008067          	ret
   23ff0:	fd010113          	addi	sp,sp,-48
   23ff4:	02113423          	sd	ra,40(sp)
   23ff8:	02813023          	sd	s0,32(sp)
   23ffc:	03010413          	addi	s0,sp,48
   24000:	fca43c23          	sd	a0,-40(s0)
   24004:	fd843503          	ld	a0,-40(s0)
   24008:	9bdff0ef          	jal	ra,239c4 <bss_begin+0x19c4>
   2400c:	00050793          	mv	a5,a0
   24010:	0007879b          	sext.w	a5,a5
   24014:	0007879b          	sext.w	a5,a5
   24018:	0c07c263          	bltz	a5,240dc <bss_begin+0x20dc>
   2401c:	fd843503          	ld	a0,-40(s0)
   24020:	9a5ff0ef          	jal	ra,239c4 <bss_begin+0x19c4>
   24024:	00050793          	mv	a5,a0
   24028:	fef42623          	sw	a5,-20(s0)
   2402c:	fec42703          	lw	a4,-20(s0)
   24030:	c00007b7          	lui	a5,0xc0000
   24034:	00f767b3          	or	a5,a4,a5
   24038:	0007879b          	sext.w	a5,a5
   2403c:	00078593          	mv	a1,a5
   24040:	fd843503          	ld	a0,-40(s0)
   24044:	9adff0ef          	jal	ra,239f0 <bss_begin+0x19f0>
   24048:	fd843503          	ld	a0,-40(s0)
   2404c:	979ff0ef          	jal	ra,239c4 <bss_begin+0x19c4>
   24050:	00050793          	mv	a5,a0
   24054:	fef42623          	sw	a5,-20(s0)
   24058:	fec42703          	lw	a4,-20(s0)
   2405c:	200007b7          	lui	a5,0x20000
   24060:	00f767b3          	or	a5,a4,a5
   24064:	fef42623          	sw	a5,-20(s0)
   24068:	fec42783          	lw	a5,-20(s0)
   2406c:	00078593          	mv	a1,a5
   24070:	fd843503          	ld	a0,-40(s0)
   24074:	97dff0ef          	jal	ra,239f0 <bss_begin+0x19f0>
   24078:	00000013          	nop
   2407c:	fd843503          	ld	a0,-40(s0)
   24080:	945ff0ef          	jal	ra,239c4 <bss_begin+0x19c4>
   24084:	00050793          	mv	a5,a0
   24088:	0007879b          	sext.w	a5,a5
   2408c:	00078713          	mv	a4,a5
   24090:	100007b7          	lui	a5,0x10000
   24094:	00f777b3          	and	a5,a4,a5
   24098:	0007879b          	sext.w	a5,a5
   2409c:	fe0780e3          	beqz	a5,2407c <bss_begin+0x207c>
   240a0:	01400513          	li	a0,20
   240a4:	981ff0ef          	jal	ra,23a24 <bss_begin+0x1a24>
   240a8:	fd843503          	ld	a0,-40(s0)
   240ac:	919ff0ef          	jal	ra,239c4 <bss_begin+0x19c4>
   240b0:	00050793          	mv	a5,a0
   240b4:	fef42623          	sw	a5,-20(s0)
   240b8:	fec42703          	lw	a4,-20(s0)
   240bc:	e00007b7          	lui	a5,0xe0000
   240c0:	fff78793          	addi	a5,a5,-1 # ffffffffdfffffff <_payload_end+0xffffffffdffd8ff7>
   240c4:	00f777b3          	and	a5,a4,a5
   240c8:	fef42623          	sw	a5,-20(s0)
   240cc:	fec42783          	lw	a5,-20(s0)
   240d0:	00078593          	mv	a1,a5
   240d4:	fd843503          	ld	a0,-40(s0)
   240d8:	919ff0ef          	jal	ra,239f0 <bss_begin+0x19f0>
   240dc:	00000013          	nop
   240e0:	02813083          	ld	ra,40(sp)
   240e4:	02013403          	ld	s0,32(sp)
   240e8:	03010113          	addi	sp,sp,48
   240ec:	00008067          	ret
   240f0:	ff010113          	addi	sp,sp,-16
   240f4:	00113423          	sd	ra,8(sp)
   240f8:	00813023          	sd	s0,0(sp)
   240fc:	01010413          	addi	s0,sp,16
   24100:	969ff0ef          	jal	ra,23a68 <bss_begin+0x1a68>
   24104:	ba9ff0ef          	jal	ra,23cac <bss_begin+0x1cac>
   24108:	d19ff0ef          	jal	ra,23e20 <bss_begin+0x1e20>
   2410c:	d85ff0ef          	jal	ra,23e90 <bss_begin+0x1e90>
   24110:	df1ff0ef          	jal	ra,23f00 <bss_begin+0x1f00>
   24114:	e79ff0ef          	jal	ra,23f8c <bss_begin+0x1f8c>
   24118:	020017b7          	lui	a5,0x2001
   2411c:	02078513          	addi	a0,a5,32 # 2001020 <_payload_end+0x1fda018>
   24120:	ed1ff0ef          	jal	ra,23ff0 <bss_begin+0x1ff0>
   24124:	020017b7          	lui	a5,0x2001
   24128:	04078513          	addi	a0,a5,64 # 2001040 <_payload_end+0x1fda038>
   2412c:	ec5ff0ef          	jal	ra,23ff0 <bss_begin+0x1ff0>
   24130:	020017b7          	lui	a5,0x2001
   24134:	04878513          	addi	a0,a5,72 # 2001048 <_payload_end+0x1fda040>
   24138:	eb9ff0ef          	jal	ra,23ff0 <bss_begin+0x1ff0>
   2413c:	020017b7          	lui	a5,0x2001
   24140:	05878513          	addi	a0,a5,88 # 2001058 <_payload_end+0x1fda050>
   24144:	eadff0ef          	jal	ra,23ff0 <bss_begin+0x1ff0>
   24148:	020017b7          	lui	a5,0x2001
   2414c:	07878513          	addi	a0,a5,120 # 2001078 <_payload_end+0x1fda070>
   24150:	ea1ff0ef          	jal	ra,23ff0 <bss_begin+0x1ff0>
   24154:	020017b7          	lui	a5,0x2001
   24158:	08078513          	addi	a0,a5,128 # 2001080 <_payload_end+0x1fda078>
   2415c:	e95ff0ef          	jal	ra,23ff0 <bss_begin+0x1ff0>
   24160:	00000013          	nop
   24164:	00813083          	ld	ra,8(sp)
   24168:	00013403          	ld	s0,0(sp)
   2416c:	01010113          	addi	sp,sp,16
   24170:	00008067          	ret
   24174:	fe010113          	addi	sp,sp,-32
   24178:	00813c23          	sd	s0,24(sp)
   2417c:	02010413          	addi	s0,sp,32
   24180:	fea43423          	sd	a0,-24(s0)
   24184:	fe843783          	ld	a5,-24(s0)
   24188:	0007c783          	lbu	a5,0(a5)
   2418c:	0ff7f793          	andi	a5,a5,255
   24190:	00078513          	mv	a0,a5
   24194:	01813403          	ld	s0,24(sp)
   24198:	02010113          	addi	sp,sp,32
   2419c:	00008067          	ret
   241a0:	fe010113          	addi	sp,sp,-32
   241a4:	00813c23          	sd	s0,24(sp)
   241a8:	02010413          	addi	s0,sp,32
   241ac:	fea43423          	sd	a0,-24(s0)
   241b0:	fe843783          	ld	a5,-24(s0)
   241b4:	0007a783          	lw	a5,0(a5)
   241b8:	0007879b          	sext.w	a5,a5
   241bc:	00078513          	mv	a0,a5
   241c0:	01813403          	ld	s0,24(sp)
   241c4:	02010113          	addi	sp,sp,32
   241c8:	00008067          	ret
   241cc:	fe010113          	addi	sp,sp,-32
   241d0:	00813c23          	sd	s0,24(sp)
   241d4:	02010413          	addi	s0,sp,32
   241d8:	fea43423          	sd	a0,-24(s0)
   241dc:	00058793          	mv	a5,a1
   241e0:	fef42223          	sw	a5,-28(s0)
   241e4:	fe843783          	ld	a5,-24(s0)
   241e8:	fe442703          	lw	a4,-28(s0)
   241ec:	00e7a023          	sw	a4,0(a5)
   241f0:	00000013          	nop
   241f4:	01813403          	ld	s0,24(sp)
   241f8:	02010113          	addi	sp,sp,32
   241fc:	00008067          	ret
   24200:	fe010113          	addi	sp,sp,-32
   24204:	00113c23          	sd	ra,24(sp)
   24208:	00813823          	sd	s0,16(sp)
   2420c:	02010413          	addi	s0,sp,32
   24210:	020007b7          	lui	a5,0x2000
   24214:	0f078793          	addi	a5,a5,240 # 20000f0 <_payload_end+0x1fd90e8>
   24218:	fef43423          	sd	a5,-24(s0)
   2421c:	fe843503          	ld	a0,-24(s0)
   24220:	f81ff0ef          	jal	ra,241a0 <bss_begin+0x21a0>
   24224:	00050793          	mv	a5,a0
   24228:	fef42223          	sw	a5,-28(s0)
   2422c:	fe442703          	lw	a4,-28(s0)
   24230:	fffff7b7          	lui	a5,0xfffff
   24234:	0ff78793          	addi	a5,a5,255 # fffffffffffff0ff <_payload_end+0xfffffffffffd80f7>
   24238:	00f777b3          	and	a5,a4,a5
   2423c:	fef42223          	sw	a5,-28(s0)
   24240:	fe442783          	lw	a5,-28(s0)
   24244:	3007e793          	ori	a5,a5,768
   24248:	fef42223          	sw	a5,-28(s0)
   2424c:	fe442783          	lw	a5,-28(s0)
   24250:	00078593          	mv	a1,a5
   24254:	fe843503          	ld	a0,-24(s0)
   24258:	f75ff0ef          	jal	ra,241cc <bss_begin+0x21cc>
   2425c:	fe843503          	ld	a0,-24(s0)
   24260:	f41ff0ef          	jal	ra,241a0 <bss_begin+0x21a0>
   24264:	00050793          	mv	a5,a0
   24268:	fef42223          	sw	a5,-28(s0)
   2426c:	fe442703          	lw	a4,-28(s0)
   24270:	fff107b7          	lui	a5,0xfff10
   24274:	fff78793          	addi	a5,a5,-1 # fffffffffff0ffff <_payload_end+0xffffffffffee8ff7>
   24278:	00f777b3          	and	a5,a4,a5
   2427c:	fef42223          	sw	a5,-28(s0)
   24280:	fe442703          	lw	a4,-28(s0)
   24284:	000307b7          	lui	a5,0x30
   24288:	00f767b3          	or	a5,a4,a5
   2428c:	fef42223          	sw	a5,-28(s0)
   24290:	fe442783          	lw	a5,-28(s0)
   24294:	00078593          	mv	a1,a5
   24298:	fe843503          	ld	a0,-24(s0)
   2429c:	f31ff0ef          	jal	ra,241cc <bss_begin+0x21cc>
   242a0:	020027b7          	lui	a5,0x2002
   242a4:	90c78793          	addi	a5,a5,-1780 # 200190c <_payload_end+0x1fda904>
   242a8:	fef43423          	sd	a5,-24(s0)
   242ac:	fe843503          	ld	a0,-24(s0)
   242b0:	ef1ff0ef          	jal	ra,241a0 <bss_begin+0x21a0>
   242b4:	00050793          	mv	a5,a0
   242b8:	fef42223          	sw	a5,-28(s0)
   242bc:	fe442783          	lw	a5,-28(s0)
   242c0:	0017e793          	ori	a5,a5,1
   242c4:	fef42223          	sw	a5,-28(s0)
   242c8:	fe442783          	lw	a5,-28(s0)
   242cc:	00078593          	mv	a1,a5
   242d0:	fe843503          	ld	a0,-24(s0)
   242d4:	ef9ff0ef          	jal	ra,241cc <bss_begin+0x21cc>
   242d8:	020027b7          	lui	a5,0x2002
   242dc:	90c78793          	addi	a5,a5,-1780 # 200190c <_payload_end+0x1fda904>
   242e0:	fef43423          	sd	a5,-24(s0)
   242e4:	fe843503          	ld	a0,-24(s0)
   242e8:	eb9ff0ef          	jal	ra,241a0 <bss_begin+0x21a0>
   242ec:	00050793          	mv	a5,a0
   242f0:	fef42223          	sw	a5,-28(s0)
   242f4:	fe442703          	lw	a4,-28(s0)
   242f8:	000107b7          	lui	a5,0x10
   242fc:	00f767b3          	or	a5,a4,a5
   24300:	fef42223          	sw	a5,-28(s0)
   24304:	fe442783          	lw	a5,-28(s0)
   24308:	00078593          	mv	a1,a5
   2430c:	fe843503          	ld	a0,-24(s0)
   24310:	ebdff0ef          	jal	ra,241cc <bss_begin+0x21cc>
   24314:	025007b7          	lui	a5,0x2500
   24318:	fef43423          	sd	a5,-24(s0)
   2431c:	fe843783          	ld	a5,-24(s0)
   24320:	00478793          	addi	a5,a5,4 # 2500004 <_payload_end+0x24d8ffc>
   24324:	00000593          	li	a1,0
   24328:	00078513          	mv	a0,a5
   2432c:	ea1ff0ef          	jal	ra,241cc <bss_begin+0x21cc>
   24330:	fe843783          	ld	a5,-24(s0)
   24334:	00878793          	addi	a5,a5,8
   24338:	0f100593          	li	a1,241
   2433c:	00078513          	mv	a0,a5
   24340:	e8dff0ef          	jal	ra,241cc <bss_begin+0x21cc>
   24344:	fe843783          	ld	a5,-24(s0)
   24348:	01078793          	addi	a5,a5,16
   2434c:	00000593          	li	a1,0
   24350:	00078513          	mv	a0,a5
   24354:	e79ff0ef          	jal	ra,241cc <bss_begin+0x21cc>
   24358:	fe843783          	ld	a5,-24(s0)
   2435c:	00c78793          	addi	a5,a5,12
   24360:	00078513          	mv	a0,a5
   24364:	e3dff0ef          	jal	ra,241a0 <bss_begin+0x21a0>
   24368:	00050793          	mv	a5,a0
   2436c:	fef42223          	sw	a5,-28(s0)
   24370:	fe442783          	lw	a5,-28(s0)
   24374:	0807e793          	ori	a5,a5,128
   24378:	fef42223          	sw	a5,-28(s0)
   2437c:	fe843783          	ld	a5,-24(s0)
   24380:	00c78793          	addi	a5,a5,12
   24384:	fe442703          	lw	a4,-28(s0)
   24388:	00070593          	mv	a1,a4
   2438c:	00078513          	mv	a0,a5
   24390:	e3dff0ef          	jal	ra,241cc <bss_begin+0x21cc>
   24394:	00d00593          	li	a1,13
   24398:	fe843503          	ld	a0,-24(s0)
   2439c:	e31ff0ef          	jal	ra,241cc <bss_begin+0x21cc>
   243a0:	fe843783          	ld	a5,-24(s0)
   243a4:	00478793          	addi	a5,a5,4
   243a8:	00000593          	li	a1,0
   243ac:	00078513          	mv	a0,a5
   243b0:	e1dff0ef          	jal	ra,241cc <bss_begin+0x21cc>
   243b4:	fe843783          	ld	a5,-24(s0)
   243b8:	00c78793          	addi	a5,a5,12
   243bc:	00078513          	mv	a0,a5
   243c0:	de1ff0ef          	jal	ra,241a0 <bss_begin+0x21a0>
   243c4:	00050793          	mv	a5,a0
   243c8:	fef42223          	sw	a5,-28(s0)
   243cc:	fe442783          	lw	a5,-28(s0)
   243d0:	f7f7f793          	andi	a5,a5,-129
   243d4:	fef42223          	sw	a5,-28(s0)
   243d8:	fe843783          	ld	a5,-24(s0)
   243dc:	00c78793          	addi	a5,a5,12
   243e0:	fe442703          	lw	a4,-28(s0)
   243e4:	00070593          	mv	a1,a4
   243e8:	00078513          	mv	a0,a5
   243ec:	de1ff0ef          	jal	ra,241cc <bss_begin+0x21cc>
   243f0:	fe843783          	ld	a5,-24(s0)
   243f4:	00c78793          	addi	a5,a5,12
   243f8:	00078513          	mv	a0,a5
   243fc:	da5ff0ef          	jal	ra,241a0 <bss_begin+0x21a0>
   24400:	00050793          	mv	a5,a0
   24404:	fef42223          	sw	a5,-28(s0)
   24408:	fe442783          	lw	a5,-28(s0)
   2440c:	fe07f793          	andi	a5,a5,-32
   24410:	fef42223          	sw	a5,-28(s0)
   24414:	fe442783          	lw	a5,-28(s0)
   24418:	0037e793          	ori	a5,a5,3
   2441c:	fef42223          	sw	a5,-28(s0)
   24420:	fe843783          	ld	a5,-24(s0)
   24424:	00c78793          	addi	a5,a5,12
   24428:	fe442703          	lw	a4,-28(s0)
   2442c:	00070593          	mv	a1,a4
   24430:	00078513          	mv	a0,a5
   24434:	d99ff0ef          	jal	ra,241cc <bss_begin+0x21cc>
   24438:	00000013          	nop
   2443c:	01813083          	ld	ra,24(sp)
   24440:	01013403          	ld	s0,16(sp)
   24444:	02010113          	addi	sp,sp,32
   24448:	00008067          	ret
   2444c:	fd010113          	addi	sp,sp,-48
   24450:	02113423          	sd	ra,40(sp)
   24454:	02813023          	sd	s0,32(sp)
   24458:	03010413          	addi	s0,sp,48
   2445c:	00050793          	mv	a5,a0
   24460:	fcf40fa3          	sb	a5,-33(s0)
   24464:	025007b7          	lui	a5,0x2500
   24468:	fef43423          	sd	a5,-24(s0)
   2446c:	00000013          	nop
   24470:	fe843783          	ld	a5,-24(s0)
   24474:	07c78793          	addi	a5,a5,124 # 250007c <_payload_end+0x24d9074>
   24478:	00078513          	mv	a0,a5
   2447c:	d25ff0ef          	jal	ra,241a0 <bss_begin+0x21a0>
   24480:	00050793          	mv	a5,a0
   24484:	0007879b          	sext.w	a5,a5
   24488:	0027f793          	andi	a5,a5,2
   2448c:	0007879b          	sext.w	a5,a5
   24490:	fe0780e3          	beqz	a5,24470 <bss_begin+0x2470>
   24494:	fdf44783          	lbu	a5,-33(s0)
   24498:	0007879b          	sext.w	a5,a5
   2449c:	00078593          	mv	a1,a5
   244a0:	fe843503          	ld	a0,-24(s0)
   244a4:	d29ff0ef          	jal	ra,241cc <bss_begin+0x21cc>
   244a8:	00000013          	nop
   244ac:	02813083          	ld	ra,40(sp)
   244b0:	02013403          	ld	s0,32(sp)
   244b4:	03010113          	addi	sp,sp,48
   244b8:	00008067          	ret
   244bc:	fe010113          	addi	sp,sp,-32
   244c0:	00113c23          	sd	ra,24(sp)
   244c4:	00813823          	sd	s0,16(sp)
   244c8:	02010413          	addi	s0,sp,32
   244cc:	00050793          	mv	a5,a0
   244d0:	fef42623          	sw	a5,-20(s0)
   244d4:	fec42783          	lw	a5,-20(s0)
   244d8:	0ff7f793          	andi	a5,a5,255
   244dc:	00078513          	mv	a0,a5
   244e0:	f6dff0ef          	jal	ra,2444c <bss_begin+0x244c>
   244e4:	fec42783          	lw	a5,-20(s0)
   244e8:	00078513          	mv	a0,a5
   244ec:	01813083          	ld	ra,24(sp)
   244f0:	01013403          	ld	s0,16(sp)
   244f4:	02010113          	addi	sp,sp,32
   244f8:	00008067          	ret
   244fc:	fe010113          	addi	sp,sp,-32
   24500:	00113c23          	sd	ra,24(sp)
   24504:	00813823          	sd	s0,16(sp)
   24508:	02010413          	addi	s0,sp,32
   2450c:	025007b7          	lui	a5,0x2500
   24510:	fef43423          	sd	a5,-24(s0)
   24514:	00000013          	nop
   24518:	fe843783          	ld	a5,-24(s0)
   2451c:	07c78793          	addi	a5,a5,124 # 250007c <_payload_end+0x24d9074>
   24520:	00078513          	mv	a0,a5
   24524:	c7dff0ef          	jal	ra,241a0 <bss_begin+0x21a0>
   24528:	00050793          	mv	a5,a0
   2452c:	0007879b          	sext.w	a5,a5
   24530:	0087f793          	andi	a5,a5,8
   24534:	0007879b          	sext.w	a5,a5
   24538:	fe0780e3          	beqz	a5,24518 <bss_begin+0x2518>
   2453c:	fe843503          	ld	a0,-24(s0)
   24540:	c35ff0ef          	jal	ra,24174 <bss_begin+0x2174>
   24544:	00050793          	mv	a5,a0
   24548:	00078513          	mv	a0,a5
   2454c:	01813083          	ld	ra,24(sp)
   24550:	01013403          	ld	s0,16(sp)
   24554:	02010113          	addi	sp,sp,32
   24558:	00008067          	ret
   2455c:	fd010113          	addi	sp,sp,-48
   24560:	02113423          	sd	ra,40(sp)
   24564:	02813023          	sd	s0,32(sp)
   24568:	03010413          	addi	s0,sp,48
   2456c:	fca43c23          	sd	a0,-40(s0)
   24570:	fe042623          	sw	zero,-20(s0)
   24574:	04c0006f          	j	245c0 <bss_begin+0x25c0>
   24578:	fec42783          	lw	a5,-20(s0)
   2457c:	fd843703          	ld	a4,-40(s0)
   24580:	00f707b3          	add	a5,a4,a5
   24584:	0007c783          	lbu	a5,0(a5)
   24588:	00078713          	mv	a4,a5
   2458c:	00a00793          	li	a5,10
   24590:	00f71663          	bne	a4,a5,2459c <bss_begin+0x259c>
   24594:	00d00513          	li	a0,13
   24598:	eb5ff0ef          	jal	ra,2444c <bss_begin+0x244c>
   2459c:	fec42783          	lw	a5,-20(s0)
   245a0:	fd843703          	ld	a4,-40(s0)
   245a4:	00f707b3          	add	a5,a4,a5
   245a8:	0007c783          	lbu	a5,0(a5)
   245ac:	00078513          	mv	a0,a5
   245b0:	e9dff0ef          	jal	ra,2444c <bss_begin+0x244c>
   245b4:	fec42783          	lw	a5,-20(s0)
   245b8:	0017879b          	addiw	a5,a5,1
   245bc:	fef42623          	sw	a5,-20(s0)
   245c0:	fec42783          	lw	a5,-20(s0)
   245c4:	fd843703          	ld	a4,-40(s0)
   245c8:	00f707b3          	add	a5,a4,a5
   245cc:	0007c783          	lbu	a5,0(a5)
   245d0:	fa0794e3          	bnez	a5,24578 <bss_begin+0x2578>
   245d4:	00000013          	nop
   245d8:	00000013          	nop
   245dc:	02813083          	ld	ra,40(sp)
   245e0:	02013403          	ld	s0,32(sp)
   245e4:	03010113          	addi	sp,sp,48
   245e8:	00008067          	ret
   245ec:	fc010113          	addi	sp,sp,-64
   245f0:	02813c23          	sd	s0,56(sp)
   245f4:	04010413          	addi	s0,sp,64
   245f8:	fca43423          	sd	a0,-56(s0)
   245fc:	fcb43023          	sd	a1,-64(s0)
   24600:	fe042223          	sw	zero,-28(s0)
   24604:	fc843783          	ld	a5,-56(s0)
   24608:	fef43423          	sd	a5,-24(s0)
   2460c:	0900006f          	j	2469c <bss_begin+0x269c>
   24610:	fe843783          	ld	a5,-24(s0)
   24614:	0007c783          	lbu	a5,0(a5)
   24618:	00078713          	mv	a4,a5
   2461c:	02f00793          	li	a5,47
   24620:	02e7f063          	bgeu	a5,a4,24640 <bss_begin+0x2640>
   24624:	fe843783          	ld	a5,-24(s0)
   24628:	0007c783          	lbu	a5,0(a5)
   2462c:	00078713          	mv	a4,a5
   24630:	03900793          	li	a5,57
   24634:	00e7e663          	bltu	a5,a4,24640 <bss_begin+0x2640>
   24638:	00100793          	li	a5,1
   2463c:	0080006f          	j	24644 <bss_begin+0x2644>
   24640:	00000793          	li	a5,0
   24644:	fef42023          	sw	a5,-32(s0)
   24648:	fe042783          	lw	a5,-32(s0)
   2464c:	0007879b          	sext.w	a5,a5
   24650:	04078e63          	beqz	a5,246ac <bss_begin+0x26ac>
   24654:	fe843783          	ld	a5,-24(s0)
   24658:	0007c783          	lbu	a5,0(a5)
   2465c:	0007879b          	sext.w	a5,a5
   24660:	fd07879b          	addiw	a5,a5,-48
   24664:	fcf42e23          	sw	a5,-36(s0)
   24668:	fe442703          	lw	a4,-28(s0)
   2466c:	00070793          	mv	a5,a4
   24670:	0027979b          	slliw	a5,a5,0x2
   24674:	00e787bb          	addw	a5,a5,a4
   24678:	0017979b          	slliw	a5,a5,0x1
   2467c:	fef42223          	sw	a5,-28(s0)
   24680:	fe442703          	lw	a4,-28(s0)
   24684:	fdc42783          	lw	a5,-36(s0)
   24688:	00f707bb          	addw	a5,a4,a5
   2468c:	fef42223          	sw	a5,-28(s0)
   24690:	fe843783          	ld	a5,-24(s0)
   24694:	00178793          	addi	a5,a5,1
   24698:	fef43423          	sd	a5,-24(s0)
   2469c:	fc843783          	ld	a5,-56(s0)
   246a0:	0007c783          	lbu	a5,0(a5)
   246a4:	f60796e3          	bnez	a5,24610 <bss_begin+0x2610>
   246a8:	0080006f          	j	246b0 <bss_begin+0x26b0>
   246ac:	00000013          	nop
   246b0:	fc043783          	ld	a5,-64(s0)
   246b4:	fe442703          	lw	a4,-28(s0)
   246b8:	00e7a023          	sw	a4,0(a5)
   246bc:	fe843703          	ld	a4,-24(s0)
   246c0:	fc843783          	ld	a5,-56(s0)
   246c4:	40f707b3          	sub	a5,a4,a5
   246c8:	0007879b          	sext.w	a5,a5
   246cc:	00078513          	mv	a0,a5
   246d0:	03813403          	ld	s0,56(sp)
   246d4:	04010113          	addi	sp,sp,64
   246d8:	00008067          	ret
   246dc:	fb010113          	addi	sp,sp,-80
   246e0:	04113423          	sd	ra,72(sp)
   246e4:	04813023          	sd	s0,64(sp)
   246e8:	05010413          	addi	s0,sp,80
   246ec:	00050793          	mv	a5,a0
   246f0:	00068713          	mv	a4,a3
   246f4:	faf42e23          	sw	a5,-68(s0)
   246f8:	00058793          	mv	a5,a1
   246fc:	faf42c23          	sw	a5,-72(s0)
   24700:	00060793          	mv	a5,a2
   24704:	faf42a23          	sw	a5,-76(s0)
   24708:	00070793          	mv	a5,a4
   2470c:	faf42823          	sw	a5,-80(s0)
   24710:	fe042223          	sw	zero,-28(s0)
   24714:	0280006f          	j	2473c <bss_begin+0x273c>
   24718:	fb042783          	lw	a5,-80(s0)
   2471c:	0ff7f713          	andi	a4,a5,255
   24720:	fe442783          	lw	a5,-28(s0)
   24724:	ff040693          	addi	a3,s0,-16
   24728:	00f687b3          	add	a5,a3,a5
   2472c:	fce78823          	sb	a4,-48(a5)
   24730:	fe442783          	lw	a5,-28(s0)
   24734:	0017879b          	addiw	a5,a5,1
   24738:	fef42223          	sw	a5,-28(s0)
   2473c:	fe442783          	lw	a5,-28(s0)
   24740:	00078713          	mv	a4,a5
   24744:	01f00793          	li	a5,31
   24748:	fce7f8e3          	bgeu	a5,a4,24718 <bss_begin+0x2718>
   2474c:	00a00793          	li	a5,10
   24750:	fef42623          	sw	a5,-20(s0)
   24754:	fb842783          	lw	a5,-72(s0)
   24758:	0007879b          	sext.w	a5,a5
   2475c:	00078663          	beqz	a5,24768 <bss_begin+0x2768>
   24760:	01000793          	li	a5,16
   24764:	fef42623          	sw	a5,-20(s0)
   24768:	fe042423          	sw	zero,-24(s0)
   2476c:	fbc42703          	lw	a4,-68(s0)
   24770:	fec42783          	lw	a5,-20(s0)
   24774:	02f777bb          	remuw	a5,a4,a5
   24778:	0007879b          	sext.w	a5,a5
   2477c:	fef42023          	sw	a5,-32(s0)
   24780:	fe042783          	lw	a5,-32(s0)
   24784:	0007871b          	sext.w	a4,a5
   24788:	00900793          	li	a5,9
   2478c:	02e7d463          	bge	a5,a4,247b4 <bss_begin+0x27b4>
   24790:	fe042783          	lw	a5,-32(s0)
   24794:	0ff7f793          	andi	a5,a5,255
   24798:	0577879b          	addiw	a5,a5,87
   2479c:	0ff7f713          	andi	a4,a5,255
   247a0:	fe842783          	lw	a5,-24(s0)
   247a4:	ff040693          	addi	a3,s0,-16
   247a8:	00f687b3          	add	a5,a3,a5
   247ac:	fce78823          	sb	a4,-48(a5)
   247b0:	0240006f          	j	247d4 <bss_begin+0x27d4>
   247b4:	fe042783          	lw	a5,-32(s0)
   247b8:	0ff7f793          	andi	a5,a5,255
   247bc:	0307879b          	addiw	a5,a5,48
   247c0:	0ff7f713          	andi	a4,a5,255
   247c4:	fe842783          	lw	a5,-24(s0)
   247c8:	ff040693          	addi	a3,s0,-16
   247cc:	00f687b3          	add	a5,a3,a5
   247d0:	fce78823          	sb	a4,-48(a5)
   247d4:	fbc42703          	lw	a4,-68(s0)
   247d8:	fec42783          	lw	a5,-20(s0)
   247dc:	02f757bb          	divuw	a5,a4,a5
   247e0:	faf42e23          	sw	a5,-68(s0)
   247e4:	fe842783          	lw	a5,-24(s0)
   247e8:	0017879b          	addiw	a5,a5,1
   247ec:	fef42423          	sw	a5,-24(s0)
   247f0:	fbc42783          	lw	a5,-68(s0)
   247f4:	0007879b          	sext.w	a5,a5
   247f8:	f6079ae3          	bnez	a5,2476c <bss_begin+0x276c>
   247fc:	fb442783          	lw	a5,-76(s0)
   24800:	0007879b          	sext.w	a5,a5
   24804:	02f05c63          	blez	a5,2483c <bss_begin+0x283c>
   24808:	fb442783          	lw	a5,-76(s0)
   2480c:	00078713          	mv	a4,a5
   24810:	01f00793          	li	a5,31
   24814:	00e7f663          	bgeu	a5,a4,24820 <bss_begin+0x2820>
   24818:	01f00793          	li	a5,31
   2481c:	faf42a23          	sw	a5,-76(s0)
   24820:	fe842703          	lw	a4,-24(s0)
   24824:	fb442783          	lw	a5,-76(s0)
   24828:	0007071b          	sext.w	a4,a4
   2482c:	0007879b          	sext.w	a5,a5
   24830:	00f75663          	bge	a4,a5,2483c <bss_begin+0x283c>
   24834:	fb442783          	lw	a5,-76(s0)
   24838:	fef42423          	sw	a5,-24(s0)
   2483c:	fe842783          	lw	a5,-24(s0)
   24840:	ff040713          	addi	a4,s0,-16
   24844:	00f707b3          	add	a5,a4,a5
   24848:	fc078823          	sb	zero,-48(a5)
   2484c:	fe842783          	lw	a5,-24(s0)
   24850:	fff7879b          	addiw	a5,a5,-1
   24854:	fef42223          	sw	a5,-28(s0)
   24858:	0280006f          	j	24880 <bss_begin+0x2880>
   2485c:	fe442783          	lw	a5,-28(s0)
   24860:	ff040713          	addi	a4,s0,-16
   24864:	00f707b3          	add	a5,a4,a5
   24868:	fd07c783          	lbu	a5,-48(a5)
   2486c:	00078513          	mv	a0,a5
   24870:	bddff0ef          	jal	ra,2444c <bss_begin+0x244c>
   24874:	fe442783          	lw	a5,-28(s0)
   24878:	fff7879b          	addiw	a5,a5,-1
   2487c:	fef42223          	sw	a5,-28(s0)
   24880:	fe442783          	lw	a5,-28(s0)
   24884:	0007879b          	sext.w	a5,a5
   24888:	fc07dae3          	bgez	a5,2485c <bss_begin+0x285c>
   2488c:	00000013          	nop
   24890:	00000013          	nop
   24894:	04813083          	ld	ra,72(sp)
   24898:	04013403          	ld	s0,64(sp)
   2489c:	05010113          	addi	sp,sp,80
   248a0:	00008067          	ret
   248a4:	fb010113          	addi	sp,sp,-80
   248a8:	04113423          	sd	ra,72(sp)
   248ac:	04813023          	sd	s0,64(sp)
   248b0:	05010413          	addi	s0,sp,80
   248b4:	faa43c23          	sd	a0,-72(s0)
   248b8:	fab43823          	sd	a1,-80(s0)
   248bc:	02000793          	li	a5,32
   248c0:	fcf42a23          	sw	a5,-44(s0)
   248c4:	fb843783          	ld	a5,-72(s0)
   248c8:	fef43423          	sd	a5,-24(s0)
   248cc:	1880006f          	j	24a54 <bss_begin+0x2a54>
   248d0:	fc042e23          	sw	zero,-36(s0)
   248d4:	fc042223          	sw	zero,-60(s0)
   248d8:	fe843783          	ld	a5,-24(s0)
   248dc:	0007c783          	lbu	a5,0(a5)
   248e0:	fcf42823          	sw	a5,-48(s0)
   248e4:	fe843783          	ld	a5,-24(s0)
   248e8:	fef43023          	sd	a5,-32(s0)
   248ec:	fe843783          	ld	a5,-24(s0)
   248f0:	0007c783          	lbu	a5,0(a5)
   248f4:	00078713          	mv	a4,a5
   248f8:	02500793          	li	a5,37
   248fc:	06f71863          	bne	a4,a5,2496c <bss_begin+0x296c>
   24900:	fe843783          	ld	a5,-24(s0)
   24904:	fef43023          	sd	a5,-32(s0)
   24908:	fe843783          	ld	a5,-24(s0)
   2490c:	00178793          	addi	a5,a5,1
   24910:	fef43423          	sd	a5,-24(s0)
   24914:	fe843783          	ld	a5,-24(s0)
   24918:	0007c783          	lbu	a5,0(a5)
   2491c:	00078713          	mv	a4,a5
   24920:	02f00793          	li	a5,47
   24924:	02e7fe63          	bgeu	a5,a4,24960 <bss_begin+0x2960>
   24928:	fe843783          	ld	a5,-24(s0)
   2492c:	0007c783          	lbu	a5,0(a5)
   24930:	00078713          	mv	a4,a5
   24934:	03900793          	li	a5,57
   24938:	02e7e463          	bltu	a5,a4,24960 <bss_begin+0x2960>
   2493c:	fc440793          	addi	a5,s0,-60
   24940:	00078593          	mv	a1,a5
   24944:	fe843503          	ld	a0,-24(s0)
   24948:	ca5ff0ef          	jal	ra,245ec <bss_begin+0x25ec>
   2494c:	00050793          	mv	a5,a0
   24950:	00078713          	mv	a4,a5
   24954:	fe843783          	ld	a5,-24(s0)
   24958:	00e787b3          	add	a5,a5,a4
   2495c:	fef43423          	sd	a5,-24(s0)
   24960:	fe843783          	ld	a5,-24(s0)
   24964:	0007c783          	lbu	a5,0(a5)
   24968:	fcf42e23          	sw	a5,-36(s0)
   2496c:	fdc42783          	lw	a5,-36(s0)
   24970:	0007871b          	sext.w	a4,a5
   24974:	06400793          	li	a5,100
   24978:	00f70a63          	beq	a4,a5,2498c <bss_begin+0x298c>
   2497c:	fdc42783          	lw	a5,-36(s0)
   24980:	0007871b          	sext.w	a4,a5
   24984:	07800793          	li	a5,120
   24988:	04f71863          	bne	a4,a5,249d8 <bss_begin+0x29d8>
   2498c:	fb043783          	ld	a5,-80(s0)
   24990:	00878713          	addi	a4,a5,8
   24994:	fae43823          	sd	a4,-80(s0)
   24998:	0007a783          	lw	a5,0(a5)
   2499c:	fcf42423          	sw	a5,-56(s0)
   249a0:	fc842503          	lw	a0,-56(s0)
   249a4:	fdc42783          	lw	a5,-36(s0)
   249a8:	0007871b          	sext.w	a4,a5
   249ac:	07800793          	li	a5,120
   249b0:	40f707b3          	sub	a5,a4,a5
   249b4:	0017b793          	seqz	a5,a5
   249b8:	0ff7f793          	andi	a5,a5,255
   249bc:	0007879b          	sext.w	a5,a5
   249c0:	fc442703          	lw	a4,-60(s0)
   249c4:	fd442683          	lw	a3,-44(s0)
   249c8:	00070613          	mv	a2,a4
   249cc:	00078593          	mv	a1,a5
   249d0:	d0dff0ef          	jal	ra,246dc <bss_begin+0x26dc>
   249d4:	0740006f          	j	24a48 <bss_begin+0x2a48>
   249d8:	fc042c23          	sw	zero,-40(s0)
   249dc:	0280006f          	j	24a04 <bss_begin+0x2a04>
   249e0:	fd842783          	lw	a5,-40(s0)
   249e4:	fe043703          	ld	a4,-32(s0)
   249e8:	00f707b3          	add	a5,a4,a5
   249ec:	0007c783          	lbu	a5,0(a5)
   249f0:	00078513          	mv	a0,a5
   249f4:	a59ff0ef          	jal	ra,2444c <bss_begin+0x244c>
   249f8:	fd842783          	lw	a5,-40(s0)
   249fc:	0017879b          	addiw	a5,a5,1
   24a00:	fcf42c23          	sw	a5,-40(s0)
   24a04:	fd842703          	lw	a4,-40(s0)
   24a08:	fe843683          	ld	a3,-24(s0)
   24a0c:	fe043783          	ld	a5,-32(s0)
   24a10:	40f687b3          	sub	a5,a3,a5
   24a14:	fcf746e3          	blt	a4,a5,249e0 <bss_begin+0x29e0>
   24a18:	fdc42783          	lw	a5,-36(s0)
   24a1c:	0007879b          	sext.w	a5,a5
   24a20:	00078863          	beqz	a5,24a30 <bss_begin+0x2a30>
   24a24:	fdc42783          	lw	a5,-36(s0)
   24a28:	0ff7f793          	andi	a5,a5,255
   24a2c:	00c0006f          	j	24a38 <bss_begin+0x2a38>
   24a30:	fd042783          	lw	a5,-48(s0)
   24a34:	0ff7f793          	andi	a5,a5,255
   24a38:	fcf407a3          	sb	a5,-49(s0)
   24a3c:	fcf44783          	lbu	a5,-49(s0)
   24a40:	00078513          	mv	a0,a5
   24a44:	a09ff0ef          	jal	ra,2444c <bss_begin+0x244c>
   24a48:	fe843783          	ld	a5,-24(s0)
   24a4c:	00178793          	addi	a5,a5,1
   24a50:	fef43423          	sd	a5,-24(s0)
   24a54:	fe843783          	ld	a5,-24(s0)
   24a58:	0007c783          	lbu	a5,0(a5)
   24a5c:	e6079ae3          	bnez	a5,248d0 <bss_begin+0x28d0>
   24a60:	00000793          	li	a5,0
   24a64:	00078513          	mv	a0,a5
   24a68:	04813083          	ld	ra,72(sp)
   24a6c:	04013403          	ld	s0,64(sp)
   24a70:	05010113          	addi	sp,sp,80
   24a74:	00008067          	ret
   24a78:	f9010113          	addi	sp,sp,-112
   24a7c:	02113423          	sd	ra,40(sp)
   24a80:	02813023          	sd	s0,32(sp)
   24a84:	03010413          	addi	s0,sp,48
   24a88:	fca43c23          	sd	a0,-40(s0)
   24a8c:	00b43423          	sd	a1,8(s0)
   24a90:	00c43823          	sd	a2,16(s0)
   24a94:	00d43c23          	sd	a3,24(s0)
   24a98:	02e43023          	sd	a4,32(s0)
   24a9c:	02f43423          	sd	a5,40(s0)
   24aa0:	03043823          	sd	a6,48(s0)
   24aa4:	03143c23          	sd	a7,56(s0)
   24aa8:	04040793          	addi	a5,s0,64
   24aac:	fcf43823          	sd	a5,-48(s0)
   24ab0:	fd043783          	ld	a5,-48(s0)
   24ab4:	fc878793          	addi	a5,a5,-56
   24ab8:	fef43423          	sd	a5,-24(s0)
   24abc:	fe843783          	ld	a5,-24(s0)
   24ac0:	00078593          	mv	a1,a5
   24ac4:	fd843503          	ld	a0,-40(s0)
   24ac8:	dddff0ef          	jal	ra,248a4 <bss_begin+0x28a4>
   24acc:	00000793          	li	a5,0
   24ad0:	00078513          	mv	a0,a5
   24ad4:	02813083          	ld	ra,40(sp)
   24ad8:	02013403          	ld	s0,32(sp)
   24adc:	07010113          	addi	sp,sp,112
   24ae0:	00008067          	ret
   24ae4:	fd010113          	addi	sp,sp,-48
   24ae8:	02113423          	sd	ra,40(sp)
   24aec:	02813023          	sd	s0,32(sp)
   24af0:	03010413          	addi	s0,sp,48
   24af4:	00050793          	mv	a5,a0
   24af8:	fcf42e23          	sw	a5,-36(s0)
   24afc:	03000513          	li	a0,48
   24b00:	94dff0ef          	jal	ra,2444c <bss_begin+0x244c>
   24b04:	07800513          	li	a0,120
   24b08:	945ff0ef          	jal	ra,2444c <bss_begin+0x244c>
   24b0c:	00700793          	li	a5,7
   24b10:	fef42623          	sw	a5,-20(s0)
   24b14:	07c0006f          	j	24b90 <bss_begin+0x2b90>
   24b18:	fec42783          	lw	a5,-20(s0)
   24b1c:	0027979b          	slliw	a5,a5,0x2
   24b20:	0007879b          	sext.w	a5,a5
   24b24:	00078713          	mv	a4,a5
   24b28:	fdc42783          	lw	a5,-36(s0)
   24b2c:	00e7d7bb          	srlw	a5,a5,a4
   24b30:	0007879b          	sext.w	a5,a5
   24b34:	0007879b          	sext.w	a5,a5
   24b38:	00f7f793          	andi	a5,a5,15
   24b3c:	fef42423          	sw	a5,-24(s0)
   24b40:	fe842783          	lw	a5,-24(s0)
   24b44:	0007871b          	sext.w	a4,a5
   24b48:	00900793          	li	a5,9
   24b4c:	02e7c063          	blt	a5,a4,24b6c <bss_begin+0x2b6c>
   24b50:	fe842783          	lw	a5,-24(s0)
   24b54:	0ff7f793          	andi	a5,a5,255
   24b58:	0307879b          	addiw	a5,a5,48
   24b5c:	0ff7f793          	andi	a5,a5,255
   24b60:	00078513          	mv	a0,a5
   24b64:	8e9ff0ef          	jal	ra,2444c <bss_begin+0x244c>
   24b68:	01c0006f          	j	24b84 <bss_begin+0x2b84>
   24b6c:	fe842783          	lw	a5,-24(s0)
   24b70:	0ff7f793          	andi	a5,a5,255
   24b74:	0377879b          	addiw	a5,a5,55
   24b78:	0ff7f793          	andi	a5,a5,255
   24b7c:	00078513          	mv	a0,a5
   24b80:	8cdff0ef          	jal	ra,2444c <bss_begin+0x244c>
   24b84:	fec42783          	lw	a5,-20(s0)
   24b88:	fff7879b          	addiw	a5,a5,-1
   24b8c:	fef42623          	sw	a5,-20(s0)
   24b90:	fec42783          	lw	a5,-20(s0)
   24b94:	0007879b          	sext.w	a5,a5
   24b98:	f807d0e3          	bgez	a5,24b18 <bss_begin+0x2b18>
   24b9c:	00000013          	nop
   24ba0:	00000013          	nop
   24ba4:	02813083          	ld	ra,40(sp)
   24ba8:	02013403          	ld	s0,32(sp)
   24bac:	03010113          	addi	sp,sp,48
   24bb0:	00008067          	ret
   24bb4:	0000                	unimp
   24bb6:	0000                	unimp
   24bb8:	abcd                	j	251aa <bss_begin+0x31aa>
   24bba:	abcd                	j	251ac <bss_begin+0x31ac>
   24bbc:	5678                	lw	a4,108(a2)
   24bbe:	1234                	addi	a3,sp,296
   24bc0:	000212b7          	lui	t0,0x21
   24bc4:	00028303          	lb	t1,0(t0) # 21000 <stacks_start>
   24bc8:	00428303          	lb	t1,4(t0)
   24bcc:	ffc28303          	lb	t1,-4(t0)
   24bd0:	0002b303          	ld	t1,0(t0)
   24bd4:	00428303          	lb	t1,4(t0)
   24bd8:	00000297          	auipc	t0,0x0
   24bdc:	fe028293          	addi	t0,t0,-32 # 24bb8 <bss_begin+0x2bb8>
   24be0:	00000317          	auipc	t1,0x0
   24be4:	fd830313          	addi	t1,t1,-40 # 24bb8 <bss_begin+0x2bb8>
   24be8:	802002b7          	lui	t0,0x80200
   24bec:	40200337          	lui	t1,0x40200
   24bf0:	00008067          	ret
   24bf4:	c00002b7          	lui	t0,0xc0000
   24bf8:	0452829b          	addiw	t0,t0,69
   24bfc:	02129293          	slli	t0,t0,0x21
   24c00:	4012d593          	srai	a1,t0,0x1
   24c04:	0012d313          	srli	t1,t0,0x1
   24c08:	0250029b          	addiw	t0,zero,37
   24c0c:	01f29293          	slli	t0,t0,0x1f
   24c10:	08a28293          	addi	t0,t0,138 # ffffffffc000008a <_payload_end+0xffffffffbffd9082>
   24c14:	4012d61b          	sraiw	a2,t0,0x1
   24c18:	0012d31b          	srliw	t1,t0,0x1
   24c1c:	0012969b          	slliw	a3,t0,0x1
   24c20:	0490029b          	addiw	t0,zero,73
   24c24:	01e29293          	slli	t0,t0,0x1e
   24c28:	08a28293          	addi	t0,t0,138
   24c2c:	4012d61b          	sraiw	a2,t0,0x1
   24c30:	0012d31b          	srliw	t1,t0,0x1
   24c34:	0012971b          	slliw	a4,t0,0x1
   24c38:	00008067          	ret
   24c3c:	80028593          	addi	a1,t0,-2048
   24c40:	000012b7          	lui	t0,0x1
   24c44:	a012829b          	addiw	t0,t0,-1535
   24c48:	01529293          	slli	t0,t0,0x15
   24c4c:	40000337          	lui	t1,0x40000
   24c50:	70028593          	addi	a1,t0,1792 # 1700 <__bin_size-0x5908>
   24c54:	80028593          	addi	a1,t0,-2048
   24c58:	0802861b          	addiw	a2,t0,128
   24c5c:	006286b3          	add	a3,t0,t1
   24c60:	0062873b          	addw	a4,t0,t1
   24c64:	000012b7          	lui	t0,0x1
   24c68:	c012829b          	addiw	t0,t0,-1023
   24c6c:	01529293          	slli	t0,t0,0x15
   24c70:	00200337          	lui	t1,0x200
   24c74:	40628533          	sub	a0,t0,t1
   24c78:	406285bb          	subw	a1,t0,t1
   24c7c:	00008067          	ret
   24c80:	00b50533          	add	a0,a0,a1
   24c84:	00000013          	nop
   24c88:	00008067          	ret
   24c8c:	ff810113          	addi	sp,sp,-8
   24c90:	00113023          	sd	ra,0(sp)
   24c94:	00100513          	li	a0,1
   24c98:	00200593          	li	a1,2
   24c9c:	fe5ff0ef          	jal	ra,24c80 <bss_begin+0x2c80>
   24ca0:	00000013          	nop
   24ca4:	00013083          	ld	ra,0(sp)
   24ca8:	00810113          	addi	sp,sp,8
   24cac:	00008067          	ret
   24cb0:	000202b7          	lui	t0,0x20
   24cb4:	00021337          	lui	t1,0x21
   24cb8:	02028393          	addi	t2,t0,32 # 20020 <_start+0x20>
   24cbc:	0002be03          	ld	t3,0(t0)
   24cc0:	01c33023          	sd	t3,0(t1) # 21000 <stacks_start>
   24cc4:	00828293          	addi	t0,t0,8
   24cc8:	00830313          	addi	t1,t1,8
   24ccc:	fe72c8e3          	blt	t0,t2,24cbc <bss_begin+0x2cbc>
   24cd0:	00008067          	ret
   24cd4:	00b56663          	bltu	a0,a1,24ce0 <bss_begin+0x2ce0>
   24cd8:	00000793          	li	a5,0
   24cdc:	0080006f          	j	24ce4 <bss_begin+0x2ce4>
   24ce0:	fff00793          	li	a5,-1
   24ce4:	00078513          	mv	a0,a5
   24ce8:	00008067          	ret
   24cec:	00050663          	beqz	a0,24cf8 <bss_begin+0x2cf8>
   24cf0:	fff58793          	addi	a5,a1,-1
   24cf4:	0080006f          	j	24cfc <bss_begin+0x2cfc>
   24cf8:	00258793          	addi	a5,a1,2
   24cfc:	00078513          	mv	a0,a5
   24d00:	00008067          	ret
   24d04:	ff010113          	addi	sp,sp,-16
   24d08:	00113423          	sd	ra,8(sp)
   24d0c:	fe1ff0ef          	jal	ra,24cec <bss_begin+0x2cec>
   24d10:	00813083          	ld	ra,8(sp)
   24d14:	01010113          	addi	sp,sp,16
   24d18:	00008067          	ret
   24d1c:	00000013          	nop
   24d20:	0800                	addi	s0,sp,16
   24d22:	0080                	addi	s0,sp,64
   24d24:	0000                	unimp
   24d26:	0000                	unimp
   24d28:	0860                	addi	s0,sp,28
   24d2a:	0080                	addi	s0,sp,64
   24d2c:	0000                	unimp
   24d2e:	0000                	unimp
   24d30:	0880                	addi	s0,sp,80
   24d32:	0080                	addi	s0,sp,64
   24d34:	0000                	unimp
   24d36:	0000                	unimp
   24d38:	7566                	ld	a0,120(sp)
   24d3a:	636e                	ld	t1,216(sp)
   24d3c:	615f 6600 6e75      	0x6e756600615f
   24d42:	00625f63          	bge	tp,t1,24d60 <bss_begin+0x2d60>
   24d46:	7566                	ld	a0,120(sp)
   24d48:	636e                	ld	t1,216(sp)
   24d4a:	635f 0100 0000      	0x100635f
   24d50:	00000003          	lb	zero,0(zero) # 0 <__bin_size-0x7008>
   24d54:	0000                	unimp
   24d56:	0000                	unimp
   24d58:	00b50533          	add	a0,a0,a1
   24d5c:	00008067          	ret
   24d60:	40b50533          	sub	a0,a0,a1
   24d64:	00008067          	ret
   24d68:	ff010113          	addi	sp,sp,-16
   24d6c:	00113423          	sd	ra,8(sp)
   24d70:	00050293          	mv	t0,a0
   24d74:	00058313          	mv	t1,a1
   24d78:	00028513          	mv	a0,t0
   24d7c:	00030593          	mv	a1,t1
   24d80:	fd9ff0ef          	jal	ra,24d58 <bss_begin+0x2d58>
   24d84:	00813083          	ld	ra,8(sp)
   24d88:	01010113          	addi	sp,sp,16
   24d8c:	00008067          	ret
   24d90:	ff010113          	addi	sp,sp,-16
   24d94:	00113423          	sd	ra,8(sp)
   24d98:	00050293          	mv	t0,a0
   24d9c:	00058313          	mv	t1,a1
   24da0:	00028513          	mv	a0,t0
   24da4:	00030593          	mv	a1,t1
   24da8:	fb9ff0ef          	jal	ra,24d60 <bss_begin+0x2d60>
   24dac:	00813083          	ld	ra,8(sp)
   24db0:	01010113          	addi	sp,sp,16
   24db4:	00008067          	ret
	...
   24dc0:	020002b7          	lui	t0,0x2000
   24dc4:	0f02829b          	addiw	t0,t0,240
   24dc8:	0002a303          	lw	t1,0(t0) # 2000000 <_payload_end+0x1fd8ff8>
   24dcc:	fff0f3b7          	lui	t2,0xfff0f
   24dd0:	0ff3839b          	addiw	t2,t2,255
   24dd4:	00737333          	and	t1,t1,t2
   24dd8:	000303b7          	lui	t2,0x30
   24ddc:	3003839b          	addiw	t2,t2,768
   24de0:	00736333          	or	t1,t1,t2
   24de4:	0062a023          	sw	t1,0(t0)
   24de8:	020022b7          	lui	t0,0x2002
   24dec:	90c2829b          	addiw	t0,t0,-1780
   24df0:	0002a303          	lw	t1,0(t0) # 2002000 <_payload_end+0x1fdaff8>
   24df4:	00136313          	ori	t1,t1,1
   24df8:	0062a023          	sw	t1,0(t0)
   24dfc:	020022b7          	lui	t0,0x2002
   24e00:	90c2829b          	addiw	t0,t0,-1780
   24e04:	0002a303          	lw	t1,0(t0) # 2002000 <_payload_end+0x1fdaff8>
   24e08:	000103b7          	lui	t2,0x10
   24e0c:	00736333          	or	t1,t1,t2
   24e10:	0062a023          	sw	t1,0(t0)
   24e14:	025002b7          	lui	t0,0x2500
   24e18:	0002a223          	sw	zero,4(t0) # 2500004 <_payload_end+0x24d8ffc>
   24e1c:	0f700313          	li	t1,247
   24e20:	0062a423          	sw	t1,8(t0)
   24e24:	0002a823          	sw	zero,16(t0)
   24e28:	00c2a303          	lw	t1,12(t0)
   24e2c:	08036313          	ori	t1,t1,128
   24e30:	0062a623          	sw	t1,12(t0)
   24e34:	00d00393          	li	t2,13
   24e38:	0072a023          	sw	t2,0(t0)
   24e3c:	00000393          	li	t2,0
   24e40:	0072a223          	sw	t2,4(t0)
   24e44:	08034313          	xori	t1,t1,128
   24e48:	0062a623          	sw	t1,12(t0)
   24e4c:	00c2a303          	lw	t1,12(t0)
   24e50:	ff000393          	li	t2,-16
   24e54:	00737333          	and	t1,t1,t2
   24e58:	00300393          	li	t2,3
   24e5c:	00736333          	or	t1,t1,t2
   24e60:	0062a623          	sw	t1,12(t0)
   24e64:	00008067          	ret
   24e68:	025002b7          	lui	t0,0x2500
   24e6c:	07c2a303          	lw	t1,124(t0) # 250007c <_payload_end+0x24d9074>
   24e70:	00237313          	andi	t1,t1,2
   24e74:	fe030ce3          	beqz	t1,24e6c <bss_begin+0x2e6c>
   24e78:	00a28023          	sb	a0,0(t0)
   24e7c:	00008067          	ret
   24e80:	00008c13          	mv	s8,ra
   24e84:	00050793          	mv	a5,a0
   24e88:	0007c503          	lbu	a0,0(a5)
   24e8c:	00050863          	beqz	a0,24e9c <bss_begin+0x2e9c>
   24e90:	fd9ff0ef          	jal	ra,24e68 <bss_begin+0x2e68>
   24e94:	00178793          	addi	a5,a5,1
   24e98:	ff1ff06f          	j	24e88 <bss_begin+0x2e88>
   24e9c:	000c0093          	mv	ra,s8
   24ea0:	00008067          	ret
   24ea4:	00000293          	li	t0,0
   24ea8:	00b53023          	sd	a1,0(a0) # 2001000 <_payload_end+0x1fd9ff8>
   24eac:	00b53423          	sd	a1,8(a0)
   24eb0:	01028293          	addi	t0,t0,16
   24eb4:	fec2cae3          	blt	t0,a2,24ea8 <bss_begin+0x2ea8>
   24eb8:	00008067          	ret
   24ebc:	0000                	unimp
   24ebe:	0000                	unimp
   24ec0:	303c                	fld	fa5,96(s0)
   24ec2:	2578                	fld	fa4,200(a0)
   24ec4:	786c                	ld	a1,240(s0)
   24ec6:	203e                	fld	ft0,456(sp)
   24ec8:	7325                	lui	t1,0xfffe9
   24eca:	000a                	c.slli	zero,0x2
   24ecc:	0000                	unimp
   24ece:	0000                	unimp
   24ed0:	6574                	ld	a3,200(a0)
   24ed2:	61207473          	csrrci	s0,0x612,0
   24ed6:	646e                	ld	s0,216(sp)
   24ed8:	203a                	fld	ft0,392(sp)
   24eda:	3d70                	fld	fa2,248(a0)
   24edc:	7830                	ld	a2,112(s0)
   24ede:	7825                	lui	a6,0xfffe9
   24ee0:	000a                	c.slli	zero,0x2
   24ee2:	0000                	unimp
   24ee4:	0000                	unimp
   24ee6:	0000                	unimp
   24ee8:	6574                	ld	a3,200(a0)
   24eea:	6f207473          	csrrci	s0,0x6f2,0
   24eee:	7272                	ld	tp,312(sp)
   24ef0:	203a                	fld	ft0,392(sp)
   24ef2:	3d70                	fld	fa2,248(a0)
   24ef4:	7830                	ld	a2,112(s0)
   24ef6:	7825                	lui	a6,0xfffe9
   24ef8:	000a                	c.slli	zero,0x2
   24efa:	0000                	unimp
   24efc:	0000                	unimp
   24efe:	0000                	unimp
   24f00:	6574                	ld	a3,200(a0)
   24f02:	61207473          	csrrci	s0,0x612,0
   24f06:	6464                	ld	s1,200(s0)
   24f08:	203a                	fld	ft0,392(sp)
   24f0a:	3d70                	fld	fa2,248(a0)
   24f0c:	7830                	ld	a2,112(s0)
   24f0e:	7825                	lui	a6,0xfffe9
   24f10:	000a                	c.slli	zero,0x2
   24f12:	0000                	unimp
   24f14:	0000                	unimp
   24f16:	0000                	unimp
   24f18:	61747373          	csrrci	t1,0x617,8
   24f1c:	7574                	ld	a3,232(a0)
   24f1e:	303d2073          	csrs	mideleg,s10
   24f22:	2578                	fld	fa4,200(a0)
   24f24:	0a78                	addi	a4,sp,284
   24f26:	0000                	unimp
   24f28:	7325                	lui	t1,0xfffe9
   24f2a:	203a                	fld	ft0,392(sp)
   24f2c:	2061                	0x2061
   24f2e:	203d                	0x203d
   24f30:	6425                	lui	s0,0x9
   24f32:	000a                	c.slli	zero,0x2
   24f34:	0000                	unimp
   24f36:	0000                	unimp
   24f38:	7361                	lui	t1,0xffff8
   24f3a:	5f6d                	li	t5,-5
   24f3c:	6f746f67          	0x6f746f67
   24f40:	203a                	fld	ft0,392(sp)
   24f42:	6572                	ld	a0,280(sp)
   24f44:	7574                	ld	a3,232(a0)
   24f46:	6e72                	ld	t3,280(sp)
   24f48:	3120                	fld	fs0,96(a0)
   24f4a:	000a                	c.slli	zero,0x2
   24f4c:	0000                	unimp
   24f4e:	0000                	unimp
   24f50:	7361                	lui	t1,0xffff8
   24f52:	5f6d                	li	t5,-5
   24f54:	6f746f67          	0x6f746f67
   24f58:	203a                	fld	ft0,392(sp)
   24f5a:	2062                	fld	ft0,24(sp)
   24f5c:	7369                	lui	t1,0xffffa
   24f5e:	6e20                	ld	s0,88(a2)
   24f60:	3120746f          	jal	s0,2c272 <_payload_end+0x526a>
   24f64:	000a                	c.slli	zero,0x2
   24f66:	0000                	unimp
   24f68:	616c                	ld	a1,192(a0)
   24f6a:	3362                	fld	ft6,56(sp)
   24f6c:	352d                	addiw	a0,a0,-21
   24f6e:	203a                	fld	ft0,392(sp)
   24f70:	706d6f63          	bltu	s10,t1,2568e <bss_begin+0x368e>
   24f74:	7261                	lui	tp,0xffff8
   24f76:	5f65                	li	t5,-7
   24f78:	6e61                	lui	t3,0x18
   24f7a:	5f64                	lw	s1,124(a4)
   24f7c:	6572                	ld	a0,280(sp)
   24f7e:	7574                	ld	a3,232(a0)
   24f80:	6e72                	ld	t3,280(sp)
   24f82:	6f20                	ld	s0,88(a4)
   24f84:	00000a6b          	0xa6b
   24f88:	616c                	ld	a1,192(a0)
   24f8a:	3362                	fld	ft6,56(sp)
   24f8c:	372d                	addiw	a4,a4,-21
   24f8e:	203a                	fld	ft0,392(sp)
   24f90:	7262                	ld	tp,56(sp)
   24f92:	6e61                	lui	t3,0x18
   24f94:	74206863          	bltu	zero,sp,256e4 <bss_begin+0x36e4>
   24f98:	7365                	lui	t1,0xffff9
   24f9a:	2074                	fld	fa3,192(s0)
   24f9c:	000a6b6f          	jal	s6,caf9c <_payload_end+0xa3f94>
   24fa0:	616c                	ld	a1,192(a0)
   24fa2:	3562                	fld	fa0,56(sp)
   24fa4:	352d                	addiw	a0,a0,-21
   24fa6:	203a                	fld	ft0,392(sp)
   24fa8:	616d                	addi	sp,sp,240
   24faa:	5f6f7263          	bgeu	t5,s6,2558e <bss_begin+0x358e>
   24fae:	6574                	ld	a3,200(a0)
   24fb0:	315f7473          	csrrci	s0,0x315,30
   24fb4:	6f20                	ld	s0,88(a4)
   24fb6:	00000a6b          	0xa6b
   24fba:	0000                	unimp
   24fbc:	0000                	unimp
   24fbe:	0000                	unimp
   24fc0:	616c                	ld	a1,192(a0)
   24fc2:	3562                	fld	fa0,56(sp)
   24fc4:	352d                	addiw	a0,a0,-21
   24fc6:	203a                	fld	ft0,392(sp)
   24fc8:	616d                	addi	sp,sp,240
   24fca:	5f6f7263          	bgeu	t5,s6,255ae <bss_begin+0x35ae>
   24fce:	6574                	ld	a3,200(a0)
   24fd0:	325f7473          	csrrci	s0,mhpmevent5,30
   24fd4:	6f20                	ld	s0,88(a4)
   24fd6:	00000a6b          	0xa6b
   24fda:	0000                	unimp
   24fdc:	0000                	unimp
   24fde:	0000                	unimp
   24fe0:	6542                	ld	a0,16(sp)
   24fe2:	4f6e                	lw	t5,216(sp)
   24fe4:	6d692053          	0x6d692053
   24fe8:	6761                	lui	a4,0x18
   24fea:	2065                	0x2065
   24fec:	616c                	ld	a1,192(a0)
   24fee:	6f79                	lui	t5,0x1e
   24ff0:	7475                	lui	s0,0xffffd
   24ff2:	0a3a                	slli	s4,s4,0xe
   24ff4:	0000                	unimp
   24ff6:	0000                	unimp
   24ff8:	2020                	fld	fs0,64(s0)
   24ffa:	742e                	ld	s0,232(sp)
   24ffc:	7865                	lui	a6,0xffff9
   24ffe:	2e74                	fld	fa3,216(a2)
   25000:	6f62                	ld	t5,24(sp)
   25002:	203a746f          	jal	s0,cca04 <_payload_end+0xa59fc>
   25006:	7830                	ld	a2,112(s0)
   25008:	3025                	0x3025
   2500a:	6c38                	ld	a4,88(s0)
   2500c:	2078                	fld	fa4,192(s0)
   2500e:	202d                	0x202d
   25010:	7830                	ld	a2,112(s0)
   25012:	3025                	0x3025
   25014:	6c38                	ld	a4,88(s0)
   25016:	2078                	fld	fa4,192(s0)
   25018:	2528                	fld	fa0,72(a0)
   2501a:	6c36                	ld	s8,328(sp)
   2501c:	2064                	fld	fs1,192(s0)
   2501e:	2942                	fld	fs2,16(sp)
   25020:	000a                	c.slli	zero,0x2
   25022:	0000                	unimp
   25024:	0000                	unimp
   25026:	0000                	unimp
   25028:	2020                	fld	fs0,64(s0)
   2502a:	2020                	fld	fs0,64(s0)
   2502c:	2020                	fld	fs0,64(s0)
   2502e:	2e20                	fld	fs0,88(a2)
   25030:	6574                	ld	a3,200(a0)
   25032:	7478                	ld	a4,232(s0)
   25034:	203a                	fld	ft0,392(sp)
   25036:	7830                	ld	a2,112(s0)
   25038:	3025                	0x3025
   2503a:	6c38                	ld	a4,88(s0)
   2503c:	2078                	fld	fa4,192(s0)
   2503e:	202d                	0x202d
   25040:	7830                	ld	a2,112(s0)
   25042:	3025                	0x3025
   25044:	6c38                	ld	a4,88(s0)
   25046:	2078                	fld	fa4,192(s0)
   25048:	2528                	fld	fa0,72(a0)
   2504a:	6c36                	ld	s8,328(sp)
   2504c:	2064                	fld	fs1,192(s0)
   2504e:	2942                	fld	fs2,16(sp)
   25050:	000a                	c.slli	zero,0x2
   25052:	0000                	unimp
   25054:	0000                	unimp
   25056:	0000                	unimp
   25058:	2020                	fld	fs0,64(s0)
   2505a:	2020                	fld	fs0,64(s0)
   2505c:	2e20                	fld	fs0,88(a2)
   2505e:	6f72                	ld	t5,280(sp)
   25060:	6164                	ld	s1,192(a0)
   25062:	6174                	ld	a3,192(a0)
   25064:	203a                	fld	ft0,392(sp)
   25066:	7830                	ld	a2,112(s0)
   25068:	3025                	0x3025
   2506a:	6c38                	ld	a4,88(s0)
   2506c:	2078                	fld	fa4,192(s0)
   2506e:	202d                	0x202d
   25070:	7830                	ld	a2,112(s0)
   25072:	3025                	0x3025
   25074:	6c38                	ld	a4,88(s0)
   25076:	2078                	fld	fa4,192(s0)
   25078:	2528                	fld	fa0,72(a0)
   2507a:	6c36                	ld	s8,328(sp)
   2507c:	2064                	fld	fs1,192(s0)
   2507e:	2942                	fld	fs2,16(sp)
   25080:	000a                	c.slli	zero,0x2
   25082:	0000                	unimp
   25084:	0000                	unimp
   25086:	0000                	unimp
   25088:	2020                	fld	fs0,64(s0)
   2508a:	2020                	fld	fs0,64(s0)
   2508c:	2020                	fld	fs0,64(s0)
   2508e:	2e20                	fld	fs0,88(a2)
   25090:	6164                	ld	s1,192(a0)
   25092:	6174                	ld	a3,192(a0)
   25094:	203a                	fld	ft0,392(sp)
   25096:	7830                	ld	a2,112(s0)
   25098:	3025                	0x3025
   2509a:	6c38                	ld	a4,88(s0)
   2509c:	2078                	fld	fa4,192(s0)
   2509e:	202d                	0x202d
   250a0:	7830                	ld	a2,112(s0)
   250a2:	3025                	0x3025
   250a4:	6c38                	ld	a4,88(s0)
   250a6:	2078                	fld	fa4,192(s0)
   250a8:	2528                	fld	fa0,72(a0)
   250aa:	6c36                	ld	s8,328(sp)
   250ac:	2064                	fld	fs1,192(s0)
   250ae:	2942                	fld	fs2,16(sp)
   250b0:	000a                	c.slli	zero,0x2
   250b2:	0000                	unimp
   250b4:	0000                	unimp
   250b6:	0000                	unimp
   250b8:	2020                	fld	fs0,64(s0)
   250ba:	2020                	fld	fs0,64(s0)
   250bc:	2020                	fld	fs0,64(s0)
   250be:	2020                	fld	fs0,64(s0)
   250c0:	622e                	ld	tp,200(sp)
   250c2:	203a7373          	csrrci	t1,0x203,20
   250c6:	7830                	ld	a2,112(s0)
   250c8:	3025                	0x3025
   250ca:	6c38                	ld	a4,88(s0)
   250cc:	2078                	fld	fa4,192(s0)
   250ce:	202d                	0x202d
   250d0:	7830                	ld	a2,112(s0)
   250d2:	3025                	0x3025
   250d4:	6c38                	ld	a4,88(s0)
   250d6:	2078                	fld	fa4,192(s0)
   250d8:	2528                	fld	fa0,72(a0)
   250da:	6c36                	ld	s8,328(sp)
   250dc:	2064                	fld	fs1,192(s0)
   250de:	2942                	fld	fs2,16(sp)
   250e0:	000a                	c.slli	zero,0x2
   250e2:	0000                	unimp
   250e4:	0000                	unimp
   250e6:	0000                	unimp
   250e8:	636c6557          	0x636c6557
   250ec:	20656d6f          	jal	s10,7b2f2 <_payload_end+0x542ea>
   250f0:	4952                	lw	s2,20(sp)
   250f2:	562d4353          	0x562d4353
   250f6:	0d21                	addi	s10,s10,8
   250f8:	000a                	c.slli	zero,0x2
   250fa:	0000                	unimp
   250fc:	0000                	unimp
   250fe:	0000                	unimp
   25100:	7270                	ld	a2,224(a2)
   25102:	6e69                	lui	t3,0x1a
   25104:	6b74                	ld	a3,208(a4)
   25106:	6920                	ld	s0,80(a0)
   25108:	696e                	ld	s2,216(sp)
   2510a:	2074                	fld	fa3,192(s0)
   2510c:	6f64                	ld	s1,216(a4)
   2510e:	656e                	ld	a0,216(sp)
   25110:	000a                	c.slli	zero,0x2
   25112:	0000                	unimp
   25114:	0000                	unimp
   25116:	0000                	unimp
   25118:	6574                	ld	a3,200(a0)
   2511a:	615f7473          	csrrci	s0,0x615,30
   2511e:	675f6d73          	csrrsi	s10,0x675,30
   25122:	006f746f          	jal	s0,11c128 <_payload_end+0xf5120>
   25126:	0000                	unimp
   25128:	3130                	fld	fa2,96(a0)
   2512a:	3332                	fld	ft6,296(sp)
   2512c:	3534                	fld	fa3,104(a0)
   2512e:	3736                	fld	fa4,360(sp)
   25130:	3938                	fld	fa4,112(a0)
   25132:	4241                	li	tp,16
   25134:	46454443          	fmadd.q	fs0,fa0,ft4,fs0,rmm
   25138:	4a494847          	fmsub.d	fa6,fs2,ft4,fs1,rmm
   2513c:	4e4d4c4b          	fnmsub.q	fs8,fs10,ft4,fs1,rmm
   25140:	5251504f          	fnmadd.d	ft0,ft2,ft5,fa0,unknown
   25144:	56555453          	0x56555453
   25148:	5a595857          	0x5a595857
   2514c:	0000                	unimp
   2514e:	0000                	unimp
   25150:	3130                	fld	fa2,96(a0)
   25152:	3332                	fld	ft6,296(sp)
   25154:	3534                	fld	fa3,104(a0)
   25156:	3736                	fld	fa4,360(sp)
   25158:	3938                	fld	fa4,112(a0)
   2515a:	6261                	lui	tp,0x18
   2515c:	66656463          	bltu	a0,t1,257c4 <bss_begin+0x37c4>
   25160:	6a696867          	0x6a696867
   25164:	6e6d6c6b          	0x6e6d6c6b
   25168:	7271706f          	j	3d08e <_payload_end+0x16086>
   2516c:	76757473          	csrrci	s0,0x767,10
   25170:	7a797877          	0x7a797877
   25174:	0000                	unimp
   25176:	0000                	unimp
   25178:	4e3c                	lw	a5,88(a2)
   2517a:	4c55                	li	s8,21
   2517c:	3e4c                	fld	fa1,184(a2)
   2517e:	0000                	unimp
   25180:	de9c                	sw	a5,56(a3)
   25182:	deccffff          	0xdeccffff
   25186:	deccffff          	0xdeccffff
   2518a:	deacffff          	0xdeacffff
   2518e:	deccffff          	0xdeccffff
   25192:	deccffff          	0xdeccffff
   25196:	deccffff          	0xdeccffff
   2519a:	deccffff          	0xdeccffff
   2519e:	deccffff          	0xdeccffff
   251a2:	deccffff          	0xdeccffff
   251a6:	deccffff          	0xdeccffff
   251aa:	de8cffff          	0xde8cffff
   251ae:	deccffff          	0xdeccffff
   251b2:	de7cffff          	0xde7cffff
   251b6:	deccffff          	0xdeccffff
   251ba:	deccffff          	0xdeccffff
   251be:	debcffff          	0xdebcffff
   251c2:	e2f8ffff          	0xe2f8ffff
   251c6:	e31cffff          	0xe31cffff
   251ca:	e31cffff          	0xe31cffff
   251ce:	e31cffff          	0xe31cffff
   251d2:	e31cffff          	0xe31cffff
   251d6:	e31cffff          	0xe31cffff
   251da:	e31cffff          	0xe31cffff
   251de:	e31cffff          	0xe31cffff
   251e2:	e31cffff          	0xe31cffff
   251e6:	e31cffff          	0xe31cffff
   251ea:	e31cffff          	0xe31cffff
   251ee:	e098ffff          	0xe098ffff
   251f2:	e304ffff          	0xe304ffff
   251f6:	e31cffff          	0xe31cffff
   251fa:	e31cffff          	0xe31cffff
   251fe:	e31cffff          	0xe31cffff
   25202:	e31cffff          	0xe31cffff
   25206:	e304ffff          	0xe304ffff
   2520a:	e31cffff          	0xe31cffff
   2520e:	e31cffff          	0xe31cffff
   25212:	e31cffff          	0xe31cffff
   25216:	e31cffff          	0xe31cffff
   2521a:	e258ffff          	0xe258ffff
   2521e:	e2e0ffff          	0xe2e0ffff
   25222:	e288ffff          	0xe288ffff
   25226:	e31cffff          	0xe31cffff
   2522a:	e31cffff          	0xe31cffff
   2522e:	e130ffff          	0xe130ffff
   25232:	e31cffff          	0xe31cffff
   25236:	e310ffff          	0xe310ffff
   2523a:	e31cffff          	0xe31cffff
   2523e:	e31cffff          	0xe31cffff
   25242:	e2ecffff          	0xe2ecffff
   25246:	0a0dffff          	0xa0dffff
   2524a:	6f42                	ld	t5,16(sp)
   2524c:	6e69746f          	jal	s0,bc932 <_payload_end+0x9592a>
   25250:	74612067          	0x74612067
   25254:	6120                	ld	s0,64(a0)
   25256:	0a0d6d73          	csrrsi	s10,0xa0,26
	...
   26ffe:	0000                	unimp
   27000:	7108                	ld	a0,32(a0)
   27002:	0002                	c.slli64	zero
   27004:	0000                	unimp
	...

Disassembly of section .debug_info:

0000000000000000 <.debug_info>:
   0:	0000037f          	0x37f
   4:	0004                	0x4
   6:	0000                	unimp
   8:	0000                	unimp
   a:	0108                	addi	a0,sp,128
   c:	002c                	addi	a1,sp,8
   e:	0000                	unimp
  10:	120c                	addi	a1,sp,288
  12:	0000                	unimp
  14:	8f00                	0x8f00
  16:	0000                	unimp
  18:	4400                	lw	s0,8(s0)
  1a:	0200                	addi	s0,sp,256
  1c:	0000                	unimp
  1e:	0000                	unimp
  20:	bc00                	fsd	fs0,56(s0)
  22:	0002                	c.slli64	zero
	...
  2c:	0200                	addi	s0,sp,256
  2e:	0020                	addi	s0,sp,8
  30:	0000                	unimp
  32:	5001                	c.li	zero,-32
  34:	00006c0f          	0x6c0f
  38:	9800                	0x9800
  3a:	0202                	c.slli64	tp
  3c:	0000                	unimp
  3e:	0000                	unimp
  40:	6800                	ld	s0,16(s0)
  42:	0000                	unimp
  44:	0000                	unimp
  46:	0000                	unimp
  48:	0100                	addi	s0,sp,128
  4a:	6c9c                	ld	a5,24(s1)
  4c:	0000                	unimp
  4e:	0300                	addi	s0,sp,384
  50:	0078                	addi	a4,sp,12
  52:	5001                	c.li	zero,-32
  54:	6c29                	lui	s8,0xa
  56:	0000                	unimp
  58:	0200                	addi	s0,sp,256
  5a:	5891                	li	a7,-28
  5c:	7204                	ld	s1,32(a2)
  5e:	7465                	lui	s0,0xffff9
  60:	0100                	addi	s0,sp,128
  62:	1052                	c.slli	zero,0x34
  64:	006c                	addi	a1,sp,12
  66:	0000                	unimp
  68:	9102                	jalr	sp
  6a:	0068                	addi	a0,sp,12
  6c:	0805                	addi	a6,a6,1
  6e:	00000007          	vle8.v	v0,(zero),v0.t
  72:	0600                	addi	s0,sp,768
  74:	00f0                	addi	a2,sp,76
  76:	0000                	unimp
  78:	2d01                	sext.w	s10,s10
  7a:	7406                	ld	s0,96(sp)
  7c:	0201                	addi	tp,tp,0
  7e:	0000                	unimp
  80:	0000                	unimp
  82:	2400                	fld	fs0,8(s0)
  84:	0001                	nop
  86:	0000                	unimp
  88:	0000                	unimp
  8a:	0100                	addi	s0,sp,128
  8c:	fe9c                	sd	a5,56(a3)
  8e:	0001                	nop
  90:	0700                	addi	s0,sp,896
  92:	00e8                	addi	a0,sp,76
  94:	0000                	unimp
  96:	2d01                	sext.w	s10,s10
  98:	fe18                	sd	a4,56(a2)
  9a:	0001                	nop
  9c:	0300                	addi	s0,sp,384
  9e:	9c91                	subw	s1,s1,a2
  a0:	6176037f          	0x6176037f
  a4:	006c                	addi	a1,sp,12
  a6:	2d01                	sext.w	s10,s10
  a8:	00006c2f          	vamoaddei32.v	zero,(zero),v0,v24,v0.t
  ac:	0300                	addi	s0,sp,384
  ae:	9091                	srli	s1,s1,0x24
  b0:	01d0087f          	0x1d0087f
  b4:	0002                	c.slli64	zero
  b6:	0000                	unimp
  b8:	0000                	unimp
  ba:	0010                	0x10
  bc:	0000                	unimp
  be:	0000                	unimp
  c0:	0000                	unimp
  c2:	000000d7          	vadd.vv	v1,v0,v0,v0.t
  c6:	5f04                	lw	s1,56(a4)
  c8:	765f 0100 1431      	0x14310100765f
  ce:	006c                	addi	a1,sp,12
  d0:	0000                	unimp
  d2:	7fa89103          	lh	sp,2042(a7)
  d6:	0800                	addi	s0,sp,16
  d8:	01e4                	addi	s1,sp,204
  da:	0002                	c.slli64	zero
  dc:	0000                	unimp
  de:	0000                	unimp
  e0:	0010                	0x10
  e2:	0000                	unimp
  e4:	0000                	unimp
  e6:	0000                	unimp
  e8:	00fd                	addi	ra,ra,31
  ea:	0000                	unimp
  ec:	5f04                	lw	s1,56(a4)
  ee:	765f 0100 1434      	0x14340100765f
  f4:	006c                	addi	a1,sp,12
  f6:	0000                	unimp
  f8:	7fb09103          	lh	sp,2043(ra)
  fc:	0800                	addi	s0,sp,16
  fe:	01f8                	addi	a4,sp,204
 100:	0002                	c.slli64	zero
 102:	0000                	unimp
 104:	0000                	unimp
 106:	0010                	0x10
 108:	0000                	unimp
 10a:	0000                	unimp
 10c:	0000                	unimp
 10e:	00000123          	sb	zero,2(zero) # 2 <__bin_size-0x7006>
 112:	5f04                	lw	s1,56(a4)
 114:	765f 0100 1437      	0x14370100765f
 11a:	006c                	addi	a1,sp,12
 11c:	0000                	unimp
 11e:	7fb89103          	lh	sp,2043(a7)
 122:	0800                	addi	s0,sp,16
 124:	020c                	addi	a1,sp,256
 126:	0002                	c.slli64	zero
 128:	0000                	unimp
 12a:	0000                	unimp
 12c:	0010                	0x10
 12e:	0000                	unimp
 130:	0000                	unimp
 132:	0000                	unimp
 134:	0148                	addi	a0,sp,132
 136:	0000                	unimp
 138:	5f04                	lw	s1,56(a4)
 13a:	765f 0100 143a      	0x143a0100765f
 140:	006c                	addi	a1,sp,12
 142:	0000                	unimp
 144:	9102                	jalr	sp
 146:	0040                	addi	s0,sp,4
 148:	2008                	fld	fa0,0(s0)
 14a:	0202                	c.slli64	tp
 14c:	0000                	unimp
 14e:	0000                	unimp
 150:	1000                	addi	s0,sp,32
 152:	0000                	unimp
 154:	0000                	unimp
 156:	0000                	unimp
 158:	6d00                	ld	s0,24(a0)
 15a:	0001                	nop
 15c:	0400                	addi	s0,sp,512
 15e:	5f5f 0076 3d01      	0x3d0100765f5f
 164:	6c14                	ld	a3,24(s0)
 166:	0000                	unimp
 168:	0200                	addi	s0,sp,256
 16a:	4891                	li	a7,4
 16c:	0800                	addi	s0,sp,16
 16e:	0234                	addi	a3,sp,264
 170:	0002                	c.slli64	zero
 172:	0000                	unimp
 174:	0000                	unimp
 176:	0010                	0x10
 178:	0000                	unimp
 17a:	0000                	unimp
 17c:	0000                	unimp
 17e:	0192                	slli	gp,gp,0x4
 180:	0000                	unimp
 182:	5f04                	lw	s1,56(a4)
 184:	765f 0100 1440      	0x14400100765f
 18a:	006c                	addi	a1,sp,12
 18c:	0000                	unimp
 18e:	9102                	jalr	sp
 190:	0050                	addi	a2,sp,4
 192:	4808                	lw	a0,16(s0)
 194:	0202                	c.slli64	tp
 196:	0000                	unimp
 198:	0000                	unimp
 19a:	1000                	addi	s0,sp,32
 19c:	0000                	unimp
 19e:	0000                	unimp
 1a0:	0000                	unimp
 1a2:	b700                	fsd	fs0,40(a4)
 1a4:	0001                	nop
 1a6:	0400                	addi	s0,sp,512
 1a8:	5f5f 0076 4301      	0x430100765f5f
 1ae:	6c14                	ld	a3,24(s0)
 1b0:	0000                	unimp
 1b2:	0200                	addi	s0,sp,256
 1b4:	5891                	li	a7,-28
 1b6:	0800                	addi	s0,sp,16
 1b8:	025c                	addi	a5,sp,260
 1ba:	0002                	c.slli64	zero
 1bc:	0000                	unimp
 1be:	0000                	unimp
 1c0:	0010                	0x10
 1c2:	0000                	unimp
 1c4:	0000                	unimp
 1c6:	0000                	unimp
 1c8:	01dc                	addi	a5,sp,196
 1ca:	0000                	unimp
 1cc:	5f04                	lw	s1,56(a4)
 1ce:	765f 0100 1446      	0x14460100765f
 1d4:	006c                	addi	a1,sp,12
 1d6:	0000                	unimp
 1d8:	9102                	jalr	sp
 1da:	0060                	addi	s0,sp,12
 1dc:	7009                	c.lui	zero,0xfffe2
 1de:	0202                	c.slli64	tp
 1e0:	0000                	unimp
 1e2:	0000                	unimp
 1e4:	1000                	addi	s0,sp,32
 1e6:	0000                	unimp
 1e8:	0000                	unimp
 1ea:	0000                	unimp
 1ec:	0400                	addi	s0,sp,512
 1ee:	5f5f 0076 4901      	0x490100765f5f
 1f4:	6c14                	ld	a3,24(s0)
 1f6:	0000                	unimp
 1f8:	0200                	addi	s0,sp,256
 1fa:	6891                	lui	a7,0x4
 1fc:	0000                	unimp
 1fe:	040a                	slli	s0,s0,0x2
 200:	6905                	lui	s2,0x1
 202:	746e                	ld	s0,248(sp)
 204:	0b00                	addi	s0,sp,400
 206:	000000e3          	beqz	zero,a06 <__bin_size-0x6602>
 20a:	0601                	addi	a2,a2,0
 20c:	00006c0f          	0x6c0f
 210:	4400                	lw	s0,8(s0)
 212:	0200                	addi	s0,sp,256
 214:	0000                	unimp
 216:	0000                	unimp
 218:	3000                	fld	fs0,32(s0)
 21a:	0001                	nop
 21c:	0000                	unimp
 21e:	0000                	unimp
 220:	0100                	addi	s0,sp,128
 222:	079c                	addi	a5,sp,960
 224:	00e8                	addi	a0,sp,76
 226:	0000                	unimp
 228:	0601                	addi	a2,a2,0
 22a:	fe20                	sd	s0,120(a2)
 22c:	0001                	nop
 22e:	0200                	addi	s0,sp,256
 230:	5c91                	li	s9,-28
 232:	7204                	ld	s1,32(a2)
 234:	7465                	lui	s0,0xffff9
 236:	0100                	addi	s0,sp,128
 238:	1008                	addi	a0,sp,32
 23a:	006c                	addi	a1,sp,12
 23c:	0000                	unimp
 23e:	9102                	jalr	sp
 240:	0868                	addi	a0,sp,28
 242:	00a4                	addi	s1,sp,72
 244:	0002                	c.slli64	zero
 246:	0000                	unimp
 248:	0000                	unimp
 24a:	000c                	0xc
 24c:	0000                	unimp
 24e:	0000                	unimp
 250:	0000                	unimp
 252:	0265                	addi	tp,tp,25
 254:	0000                	unimp
 256:	5f04                	lw	s1,56(a4)
 258:	765f 0100 230c      	0x230c0100765f
 25e:	006c                	addi	a1,sp,12
 260:	0000                	unimp
 262:	5901                	li	s2,-32
 264:	0800                	addi	s0,sp,16
 266:	00b8                	addi	a4,sp,72
 268:	0002                	c.slli64	zero
 26a:	0000                	unimp
 26c:	0000                	unimp
 26e:	000c                	0xc
 270:	0000                	unimp
 272:	0000                	unimp
 274:	0000                	unimp
 276:	0289                	addi	t0,t0,2
 278:	0000                	unimp
 27a:	5f04                	lw	s1,56(a4)
 27c:	765f 0100 230f      	0x230f0100765f
 282:	006c                	addi	a1,sp,12
 284:	0000                	unimp
 286:	5901                	li	s2,-32
 288:	0800                	addi	s0,sp,16
 28a:	00cc                	addi	a1,sp,68
 28c:	0002                	c.slli64	zero
 28e:	0000                	unimp
 290:	0000                	unimp
 292:	000c                	0xc
 294:	0000                	unimp
 296:	0000                	unimp
 298:	0000                	unimp
 29a:	02ad                	addi	t0,t0,11
 29c:	0000                	unimp
 29e:	5f04                	lw	s1,56(a4)
 2a0:	765f 0100 2312      	0x23120100765f
 2a6:	006c                	addi	a1,sp,12
 2a8:	0000                	unimp
 2aa:	5901                	li	s2,-32
 2ac:	0800                	addi	s0,sp,16
 2ae:	00e0                	addi	s0,sp,76
 2b0:	0002                	c.slli64	zero
 2b2:	0000                	unimp
 2b4:	0000                	unimp
 2b6:	000c                	0xc
 2b8:	0000                	unimp
 2ba:	0000                	unimp
 2bc:	0000                	unimp
 2be:	02d1                	addi	t0,t0,20
 2c0:	0000                	unimp
 2c2:	5f04                	lw	s1,56(a4)
 2c4:	765f 0100 2315      	0x23150100765f
 2ca:	006c                	addi	a1,sp,12
 2cc:	0000                	unimp
 2ce:	5901                	li	s2,-32
 2d0:	0800                	addi	s0,sp,16
 2d2:	00f4                	addi	a3,sp,76
 2d4:	0002                	c.slli64	zero
 2d6:	0000                	unimp
 2d8:	0000                	unimp
 2da:	000c                	0xc
 2dc:	0000                	unimp
 2de:	0000                	unimp
 2e0:	0000                	unimp
 2e2:	02f5                	addi	t0,t0,29
 2e4:	0000                	unimp
 2e6:	5f04                	lw	s1,56(a4)
 2e8:	765f 0100 2318      	0x23180100765f
 2ee:	006c                	addi	a1,sp,12
 2f0:	0000                	unimp
 2f2:	5901                	li	s2,-32
 2f4:	0800                	addi	s0,sp,16
 2f6:	0108                	addi	a0,sp,128
 2f8:	0002                	c.slli64	zero
 2fa:	0000                	unimp
 2fc:	0000                	unimp
 2fe:	000c                	0xc
 300:	0000                	unimp
 302:	0000                	unimp
 304:	0000                	unimp
 306:	0319                	addi	t1,t1,6
 308:	0000                	unimp
 30a:	5f04                	lw	s1,56(a4)
 30c:	765f 0100 231b      	0x231b0100765f
 312:	006c                	addi	a1,sp,12
 314:	0000                	unimp
 316:	5901                	li	s2,-32
 318:	0800                	addi	s0,sp,16
 31a:	011c                	addi	a5,sp,128
 31c:	0002                	c.slli64	zero
 31e:	0000                	unimp
 320:	0000                	unimp
 322:	000c                	0xc
 324:	0000                	unimp
 326:	0000                	unimp
 328:	0000                	unimp
 32a:	033d                	addi	t1,t1,15
 32c:	0000                	unimp
 32e:	5f04                	lw	s1,56(a4)
 330:	765f 0100 231e      	0x231e0100765f
 336:	006c                	addi	a1,sp,12
 338:	0000                	unimp
 33a:	5901                	li	s2,-32
 33c:	0800                	addi	s0,sp,16
 33e:	0130                	addi	a2,sp,136
 340:	0002                	c.slli64	zero
 342:	0000                	unimp
 344:	0000                	unimp
 346:	000c                	0xc
 348:	0000                	unimp
 34a:	0000                	unimp
 34c:	0000                	unimp
 34e:	0361                	addi	t1,t1,24
 350:	0000                	unimp
 352:	5f04                	lw	s1,56(a4)
 354:	765f 0100 2321      	0x23210100765f
 35a:	006c                	addi	a1,sp,12
 35c:	0000                	unimp
 35e:	5901                	li	s2,-32
 360:	0900                	addi	s0,sp,144
 362:	0144                	addi	s1,sp,132
 364:	0002                	c.slli64	zero
 366:	0000                	unimp
 368:	0000                	unimp
 36a:	000c                	0xc
 36c:	0000                	unimp
 36e:	0000                	unimp
 370:	0000                	unimp
 372:	5f04                	lw	s1,56(a4)
 374:	765f 0100 2324      	0x23240100765f
 37a:	006c                	addi	a1,sp,12
 37c:	0000                	unimp
 37e:	5901                	li	s2,-32
 380:	0000                	unimp
 382:	4200                	lw	s0,0(a2)
 384:	0002                	c.slli64	zero
 386:	0400                	addi	s0,sp,512
 388:	c700                	sw	s0,8(a4)
 38a:	0000                	unimp
 38c:	0800                	addi	s0,sp,16
 38e:	2c01                	sext.w	s8,s8
 390:	0000                	unimp
 392:	0c00                	addi	s0,sp,528
 394:	012d                	addi	sp,sp,11
 396:	0000                	unimp
 398:	0000008f          	0x8f
 39c:	0300                	addi	s0,sp,384
 39e:	0002                	c.slli64	zero
 3a0:	0000                	unimp
 3a2:	0000                	unimp
 3a4:	02b8                	addi	a4,sp,328
 3a6:	0000                	unimp
 3a8:	0000                	unimp
 3aa:	0000                	unimp
 3ac:	02b8                	addi	a4,sp,328
 3ae:	0000                	unimp
 3b0:	1802                	slli	a6,a6,0x20
 3b2:	0001                	nop
 3b4:	0100                	addi	s0,sp,128
 3b6:	064a                	slli	a2,a2,0x12
 3b8:	04e0                	addi	s0,sp,588
 3ba:	0002                	c.slli64	zero
 3bc:	0000                	unimp
 3be:	0000                	unimp
 3c0:	00d8                	addi	a4,sp,68
 3c2:	0000                	unimp
 3c4:	0000                	unimp
 3c6:	0000                	unimp
 3c8:	9c01                	subw	s0,s0,s0
 3ca:	015c                	addi	a5,sp,132
 3cc:	0000                	unimp
 3ce:	6c617603          	0x6c617603
 3d2:	0100                	addi	s0,sp,128
 3d4:	104c                	addi	a1,sp,36
 3d6:	015c                	addi	a5,sp,132
 3d8:	0000                	unimp
 3da:	9102                	jalr	sp
 3dc:	0458                	addi	a4,sp,516
 3de:	0508                	addi	a0,sp,640
 3e0:	0002                	c.slli64	zero
 3e2:	0000                	unimp
 3e4:	0000                	unimp
 3e6:	000c                	0xc
 3e8:	0000                	unimp
 3ea:	0000                	unimp
 3ec:	0000                	unimp
 3ee:	007e                	c.slli	zero,0x1f
 3f0:	0000                	unimp
 3f2:	765f5f03          	lhu	t5,1893(t5) # 1e765 <__bin_size+0x1775d>
 3f6:	0100                	addi	s0,sp,128
 3f8:	2255                	addiw	tp,tp,21
 3fa:	015c                	addi	a5,sp,132
 3fc:	0000                	unimp
 3fe:	5901                	li	s2,-32
 400:	0400                	addi	s0,sp,512
 402:	0544                	addi	s1,sp,644
 404:	0002                	c.slli64	zero
 406:	0000                	unimp
 408:	0000                	unimp
 40a:	0010                	0x10
 40c:	0000                	unimp
 40e:	0000                	unimp
 410:	0000                	unimp
 412:	000000a3          	sb	zero,1(zero) # 1 <__bin_size-0x7007>
 416:	765f5f03          	lhu	t5,1893(t5)
 41a:	0100                	addi	s0,sp,128
 41c:	1358                	addi	a4,sp,420
 41e:	015c                	addi	a5,sp,132
 420:	0000                	unimp
 422:	9102                	jalr	sp
 424:	0050                	addi	a2,sp,4
 426:	5404                	lw	s1,40(s0)
 428:	0205                	addi	tp,tp,1
 42a:	0000                	unimp
 42c:	0000                	unimp
 42e:	1000                	addi	s0,sp,32
 430:	0000                	unimp
 432:	0000                	unimp
 434:	0000                	unimp
 436:	c800                	sw	s0,16(s0)
 438:	0000                	unimp
 43a:	0300                	addi	s0,sp,384
 43c:	5f5f 0076 5b01      	0x5b0100765f5f
 442:	00015c13          	srli	s8,sp,0x0
 446:	0200                	addi	s0,sp,256
 448:	4891                	li	a7,4
 44a:	0400                	addi	s0,sp,512
 44c:	0564                	addi	s1,sp,652
 44e:	0002                	c.slli64	zero
 450:	0000                	unimp
 452:	0000                	unimp
 454:	0010                	0x10
 456:	0000                	unimp
 458:	0000                	unimp
 45a:	0000                	unimp
 45c:	00ed                	addi	ra,ra,27
 45e:	0000                	unimp
 460:	765f5f03          	lhu	t5,1893(t5)
 464:	0100                	addi	s0,sp,128
 466:	135c                	addi	a5,sp,420
 468:	015c                	addi	a5,sp,132
 46a:	0000                	unimp
 46c:	9102                	jalr	sp
 46e:	0040                	addi	s0,sp,4
 470:	7404                	ld	s1,40(s0)
 472:	0205                	addi	tp,tp,1
 474:	0000                	unimp
 476:	0000                	unimp
 478:	1000                	addi	s0,sp,32
 47a:	0000                	unimp
 47c:	0000                	unimp
 47e:	0000                	unimp
 480:	1300                	addi	s0,sp,416
 482:	0001                	nop
 484:	0300                	addi	s0,sp,384
 486:	5f5f 0076 5f01      	0x5f0100765f5f
 48c:	00015c13          	srli	s8,sp,0x0
 490:	0300                	addi	s0,sp,384
 492:	b891                	j	fffffffffffffce6 <_payload_end+0xfffffffffffd8cde>
 494:	8404007f          	0x8404007f
 498:	0205                	addi	tp,tp,1
 49a:	0000                	unimp
 49c:	0000                	unimp
 49e:	0c00                	addi	s0,sp,528
 4a0:	0000                	unimp
 4a2:	0000                	unimp
 4a4:	0000                	unimp
 4a6:	3900                	fld	fs0,48(a0)
 4a8:	0001                	nop
 4aa:	0300                	addi	s0,sp,384
 4ac:	5f5f 0076 6201      	0x620100765f5f
 4b2:	00015c13          	srli	s8,sp,0x0
 4b6:	0300                	addi	s0,sp,384
 4b8:	b091                	j	fffffffffffffcfc <_payload_end+0xfffffffffffd8cf4>
 4ba:	9005007f          	0x9005007f
 4be:	0205                	addi	tp,tp,1
 4c0:	0000                	unimp
 4c2:	0000                	unimp
 4c4:	0c00                	addi	s0,sp,528
 4c6:	0000                	unimp
 4c8:	0000                	unimp
 4ca:	0000                	unimp
 4cc:	0300                	addi	s0,sp,384
 4ce:	5f5f 0076 6401      	0x640100765f5f
 4d4:	00015c13          	srli	s8,sp,0x0
 4d8:	0300                	addi	s0,sp,384
 4da:	a891                	j	52e <__bin_size-0x6ada>
 4dc:	0600007f          	0x600007f
 4e0:	0708                	addi	a0,sp,896
 4e2:	0000                	unimp
 4e4:	0000                	unimp
 4e6:	00015e07          	vle16.v	v28,(sp),v0.t
 4ea:	0100                	addi	s0,sp,128
 4ec:	050a                	slli	a0,a0,0x2
 4ee:	023e                	slli	tp,tp,0xf
 4f0:	0000                	unimp
 4f2:	0300                	addi	s0,sp,384
 4f4:	0002                	c.slli64	zero
 4f6:	0000                	unimp
 4f8:	0000                	unimp
 4fa:	01e0                	addi	s0,sp,204
 4fc:	0000                	unimp
 4fe:	0000                	unimp
 500:	0000                	unimp
 502:	9c01                	subw	s0,s0,s0
 504:	023e                	slli	tp,tp,0xf
 506:	0000                	unimp
 508:	4b08                	lw	a0,16(a4)
 50a:	0001                	nop
 50c:	0100                	addi	s0,sp,128
 50e:	150a                	slli	a0,a0,0x22
 510:	023e                	slli	tp,tp,0xf
 512:	0000                	unimp
 514:	7fbc9103          	lh	sp,2043(s9)
 518:	5808                	lw	a0,48(s0)
 51a:	0001                	nop
 51c:	0100                	addi	s0,sp,128
 51e:	2c0a                	fld	fs8,128(sp)
 520:	015c                	addi	a5,sp,132
 522:	0000                	unimp
 524:	7fb09103          	lh	sp,2043(ra)
 528:	5308                	lw	a0,32(a4)
 52a:	0001                	nop
 52c:	0100                	addi	s0,sp,128
 52e:	410a                	lw	sp,128(sp)
 530:	015c                	addi	a5,sp,132
 532:	0000                	unimp
 534:	7fa89103          	lh	sp,2042(a7) # 47fa <__bin_size-0x280e>
 538:	0608                	addi	a0,sp,768
 53a:	0001                	nop
 53c:	0100                	addi	s0,sp,128
 53e:	550a                	lw	a0,160(sp)
 540:	015c                	addi	a5,sp,132
 542:	0000                	unimp
 544:	7fa09103          	lh	sp,2042(ra)
 548:	6a09                	lui	s4,0x2
 54a:	0001                	nop
 54c:	0100                	addi	s0,sp,128
 54e:	060c                	addi	a1,sp,768
 550:	023e                	slli	tp,tp,0xf
 552:	0000                	unimp
 554:	9102                	jalr	sp
 556:	0964                	addi	s1,sp,156
 558:	0179                	addi	sp,sp,30
 55a:	0000                	unimp
 55c:	0d01                	addi	s10,s10,0
 55e:	3e06                	fld	ft8,96(sp)
 560:	0002                	c.slli64	zero
 562:	0200                	addi	s0,sp,256
 564:	6091                	lui	ra,0x4
 566:	0b09                	addi	s6,s6,2
 568:	0001                	nop
 56a:	0100                	addi	s0,sp,128
 56c:	120d                	addi	tp,tp,-29
 56e:	023e                	slli	tp,tp,0xf
 570:	0000                	unimp
 572:	9102                	jalr	sp
 574:	095c                	addi	a5,sp,148
 576:	0121                	addi	sp,sp,8
 578:	0000                	unimp
 57a:	0d01                	addi	s10,s10,0
 57c:	3e20                	fld	fs0,120(a2)
 57e:	0002                	c.slli64	zero
 580:	0200                	addi	s0,sp,256
 582:	5891                	li	a7,-28
 584:	fe09                	bnez	a2,49e <__bin_size-0x6b6a>
 586:	0000                	unimp
 588:	0100                	addi	s0,sp,128
 58a:	100e                	c.slli	zero,0x23
 58c:	015c                	addi	a5,sp,132
 58e:	0000                	unimp
 590:	9102                	jalr	sp
 592:	0950                	addi	a2,sp,148
 594:	0144                	addi	s1,sp,132
 596:	0000                	unimp
 598:	0e01                	addi	t3,t3,0
 59a:	5c19                	li	s8,-26
 59c:	0001                	nop
 59e:	0200                	addi	s0,sp,256
 5a0:	4891                	li	a7,4
 5a2:	7009                	c.lui	zero,0xfffe2
 5a4:	0001                	nop
 5a6:	0100                	addi	s0,sp,128
 5a8:	015c100f          	0x15c100f
 5ac:	0000                	unimp
 5ae:	9102                	jalr	sp
 5b0:	0940                	addi	s0,sp,148
 5b2:	013c                	addi	a5,sp,136
 5b4:	0000                	unimp
 5b6:	0f01                	addi	t5,t5,0
 5b8:	5c1a                	lw	s8,164(sp)
 5ba:	0001                	nop
 5bc:	0200                	addi	s0,sp,256
 5be:	6891                	lui	a7,0x4
 5c0:	0a00                	addi	s0,sp,272
 5c2:	0504                	addi	s1,sp,640
 5c4:	6e69                	lui	t3,0x1a
 5c6:	0074                	addi	a3,sp,12
 5c8:	2a00                	fld	fs0,16(a2)
 5ca:	0000                	unimp
 5cc:	0200                	addi	s0,sp,256
 5ce:	7200                	ld	s0,32(a2)
 5d0:	0001                	nop
 5d2:	0800                	addi	s0,sp,16
 5d4:	1101                	addi	sp,sp,-32
 5d6:	0005                	c.nop	1
 5d8:	0000                	unimp
 5da:	0200                	addi	s0,sp,256
 5dc:	0000                	unimp
 5de:	0000                	unimp
 5e0:	4400                	lw	s0,8(s0)
 5e2:	0200                	addi	s0,sp,256
 5e4:	0000                	unimp
 5e6:	0000                	unimp
 5e8:	8400                	0x8400
 5ea:	0001                	nop
 5ec:	9300                	0x9300
 5ee:	0001                	nop
 5f0:	e200                	sd	s0,0(a2)
 5f2:	0001                	nop
 5f4:	0100                	addi	s0,sp,128
 5f6:	80              	Address 0x00000000000005f6 is out of bounds.


Disassembly of section .debug_abbrev:

0000000000000000 <.debug_abbrev>:
   0:	1101                	addi	sp,sp,-32
   2:	2501                	sext.w	a0,a0
   4:	130e                	slli	t1,t1,0x23
   6:	1b0e030b          	0x1b0e030b
   a:	110e                	slli	sp,sp,0x23
   c:	1201                	addi	tp,tp,-32
   e:	00171007          	flh	ft0,1(a4) # 18001 <__bin_size+0x10ff9>
  12:	0200                	addi	s0,sp,256
  14:	012e                	slli	sp,sp,0xb
  16:	0e03193f 0b3b0b3a 	0xb3b0b3a0e03193f
  1e:	0b39                	addi	s6,s6,14
  20:	13491927          	fsh	fs4,306(s2) # 1132 <__bin_size-0x5ed6>
  24:	0111                	addi	sp,sp,4
  26:	0712                	slli	a4,a4,0x4
  28:	1840                	addi	s0,sp,52
  2a:	01194297          	auipc	t0,0x1194
  2e:	03000013          	li	zero,48
  32:	0005                	c.nop	1
  34:	0b3a0803          	lb	a6,179(s4) # 20b3 <__bin_size-0x4f55>
  38:	0b390b3b          	0xb390b3b
  3c:	1349                	addi	t1,t1,-14
  3e:	1802                	slli	a6,a6,0x20
  40:	0000                	unimp
  42:	3404                	fld	fs1,40(s0)
  44:	0300                	addi	s0,sp,384
  46:	3a08                	fld	fa0,48(a2)
  48:	390b3b0b          	extu	s6,s6,14,16
  4c:	0213490b          	lrb	s2,t1,ra,1
  50:	0018                	0x18
  52:	0500                	addi	s0,sp,640
  54:	0024                	addi	s1,sp,8
  56:	0b3e0b0b          	0xb3e0b0b
  5a:	00000e03          	lb	t3,0(zero) # 0 <__bin_size-0x7008>
  5e:	2e06                	fld	ft8,64(sp)
  60:	3f01                	addiw	t5,t5,-32
  62:	0319                	addi	t1,t1,6
  64:	3a0e                	fld	fs4,224(sp)
  66:	390b3b0b          	extu	s6,s6,14,16
  6a:	1119270b          	ext	a4,s2,4,17
  6e:	1201                	addi	tp,tp,-32
  70:	97184007          	flq	ft0,-1679(a6) # ffffffffffff8971 <_payload_end+0xfffffffffffd1969>
  74:	1942                	slli	s2,s2,0x30
  76:	1301                	addi	t1,t1,-32
  78:	0000                	unimp
  7a:	03000507          	vle8ff.v	v10,(zero)
  7e:	3a0e                	fld	fs4,224(sp)
  80:	390b3b0b          	extu	s6,s6,14,16
  84:	0213490b          	lrb	s2,t1,ra,1
  88:	0018                	0x18
  8a:	0800                	addi	s0,sp,16
  8c:	0111010b          	0x111010b
  90:	0712                	slli	a4,a4,0x4
  92:	1301                	addi	t1,t1,-32
  94:	0000                	unimp
  96:	0b09                	addi	s6,s6,2
  98:	1101                	addi	sp,sp,-32
  9a:	1201                	addi	tp,tp,-32
  9c:	0a000007          	vlse8.v	v0,(zero),zero
  a0:	0024                	addi	s1,sp,8
  a2:	0b3e0b0b          	0xb3e0b0b
  a6:	00000803          	lb	a6,0(zero) # 0 <__bin_size-0x7008>
  aa:	3f012e0b          	ext	t3,sp,15,48
  ae:	0319                	addi	t1,t1,6
  b0:	3a0e                	fld	fs4,224(sp)
  b2:	390b3b0b          	extu	s6,s6,14,16
  b6:	4919270b          	ext	a4,s2,18,17
  ba:	12011113          	0x12011113
  be:	97184007          	flq	ft0,-1679(a6)
  c2:	1942                	slli	s2,s2,0x30
  c4:	0000                	unimp
  c6:	0100                	addi	s0,sp,128
  c8:	0111                	addi	sp,sp,4
  ca:	0e25                	addi	t3,t3,9
  cc:	0e030b13          	addi	s6,t1,224 # ffffffffffff90e0 <_payload_end+0xfffffffffffd20d8>
  d0:	01110e1b          	addiw	t3,sp,17
  d4:	0712                	slli	a4,a4,0x4
  d6:	1710                	addi	a2,sp,928
  d8:	0000                	unimp
  da:	2e02                	fld	ft8,0(sp)
  dc:	3f01                	addiw	t5,t5,-32
  de:	0319                	addi	t1,t1,6
  e0:	3a0e                	fld	fs4,224(sp)
  e2:	390b3b0b          	extu	s6,s6,14,16
  e6:	1119270b          	ext	a4,s2,4,17
  ea:	1201                	addi	tp,tp,-32
  ec:	96184007          	flq	ft0,-1695(a6)
  f0:	1942                	slli	s2,s2,0x30
  f2:	1301                	addi	t1,t1,-32
  f4:	0000                	unimp
  f6:	03003403          	ld	s0,48(zero) # 30 <__bin_size-0x6fd8>
  fa:	3a08                	fld	fa0,48(a2)
  fc:	390b3b0b          	extu	s6,s6,14,16
 100:	0213490b          	lrb	s2,t1,ra,1
 104:	0018                	0x18
 106:	0400                	addi	s0,sp,512
 108:	0111010b          	0x111010b
 10c:	0712                	slli	a4,a4,0x4
 10e:	1301                	addi	t1,t1,-32
 110:	0000                	unimp
 112:	0b05                	addi	s6,s6,1
 114:	1101                	addi	sp,sp,-32
 116:	1201                	addi	tp,tp,-32
 118:	06000007          	vluxei8.v	v0,(zero),v0
 11c:	0024                	addi	s1,sp,8
 11e:	0b3e0b0b          	0xb3e0b0b
 122:	00000e03          	lb	t3,0(zero) # 0 <__bin_size-0x7008>
 126:	3f012e07          	flw	ft8,1008(sp)
 12a:	0319                	addi	t1,t1,6
 12c:	3a0e                	fld	fs4,224(sp)
 12e:	390b3b0b          	extu	s6,s6,14,16
 132:	4919270b          	ext	a4,s2,18,17
 136:	12011113          	0x12011113
 13a:	96184007          	flq	ft0,-1695(a6)
 13e:	1942                	slli	s2,s2,0x30
 140:	1301                	addi	t1,t1,-32
 142:	0000                	unimp
 144:	0508                	addi	a0,sp,640
 146:	0300                	addi	s0,sp,384
 148:	3a0e                	fld	fs4,224(sp)
 14a:	390b3b0b          	extu	s6,s6,14,16
 14e:	0213490b          	lrb	s2,t1,ra,1
 152:	0018                	0x18
 154:	0900                	addi	s0,sp,144
 156:	0034                	addi	a3,sp,8
 158:	0b3a0e03          	lb	t3,179(s4)
 15c:	0b390b3b          	0xb390b3b
 160:	1349                	addi	t1,t1,-14
 162:	1802                	slli	a6,a6,0x20
 164:	0000                	unimp
 166:	240a                	fld	fs0,128(sp)
 168:	0b00                	addi	s0,sp,400
 16a:	030b3e0b          	extu	t3,s6,0,48
 16e:	0008                	0x8
 170:	0000                	unimp
 172:	1101                	addi	sp,sp,-32
 174:	1000                	addi	s0,sp,32
 176:	1106                	slli	sp,sp,0x21
 178:	1201                	addi	tp,tp,-32
 17a:	0301                	addi	t1,t1,0
 17c:	1b0e                	slli	s6,s6,0x23
 17e:	250e                	fld	fa0,192(sp)
 180:	130e                	slli	t1,t1,0x23
 182:	0005                	c.nop	1
	...

Disassembly of section .debug_aranges:

0000000000000000 <.debug_aranges>:
   0:	002c                	addi	a1,sp,8
   2:	0000                	unimp
   4:	0002                	c.slli64	zero
   6:	0000                	unimp
   8:	0000                	unimp
   a:	0008                	0x8
   c:	0000                	unimp
   e:	0000                	unimp
  10:	0044                	addi	s1,sp,4
  12:	0002                	c.slli64	zero
  14:	0000                	unimp
  16:	0000                	unimp
  18:	02bc                	addi	a5,sp,328
	...
  2e:	0000                	unimp
  30:	002c                	addi	a1,sp,8
  32:	0000                	unimp
  34:	0002                	c.slli64	zero
  36:	00000383          	lb	t2,0(zero) # 0 <__bin_size-0x7008>
  3a:	0008                	0x8
  3c:	0000                	unimp
  3e:	0000                	unimp
  40:	0300                	addi	s0,sp,384
  42:	0002                	c.slli64	zero
  44:	0000                	unimp
  46:	0000                	unimp
  48:	02b8                	addi	a4,sp,328
	...
  5e:	0000                	unimp
  60:	002c                	addi	a1,sp,8
  62:	0000                	unimp
  64:	0002                	c.slli64	zero
  66:	05c9                	addi	a1,a1,18
  68:	0000                	unimp
  6a:	0008                	0x8
  6c:	0000                	unimp
  6e:	0000                	unimp
  70:	0000                	unimp
  72:	0002                	c.slli64	zero
  74:	0000                	unimp
  76:	0000                	unimp
  78:	0044                	addi	s1,sp,4
	...

Disassembly of section .debug_line:

0000000000000000 <.debug_line>:
   0:	02b4                	addi	a3,sp,328
   2:	0000                	unimp
   4:	00240003          	lb	zero,2(s0) # ffffffffffff9002 <_payload_end+0xfffffffffffd1ffa>
   8:	0000                	unimp
   a:	0101                	addi	sp,sp,0
   c:	000d0efb          	0xd0efb
  10:	0101                	addi	sp,sp,0
  12:	0101                	addi	sp,sp,0
  14:	0000                	unimp
  16:	0100                	addi	s0,sp,128
  18:	0000                	unimp
  1a:	7301                	lui	t1,0xfffe0
  1c:	6962                	ld	s2,24(sp)
  1e:	0000                	unimp
  20:	5f696273          	csrrsi	tp,shpmcounter22,18
  24:	696c                	ld	a1,208(a0)
  26:	2e62                	fld	ft8,24(sp)
  28:	00010063          	beqz	sp,28 <__bin_size-0x6fe0>
  2c:	0000                	unimp
  2e:	0105                	addi	sp,sp,1
  30:	0900                	addi	s0,sp,144
  32:	4402                	lw	s0,0(sp)
  34:	0200                	addi	s0,sp,256
  36:	0000                	unimp
  38:	0000                	unimp
  3a:	1800                	addi	s0,sp,48
  3c:	1005                	c.nop	-31
  3e:	18090103          	lb	sp,384(s2)
  42:	0100                	addi	s0,sp,128
  44:	2805                	addiw	a6,a6,1
  46:	48090403          	lb	s0,1152(s2)
  4a:	0100                	addi	s0,sp,128
  4c:	6e05                	lui	t3,0x1
  4e:	08090003          	lb	zero,128(s2)
  52:	0100                	addi	s0,sp,128
  54:	0705                	addi	a4,a4,1
  56:	04090003          	lb	zero,64(s2)
  5a:	0100                	addi	s0,sp,128
  5c:	0305                	addi	t1,t1,1
  5e:	04090103          	lb	sp,64(s2)
  62:	0100                	addi	s0,sp,128
  64:	2805                	addiw	a6,a6,1
  66:	04090203          	lb	tp,64(s2)
  6a:	0100                	addi	s0,sp,128
  6c:	6e05                	lui	t3,0x1
  6e:	08090003          	lb	zero,128(s2)
  72:	0100                	addi	s0,sp,128
  74:	0705                	addi	a4,a4,1
  76:	04090003          	lb	zero,64(s2)
  7a:	0100                	addi	s0,sp,128
  7c:	0305                	addi	t1,t1,1
  7e:	04090103          	lb	sp,64(s2)
  82:	0100                	addi	s0,sp,128
  84:	2805                	addiw	a6,a6,1
  86:	04090203          	lb	tp,64(s2)
  8a:	0100                	addi	s0,sp,128
  8c:	6e05                	lui	t3,0x1
  8e:	08090003          	lb	zero,128(s2)
  92:	0100                	addi	s0,sp,128
  94:	0705                	addi	a4,a4,1
  96:	04090003          	lb	zero,64(s2)
  9a:	0100                	addi	s0,sp,128
  9c:	0305                	addi	t1,t1,1
  9e:	04090103          	lb	sp,64(s2)
  a2:	0100                	addi	s0,sp,128
  a4:	2805                	addiw	a6,a6,1
  a6:	04090203          	lb	tp,64(s2)
  aa:	0100                	addi	s0,sp,128
  ac:	6e05                	lui	t3,0x1
  ae:	08090003          	lb	zero,128(s2)
  b2:	0100                	addi	s0,sp,128
  b4:	0705                	addi	a4,a4,1
  b6:	04090003          	lb	zero,64(s2)
  ba:	0100                	addi	s0,sp,128
  bc:	0305                	addi	t1,t1,1
  be:	04090103          	lb	sp,64(s2)
  c2:	0100                	addi	s0,sp,128
  c4:	2805                	addiw	a6,a6,1
  c6:	04090203          	lb	tp,64(s2)
  ca:	0100                	addi	s0,sp,128
  cc:	6e05                	lui	t3,0x1
  ce:	08090003          	lb	zero,128(s2)
  d2:	0100                	addi	s0,sp,128
  d4:	0705                	addi	a4,a4,1
  d6:	04090003          	lb	zero,64(s2)
  da:	0100                	addi	s0,sp,128
  dc:	0305                	addi	t1,t1,1
  de:	04090103          	lb	sp,64(s2)
  e2:	0100                	addi	s0,sp,128
  e4:	2805                	addiw	a6,a6,1
  e6:	04090203          	lb	tp,64(s2)
  ea:	0100                	addi	s0,sp,128
  ec:	6e05                	lui	t3,0x1
  ee:	08090003          	lb	zero,128(s2)
  f2:	0100                	addi	s0,sp,128
  f4:	0705                	addi	a4,a4,1
  f6:	04090003          	lb	zero,64(s2)
  fa:	0100                	addi	s0,sp,128
  fc:	0305                	addi	t1,t1,1
  fe:	04090103          	lb	sp,64(s2)
 102:	0100                	addi	s0,sp,128
 104:	2805                	addiw	a6,a6,1
 106:	04090203          	lb	tp,64(s2)
 10a:	0100                	addi	s0,sp,128
 10c:	6e05                	lui	t3,0x1
 10e:	08090003          	lb	zero,128(s2)
 112:	0100                	addi	s0,sp,128
 114:	0705                	addi	a4,a4,1
 116:	04090003          	lb	zero,64(s2)
 11a:	0100                	addi	s0,sp,128
 11c:	0305                	addi	t1,t1,1
 11e:	04090103          	lb	sp,64(s2)
 122:	0100                	addi	s0,sp,128
 124:	2805                	addiw	a6,a6,1
 126:	04090203          	lb	tp,64(s2)
 12a:	0100                	addi	s0,sp,128
 12c:	6e05                	lui	t3,0x1
 12e:	08090003          	lb	zero,128(s2)
 132:	0100                	addi	s0,sp,128
 134:	0705                	addi	a4,a4,1
 136:	04090003          	lb	zero,64(s2)
 13a:	0100                	addi	s0,sp,128
 13c:	0305                	addi	t1,t1,1
 13e:	04090103          	lb	sp,64(s2)
 142:	0100                	addi	s0,sp,128
 144:	2805                	addiw	a6,a6,1
 146:	04090203          	lb	tp,64(s2)
 14a:	0100                	addi	s0,sp,128
 14c:	6e05                	lui	t3,0x1
 14e:	08090003          	lb	zero,128(s2)
 152:	0100                	addi	s0,sp,128
 154:	0705                	addi	a4,a4,1
 156:	04090003          	lb	zero,64(s2)
 15a:	0100                	addi	s0,sp,128
 15c:	0305                	addi	t1,t1,1
 15e:	04090103          	lb	sp,64(s2)
 162:	0100                	addi	s0,sp,128
 164:	04090203          	lb	tp,64(s2)
 168:	0100                	addi	s0,sp,128
 16a:	0905                	addi	s2,s2,1
 16c:	04090303          	lb	t1,64(s2)
 170:	0100                	addi	s0,sp,128
 172:	0105                	addi	sp,sp,1
 174:	04090103          	lb	sp,64(s2)
 178:	0100                	addi	s0,sp,128
 17a:	14090303          	lb	t1,320(s2)
 17e:	0100                	addi	s0,sp,128
 180:	1405                	addi	s0,s0,-31
 182:	5c090303          	lb	t1,1472(s2)
 186:	0100                	addi	s0,sp,128
 188:	3005                	0x3005
 18a:	08090003          	lb	zero,128(s2)
 18e:	0100                	addi	s0,sp,128
 190:	0305                	addi	t1,t1,1
 192:	08090103          	lb	sp,128(s2)
 196:	0100                	addi	s0,sp,128
 198:	1405                	addi	s0,s0,-31
 19a:	04090203          	lb	tp,64(s2)
 19e:	0100                	addi	s0,sp,128
 1a0:	3005                	0x3005
 1a2:	08090003          	lb	zero,128(s2)
 1a6:	0100                	addi	s0,sp,128
 1a8:	0305                	addi	t1,t1,1
 1aa:	08090103          	lb	sp,128(s2)
 1ae:	0100                	addi	s0,sp,128
 1b0:	1405                	addi	s0,s0,-31
 1b2:	04090203          	lb	tp,64(s2)
 1b6:	0100                	addi	s0,sp,128
 1b8:	3005                	0x3005
 1ba:	08090003          	lb	zero,128(s2)
 1be:	0100                	addi	s0,sp,128
 1c0:	0305                	addi	t1,t1,1
 1c2:	08090103          	lb	sp,128(s2)
 1c6:	0100                	addi	s0,sp,128
 1c8:	1405                	addi	s0,s0,-31
 1ca:	04090203          	lb	tp,64(s2)
 1ce:	0100                	addi	s0,sp,128
 1d0:	3005                	0x3005
 1d2:	08090003          	lb	zero,128(s2)
 1d6:	0100                	addi	s0,sp,128
 1d8:	0305                	addi	t1,t1,1
 1da:	08090103          	lb	sp,128(s2)
 1de:	0100                	addi	s0,sp,128
 1e0:	1405                	addi	s0,s0,-31
 1e2:	04090203          	lb	tp,64(s2)
 1e6:	0100                	addi	s0,sp,128
 1e8:	3005                	0x3005
 1ea:	08090003          	lb	zero,128(s2)
 1ee:	0100                	addi	s0,sp,128
 1f0:	0305                	addi	t1,t1,1
 1f2:	08090103          	lb	sp,128(s2)
 1f6:	0100                	addi	s0,sp,128
 1f8:	1405                	addi	s0,s0,-31
 1fa:	04090203          	lb	tp,64(s2)
 1fe:	0100                	addi	s0,sp,128
 200:	3005                	0x3005
 202:	08090003          	lb	zero,128(s2)
 206:	0100                	addi	s0,sp,128
 208:	0305                	addi	t1,t1,1
 20a:	08090103          	lb	sp,128(s2)
 20e:	0100                	addi	s0,sp,128
 210:	1405                	addi	s0,s0,-31
 212:	04090203          	lb	tp,64(s2)
 216:	0100                	addi	s0,sp,128
 218:	3005                	0x3005
 21a:	08090003          	lb	zero,128(s2)
 21e:	0100                	addi	s0,sp,128
 220:	0305                	addi	t1,t1,1
 222:	08090103          	lb	sp,128(s2)
 226:	0100                	addi	s0,sp,128
 228:	1405                	addi	s0,s0,-31
 22a:	04090203          	lb	tp,64(s2)
 22e:	0100                	addi	s0,sp,128
 230:	3005                	0x3005
 232:	08090003          	lb	zero,128(s2)
 236:	0100                	addi	s0,sp,128
 238:	0305                	addi	t1,t1,1
 23a:	08090103          	lb	sp,128(s2)
 23e:	0100                	addi	s0,sp,128
 240:	1405                	addi	s0,s0,-31
 242:	04090203          	lb	tp,64(s2)
 246:	0100                	addi	s0,sp,128
 248:	3005                	0x3005
 24a:	08090003          	lb	zero,128(s2)
 24e:	0100                	addi	s0,sp,128
 250:	0305                	addi	t1,t1,1
 252:	08090103          	lb	sp,128(s2)
 256:	0100                	addi	s0,sp,128
 258:	04090203          	lb	tp,64(s2)
 25c:	0100                	addi	s0,sp,128
 25e:	0105                	addi	sp,sp,1
 260:	04090203          	lb	tp,64(s2)
 264:	0100                	addi	s0,sp,128
 266:	10090303          	lb	t1,256(s2)
 26a:	0100                	addi	s0,sp,128
 26c:	1005                	c.nop	-31
 26e:	10090103          	lb	sp,256(s2)
 272:	0100                	addi	s0,sp,128
 274:	0805                	addi	a6,a6,1
 276:	04090203          	lb	tp,64(s2)
 27a:	0100                	addi	s0,sp,128
 27c:	1105                	addi	sp,sp,-31
 27e:	04090103          	lb	sp,64(s2)
 282:	0100                	addi	s0,sp,128
 284:	0605                	addi	a2,a2,1
 286:	14090003          	lb	zero,320(s2)
 28a:	0100                	addi	s0,sp,128
 28c:	08090203          	lb	tp,128(s2)
 290:	0100                	addi	s0,sp,128
 292:	0805                	addi	a6,a6,1
 294:	0c097d03          	0xc097d03
 298:	0100                	addi	s0,sp,128
 29a:	0405                	addi	s0,s0,1
 29c:	10090203          	lb	tp,256(s2)
 2a0:	0100                	addi	s0,sp,128
 2a2:	0905                	addi	s2,s2,1
 2a4:	04090403          	lb	s0,64(s2)
 2a8:	0100                	addi	s0,sp,128
 2aa:	0105                	addi	sp,sp,1
 2ac:	04090103          	lb	sp,64(s2)
 2b0:	0100                	addi	s0,sp,128
 2b2:	1009                	c.nop	-30
 2b4:	0000                	unimp
 2b6:	0101                	addi	sp,sp,0
 2b8:	0255                	addi	tp,tp,21
 2ba:	0000                	unimp
 2bc:	00250003          	lb	zero,2(a0)
 2c0:	0000                	unimp
 2c2:	0101                	addi	sp,sp,0
 2c4:	000d0efb          	0xd0efb
 2c8:	0101                	addi	sp,sp,0
 2ca:	0101                	addi	sp,sp,0
 2cc:	0000                	unimp
 2ce:	0100                	addi	s0,sp,128
 2d0:	0000                	unimp
 2d2:	7301                	lui	t1,0xfffe0
 2d4:	6962                	ld	s2,24(sp)
 2d6:	0000                	unimp
 2d8:	5f696273          	csrrsi	tp,shpmcounter22,18
 2dc:	616d                	addi	sp,sp,240
 2de:	6e69                	lui	t3,0x1a
 2e0:	632e                	ld	t1,200(sp)
 2e2:	0100                	addi	s0,sp,128
 2e4:	0000                	unimp
 2e6:	0500                	addi	s0,sp,640
 2e8:	0001                	nop
 2ea:	0209                	addi	tp,tp,2
 2ec:	0300                	addi	s0,sp,384
 2ee:	0002                	c.slli64	zero
 2f0:	0000                	unimp
 2f2:	0000                	unimp
 2f4:	05010a03          	lb	s4,80(sp)
 2f8:	0305                	addi	t1,t1,1
 2fa:	0906                	slli	s2,s2,0x1
 2fc:	0024                	addi	s1,sp,8
 2fe:	0501                	addi	a0,a0,0
 300:	030a                	slli	t1,t1,0x2
 302:	0901                	addi	s2,s2,0
 304:	0010                	0x10
 306:	0301                	addi	t1,t1,0
 308:	0902                	c.slli64	s2
 30a:	0008                	0x8
 30c:	0501                	addi	a0,a0,0
 30e:	0308                	addi	a0,sp,384
 310:	0900                	addi	s0,sp,144
 312:	000c                	0xc
 314:	0501                	addi	a0,a0,0
 316:	0305                	addi	t1,t1,1
 318:	0901                	addi	s2,s2,0
 31a:	0004                	0x4
 31c:	0501                	addi	a0,a0,0
 31e:	030a                	slli	t1,t1,0x2
 320:	0901                	addi	s2,s2,0
 322:	0010                	0x10
 324:	0301                	addi	t1,t1,0
 326:	0902                	c.slli64	s2
 328:	0008                	0x8
 32a:	0501                	addi	a0,a0,0
 32c:	0321                	addi	t1,t1,8
 32e:	000c0903          	lb	s2,0(s8) # a000 <__bin_size+0x2ff8>
 332:	0501                	addi	a0,a0,0
 334:	0316                	slli	t1,t1,0x5
 336:	0900                	addi	s0,sp,144
 338:	000c                	0xc
 33a:	0501                	addi	a0,a0,0
 33c:	030d                	addi	t1,t1,3
 33e:	0900                	addi	s0,sp,144
 340:	0008                	0x8
 342:	0501                	addi	a0,a0,0
 344:	031f 0901 0008      	0x80901031f
 34a:	0501                	addi	a0,a0,0
 34c:	0900030f          	0x900030f
 350:	000c                	0xc
 352:	0501                	addi	a0,a0,0
 354:	030e                	slli	t1,t1,0x3
 356:	0902                	c.slli64	s2
 358:	0008                	0x8
 35a:	0501                	addi	a0,a0,0
 35c:	09030307          	vlse8.v	v6,(t1),a6,v0.t
 360:	000c                	0xc
 362:	0501                	addi	a0,a0,0
 364:	0320                	addi	s0,sp,392
 366:	0901                	addi	s2,s2,0
 368:	000c                	0xc
 36a:	0001                	nop
 36c:	0402                	c.slli64	s0
 36e:	0601                	addi	a2,a2,0
 370:	10090003          	lb	zero,256(s2)
 374:	0100                	addi	s0,sp,128
 376:	0200                	addi	s0,sp,256
 378:	0204                	addi	s1,sp,256
 37a:	08090003          	lb	zero,128(s2)
 37e:	0100                	addi	s0,sp,128
 380:	0705                	addi	a4,a4,1
 382:	0200                	addi	s0,sp,256
 384:	0404                	addi	s1,sp,512
 386:	0306                	slli	t1,t1,0x1
 388:	0900                	addi	s0,sp,144
 38a:	0004                	0x4
 38c:	0501                	addi	a0,a0,0
 38e:	0015                	c.nop	5
 390:	0402                	c.slli64	s0
 392:	0304                	addi	s1,sp,384
 394:	000c0903          	lb	s2,0(s8)
 398:	0501                	addi	a0,a0,0
 39a:	000a                	c.slli	zero,0x2
 39c:	0402                	c.slli64	s0
 39e:	0304                	addi	s1,sp,384
 3a0:	0900                	addi	s0,sp,144
 3a2:	000c                	0xc
 3a4:	0501                	addi	a0,a0,0
 3a6:	000c                	0xc
 3a8:	0402                	c.slli64	s0
 3aa:	0304                	addi	s1,sp,384
 3ac:	0901                	addi	s2,s2,0
 3ae:	0008                	0x8
 3b0:	0501                	addi	a0,a0,0
 3b2:	0009                	c.nop	2
 3b4:	0402                	c.slli64	s0
 3b6:	0304                	addi	s1,sp,384
 3b8:	0900                	addi	s0,sp,144
 3ba:	0010                	0x10
 3bc:	0501                	addi	a0,a0,0
 3be:	04020013          	addi	zero,tp,64 # 18040 <__bin_size+0x11038>
 3c2:	0304                	addi	s1,sp,384
 3c4:	0901                	addi	s2,s2,0
 3c6:	000c                	0xc
 3c8:	0501                	addi	a0,a0,0
 3ca:	0026                	c.slli	zero,0x9
 3cc:	0402                	c.slli64	s0
 3ce:	0304                	addi	s1,sp,384
 3d0:	0900                	addi	s0,sp,144
 3d2:	000c                	0xc
 3d4:	0501                	addi	a0,a0,0
 3d6:	0024                	addi	s1,sp,8
 3d8:	0402                	c.slli64	s0
 3da:	0304                	addi	s1,sp,384
 3dc:	0900                	addi	s0,sp,144
 3de:	0008                	0x8
 3e0:	0501                	addi	a0,a0,0
 3e2:	0009                	c.nop	2
 3e4:	0402                	c.slli64	s0
 3e6:	0304                	addi	s1,sp,384
 3e8:	0900                	addi	s0,sp,144
 3ea:	0004                	0x4
 3ec:	0501                	addi	a0,a0,0
 3ee:	0005                	c.nop	1
 3f0:	0402                	c.slli64	s0
 3f2:	0304                	addi	s1,sp,384
 3f4:	000c0907          	vle8.v	v18,(s8),v0.t
 3f8:	0501                	addi	a0,a0,0
 3fa:	0306                	slli	t1,t1,0x1
 3fc:	0902                	c.slli64	s2
 3fe:	0010                	0x10
 400:	0501                	addi	a0,a0,0
 402:	030c                	addi	a1,sp,384
 404:	0901                	addi	s2,s2,0
 406:	0010                	0x10
 408:	0501                	addi	a0,a0,0
 40a:	031e                	slli	t1,t1,0x7
 40c:	000c0907          	vle8.v	v18,(s8),v0.t
 410:	0501                	addi	a0,a0,0
 412:	0314                	addi	a3,sp,384
 414:	0900                	addi	s0,sp,144
 416:	000c                	0xc
 418:	0501                	addi	a0,a0,0
 41a:	030d                	addi	t1,t1,3
 41c:	0900                	addi	s0,sp,144
 41e:	000c                	0xc
 420:	0501                	addi	a0,a0,0
 422:	0901030f          	0x901030f
 426:	0008                	0x8
 428:	0501                	addi	a0,a0,0
 42a:	030c                	addi	a1,sp,384
 42c:	0900                	addi	s0,sp,144
 42e:	0008                	0x8
 430:	0501                	addi	a0,a0,0
 432:	0319                	addi	t1,t1,6
 434:	0901                	addi	s2,s2,0
 436:	000c                	0xc
 438:	0501                	addi	a0,a0,0
 43a:	030c                	addi	a1,sp,384
 43c:	0900                	addi	s0,sp,144
 43e:	0008                	0x8
 440:	0501                	addi	a0,a0,0
 442:	0302                	c.slli64	t1
 444:	0906                	slli	s2,s2,0x1
 446:	000c                	0xc
 448:	0301                	addi	t1,t1,0
 44a:	0901                	addi	s2,s2,0
 44c:	0010                	0x10
 44e:	0501                	addi	a0,a0,0
 450:	0309                	addi	t1,t1,2
 452:	0902                	c.slli64	s2
 454:	0010                	0x10
 456:	0501                	addi	a0,a0,0
 458:	0301                	addi	t1,t1,0
 45a:	0901                	addi	s2,s2,0
 45c:	0004                	0x4
 45e:	0301                	addi	t1,t1,0
 460:	00140907          	0x140907
 464:	0501                	addi	a0,a0,0
 466:	0302                	c.slli64	t1
 468:	0906                	slli	s2,s2,0x1
 46a:	0014                	0x14
 46c:	0501                	addi	a0,a0,0
 46e:	09040327          	vsse8.v	v6,(s0),a6,v0.t
 472:	0014                	0x14
 474:	0501                	addi	a0,a0,0
 476:	0900036f          	jal	t1,506 <__bin_size-0x6b02>
 47a:	0008                	0x8
 47c:	0501                	addi	a0,a0,0
 47e:	0306                	slli	t1,t1,0x1
 480:	0900                	addi	s0,sp,144
 482:	0004                	0x4
 484:	0501                	addi	a0,a0,0
 486:	0310                	addi	a2,sp,384
 488:	0901                	addi	s2,s2,0
 48a:	0004                	0x4
 48c:	0501                	addi	a0,a0,0
 48e:	0306                	slli	t1,t1,0x1
 490:	0900                	addi	s0,sp,144
 492:	0010                	0x10
 494:	0301                	addi	t1,t1,0
 496:	0901                	addi	s2,s2,0
 498:	0010                	0x10
 49a:	0501                	addi	a0,a0,0
 49c:	09010313          	addi	t1,sp,144
 4a0:	000c                	0xc
 4a2:	0501                	addi	a0,a0,0
 4a4:	0900032f          	vamoswapei8.v	zero,(zero),v16,v6,v0.t
 4a8:	0008                	0x8
 4aa:	0501                	addi	a0,a0,0
 4ac:	09030313          	addi	t1,t1,144 # fffffffffffe0090 <_payload_end+0xfffffffffffb9088>
 4b0:	0008                	0x8
 4b2:	0501                	addi	a0,a0,0
 4b4:	09000333          	0x9000333
 4b8:	0008                	0x8
 4ba:	0501                	addi	a0,a0,0
 4bc:	09010313          	addi	t1,sp,144
 4c0:	0008                	0x8
 4c2:	0501                	addi	a0,a0,0
 4c4:	09000333          	0x9000333
 4c8:	0008                	0x8
 4ca:	0501                	addi	a0,a0,0
 4cc:	09030313          	addi	t1,t1,144
 4d0:	0008                	0x8
 4d2:	0501                	addi	a0,a0,0
 4d4:	09000333          	0x9000333
 4d8:	0008                	0x8
 4da:	0501                	addi	a0,a0,0
 4dc:	09030313          	addi	t1,t1,144
 4e0:	0008                	0x8
 4e2:	0501                	addi	a0,a0,0
 4e4:	032d                	addi	t1,t1,11
 4e6:	0900                	addi	s0,sp,144
 4e8:	0004                	0x4
 4ea:	0501                	addi	a0,a0,0
 4ec:	09020313          	addi	t1,tp,144 # 90 <__bin_size-0x6f78>
 4f0:	0008                	0x8
 4f2:	0501                	addi	a0,a0,0
 4f4:	032d                	addi	t1,t1,11
 4f6:	0900                	addi	s0,sp,144
 4f8:	0004                	0x4
 4fa:	0501                	addi	a0,a0,0
 4fc:	0302                	c.slli64	t1
 4fe:	00080903          	lb	s2,0(a6)
 502:	0501                	addi	a0,a0,0
 504:	0301                	addi	t1,t1,0
 506:	0901                	addi	s2,s2,0
 508:	0004                	0x4
 50a:	0901                	addi	s2,s2,0
 50c:	0018                	0x18
 50e:	0100                	addi	s0,sp,128
 510:	5101                	li	sp,-32
 512:	0000                	unimp
 514:	0300                	addi	s0,sp,384
 516:	2500                	fld	fs0,8(a0)
 518:	0000                	unimp
 51a:	0100                	addi	s0,sp,128
 51c:	fb01                	bnez	a4,42c <__bin_size-0x6bdc>
 51e:	0d0e                	slli	s10,s10,0x3
 520:	0100                	addi	s0,sp,128
 522:	0101                	addi	sp,sp,0
 524:	0001                	nop
 526:	0000                	unimp
 528:	0001                	nop
 52a:	0100                	addi	s0,sp,128
 52c:	00696273          	csrrsi	tp,0x6,18
 530:	7300                	ld	s0,32(a4)
 532:	6962                	ld	s2,24(sp)
 534:	625f 6f6f 2e74      	0x2e746f6f625f
 53a:	00010053          	fadd.s	ft0,ft2,ft0,rne
 53e:	0000                	unimp
 540:	0900                	addi	s0,sp,144
 542:	3002                	fld	ft0,32(sp)
 544:	0200                	addi	s0,sp,256
 546:	0000                	unimp
 548:	0000                	unimp
 54a:	0300                	addi	s0,sp,384
 54c:	0116                	slli	sp,sp,0x5
 54e:	08090103          	lb	sp,128(s2)
 552:	0100                	addi	s0,sp,128
 554:	04090103          	lb	sp,64(s2)
 558:	0100                	addi	s0,sp,128
 55a:	04090303          	lb	t1,64(s2)
 55e:	0100                	addi	s0,sp,128
 560:	0409                	addi	s0,s0,2
 562:	0000                	unimp
 564:	0101                	addi	sp,sp,0

Disassembly of section .debug_str:

0000000000000000 <.debug_str>:
   0:	6f6c                	ld	a1,216(a4)
   2:	676e                	ld	a4,216(sp)
   4:	7520                	ld	s0,104(a0)
   6:	736e                	ld	t1,248(sp)
   8:	6769                	lui	a4,0x1a
   a:	656e                	ld	a0,216(sp)
   c:	2064                	fld	fs1,192(s0)
   e:	6e69                	lui	t3,0x1a
  10:	0074                	addi	a3,sp,12
  12:	2f696273          	csrrsi	tp,0x2f6,18
  16:	5f696273          	csrrsi	tp,shpmcounter22,18
  1a:	696c                	ld	a1,208(a0)
  1c:	2e62                	fld	ft8,24(sp)
  1e:	6f6c0063          	beq	s8,s6,6fe <__bin_size-0x690a>
  22:	6f723267          	0x6f723267
  26:	6e75                	lui	t3,0x1d
  28:	7564                	ld	s1,232(a0)
  2a:	0070                	addi	a2,sp,12
  2c:	20554e47          	fmsub.s	ft8,fa0,ft5,ft4,rmm
  30:	20373143          	fmadd.s	ft2,fa4,ft3,ft4,rup
  34:	3031                	0x3031
  36:	322e                	fld	ft4,232(sp)
  38:	302e                	fld	ft0,232(sp)
  3a:	2d20                	fld	fs0,88(a0)
  3c:	636d                	lui	t1,0x1b
  3e:	6f6d                	lui	t5,0x1b
  40:	6564                	ld	s1,200(a0)
  42:	3d6c                	fld	fa1,248(a0)
  44:	656d                	lui	a0,0x1b
  46:	6164                	ld	s1,192(a0)
  48:	796e                	ld	s2,248(sp)
  4a:	2d20                	fld	fs0,88(a0)
  4c:	616d                	addi	sp,sp,240
  4e:	6962                	ld	s2,24(sp)
  50:	6c3d                	lui	s8,0xf
  52:	3670                	fld	fa2,232(a2)
  54:	2034                	fld	fa3,64(s0)
  56:	6d2d                	lui	s10,0xb
  58:	7261                	lui	tp,0xffff8
  5a:	723d6863          	bltu	s10,gp,78a <__bin_size-0x687e>
  5e:	3676                	fld	fa2,376(sp)
  60:	6934                	ld	a3,80(a0)
  62:	616d                	addi	sp,sp,240
  64:	6466                	ld	s0,88(sp)
  66:	2d20                	fld	fs0,88(a0)
  68:	4f2d2067          	0x4f2d2067
  6c:	2030                	fld	fa2,64(s0)
  6e:	662d                	lui	a2,0xb
  70:	6f6e                	ld	t5,216(sp)
  72:	502d                	c.li	zero,-21
  74:	4549                	li	a0,18
  76:	2d20                	fld	fs0,88(a0)
  78:	6e66                	ld	t3,88(sp)
  7a:	6d6f2d6f          	jal	s10,f2750 <_payload_end+0xcb748>
  7e:	7469                	lui	s0,0xffffa
  80:	662d                	lui	a2,0xb
  82:	6172                	ld	sp,280(sp)
  84:	656d                	lui	a0,0x1b
  86:	702d                	c.lui	zero,0xfffeb
  88:	746e696f          	jal	s2,e67ce <_payload_end+0xbf7c6>
  8c:	7265                	lui	tp,0xffff9
  8e:	4500                	lw	s0,8(a0)
  90:	5c3a                	lw	s8,172(sp)
  92:	645c                	ld	a5,136(s0)
  94:	7331                	lui	t1,0xfffec
  96:	705f 6f72 656a      	0x656a6f72705f
  9c:	5c737463          	bgeu	t1,t2,664 <__bin_size-0x69a4>
  a0:	725c                	ld	a5,160(a2)
  a2:	7369                	lui	t1,0xffffa
  a4:	705f7663          	bgeu	t5,t0,7b0 <__bin_size-0x6858>
  a8:	6f72                	ld	t5,280(sp)
  aa:	6d617267          	0x6d617267
  ae:	696d                	lui	s2,0x1b
  b0:	676e                	ld	a4,216(sp)
  b2:	705f 6172 7463      	0x74636172705f
  b8:	6369                	lui	t1,0x1a
  ba:	2d65                	addiw	s10,s10,25
  bc:	6f66                	ld	t5,88(sp)
  be:	2d72                	fld	fs10,280(sp)
  c0:	6f64                	ld	s1,216(a4)
  c2:	676e                	ld	a4,216(sp)
  c4:	6e616873          	csrrsi	a6,0x6e6,2
  c8:	5c5c                	lw	a5,60(s0)
  ca:	70616863          	bltu	sp,t1,7da <__bin_size-0x682e>
  ce:	6574                	ld	a3,200(a0)
  d0:	5f72                	lw	t5,60(sp)
  d2:	6c5c5c37          	lui	s8,0x6c5c5
  d6:	6261                	lui	tp,0x18
  d8:	5c362d37          	lui	s10,0x5c362
  dc:	625c                	ld	a5,128(a2)
  de:	6e65                	lui	t3,0x19
  e0:	7200736f          	jal	t1,7800 <__bin_size+0x7f8>
  e4:	6165                	addi	sp,sp,112
  e6:	5f64                	lw	s1,124(a4)
  e8:	5f727363          	bgeu	tp,s7,6ce <__bin_size-0x693a>
  ec:	756e                	ld	a0,248(sp)
  ee:	006d                	c.nop	27
  f0:	74697277          	0x74697277
  f4:	5f65                	li	t5,-7
  f6:	5f727363          	bgeu	tp,s7,6dc <__bin_size-0x692c>
  fa:	756e                	ld	a0,248(sp)
  fc:	006d                	c.nop	27
  fe:	6d676663          	bltu	a4,s6,7ca <__bin_size-0x683e>
 102:	7361                	lui	t1,0xffff8
 104:	7270006b          	0x7270006b
 108:	7000746f          	jal	s0,7808 <__bin_size+0x800>
 10c:	706d                	c.lui	zero,0xffffb
 10e:	5f676663          	bltu	a4,s6,6fa <__bin_size-0x690e>
 112:	66696873          	csrrsi	a6,0x666,18
 116:	0074                	addi	a3,sp,12
 118:	5f696273          	csrrsi	tp,shpmcounter22,18
 11c:	616d                	addi	sp,sp,240
 11e:	6e69                	lui	t3,0x1a
 120:	7000                	ld	s0,32(s0)
 122:	706d                	c.lui	zero,0xffffb
 124:	6461                	lui	s0,0x18
 126:	7264                	ld	s1,224(a2)
 128:	635f 7273 7300      	0x73007273635f
 12e:	6962                	ld	s2,24(sp)
 130:	6962732f          	0x6962732f
 134:	6d5f 6961 2e6e      	0x2e6e69616d5f
 13a:	6d700063          	beq	zero,s7,7fa <__bin_size-0x680e>
 13e:	6170                	ld	a2,192(a0)
 140:	6464                	ld	s1,200(s0)
 142:	0072                	c.slli	zero,0x1c
 144:	6d70                	ld	a2,216(a0)
 146:	6370                	ld	a2,192(a4)
 148:	6766                	ld	a4,88(sp)
 14a:	7200                	ld	s0,32(a2)
 14c:	6765                	lui	a4,0x19
 14e:	695f 7864 7300      	0x73007864695f
 154:	7a69                	lui	s4,0xffffa
 156:	0065                	c.nop	25
 158:	72617473          	csrrci	s0,0x726,2
 15c:	0074                	addi	a3,sp,12
 15e:	5f696273          	csrrsi	tp,shpmcounter22,18
 162:	5f746573          	csrrsi	a0,shpmcounter23,8
 166:	6d70                	ld	a2,216(a0)
 168:	0070                	addi	a2,sp,12
 16a:	6564726f          	jal	tp,477c0 <_payload_end+0x207b8>
 16e:	0072                	c.slli	zero,0x1c
 170:	6461                	lui	s0,0x18
 172:	7264                	ld	s1,224(a2)
 174:	616d                	addi	sp,sp,240
 176:	70006b73          	csrrsi	s6,0x700,0
 17a:	706d                	c.lui	zero,0xffffb
 17c:	5f676663          	bltu	a4,s6,768 <__bin_size-0x68a0>
 180:	00727363          	bgeu	tp,t2,186 <__bin_size-0x6e82>
 184:	2f696273          	csrrsi	tp,0x2f6,18
 188:	5f696273          	csrrsi	tp,shpmcounter22,18
 18c:	6f62                	ld	t5,24(sp)
 18e:	532e746f          	jal	s0,e76c0 <_payload_end+0xc06b8>
 192:	4500                	lw	s0,8(a0)
 194:	5c3a                	lw	s8,172(sp)
 196:	3164                	fld	fs1,224(a0)
 198:	72705f73          	csrrwi	t5,0x727,0
 19c:	63656a6f          	jal	s4,567d2 <_payload_end+0x2f7ca>
 1a0:	7374                	ld	a3,224(a4)
 1a2:	725c                	ld	a5,160(a2)
 1a4:	7369                	lui	t1,0xffffa
 1a6:	705f7663          	bgeu	t5,t0,8b2 <__bin_size-0x6756>
 1aa:	6f72                	ld	t5,280(sp)
 1ac:	6d617267          	0x6d617267
 1b0:	696d                	lui	s2,0x1b
 1b2:	676e                	ld	a4,216(sp)
 1b4:	705f 6172 7463      	0x74636172705f
 1ba:	6369                	lui	t1,0x1a
 1bc:	2d65                	addiw	s10,s10,25
 1be:	6f66                	ld	t5,88(sp)
 1c0:	2d72                	fld	fs10,280(sp)
 1c2:	6f64                	ld	s1,216(a4)
 1c4:	676e                	ld	a4,216(sp)
 1c6:	6e616873          	csrrsi	a6,0x6e6,2
 1ca:	635c                	ld	a5,128(a4)
 1cc:	6168                	ld	a0,192(a0)
 1ce:	7470                	ld	a2,232(s0)
 1d0:	7265                	lui	tp,0xffff9
 1d2:	375f 6c5c 6261      	0x62616c5c375f
 1d8:	5c362d37          	lui	s10,0x5c362
 1dc:	6562                	ld	a0,24(sp)
 1de:	6f6e                	ld	t5,216(sp)
 1e0:	4e470073          	0x4e470073
 1e4:	2055                	0x2055
 1e6:	5341                	li	t1,-16
 1e8:	3220                	fld	fs0,96(a2)
 1ea:	332e                	fld	ft6,232(sp)
 1ec:	0035                	c.nop	13

Disassembly of section .comment:

0000000000000000 <.comment>:
   0:	3a434347          	fmsub.d	ft6,ft6,ft4,ft7,rmm
   4:	2820                	fld	fs0,80(s0)
   6:	7558                	ld	a4,168(a0)
   8:	6e61                	lui	t3,0x18
   a:	6974                	ld	a3,208(a0)
   c:	2d65                	addiw	s10,s10,25
   e:	3039                	0x3039
  10:	2030                	fld	fa2,64(s0)
  12:	6c65                	lui	s8,0x19
  14:	2066                	fld	ft0,88(sp)
  16:	656e                	ld	a0,216(sp)
  18:	62696c77          	0x62696c77
  1c:	6720                	ld	s0,72(a4)
  1e:	54206363          	bltu	zero,sp,564 <__bin_size-0x6aa4>
  22:	636c6f6f          	jal	t5,c6658 <_payload_end+0x9f650>
  26:	6168                	ld	a0,192(a0)
  28:	6e69                	lui	t3,0x1a
  2a:	5620                	lw	s0,104(a2)
  2c:	2e32                	fld	ft8,264(sp)
  2e:	2e36                	fld	ft8,328(sp)
  30:	2031                	0x2031
  32:	2d42                	fld	fs10,16(sp)
  34:	3032                	fld	ft0,296(sp)
  36:	3232                	fld	ft4,296(sp)
  38:	3930                	fld	fa2,112(a0)
  3a:	3630                	fld	fa2,104(a2)
  3c:	2029                	0x2029
  3e:	3031                	0x3031
  40:	322e                	fld	ft4,232(sp)
  42:	302e                	fld	ft0,232(sp)
	...

Disassembly of section .riscv.attributes:

0000000000000000 <.riscv.attributes>:
   0:	3341                	addiw	t1,t1,-16
   2:	0000                	unimp
   4:	7200                	ld	s0,32(a2)
   6:	7369                	lui	t1,0xffffa
   8:	01007663          	bgeu	zero,a6,14 <__bin_size-0x6ff4>
   c:	0029                	c.nop	10
   e:	0000                	unimp
  10:	1004                	addi	s1,sp,32
  12:	7205                	lui	tp,0xfffe1
  14:	3676                	fld	fa2,376(sp)
  16:	6934                	ld	a3,80(a0)
  18:	7032                	0x7032
  1a:	5f30                	lw	a2,120(a4)
  1c:	326d                	addiw	tp,tp,-5
  1e:	3070                	fld	fa2,224(s0)
  20:	615f 7032 5f30      	0x5f307032615f
  26:	3266                	fld	ft4,120(sp)
  28:	3070                	fld	fa2,224(s0)
  2a:	645f 7032 0030      	0x307032645f
  30:	0108                	addi	a0,sp,128
  32:	0b0a                	slli	s6,s6,0x2

Disassembly of section .debug_frame:

0000000000000000 <.debug_frame>:
   0:	000c                	0xc
   2:	0000                	unimp
   4:	ffffffff          	0xffffffff
   8:	7c010003          	lb	zero,1984(sp)
   c:	0d01                	addi	s10,s10,0
   e:	0002                	c.slli64	zero
  10:	002c                	addi	a1,sp,8
  12:	0000                	unimp
  14:	0000                	unimp
  16:	0000                	unimp
  18:	0044                	addi	s1,sp,4
  1a:	0002                	c.slli64	zero
  1c:	0000                	unimp
  1e:	0000                	unimp
  20:	0130                	addi	a2,sp,136
  22:	0000                	unimp
  24:	0000                	unimp
  26:	0000                	unimp
  28:	0e44                	addi	s1,sp,788
  2a:	4830                	lw	a2,80(s0)
  2c:	0288                	addi	a0,sp,320
  2e:	0489                	addi	s1,s1,2
  30:	0c44                	addi	s1,sp,532
  32:	0008                	0x8
  34:	c8011403          	lh	s0,-896(sp)
  38:	020c                	addi	a1,sp,256
  3a:	4430                	lw	a2,72(s0)
  3c:	44c9                	li	s1,18
  3e:	000e                	c.slli	zero,0x3
  40:	002c                	addi	a1,sp,8
  42:	0000                	unimp
  44:	0000                	unimp
  46:	0000                	unimp
  48:	0174                	addi	a3,sp,140
  4a:	0002                	c.slli64	zero
  4c:	0000                	unimp
  4e:	0000                	unimp
  50:	0124                	addi	s1,sp,136
  52:	0000                	unimp
  54:	0000                	unimp
  56:	0000                	unimp
  58:	0e44                	addi	s1,sp,788
  5a:	4470                	lw	a2,76(s0)
  5c:	0288                	addi	a0,sp,320
  5e:	0c44                	addi	s1,sp,532
  60:	0008                	0x8
  62:	c8011003          	lh	zero,-896(sp)
  66:	020c                	addi	a1,sp,256
  68:	4470                	lw	a2,76(s0)
  6a:	000e                	c.slli	zero,0x3
  6c:	0000                	unimp
  6e:	0000                	unimp
  70:	002c                	addi	a1,sp,8
  72:	0000                	unimp
  74:	0000                	unimp
  76:	0000                	unimp
  78:	0298                	addi	a4,sp,320
  7a:	0002                	c.slli64	zero
  7c:	0000                	unimp
  7e:	0000                	unimp
  80:	0068                	addi	a0,sp,12
  82:	0000                	unimp
  84:	0000                	unimp
  86:	0000                	unimp
  88:	0e44                	addi	s1,sp,788
  8a:	4430                	lw	a2,72(s0)
  8c:	0288                	addi	a0,sp,320
  8e:	0c44                	addi	s1,sp,532
  90:	0008                	0x8
  92:	5402                	lw	s0,32(sp)
  94:	0cc8                	addi	a0,sp,596
  96:	3002                	fld	ft0,32(sp)
  98:	0e44                	addi	s1,sp,788
  9a:	0000                	unimp
  9c:	0000                	unimp
  9e:	0000                	unimp
  a0:	000c                	0xc
  a2:	0000                	unimp
  a4:	ffffffff          	0xffffffff
  a8:	7c010003          	lb	zero,1984(sp)
  ac:	0d01                	addi	s10,s10,0
  ae:	0002                	c.slli64	zero
  b0:	002c                	addi	a1,sp,8
  b2:	0000                	unimp
  b4:	00a0                	addi	s0,sp,72
  b6:	0000                	unimp
  b8:	0300                	addi	s0,sp,384
  ba:	0002                	c.slli64	zero
  bc:	0000                	unimp
  be:	0000                	unimp
  c0:	01e0                	addi	s0,sp,204
  c2:	0000                	unimp
  c4:	0000                	unimp
  c6:	0000                	unimp
  c8:	0e44                	addi	s1,sp,788
  ca:	4860                	lw	s0,84(s0)
  cc:	0281                	addi	t0,t0,0
  ce:	0488                	addi	a0,sp,576
  d0:	0c44                	addi	s1,sp,532
  d2:	0008                	0x8
  d4:	c101c403          	lbu	s0,-1008(gp)
  d8:	c844                	sw	s1,20(s0)
  da:	020c                	addi	a1,sp,256
  dc:	4460                	lw	s0,76(s0)
  de:	000e                	c.slli	zero,0x3
  e0:	0034                	addi	a3,sp,8
  e2:	0000                	unimp
  e4:	00a0                	addi	s0,sp,72
  e6:	0000                	unimp
  e8:	04e0                	addi	s0,sp,588
  ea:	0002                	c.slli64	zero
  ec:	0000                	unimp
  ee:	0000                	unimp
  f0:	00d8                	addi	a4,sp,68
  f2:	0000                	unimp
  f4:	0000                	unimp
  f6:	0000                	unimp
  f8:	0e44                	addi	s1,sp,788
  fa:	4c60                	lw	s0,92(s0)
  fc:	0281                	addi	t0,t0,0
  fe:	0488                	addi	a0,sp,576
 100:	0689                	addi	a3,a3,2
 102:	0c44                	addi	s1,sp,532
 104:	0008                	0x8
 106:	b402                	fsd	ft0,40(sp)
 108:	44c1                	li	s1,16
 10a:	0cc8                	addi	a0,sp,596
 10c:	6002                	0x6002
 10e:	c944                	sw	s1,20(a0)
 110:	0e44                	addi	s1,sp,788
 112:	0000                	unimp
 114:	0000                	unimp
	...
