
benos.elf:     file format elf64-littleriscv


Disassembly of section .text.boot:

0000000000022000 <_start>:
   22000:	00005297          	auipc	t0,0x5
   22004:	00028293          	mv	t0,t0
   22008:	00000317          	auipc	t1,0x0
   2200c:	06030313          	addi	t1,t1,96 # 22068 <_etext_boot>
   22010:	00003397          	auipc	t2,0x3
   22014:	ac838393          	addi	t2,t2,-1336 # 24ad8 <_etext>
   22018:	0002b783          	ld	a5,0(t0) # 27000 <TEXT_ROM>
   2201c:	00f33023          	sd	a5,0(t1)
   22020:	00830313          	addi	t1,t1,8
   22024:	00828293          	addi	t0,t0,8
   22028:	fe7368e3          	bltu	t1,t2,22018 <_start+0x18>
   2202c:	10401073          	csrw	sie,zero
   22030:	1a9020ef          	jal	ra,249d8 <__init_uart>
   22034:	00000097          	auipc	ra,0x0
   22038:	01c080e7          	jalr	28(ra) # 22050 <print_asm>
   2203c:	00003117          	auipc	sp,0x3
   22040:	fc410113          	addi	sp,sp,-60 # 25000 <stacks_start>
   22044:	000012b7          	lui	t0,0x1
   22048:	00510133          	add	sp,sp,t0
   2204c:	3c80006f          	j	22414 <kernel_main>

0000000000022050 <print_asm>:
   22050:	00008493          	mv	s1,ra
   22054:	00003517          	auipc	a0,0x3
   22058:	d6450513          	addi	a0,a0,-668 # 24db8 <boot_string>
   2205c:	23d020ef          	jal	ra,24a98 <put_string_uart>
   22060:	00048093          	mv	ra,s1
   22064:	00008067          	ret

Disassembly of section .text:

0000000000022068 <print_func_name>:
   22068:	fc010113          	addi	sp,sp,-64
   2206c:	02113c23          	sd	ra,56(sp)
   22070:	02813823          	sd	s0,48(sp)
   22074:	04010413          	addi	s0,sp,64
   22078:	fca43423          	sd	a0,-56(s0)
   2207c:	fe042623          	sw	zero,-20(s0)
   22080:	0300006f          	j	220b0 <print_func_name+0x48>
   22084:	00003717          	auipc	a4,0x3
   22088:	8b470713          	addi	a4,a4,-1868 # 24938 <func_addr>
   2208c:	fec42783          	lw	a5,-20(s0)
   22090:	00379793          	slli	a5,a5,0x3
   22094:	00f707b3          	add	a5,a4,a5
   22098:	0007b783          	ld	a5,0(a5)
   2209c:	fc843703          	ld	a4,-56(s0)
   220a0:	02f70663          	beq	a4,a5,220cc <print_func_name+0x64>
   220a4:	fec42783          	lw	a5,-20(s0)
   220a8:	0017879b          	addiw	a5,a5,1
   220ac:	fef42623          	sw	a5,-20(s0)
   220b0:	fec42703          	lw	a4,-20(s0)
   220b4:	00003797          	auipc	a5,0x3
   220b8:	8b478793          	addi	a5,a5,-1868 # 24968 <func_num_syms>
   220bc:	0007b783          	ld	a5,0(a5)
   220c0:	fcf762e3          	bltu	a4,a5,22084 <print_func_name+0x1c>
   220c4:	00000793          	li	a5,0
   220c8:	0880006f          	j	22150 <print_func_name+0xe8>
   220cc:	00000013          	nop
   220d0:	00003797          	auipc	a5,0x3
   220d4:	88078793          	addi	a5,a5,-1920 # 24950 <func_string>
   220d8:	fef43023          	sd	a5,-32(s0)
   220dc:	fec42783          	lw	a5,-20(s0)
   220e0:	0007879b          	sext.w	a5,a5
   220e4:	00079863          	bnez	a5,220f4 <print_func_name+0x8c>
   220e8:	fe043783          	ld	a5,-32(s0)
   220ec:	fcf43c23          	sd	a5,-40(s0)
   220f0:	0480006f          	j	22138 <print_func_name+0xd0>
   220f4:	fe043783          	ld	a5,-32(s0)
   220f8:	00178793          	addi	a5,a5,1
   220fc:	fef43023          	sd	a5,-32(s0)
   22100:	fe043783          	ld	a5,-32(s0)
   22104:	0007c783          	lbu	a5,0(a5)
   22108:	00079863          	bnez	a5,22118 <print_func_name+0xb0>
   2210c:	fec42783          	lw	a5,-20(s0)
   22110:	fff7879b          	addiw	a5,a5,-1
   22114:	fef42623          	sw	a5,-20(s0)
   22118:	fec42783          	lw	a5,-20(s0)
   2211c:	0007879b          	sext.w	a5,a5
   22120:	fc079ae3          	bnez	a5,220f4 <print_func_name+0x8c>
   22124:	fe043783          	ld	a5,-32(s0)
   22128:	00178793          	addi	a5,a5,1
   2212c:	fef43023          	sd	a5,-32(s0)
   22130:	fe043783          	ld	a5,-32(s0)
   22134:	fcf43c23          	sd	a5,-40(s0)
   22138:	fd843603          	ld	a2,-40(s0)
   2213c:	fc843583          	ld	a1,-56(s0)
   22140:	00003517          	auipc	a0,0x3
   22144:	99850513          	addi	a0,a0,-1640 # 24ad8 <_etext>
   22148:	254010ef          	jal	ra,2339c <printk>
   2214c:	00000793          	li	a5,0
   22150:	00078513          	mv	a0,a5
   22154:	03813083          	ld	ra,56(sp)
   22158:	03013403          	ld	s0,48(sp)
   2215c:	04010113          	addi	sp,sp,64
   22160:	00008067          	ret

0000000000022164 <asm_test>:
   22164:	fe010113          	addi	sp,sp,-32
   22168:	00113c23          	sd	ra,24(sp)
   2216c:	00813823          	sd	s0,16(sp)
   22170:	02010413          	addi	s0,sp,32
   22174:	664020ef          	jal	ra,247d8 <load_store_test>
   22178:	694020ef          	jal	ra,2480c <shift_test>
   2217c:	6d8020ef          	jal	ra,24854 <add_sub_test>
   22180:	724020ef          	jal	ra,248a4 <branch_test>
   22184:	744020ef          	jal	ra,248c8 <my_memcpy_test>
   22188:	02800613          	li	a2,40
   2218c:	05500593          	li	a1,85
   22190:	00021537          	lui	a0,0x21
   22194:	4d4000ef          	jal	ra,22668 <memset>
   22198:	00900593          	li	a1,9
   2219c:	00a00513          	li	a0,10
   221a0:	74c020ef          	jal	ra,248ec <compare_and_return>
   221a4:	fea43423          	sd	a0,-24(s0)
   221a8:	fe843783          	ld	a5,-24(s0)
   221ac:	00079863          	bnez	a5,221bc <asm_test+0x58>
   221b0:	00003517          	auipc	a0,0x3
   221b4:	93850513          	addi	a0,a0,-1736 # 24ae8 <_etext+0x10>
   221b8:	7bd010ef          	jal	ra,24174 <uart_send_string>
   221bc:	00a00593          	li	a1,10
   221c0:	00900513          	li	a0,9
   221c4:	728020ef          	jal	ra,248ec <compare_and_return>
   221c8:	fea43023          	sd	a0,-32(s0)
   221cc:	fe043703          	ld	a4,-32(s0)
   221d0:	fff00793          	li	a5,-1
   221d4:	00f71863          	bne	a4,a5,221e4 <asm_test+0x80>
   221d8:	00003517          	auipc	a0,0x3
   221dc:	91050513          	addi	a0,a0,-1776 # 24ae8 <_etext+0x10>
   221e0:	795010ef          	jal	ra,24174 <uart_send_string>
   221e4:	00900593          	li	a1,9
   221e8:	00000513          	li	a0,0
   221ec:	718020ef          	jal	ra,24904 <sel_test>
   221f0:	fea43423          	sd	a0,-24(s0)
   221f4:	00200593          	li	a1,2
   221f8:	00500513          	li	a0,5
   221fc:	708020ef          	jal	ra,24904 <sel_test>
   22200:	fea43023          	sd	a0,-32(s0)
   22204:	718020ef          	jal	ra,2491c <bl_test>
   22208:	00003517          	auipc	a0,0x3
   2220c:	90050513          	addi	a0,a0,-1792 # 24b08 <_etext+0x30>
   22210:	765010ef          	jal	ra,24174 <uart_send_string>
   22214:	00500593          	li	a1,5
   22218:	00500513          	li	a0,5
   2221c:	764020ef          	jal	ra,24980 <macro_test_1>
   22220:	fea43423          	sd	a0,-24(s0)
   22224:	fe843703          	ld	a4,-24(s0)
   22228:	00a00793          	li	a5,10
   2222c:	00f71863          	bne	a4,a5,2223c <asm_test+0xd8>
   22230:	00003517          	auipc	a0,0x3
   22234:	8f050513          	addi	a0,a0,-1808 # 24b20 <_etext+0x48>
   22238:	73d010ef          	jal	ra,24174 <uart_send_string>
   2223c:	00500593          	li	a1,5
   22240:	00500513          	li	a0,5
   22244:	764020ef          	jal	ra,249a8 <macro_test_2>
   22248:	fea43023          	sd	a0,-32(s0)
   2224c:	fe043783          	ld	a5,-32(s0)
   22250:	00079863          	bnez	a5,22260 <asm_test+0xfc>
   22254:	00003517          	auipc	a0,0x3
   22258:	8ec50513          	addi	a0,a0,-1812 # 24b40 <_etext+0x68>
   2225c:	719010ef          	jal	ra,24174 <uart_send_string>
   22260:	00000013          	nop
   22264:	01813083          	ld	ra,24(sp)
   22268:	01013403          	ld	s0,16(sp)
   2226c:	02010113          	addi	sp,sp,32
   22270:	00008067          	ret

0000000000022274 <print_mem>:
   22274:	ff010113          	addi	sp,sp,-16
   22278:	00113423          	sd	ra,8(sp)
   2227c:	00813023          	sd	s0,0(sp)
   22280:	01010413          	addi	s0,sp,16
   22284:	00003517          	auipc	a0,0x3
   22288:	8dc50513          	addi	a0,a0,-1828 # 24b60 <_etext+0x88>
   2228c:	110010ef          	jal	ra,2339c <printk>
   22290:	00000597          	auipc	a1,0x0
   22294:	d7058593          	addi	a1,a1,-656 # 22000 <_start>
   22298:	00000617          	auipc	a2,0x0
   2229c:	dd060613          	addi	a2,a2,-560 # 22068 <print_func_name>
   222a0:	00000717          	auipc	a4,0x0
   222a4:	dc870713          	addi	a4,a4,-568 # 22068 <print_func_name>
   222a8:	00000797          	auipc	a5,0x0
   222ac:	d5878793          	addi	a5,a5,-680 # 22000 <_start>
   222b0:	40f707b3          	sub	a5,a4,a5
   222b4:	00078693          	mv	a3,a5
   222b8:	00003517          	auipc	a0,0x3
   222bc:	8c050513          	addi	a0,a0,-1856 # 24b78 <_etext+0xa0>
   222c0:	0dc010ef          	jal	ra,2339c <printk>
   222c4:	00000597          	auipc	a1,0x0
   222c8:	da458593          	addi	a1,a1,-604 # 22068 <print_func_name>
   222cc:	00003617          	auipc	a2,0x3
   222d0:	80c60613          	addi	a2,a2,-2036 # 24ad8 <_etext>
   222d4:	00003717          	auipc	a4,0x3
   222d8:	80470713          	addi	a4,a4,-2044 # 24ad8 <_etext>
   222dc:	00000797          	auipc	a5,0x0
   222e0:	d8c78793          	addi	a5,a5,-628 # 22068 <print_func_name>
   222e4:	40f707b3          	sub	a5,a4,a5
   222e8:	00078693          	mv	a3,a5
   222ec:	00003517          	auipc	a0,0x3
   222f0:	8bc50513          	addi	a0,a0,-1860 # 24ba8 <_etext+0xd0>
   222f4:	0a8010ef          	jal	ra,2339c <printk>
   222f8:	00002597          	auipc	a1,0x2
   222fc:	7e058593          	addi	a1,a1,2016 # 24ad8 <_etext>
   22300:	00003617          	auipc	a2,0x3
   22304:	ac860613          	addi	a2,a2,-1336 # 24dc8 <_data>
   22308:	00003717          	auipc	a4,0x3
   2230c:	ac070713          	addi	a4,a4,-1344 # 24dc8 <_data>
   22310:	00002797          	auipc	a5,0x2
   22314:	7c878793          	addi	a5,a5,1992 # 24ad8 <_etext>
   22318:	40f707b3          	sub	a5,a4,a5
   2231c:	00078693          	mv	a3,a5
   22320:	00003517          	auipc	a0,0x3
   22324:	8b850513          	addi	a0,a0,-1864 # 24bd8 <_etext+0x100>
   22328:	074010ef          	jal	ra,2339c <printk>
   2232c:	00003597          	auipc	a1,0x3
   22330:	a9c58593          	addi	a1,a1,-1380 # 24dc8 <_data>
   22334:	00004617          	auipc	a2,0x4
   22338:	ccc60613          	addi	a2,a2,-820 # 26000 <g_record>
   2233c:	00004717          	auipc	a4,0x4
   22340:	cc470713          	addi	a4,a4,-828 # 26000 <g_record>
   22344:	00003797          	auipc	a5,0x3
   22348:	a8478793          	addi	a5,a5,-1404 # 24dc8 <_data>
   2234c:	40f707b3          	sub	a5,a4,a5
   22350:	00078693          	mv	a3,a5
   22354:	00003517          	auipc	a0,0x3
   22358:	8b450513          	addi	a0,a0,-1868 # 24c08 <_etext+0x130>
   2235c:	040010ef          	jal	ra,2339c <printk>
   22360:	00004597          	auipc	a1,0x4
   22364:	ca858593          	addi	a1,a1,-856 # 26008 <print_buf>
   22368:	00004617          	auipc	a2,0x4
   2236c:	eb060613          	addi	a2,a2,-336 # 26218 <_ebss>
   22370:	00004717          	auipc	a4,0x4
   22374:	ea870713          	addi	a4,a4,-344 # 26218 <_ebss>
   22378:	00004797          	auipc	a5,0x4
   2237c:	c9078793          	addi	a5,a5,-880 # 26008 <print_buf>
   22380:	40f707b3          	sub	a5,a4,a5
   22384:	00078693          	mv	a3,a5
   22388:	00003517          	auipc	a0,0x3
   2238c:	8b050513          	addi	a0,a0,-1872 # 24c38 <_etext+0x160>
   22390:	00c010ef          	jal	ra,2339c <printk>
   22394:	00000013          	nop
   22398:	00813083          	ld	ra,8(sp)
   2239c:	00013403          	ld	s0,0(sp)
   223a0:	01010113          	addi	sp,sp,16
   223a4:	00008067          	ret

00000000000223a8 <clean_bss>:
   223a8:	fd010113          	addi	sp,sp,-48
   223ac:	02113423          	sd	ra,40(sp)
   223b0:	02813023          	sd	s0,32(sp)
   223b4:	03010413          	addi	s0,sp,48
   223b8:	00004797          	auipc	a5,0x4
   223bc:	c5078793          	addi	a5,a5,-944 # 26008 <print_buf>
   223c0:	fef43423          	sd	a5,-24(s0)
   223c4:	00004797          	auipc	a5,0x4
   223c8:	e5478793          	addi	a5,a5,-428 # 26218 <_ebss>
   223cc:	fef43023          	sd	a5,-32(s0)
   223d0:	fe043783          	ld	a5,-32(s0)
   223d4:	0007871b          	sext.w	a4,a5
   223d8:	fe843783          	ld	a5,-24(s0)
   223dc:	0007879b          	sext.w	a5,a5
   223e0:	40f707bb          	subw	a5,a4,a5
   223e4:	fcf42e23          	sw	a5,-36(s0)
   223e8:	fe843783          	ld	a5,-24(s0)
   223ec:	fdc46703          	lwu	a4,-36(s0)
   223f0:	00070613          	mv	a2,a4
   223f4:	00000593          	li	a1,0
   223f8:	00078513          	mv	a0,a5
   223fc:	26c000ef          	jal	ra,22668 <memset>
   22400:	00000013          	nop
   22404:	02813083          	ld	ra,40(sp)
   22408:	02013403          	ld	s0,32(sp)
   2240c:	03010113          	addi	sp,sp,48
   22410:	00008067          	ret

0000000000022414 <kernel_main>:
   22414:	ff010113          	addi	sp,sp,-16
   22418:	00113423          	sd	ra,8(sp)
   2241c:	00813023          	sd	s0,0(sp)
   22420:	01010413          	addi	s0,sp,16
   22424:	f85ff0ef          	jal	ra,223a8 <clean_bss>
   22428:	1f1010ef          	jal	ra,23e18 <uart_init>
   2242c:	00003517          	auipc	a0,0x3
   22430:	83c50513          	addi	a0,a0,-1988 # 24c68 <_etext+0x190>
   22434:	541010ef          	jal	ra,24174 <uart_send_string>
   22438:	6c9000ef          	jal	ra,23300 <init_printk_done>
   2243c:	00003517          	auipc	a0,0x3
   22440:	84450513          	addi	a0,a0,-1980 # 24c80 <_etext+0x1a8>
   22444:	759000ef          	jal	ra,2339c <printk>
   22448:	d1dff0ef          	jal	ra,22164 <asm_test>
   2244c:	008017b7          	lui	a5,0x801
   22450:	88078513          	addi	a0,a5,-1920 # 800880 <TEXT_ROM+0x7d9880>
   22454:	c15ff0ef          	jal	ra,22068 <print_func_name>
   22458:	008017b7          	lui	a5,0x801
   2245c:	86078513          	addi	a0,a5,-1952 # 800860 <TEXT_ROM+0x7d9860>
   22460:	c09ff0ef          	jal	ra,22068 <print_func_name>
   22464:	008017b7          	lui	a5,0x801
   22468:	80078513          	addi	a0,a5,-2048 # 800800 <TEXT_ROM+0x7d9800>
   2246c:	bfdff0ef          	jal	ra,22068 <print_func_name>
   22470:	e05ff0ef          	jal	ra,22274 <print_mem>
   22474:	0000006f          	j	22474 <kernel_main+0x60>

0000000000022478 <__memset_1bytes>:
   22478:	fc010113          	addi	sp,sp,-64
   2247c:	02813c23          	sd	s0,56(sp)
   22480:	04010413          	addi	s0,sp,64
   22484:	fca43c23          	sd	a0,-40(s0)
   22488:	00058793          	mv	a5,a1
   2248c:	fcc43423          	sd	a2,-56(s0)
   22490:	fcf42a23          	sw	a5,-44(s0)
   22494:	fd843783          	ld	a5,-40(s0)
   22498:	fef43423          	sd	a5,-24(s0)
   2249c:	01c0006f          	j	224b8 <__memset_1bytes+0x40>
   224a0:	fe843783          	ld	a5,-24(s0)
   224a4:	00178713          	addi	a4,a5,1
   224a8:	fee43423          	sd	a4,-24(s0)
   224ac:	fd442703          	lw	a4,-44(s0)
   224b0:	0ff77713          	andi	a4,a4,255
   224b4:	00e78023          	sb	a4,0(a5)
   224b8:	fc843783          	ld	a5,-56(s0)
   224bc:	fff78713          	addi	a4,a5,-1
   224c0:	fce43423          	sd	a4,-56(s0)
   224c4:	fc079ee3          	bnez	a5,224a0 <__memset_1bytes+0x28>
   224c8:	fd843783          	ld	a5,-40(s0)
   224cc:	00078513          	mv	a0,a5
   224d0:	03813403          	ld	s0,56(sp)
   224d4:	04010113          	addi	sp,sp,64
   224d8:	00008067          	ret

00000000000224dc <__memset>:
   224dc:	f9010113          	addi	sp,sp,-112
   224e0:	06113423          	sd	ra,104(sp)
   224e4:	06813023          	sd	s0,96(sp)
   224e8:	07010413          	addi	s0,sp,112
   224ec:	faa43423          	sd	a0,-88(s0)
   224f0:	00058793          	mv	a5,a1
   224f4:	f8c43c23          	sd	a2,-104(s0)
   224f8:	faf42223          	sw	a5,-92(s0)
   224fc:	fa843783          	ld	a5,-88(s0)
   22500:	fef43423          	sd	a5,-24(s0)
   22504:	01000793          	li	a5,16
   22508:	fcf43423          	sd	a5,-56(s0)
   2250c:	f9843783          	ld	a5,-104(s0)
   22510:	fef43023          	sd	a5,-32(s0)
   22514:	fe843783          	ld	a5,-24(s0)
   22518:	fcf43023          	sd	a5,-64(s0)
   2251c:	fc043823          	sd	zero,-48(s0)
   22520:	fc042e23          	sw	zero,-36(s0)
   22524:	0340006f          	j	22558 <__memset+0x7c>
   22528:	fa442783          	lw	a5,-92(s0)
   2252c:	0ff7f793          	andi	a5,a5,255
   22530:	fdc42703          	lw	a4,-36(s0)
   22534:	0037171b          	slliw	a4,a4,0x3
   22538:	0007071b          	sext.w	a4,a4
   2253c:	00e797b3          	sll	a5,a5,a4
   22540:	fd043703          	ld	a4,-48(s0)
   22544:	00f767b3          	or	a5,a4,a5
   22548:	fcf43823          	sd	a5,-48(s0)
   2254c:	fdc42783          	lw	a5,-36(s0)
   22550:	0017879b          	addiw	a5,a5,1
   22554:	fcf42e23          	sw	a5,-36(s0)
   22558:	fdc42783          	lw	a5,-36(s0)
   2255c:	0007871b          	sext.w	a4,a5
   22560:	00700793          	li	a5,7
   22564:	fce7d2e3          	bge	a5,a4,22528 <__memset+0x4c>
   22568:	fc843783          	ld	a5,-56(s0)
   2256c:	fff78713          	addi	a4,a5,-1
   22570:	fc043783          	ld	a5,-64(s0)
   22574:	00f777b3          	and	a5,a4,a5
   22578:	04078e63          	beqz	a5,225d4 <__memset+0xf8>
   2257c:	fc843783          	ld	a5,-56(s0)
   22580:	fff78793          	addi	a5,a5,-1
   22584:	fc043703          	ld	a4,-64(s0)
   22588:	00f777b3          	and	a5,a4,a5
   2258c:	faf43c23          	sd	a5,-72(s0)
   22590:	fc843703          	ld	a4,-56(s0)
   22594:	fb843783          	ld	a5,-72(s0)
   22598:	40f707b3          	sub	a5,a4,a5
   2259c:	faf43c23          	sd	a5,-72(s0)
   225a0:	fa442783          	lw	a5,-92(s0)
   225a4:	fb843603          	ld	a2,-72(s0)
   225a8:	00078593          	mv	a1,a5
   225ac:	fe843503          	ld	a0,-24(s0)
   225b0:	ec9ff0ef          	jal	ra,22478 <__memset_1bytes>
   225b4:	fe843703          	ld	a4,-24(s0)
   225b8:	fb843783          	ld	a5,-72(s0)
   225bc:	00f707b3          	add	a5,a4,a5
   225c0:	fef43423          	sd	a5,-24(s0)
   225c4:	f9843703          	ld	a4,-104(s0)
   225c8:	fb843783          	ld	a5,-72(s0)
   225cc:	40f707b3          	sub	a5,a4,a5
   225d0:	fef43023          	sd	a5,-32(s0)
   225d4:	fe043703          	ld	a4,-32(s0)
   225d8:	fc843783          	ld	a5,-56(s0)
   225dc:	06e7fa63          	bgeu	a5,a4,22650 <__memset+0x174>
   225e0:	fe043703          	ld	a4,-32(s0)
   225e4:	fc843783          	ld	a5,-56(s0)
   225e8:	02f757b3          	divu	a5,a4,a5
   225ec:	faf42a23          	sw	a5,-76(s0)
   225f0:	fe043703          	ld	a4,-32(s0)
   225f4:	fc843783          	ld	a5,-56(s0)
   225f8:	02f777b3          	remu	a5,a4,a5
   225fc:	fef43023          	sd	a5,-32(s0)
   22600:	fb442783          	lw	a5,-76(s0)
   22604:	0047979b          	slliw	a5,a5,0x4
   22608:	0007879b          	sext.w	a5,a5
   2260c:	00078613          	mv	a2,a5
   22610:	fd043583          	ld	a1,-48(s0)
   22614:	fe843503          	ld	a0,-24(s0)
   22618:	4a4020ef          	jal	ra,24abc <__memset_16bytes_asm>
   2261c:	fe043783          	ld	a5,-32(s0)
   22620:	02078863          	beqz	a5,22650 <__memset+0x174>
   22624:	fb442783          	lw	a5,-76(s0)
   22628:	0047979b          	slliw	a5,a5,0x4
   2262c:	0007879b          	sext.w	a5,a5
   22630:	00078713          	mv	a4,a5
   22634:	fe843783          	ld	a5,-24(s0)
   22638:	00e787b3          	add	a5,a5,a4
   2263c:	fa442703          	lw	a4,-92(s0)
   22640:	fe043603          	ld	a2,-32(s0)
   22644:	00070593          	mv	a1,a4
   22648:	00078513          	mv	a0,a5
   2264c:	e2dff0ef          	jal	ra,22478 <__memset_1bytes>
   22650:	fa843783          	ld	a5,-88(s0)
   22654:	00078513          	mv	a0,a5
   22658:	06813083          	ld	ra,104(sp)
   2265c:	06013403          	ld	s0,96(sp)
   22660:	07010113          	addi	sp,sp,112
   22664:	00008067          	ret

0000000000022668 <memset>:
   22668:	fd010113          	addi	sp,sp,-48
   2266c:	02113423          	sd	ra,40(sp)
   22670:	02813023          	sd	s0,32(sp)
   22674:	03010413          	addi	s0,sp,48
   22678:	fea43423          	sd	a0,-24(s0)
   2267c:	00058793          	mv	a5,a1
   22680:	fcc43c23          	sd	a2,-40(s0)
   22684:	fef42223          	sw	a5,-28(s0)
   22688:	fe442783          	lw	a5,-28(s0)
   2268c:	fd843603          	ld	a2,-40(s0)
   22690:	00078593          	mv	a1,a5
   22694:	fe843503          	ld	a0,-24(s0)
   22698:	e45ff0ef          	jal	ra,224dc <__memset>
   2269c:	00050793          	mv	a5,a0
   226a0:	00078513          	mv	a0,a5
   226a4:	02813083          	ld	ra,40(sp)
   226a8:	02013403          	ld	s0,32(sp)
   226ac:	03010113          	addi	sp,sp,48
   226b0:	00008067          	ret

00000000000226b4 <scan_number>:
   226b4:	fd010113          	addi	sp,sp,-48
   226b8:	02813423          	sd	s0,40(sp)
   226bc:	03010413          	addi	s0,sp,48
   226c0:	fca43c23          	sd	a0,-40(s0)
   226c4:	fcb43823          	sd	a1,-48(s0)
   226c8:	fe042623          	sw	zero,-20(s0)
   226cc:	0440006f          	j	22710 <scan_number+0x5c>
   226d0:	fec42703          	lw	a4,-20(s0)
   226d4:	00070793          	mv	a5,a4
   226d8:	0027979b          	slliw	a5,a5,0x2
   226dc:	00e787bb          	addw	a5,a5,a4
   226e0:	0017979b          	slliw	a5,a5,0x1
   226e4:	fef42623          	sw	a5,-20(s0)
   226e8:	fd843783          	ld	a5,-40(s0)
   226ec:	00178713          	addi	a4,a5,1
   226f0:	fce43c23          	sd	a4,-40(s0)
   226f4:	0007c783          	lbu	a5,0(a5)
   226f8:	0007879b          	sext.w	a5,a5
   226fc:	fd07879b          	addiw	a5,a5,-48
   22700:	0007879b          	sext.w	a5,a5
   22704:	fec42703          	lw	a4,-20(s0)
   22708:	00f707bb          	addw	a5,a4,a5
   2270c:	fef42623          	sw	a5,-20(s0)
   22710:	fd843783          	ld	a5,-40(s0)
   22714:	0007c783          	lbu	a5,0(a5)
   22718:	00078713          	mv	a4,a5
   2271c:	02f00793          	li	a5,47
   22720:	00e7fc63          	bgeu	a5,a4,22738 <scan_number+0x84>
   22724:	fd843783          	ld	a5,-40(s0)
   22728:	0007c783          	lbu	a5,0(a5)
   2272c:	00078713          	mv	a4,a5
   22730:	03900793          	li	a5,57
   22734:	f8e7fee3          	bgeu	a5,a4,226d0 <scan_number+0x1c>
   22738:	fd043783          	ld	a5,-48(s0)
   2273c:	fec42703          	lw	a4,-20(s0)
   22740:	00e7a023          	sw	a4,0(a5)
   22744:	fd843783          	ld	a5,-40(s0)
   22748:	00078513          	mv	a0,a5
   2274c:	02813403          	ld	s0,40(sp)
   22750:	03010113          	addi	sp,sp,48
   22754:	00008067          	ret

0000000000022758 <number>:
   22758:	f2010113          	addi	sp,sp,-224
   2275c:	0c813c23          	sd	s0,216(sp)
   22760:	0e010413          	addi	s0,sp,224
   22764:	f2a43c23          	sd	a0,-200(s0)
   22768:	f2b43823          	sd	a1,-208(s0)
   2276c:	00060593          	mv	a1,a2
   22770:	00068613          	mv	a2,a3
   22774:	00070693          	mv	a3,a4
   22778:	00078713          	mv	a4,a5
   2277c:	00058793          	mv	a5,a1
   22780:	f2f42623          	sw	a5,-212(s0)
   22784:	00060793          	mv	a5,a2
   22788:	f2f42423          	sw	a5,-216(s0)
   2278c:	00068793          	mv	a5,a3
   22790:	f2f42223          	sw	a5,-220(s0)
   22794:	00070793          	mv	a5,a4
   22798:	f2f42023          	sw	a5,-224(s0)
   2279c:	fe0407a3          	sb	zero,-17(s0)
   227a0:	00002797          	auipc	a5,0x2
   227a4:	4f878793          	addi	a5,a5,1272 # 24c98 <_etext+0x1c0>
   227a8:	fef43023          	sd	a5,-32(s0)
   227ac:	f2042783          	lw	a5,-224(s0)
   227b0:	0407f793          	andi	a5,a5,64
   227b4:	0007879b          	sext.w	a5,a5
   227b8:	00078863          	beqz	a5,227c8 <number+0x70>
   227bc:	00002797          	auipc	a5,0x2
   227c0:	50478793          	addi	a5,a5,1284 # 24cc0 <_etext+0x1e8>
   227c4:	fef43023          	sd	a5,-32(s0)
   227c8:	f2042783          	lw	a5,-224(s0)
   227cc:	0107f793          	andi	a5,a5,16
   227d0:	0007879b          	sext.w	a5,a5
   227d4:	00078863          	beqz	a5,227e4 <number+0x8c>
   227d8:	f2042783          	lw	a5,-224(s0)
   227dc:	ffe7f793          	andi	a5,a5,-2
   227e0:	f2f42023          	sw	a5,-224(s0)
   227e4:	f2c42783          	lw	a5,-212(s0)
   227e8:	0007871b          	sext.w	a4,a5
   227ec:	00100793          	li	a5,1
   227f0:	00e7da63          	bge	a5,a4,22804 <number+0xac>
   227f4:	f2c42783          	lw	a5,-212(s0)
   227f8:	0007871b          	sext.w	a4,a5
   227fc:	02400793          	li	a5,36
   22800:	00e7d663          	bge	a5,a4,2280c <number+0xb4>
   22804:	00000793          	li	a5,0
   22808:	3400006f          	j	22b48 <number+0x3f0>
   2280c:	f2042783          	lw	a5,-224(s0)
   22810:	0017f793          	andi	a5,a5,1
   22814:	0007879b          	sext.w	a5,a5
   22818:	00078663          	beqz	a5,22824 <number+0xcc>
   2281c:	03000793          	li	a5,48
   22820:	0080006f          	j	22828 <number+0xd0>
   22824:	02000793          	li	a5,32
   22828:	fcf40da3          	sb	a5,-37(s0)
   2282c:	f2042783          	lw	a5,-224(s0)
   22830:	0027f793          	andi	a5,a5,2
   22834:	0007879b          	sext.w	a5,a5
   22838:	06078c63          	beqz	a5,228b0 <number+0x158>
   2283c:	f3043783          	ld	a5,-208(s0)
   22840:	fcf43823          	sd	a5,-48(s0)
   22844:	fd043783          	ld	a5,-48(s0)
   22848:	0007de63          	bgez	a5,22864 <number+0x10c>
   2284c:	02d00793          	li	a5,45
   22850:	fef407a3          	sb	a5,-17(s0)
   22854:	fd043783          	ld	a5,-48(s0)
   22858:	40f007b3          	neg	a5,a5
   2285c:	f2f43823          	sd	a5,-208(s0)
   22860:	0500006f          	j	228b0 <number+0x158>
   22864:	f2042783          	lw	a5,-224(s0)
   22868:	0047f793          	andi	a5,a5,4
   2286c:	0007879b          	sext.w	a5,a5
   22870:	00078e63          	beqz	a5,2288c <number+0x134>
   22874:	02b00793          	li	a5,43
   22878:	fef407a3          	sb	a5,-17(s0)
   2287c:	f2842783          	lw	a5,-216(s0)
   22880:	fff7879b          	addiw	a5,a5,-1
   22884:	f2f42423          	sw	a5,-216(s0)
   22888:	0280006f          	j	228b0 <number+0x158>
   2288c:	f2042783          	lw	a5,-224(s0)
   22890:	0087f793          	andi	a5,a5,8
   22894:	0007879b          	sext.w	a5,a5
   22898:	00078c63          	beqz	a5,228b0 <number+0x158>
   2289c:	02000793          	li	a5,32
   228a0:	fef407a3          	sb	a5,-17(s0)
   228a4:	f2842783          	lw	a5,-216(s0)
   228a8:	fff7879b          	addiw	a5,a5,-1
   228ac:	f2f42423          	sw	a5,-216(s0)
   228b0:	f2042783          	lw	a5,-224(s0)
   228b4:	0207f793          	andi	a5,a5,32
   228b8:	0007879b          	sext.w	a5,a5
   228bc:	04078063          	beqz	a5,228fc <number+0x1a4>
   228c0:	f2c42783          	lw	a5,-212(s0)
   228c4:	0007871b          	sext.w	a4,a5
   228c8:	01000793          	li	a5,16
   228cc:	00f71a63          	bne	a4,a5,228e0 <number+0x188>
   228d0:	f2842783          	lw	a5,-216(s0)
   228d4:	ffe7879b          	addiw	a5,a5,-2
   228d8:	f2f42423          	sw	a5,-216(s0)
   228dc:	0200006f          	j	228fc <number+0x1a4>
   228e0:	f2c42783          	lw	a5,-212(s0)
   228e4:	0007871b          	sext.w	a4,a5
   228e8:	00800793          	li	a5,8
   228ec:	00f71863          	bne	a4,a5,228fc <number+0x1a4>
   228f0:	f2842783          	lw	a5,-216(s0)
   228f4:	fff7879b          	addiw	a5,a5,-1
   228f8:	f2f42423          	sw	a5,-216(s0)
   228fc:	fc042e23          	sw	zero,-36(s0)
   22900:	f3043783          	ld	a5,-208(s0)
   22904:	06079e63          	bnez	a5,22980 <number+0x228>
   22908:	fdc42783          	lw	a5,-36(s0)
   2290c:	0017871b          	addiw	a4,a5,1
   22910:	fce42e23          	sw	a4,-36(s0)
   22914:	ff040713          	addi	a4,s0,-16
   22918:	00f707b3          	add	a5,a4,a5
   2291c:	03000713          	li	a4,48
   22920:	f4e78c23          	sb	a4,-168(a5)
   22924:	0640006f          	j	22988 <number+0x230>
   22928:	f2c42783          	lw	a5,-212(s0)
   2292c:	fcf42623          	sw	a5,-52(s0)
   22930:	fcc46783          	lwu	a5,-52(s0)
   22934:	f3043703          	ld	a4,-208(s0)
   22938:	02f777b3          	remu	a5,a4,a5
   2293c:	fcf42423          	sw	a5,-56(s0)
   22940:	fcc46783          	lwu	a5,-52(s0)
   22944:	f3043703          	ld	a4,-208(s0)
   22948:	02f757b3          	divu	a5,a4,a5
   2294c:	f2f43823          	sd	a5,-208(s0)
   22950:	fc842783          	lw	a5,-56(s0)
   22954:	02079793          	slli	a5,a5,0x20
   22958:	0207d793          	srli	a5,a5,0x20
   2295c:	fe043703          	ld	a4,-32(s0)
   22960:	00f70733          	add	a4,a4,a5
   22964:	fdc42783          	lw	a5,-36(s0)
   22968:	0017869b          	addiw	a3,a5,1
   2296c:	fcd42e23          	sw	a3,-36(s0)
   22970:	00074703          	lbu	a4,0(a4)
   22974:	ff040693          	addi	a3,s0,-16
   22978:	00f687b3          	add	a5,a3,a5
   2297c:	f4e78c23          	sb	a4,-168(a5)
   22980:	f3043783          	ld	a5,-208(s0)
   22984:	fa0792e3          	bnez	a5,22928 <number+0x1d0>
   22988:	fdc42703          	lw	a4,-36(s0)
   2298c:	f2442783          	lw	a5,-220(s0)
   22990:	0007071b          	sext.w	a4,a4
   22994:	0007879b          	sext.w	a5,a5
   22998:	00e7d663          	bge	a5,a4,229a4 <number+0x24c>
   2299c:	fdc42783          	lw	a5,-36(s0)
   229a0:	f2f42223          	sw	a5,-220(s0)
   229a4:	f2842703          	lw	a4,-216(s0)
   229a8:	f2442783          	lw	a5,-220(s0)
   229ac:	40f707bb          	subw	a5,a4,a5
   229b0:	f2f42423          	sw	a5,-216(s0)
   229b4:	f2042783          	lw	a5,-224(s0)
   229b8:	0117f793          	andi	a5,a5,17
   229bc:	0007879b          	sext.w	a5,a5
   229c0:	02079663          	bnez	a5,229ec <number+0x294>
   229c4:	0180006f          	j	229dc <number+0x284>
   229c8:	f3843783          	ld	a5,-200(s0)
   229cc:	00178713          	addi	a4,a5,1
   229d0:	f2e43c23          	sd	a4,-200(s0)
   229d4:	02000713          	li	a4,32
   229d8:	00e78023          	sb	a4,0(a5)
   229dc:	f2842783          	lw	a5,-216(s0)
   229e0:	fff7871b          	addiw	a4,a5,-1
   229e4:	f2e42423          	sw	a4,-216(s0)
   229e8:	fef040e3          	bgtz	a5,229c8 <number+0x270>
   229ec:	fef44783          	lbu	a5,-17(s0)
   229f0:	0ff7f793          	andi	a5,a5,255
   229f4:	00078c63          	beqz	a5,22a0c <number+0x2b4>
   229f8:	f3843783          	ld	a5,-200(s0)
   229fc:	00178713          	addi	a4,a5,1
   22a00:	f2e43c23          	sd	a4,-200(s0)
   22a04:	fef44703          	lbu	a4,-17(s0)
   22a08:	00e78023          	sb	a4,0(a5)
   22a0c:	f2042783          	lw	a5,-224(s0)
   22a10:	0207f793          	andi	a5,a5,32
   22a14:	0007879b          	sext.w	a5,a5
   22a18:	06078463          	beqz	a5,22a80 <number+0x328>
   22a1c:	f2c42783          	lw	a5,-212(s0)
   22a20:	0007871b          	sext.w	a4,a5
   22a24:	00800793          	li	a5,8
   22a28:	00f71e63          	bne	a4,a5,22a44 <number+0x2ec>
   22a2c:	f3843783          	ld	a5,-200(s0)
   22a30:	00178713          	addi	a4,a5,1
   22a34:	f2e43c23          	sd	a4,-200(s0)
   22a38:	03000713          	li	a4,48
   22a3c:	00e78023          	sb	a4,0(a5)
   22a40:	0400006f          	j	22a80 <number+0x328>
   22a44:	f2c42783          	lw	a5,-212(s0)
   22a48:	0007871b          	sext.w	a4,a5
   22a4c:	01000793          	li	a5,16
   22a50:	02f71863          	bne	a4,a5,22a80 <number+0x328>
   22a54:	f3843783          	ld	a5,-200(s0)
   22a58:	00178713          	addi	a4,a5,1
   22a5c:	f2e43c23          	sd	a4,-200(s0)
   22a60:	03000713          	li	a4,48
   22a64:	00e78023          	sb	a4,0(a5)
   22a68:	f3843783          	ld	a5,-200(s0)
   22a6c:	00178713          	addi	a4,a5,1
   22a70:	f2e43c23          	sd	a4,-200(s0)
   22a74:	fe043703          	ld	a4,-32(s0)
   22a78:	02174703          	lbu	a4,33(a4)
   22a7c:	00e78023          	sb	a4,0(a5)
   22a80:	f2042783          	lw	a5,-224(s0)
   22a84:	0107f793          	andi	a5,a5,16
   22a88:	0007879b          	sext.w	a5,a5
   22a8c:	04079263          	bnez	a5,22ad0 <number+0x378>
   22a90:	0180006f          	j	22aa8 <number+0x350>
   22a94:	f3843783          	ld	a5,-200(s0)
   22a98:	00178713          	addi	a4,a5,1
   22a9c:	f2e43c23          	sd	a4,-200(s0)
   22aa0:	fdb44703          	lbu	a4,-37(s0)
   22aa4:	00e78023          	sb	a4,0(a5)
   22aa8:	f2842783          	lw	a5,-216(s0)
   22aac:	fff7871b          	addiw	a4,a5,-1
   22ab0:	f2e42423          	sw	a4,-216(s0)
   22ab4:	fef040e3          	bgtz	a5,22a94 <number+0x33c>
   22ab8:	0180006f          	j	22ad0 <number+0x378>
   22abc:	f3843783          	ld	a5,-200(s0)
   22ac0:	00178713          	addi	a4,a5,1
   22ac4:	f2e43c23          	sd	a4,-200(s0)
   22ac8:	03000713          	li	a4,48
   22acc:	00e78023          	sb	a4,0(a5)
   22ad0:	f2442783          	lw	a5,-220(s0)
   22ad4:	fff7871b          	addiw	a4,a5,-1
   22ad8:	f2e42223          	sw	a4,-220(s0)
   22adc:	fdc42703          	lw	a4,-36(s0)
   22ae0:	0007071b          	sext.w	a4,a4
   22ae4:	fcf74ce3          	blt	a4,a5,22abc <number+0x364>
   22ae8:	0240006f          	j	22b0c <number+0x3b4>
   22aec:	f3843783          	ld	a5,-200(s0)
   22af0:	00178713          	addi	a4,a5,1
   22af4:	f2e43c23          	sd	a4,-200(s0)
   22af8:	fdc42703          	lw	a4,-36(s0)
   22afc:	ff040693          	addi	a3,s0,-16
   22b00:	00e68733          	add	a4,a3,a4
   22b04:	f5874703          	lbu	a4,-168(a4)
   22b08:	00e78023          	sb	a4,0(a5)
   22b0c:	fdc42783          	lw	a5,-36(s0)
   22b10:	fff7871b          	addiw	a4,a5,-1
   22b14:	fce42e23          	sw	a4,-36(s0)
   22b18:	fcf04ae3          	bgtz	a5,22aec <number+0x394>
   22b1c:	0180006f          	j	22b34 <number+0x3dc>
   22b20:	f3843783          	ld	a5,-200(s0)
   22b24:	00178713          	addi	a4,a5,1
   22b28:	f2e43c23          	sd	a4,-200(s0)
   22b2c:	02000713          	li	a4,32
   22b30:	00e78023          	sb	a4,0(a5)
   22b34:	f2842783          	lw	a5,-216(s0)
   22b38:	fff7871b          	addiw	a4,a5,-1
   22b3c:	f2e42423          	sw	a4,-216(s0)
   22b40:	fef040e3          	bgtz	a5,22b20 <number+0x3c8>
   22b44:	f3843783          	ld	a5,-200(s0)
   22b48:	00078513          	mv	a0,a5
   22b4c:	0d813403          	ld	s0,216(sp)
   22b50:	0e010113          	addi	sp,sp,224
   22b54:	00008067          	ret

0000000000022b58 <myprintf>:
   22b58:	f9010113          	addi	sp,sp,-112
   22b5c:	06113423          	sd	ra,104(sp)
   22b60:	06813023          	sd	s0,96(sp)
   22b64:	07010413          	addi	s0,sp,112
   22b68:	faa43423          	sd	a0,-88(s0)
   22b6c:	00058793          	mv	a5,a1
   22b70:	f8c43c23          	sd	a2,-104(s0)
   22b74:	f8d43823          	sd	a3,-112(s0)
   22b78:	faf42223          	sw	a5,-92(s0)
   22b7c:	fa843783          	ld	a5,-88(s0)
   22b80:	fef43423          	sd	a5,-24(s0)
   22b84:	7440006f          	j	232c8 <myprintf+0x770>
   22b88:	f9843783          	ld	a5,-104(s0)
   22b8c:	0007c783          	lbu	a5,0(a5)
   22b90:	00078713          	mv	a4,a5
   22b94:	02500793          	li	a5,37
   22b98:	02f70063          	beq	a4,a5,22bb8 <myprintf+0x60>
   22b9c:	fe843783          	ld	a5,-24(s0)
   22ba0:	00178713          	addi	a4,a5,1
   22ba4:	fee43423          	sd	a4,-24(s0)
   22ba8:	f9843703          	ld	a4,-104(s0)
   22bac:	00074703          	lbu	a4,0(a4)
   22bb0:	00e78023          	sb	a4,0(a5)
   22bb4:	7080006f          	j	232bc <myprintf+0x764>
   22bb8:	fe042223          	sw	zero,-28(s0)
   22bbc:	f9843783          	ld	a5,-104(s0)
   22bc0:	00178793          	addi	a5,a5,1
   22bc4:	f8f43c23          	sd	a5,-104(s0)
   22bc8:	f9843783          	ld	a5,-104(s0)
   22bcc:	0007c783          	lbu	a5,0(a5)
   22bd0:	0007879b          	sext.w	a5,a5
   22bd4:	fe07869b          	addiw	a3,a5,-32
   22bd8:	0006871b          	sext.w	a4,a3
   22bdc:	01000793          	li	a5,16
   22be0:	08e7e263          	bltu	a5,a4,22c64 <myprintf+0x10c>
   22be4:	02069793          	slli	a5,a3,0x20
   22be8:	0207d793          	srli	a5,a5,0x20
   22bec:	00279713          	slli	a4,a5,0x2
   22bf0:	00002797          	auipc	a5,0x2
   22bf4:	10078793          	addi	a5,a5,256 # 24cf0 <_etext+0x218>
   22bf8:	00f707b3          	add	a5,a4,a5
   22bfc:	0007a783          	lw	a5,0(a5)
   22c00:	0007871b          	sext.w	a4,a5
   22c04:	00002797          	auipc	a5,0x2
   22c08:	0ec78793          	addi	a5,a5,236 # 24cf0 <_etext+0x218>
   22c0c:	00f707b3          	add	a5,a4,a5
   22c10:	00078067          	jr	a5
   22c14:	fe442783          	lw	a5,-28(s0)
   22c18:	0107e793          	ori	a5,a5,16
   22c1c:	fef42223          	sw	a5,-28(s0)
   22c20:	f9dff06f          	j	22bbc <myprintf+0x64>
   22c24:	fe442783          	lw	a5,-28(s0)
   22c28:	0047e793          	ori	a5,a5,4
   22c2c:	fef42223          	sw	a5,-28(s0)
   22c30:	f8dff06f          	j	22bbc <myprintf+0x64>
   22c34:	fe442783          	lw	a5,-28(s0)
   22c38:	0087e793          	ori	a5,a5,8
   22c3c:	fef42223          	sw	a5,-28(s0)
   22c40:	f7dff06f          	j	22bbc <myprintf+0x64>
   22c44:	fe442783          	lw	a5,-28(s0)
   22c48:	0207e793          	ori	a5,a5,32
   22c4c:	fef42223          	sw	a5,-28(s0)
   22c50:	f6dff06f          	j	22bbc <myprintf+0x64>
   22c54:	fe442783          	lw	a5,-28(s0)
   22c58:	0017e793          	ori	a5,a5,1
   22c5c:	fef42223          	sw	a5,-28(s0)
   22c60:	f5dff06f          	j	22bbc <myprintf+0x64>
   22c64:	fff00793          	li	a5,-1
   22c68:	faf42a23          	sw	a5,-76(s0)
   22c6c:	f9843783          	ld	a5,-104(s0)
   22c70:	0007c783          	lbu	a5,0(a5)
   22c74:	00078713          	mv	a4,a5
   22c78:	02f00793          	li	a5,47
   22c7c:	02e7f863          	bgeu	a5,a4,22cac <myprintf+0x154>
   22c80:	f9843783          	ld	a5,-104(s0)
   22c84:	0007c783          	lbu	a5,0(a5)
   22c88:	00078713          	mv	a4,a5
   22c8c:	03900793          	li	a5,57
   22c90:	00e7ee63          	bltu	a5,a4,22cac <myprintf+0x154>
   22c94:	fb440793          	addi	a5,s0,-76
   22c98:	00078593          	mv	a1,a5
   22c9c:	f9843503          	ld	a0,-104(s0)
   22ca0:	a15ff0ef          	jal	ra,226b4 <scan_number>
   22ca4:	f8a43c23          	sd	a0,-104(s0)
   22ca8:	0500006f          	j	22cf8 <myprintf+0x1a0>
   22cac:	f9843783          	ld	a5,-104(s0)
   22cb0:	0007c783          	lbu	a5,0(a5)
   22cb4:	00078713          	mv	a4,a5
   22cb8:	02a00793          	li	a5,42
   22cbc:	02f71e63          	bne	a4,a5,22cf8 <myprintf+0x1a0>
   22cc0:	f9043783          	ld	a5,-112(s0)
   22cc4:	00878713          	addi	a4,a5,8
   22cc8:	f8e43823          	sd	a4,-112(s0)
   22ccc:	0007a783          	lw	a5,0(a5)
   22cd0:	faf42a23          	sw	a5,-76(s0)
   22cd4:	fb442783          	lw	a5,-76(s0)
   22cd8:	0207d063          	bgez	a5,22cf8 <myprintf+0x1a0>
   22cdc:	fb442783          	lw	a5,-76(s0)
   22ce0:	40f007bb          	negw	a5,a5
   22ce4:	0007879b          	sext.w	a5,a5
   22ce8:	faf42a23          	sw	a5,-76(s0)
   22cec:	fe442783          	lw	a5,-28(s0)
   22cf0:	0107e793          	ori	a5,a5,16
   22cf4:	fef42223          	sw	a5,-28(s0)
   22cf8:	fff00793          	li	a5,-1
   22cfc:	faf42823          	sw	a5,-80(s0)
   22d00:	f9843783          	ld	a5,-104(s0)
   22d04:	0007c783          	lbu	a5,0(a5)
   22d08:	00078713          	mv	a4,a5
   22d0c:	02e00793          	li	a5,46
   22d10:	08f71263          	bne	a4,a5,22d94 <myprintf+0x23c>
   22d14:	f9843783          	ld	a5,-104(s0)
   22d18:	00178793          	addi	a5,a5,1
   22d1c:	f8f43c23          	sd	a5,-104(s0)
   22d20:	f9843783          	ld	a5,-104(s0)
   22d24:	0007c783          	lbu	a5,0(a5)
   22d28:	00078713          	mv	a4,a5
   22d2c:	02f00793          	li	a5,47
   22d30:	02e7f863          	bgeu	a5,a4,22d60 <myprintf+0x208>
   22d34:	f9843783          	ld	a5,-104(s0)
   22d38:	0007c783          	lbu	a5,0(a5)
   22d3c:	00078713          	mv	a4,a5
   22d40:	03900793          	li	a5,57
   22d44:	00e7ee63          	bltu	a5,a4,22d60 <myprintf+0x208>
   22d48:	fb040793          	addi	a5,s0,-80
   22d4c:	00078593          	mv	a1,a5
   22d50:	f9843503          	ld	a0,-104(s0)
   22d54:	961ff0ef          	jal	ra,226b4 <scan_number>
   22d58:	f8a43c23          	sd	a0,-104(s0)
   22d5c:	02c0006f          	j	22d88 <myprintf+0x230>
   22d60:	f9843783          	ld	a5,-104(s0)
   22d64:	0007c783          	lbu	a5,0(a5)
   22d68:	00078713          	mv	a4,a5
   22d6c:	02a00793          	li	a5,42
   22d70:	00f71c63          	bne	a4,a5,22d88 <myprintf+0x230>
   22d74:	f9043783          	ld	a5,-112(s0)
   22d78:	00878713          	addi	a4,a5,8
   22d7c:	f8e43823          	sd	a4,-112(s0)
   22d80:	0007a783          	lw	a5,0(a5)
   22d84:	faf42823          	sw	a5,-80(s0)
   22d88:	fb042783          	lw	a5,-80(s0)
   22d8c:	0007d463          	bgez	a5,22d94 <myprintf+0x23c>
   22d90:	fa042823          	sw	zero,-80(s0)
   22d94:	fff00793          	li	a5,-1
   22d98:	fef42023          	sw	a5,-32(s0)
   22d9c:	f9843783          	ld	a5,-104(s0)
   22da0:	0007c783          	lbu	a5,0(a5)
   22da4:	00078713          	mv	a4,a5
   22da8:	06800793          	li	a5,104
   22dac:	02f70663          	beq	a4,a5,22dd8 <myprintf+0x280>
   22db0:	f9843783          	ld	a5,-104(s0)
   22db4:	0007c783          	lbu	a5,0(a5)
   22db8:	00078713          	mv	a4,a5
   22dbc:	06c00793          	li	a5,108
   22dc0:	00f70c63          	beq	a4,a5,22dd8 <myprintf+0x280>
   22dc4:	f9843783          	ld	a5,-104(s0)
   22dc8:	0007c783          	lbu	a5,0(a5)
   22dcc:	00078713          	mv	a4,a5
   22dd0:	04c00793          	li	a5,76
   22dd4:	04f71a63          	bne	a4,a5,22e28 <myprintf+0x2d0>
   22dd8:	f9843783          	ld	a5,-104(s0)
   22ddc:	0007c783          	lbu	a5,0(a5)
   22de0:	fef42023          	sw	a5,-32(s0)
   22de4:	f9843783          	ld	a5,-104(s0)
   22de8:	00178793          	addi	a5,a5,1
   22dec:	f8f43c23          	sd	a5,-104(s0)
   22df0:	fe042783          	lw	a5,-32(s0)
   22df4:	0007871b          	sext.w	a4,a5
   22df8:	06c00793          	li	a5,108
   22dfc:	02f71663          	bne	a4,a5,22e28 <myprintf+0x2d0>
   22e00:	f9843783          	ld	a5,-104(s0)
   22e04:	0007c783          	lbu	a5,0(a5)
   22e08:	00078713          	mv	a4,a5
   22e0c:	06c00793          	li	a5,108
   22e10:	00f71c63          	bne	a4,a5,22e28 <myprintf+0x2d0>
   22e14:	04c00793          	li	a5,76
   22e18:	fef42023          	sw	a5,-32(s0)
   22e1c:	f9843783          	ld	a5,-104(s0)
   22e20:	00178793          	addi	a5,a5,1
   22e24:	f8f43c23          	sd	a5,-104(s0)
   22e28:	f9843783          	ld	a5,-104(s0)
   22e2c:	0007c783          	lbu	a5,0(a5)
   22e30:	0007879b          	sext.w	a5,a5
   22e34:	fa87869b          	addiw	a3,a5,-88
   22e38:	0006871b          	sext.w	a4,a3
   22e3c:	02000793          	li	a5,32
   22e40:	2ae7ec63          	bltu	a5,a4,230f8 <myprintf+0x5a0>
   22e44:	02069793          	slli	a5,a3,0x20
   22e48:	0207d793          	srli	a5,a5,0x20
   22e4c:	00279713          	slli	a4,a5,0x2
   22e50:	00002797          	auipc	a5,0x2
   22e54:	ee478793          	addi	a5,a5,-284 # 24d34 <_etext+0x25c>
   22e58:	00f707b3          	add	a5,a4,a5
   22e5c:	0007a783          	lw	a5,0(a5)
   22e60:	0007871b          	sext.w	a4,a5
   22e64:	00002797          	auipc	a5,0x2
   22e68:	ed078793          	addi	a5,a5,-304 # 24d34 <_etext+0x25c>
   22e6c:	00f707b3          	add	a5,a4,a5
   22e70:	00078067          	jr	a5
   22e74:	fe442783          	lw	a5,-28(s0)
   22e78:	0107f793          	andi	a5,a5,16
   22e7c:	0007879b          	sext.w	a5,a5
   22e80:	02079a63          	bnez	a5,22eb4 <myprintf+0x35c>
   22e84:	0180006f          	j	22e9c <myprintf+0x344>
   22e88:	fe843783          	ld	a5,-24(s0)
   22e8c:	00178713          	addi	a4,a5,1
   22e90:	fee43423          	sd	a4,-24(s0)
   22e94:	02000713          	li	a4,32
   22e98:	00e78023          	sb	a4,0(a5)
   22e9c:	fb442783          	lw	a5,-76(s0)
   22ea0:	fff7879b          	addiw	a5,a5,-1
   22ea4:	0007879b          	sext.w	a5,a5
   22ea8:	faf42a23          	sw	a5,-76(s0)
   22eac:	fb442783          	lw	a5,-76(s0)
   22eb0:	fcf04ce3          	bgtz	a5,22e88 <myprintf+0x330>
   22eb4:	f9043783          	ld	a5,-112(s0)
   22eb8:	00878713          	addi	a4,a5,8
   22ebc:	f8e43823          	sd	a4,-112(s0)
   22ec0:	0007a683          	lw	a3,0(a5)
   22ec4:	fe843783          	ld	a5,-24(s0)
   22ec8:	00178713          	addi	a4,a5,1
   22ecc:	fee43423          	sd	a4,-24(s0)
   22ed0:	0ff6f713          	andi	a4,a3,255
   22ed4:	00e78023          	sb	a4,0(a5)
   22ed8:	0180006f          	j	22ef0 <myprintf+0x398>
   22edc:	fe843783          	ld	a5,-24(s0)
   22ee0:	00178713          	addi	a4,a5,1
   22ee4:	fee43423          	sd	a4,-24(s0)
   22ee8:	02000713          	li	a4,32
   22eec:	00e78023          	sb	a4,0(a5)
   22ef0:	fb442783          	lw	a5,-76(s0)
   22ef4:	fff7879b          	addiw	a5,a5,-1
   22ef8:	0007879b          	sext.w	a5,a5
   22efc:	faf42a23          	sw	a5,-76(s0)
   22f00:	fb442783          	lw	a5,-76(s0)
   22f04:	fcf04ce3          	bgtz	a5,22edc <myprintf+0x384>
   22f08:	3b40006f          	j	232bc <myprintf+0x764>
   22f0c:	f9043783          	ld	a5,-112(s0)
   22f10:	00878713          	addi	a4,a5,8
   22f14:	f8e43823          	sd	a4,-112(s0)
   22f18:	0007b783          	ld	a5,0(a5)
   22f1c:	fcf43c23          	sd	a5,-40(s0)
   22f20:	fd843783          	ld	a5,-40(s0)
   22f24:	00079863          	bnez	a5,22f34 <myprintf+0x3dc>
   22f28:	00002797          	auipc	a5,0x2
   22f2c:	dc078793          	addi	a5,a5,-576 # 24ce8 <_etext+0x210>
   22f30:	fcf43c23          	sd	a5,-40(s0)
   22f34:	fd843503          	ld	a0,-40(s0)
   22f38:	5e4000ef          	jal	ra,2351c <strlen>
   22f3c:	00050793          	mv	a5,a0
   22f40:	fcf42823          	sw	a5,-48(s0)
   22f44:	fb042783          	lw	a5,-80(s0)
   22f48:	0007d863          	bgez	a5,22f58 <myprintf+0x400>
   22f4c:	fd042783          	lw	a5,-48(s0)
   22f50:	faf42823          	sw	a5,-80(s0)
   22f54:	01c0006f          	j	22f70 <myprintf+0x418>
   22f58:	fb042703          	lw	a4,-80(s0)
   22f5c:	fd042783          	lw	a5,-48(s0)
   22f60:	0007879b          	sext.w	a5,a5
   22f64:	00f75663          	bge	a4,a5,22f70 <myprintf+0x418>
   22f68:	fb042783          	lw	a5,-80(s0)
   22f6c:	fcf42823          	sw	a5,-48(s0)
   22f70:	fe442783          	lw	a5,-28(s0)
   22f74:	0107f793          	andi	a5,a5,16
   22f78:	0007879b          	sext.w	a5,a5
   22f7c:	02079c63          	bnez	a5,22fb4 <myprintf+0x45c>
   22f80:	0180006f          	j	22f98 <myprintf+0x440>
   22f84:	fe843783          	ld	a5,-24(s0)
   22f88:	00178713          	addi	a4,a5,1
   22f8c:	fee43423          	sd	a4,-24(s0)
   22f90:	02000713          	li	a4,32
   22f94:	00e78023          	sb	a4,0(a5)
   22f98:	fb442783          	lw	a5,-76(s0)
   22f9c:	fff7871b          	addiw	a4,a5,-1
   22fa0:	0007071b          	sext.w	a4,a4
   22fa4:	fae42a23          	sw	a4,-76(s0)
   22fa8:	fd042703          	lw	a4,-48(s0)
   22fac:	0007071b          	sext.w	a4,a4
   22fb0:	fcf74ae3          	blt	a4,a5,22f84 <myprintf+0x42c>
   22fb4:	fc042a23          	sw	zero,-44(s0)
   22fb8:	0300006f          	j	22fe8 <myprintf+0x490>
   22fbc:	fd843703          	ld	a4,-40(s0)
   22fc0:	00170793          	addi	a5,a4,1
   22fc4:	fcf43c23          	sd	a5,-40(s0)
   22fc8:	fe843783          	ld	a5,-24(s0)
   22fcc:	00178693          	addi	a3,a5,1
   22fd0:	fed43423          	sd	a3,-24(s0)
   22fd4:	00074703          	lbu	a4,0(a4)
   22fd8:	00e78023          	sb	a4,0(a5)
   22fdc:	fd442783          	lw	a5,-44(s0)
   22fe0:	0017879b          	addiw	a5,a5,1
   22fe4:	fcf42a23          	sw	a5,-44(s0)
   22fe8:	fd442703          	lw	a4,-44(s0)
   22fec:	fd042783          	lw	a5,-48(s0)
   22ff0:	0007071b          	sext.w	a4,a4
   22ff4:	0007879b          	sext.w	a5,a5
   22ff8:	fcf742e3          	blt	a4,a5,22fbc <myprintf+0x464>
   22ffc:	0180006f          	j	23014 <myprintf+0x4bc>
   23000:	fe843783          	ld	a5,-24(s0)
   23004:	00178713          	addi	a4,a5,1
   23008:	fee43423          	sd	a4,-24(s0)
   2300c:	02000713          	li	a4,32
   23010:	00e78023          	sb	a4,0(a5)
   23014:	fb442783          	lw	a5,-76(s0)
   23018:	fff7871b          	addiw	a4,a5,-1
   2301c:	0007071b          	sext.w	a4,a4
   23020:	fae42a23          	sw	a4,-76(s0)
   23024:	fd042703          	lw	a4,-48(s0)
   23028:	0007071b          	sext.w	a4,a4
   2302c:	fcf74ae3          	blt	a4,a5,23000 <myprintf+0x4a8>
   23030:	28c0006f          	j	232bc <myprintf+0x764>
   23034:	f9043783          	ld	a5,-112(s0)
   23038:	00878713          	addi	a4,a5,8
   2303c:	f8e43823          	sd	a4,-112(s0)
   23040:	0007b783          	ld	a5,0(a5)
   23044:	faf43c23          	sd	a5,-72(s0)
   23048:	fe843703          	ld	a4,-24(s0)
   2304c:	fa843783          	ld	a5,-88(s0)
   23050:	40f707b3          	sub	a5,a4,a5
   23054:	0ff7f713          	andi	a4,a5,255
   23058:	fb843783          	ld	a5,-72(s0)
   2305c:	00e78023          	sb	a4,0(a5)
   23060:	25c0006f          	j	232bc <myprintf+0x764>
   23064:	fb442783          	lw	a5,-76(s0)
   23068:	00078713          	mv	a4,a5
   2306c:	fff00793          	li	a5,-1
   23070:	00f71c63          	bne	a4,a5,23088 <myprintf+0x530>
   23074:	01000793          	li	a5,16
   23078:	faf42a23          	sw	a5,-76(s0)
   2307c:	fe442783          	lw	a5,-28(s0)
   23080:	0017e793          	ori	a5,a5,1
   23084:	fef42223          	sw	a5,-28(s0)
   23088:	f9043783          	ld	a5,-112(s0)
   2308c:	00878713          	addi	a4,a5,8
   23090:	f8e43823          	sd	a4,-112(s0)
   23094:	0007b783          	ld	a5,0(a5)
   23098:	00078593          	mv	a1,a5
   2309c:	fb442683          	lw	a3,-76(s0)
   230a0:	fb042703          	lw	a4,-80(s0)
   230a4:	fe442783          	lw	a5,-28(s0)
   230a8:	01000613          	li	a2,16
   230ac:	fe843503          	ld	a0,-24(s0)
   230b0:	ea8ff0ef          	jal	ra,22758 <number>
   230b4:	fea43423          	sd	a0,-24(s0)
   230b8:	2040006f          	j	232bc <myprintf+0x764>
   230bc:	00800793          	li	a5,8
   230c0:	fcf42223          	sw	a5,-60(s0)
   230c4:	0940006f          	j	23158 <myprintf+0x600>
   230c8:	fe442783          	lw	a5,-28(s0)
   230cc:	0407e793          	ori	a5,a5,64
   230d0:	fef42223          	sw	a5,-28(s0)
   230d4:	01000793          	li	a5,16
   230d8:	fcf42223          	sw	a5,-60(s0)
   230dc:	07c0006f          	j	23158 <myprintf+0x600>
   230e0:	fe442783          	lw	a5,-28(s0)
   230e4:	0027e793          	ori	a5,a5,2
   230e8:	fef42223          	sw	a5,-28(s0)
   230ec:	00a00793          	li	a5,10
   230f0:	fcf42223          	sw	a5,-60(s0)
   230f4:	0640006f          	j	23158 <myprintf+0x600>
   230f8:	f9843783          	ld	a5,-104(s0)
   230fc:	0007c783          	lbu	a5,0(a5)
   23100:	00078713          	mv	a4,a5
   23104:	02500793          	li	a5,37
   23108:	00f70c63          	beq	a4,a5,23120 <myprintf+0x5c8>
   2310c:	fe843783          	ld	a5,-24(s0)
   23110:	00178713          	addi	a4,a5,1
   23114:	fee43423          	sd	a4,-24(s0)
   23118:	02500713          	li	a4,37
   2311c:	00e78023          	sb	a4,0(a5)
   23120:	f9843783          	ld	a5,-104(s0)
   23124:	0007c783          	lbu	a5,0(a5)
   23128:	02078063          	beqz	a5,23148 <myprintf+0x5f0>
   2312c:	fe843783          	ld	a5,-24(s0)
   23130:	00178713          	addi	a4,a5,1
   23134:	fee43423          	sd	a4,-24(s0)
   23138:	f9843703          	ld	a4,-104(s0)
   2313c:	00074703          	lbu	a4,0(a4)
   23140:	00e78023          	sb	a4,0(a5)
   23144:	0100006f          	j	23154 <myprintf+0x5fc>
   23148:	f9843783          	ld	a5,-104(s0)
   2314c:	fff78793          	addi	a5,a5,-1
   23150:	f8f43c23          	sd	a5,-104(s0)
   23154:	00000013          	nop
   23158:	fe042783          	lw	a5,-32(s0)
   2315c:	0007871b          	sext.w	a4,a5
   23160:	04c00793          	li	a5,76
   23164:	04f71263          	bne	a4,a5,231a8 <myprintf+0x650>
   23168:	fe442783          	lw	a5,-28(s0)
   2316c:	0027f793          	andi	a5,a5,2
   23170:	0007879b          	sext.w	a5,a5
   23174:	00078e63          	beqz	a5,23190 <myprintf+0x638>
   23178:	f9043783          	ld	a5,-112(s0)
   2317c:	00878713          	addi	a4,a5,8
   23180:	f8e43823          	sd	a4,-112(s0)
   23184:	0007b783          	ld	a5,0(a5)
   23188:	fcf43423          	sd	a5,-56(s0)
   2318c:	1100006f          	j	2329c <myprintf+0x744>
   23190:	f9043783          	ld	a5,-112(s0)
   23194:	00878713          	addi	a4,a5,8
   23198:	f8e43823          	sd	a4,-112(s0)
   2319c:	0007b783          	ld	a5,0(a5)
   231a0:	fcf43423          	sd	a5,-56(s0)
   231a4:	0f80006f          	j	2329c <myprintf+0x744>
   231a8:	fe042783          	lw	a5,-32(s0)
   231ac:	0007871b          	sext.w	a4,a5
   231b0:	06800793          	li	a5,104
   231b4:	04f71a63          	bne	a4,a5,23208 <myprintf+0x6b0>
   231b8:	fe442783          	lw	a5,-28(s0)
   231bc:	0027f793          	andi	a5,a5,2
   231c0:	0007879b          	sext.w	a5,a5
   231c4:	02078263          	beqz	a5,231e8 <myprintf+0x690>
   231c8:	f9043783          	ld	a5,-112(s0)
   231cc:	00878713          	addi	a4,a5,8
   231d0:	f8e43823          	sd	a4,-112(s0)
   231d4:	0007a783          	lw	a5,0(a5)
   231d8:	0107979b          	slliw	a5,a5,0x10
   231dc:	4107d79b          	sraiw	a5,a5,0x10
   231e0:	fcf43423          	sd	a5,-56(s0)
   231e4:	0b80006f          	j	2329c <myprintf+0x744>
   231e8:	f9043783          	ld	a5,-112(s0)
   231ec:	00878713          	addi	a4,a5,8
   231f0:	f8e43823          	sd	a4,-112(s0)
   231f4:	0007a783          	lw	a5,0(a5)
   231f8:	03079793          	slli	a5,a5,0x30
   231fc:	0307d793          	srli	a5,a5,0x30
   23200:	fcf43423          	sd	a5,-56(s0)
   23204:	0980006f          	j	2329c <myprintf+0x744>
   23208:	fe042783          	lw	a5,-32(s0)
   2320c:	0007871b          	sext.w	a4,a5
   23210:	06c00793          	li	a5,108
   23214:	04f71263          	bne	a4,a5,23258 <myprintf+0x700>
   23218:	fe442783          	lw	a5,-28(s0)
   2321c:	0027f793          	andi	a5,a5,2
   23220:	0007879b          	sext.w	a5,a5
   23224:	00078e63          	beqz	a5,23240 <myprintf+0x6e8>
   23228:	f9043783          	ld	a5,-112(s0)
   2322c:	00878713          	addi	a4,a5,8
   23230:	f8e43823          	sd	a4,-112(s0)
   23234:	0007b783          	ld	a5,0(a5)
   23238:	fcf43423          	sd	a5,-56(s0)
   2323c:	0600006f          	j	2329c <myprintf+0x744>
   23240:	f9043783          	ld	a5,-112(s0)
   23244:	00878713          	addi	a4,a5,8
   23248:	f8e43823          	sd	a4,-112(s0)
   2324c:	0007b783          	ld	a5,0(a5)
   23250:	fcf43423          	sd	a5,-56(s0)
   23254:	0480006f          	j	2329c <myprintf+0x744>
   23258:	fe442783          	lw	a5,-28(s0)
   2325c:	0027f793          	andi	a5,a5,2
   23260:	0007879b          	sext.w	a5,a5
   23264:	00078e63          	beqz	a5,23280 <myprintf+0x728>
   23268:	f9043783          	ld	a5,-112(s0)
   2326c:	00878713          	addi	a4,a5,8
   23270:	f8e43823          	sd	a4,-112(s0)
   23274:	0007a783          	lw	a5,0(a5)
   23278:	fcf43423          	sd	a5,-56(s0)
   2327c:	0200006f          	j	2329c <myprintf+0x744>
   23280:	f9043783          	ld	a5,-112(s0)
   23284:	00878713          	addi	a4,a5,8
   23288:	f8e43823          	sd	a4,-112(s0)
   2328c:	0007a783          	lw	a5,0(a5)
   23290:	02079793          	slli	a5,a5,0x20
   23294:	0207d793          	srli	a5,a5,0x20
   23298:	fcf43423          	sd	a5,-56(s0)
   2329c:	fb442683          	lw	a3,-76(s0)
   232a0:	fb042703          	lw	a4,-80(s0)
   232a4:	fe442783          	lw	a5,-28(s0)
   232a8:	fc442603          	lw	a2,-60(s0)
   232ac:	fc843583          	ld	a1,-56(s0)
   232b0:	fe843503          	ld	a0,-24(s0)
   232b4:	ca4ff0ef          	jal	ra,22758 <number>
   232b8:	fea43423          	sd	a0,-24(s0)
   232bc:	f9843783          	ld	a5,-104(s0)
   232c0:	00178793          	addi	a5,a5,1
   232c4:	f8f43c23          	sd	a5,-104(s0)
   232c8:	f9843783          	ld	a5,-104(s0)
   232cc:	0007c783          	lbu	a5,0(a5)
   232d0:	8a079ce3          	bnez	a5,22b88 <myprintf+0x30>
   232d4:	fe843783          	ld	a5,-24(s0)
   232d8:	00078023          	sb	zero,0(a5)
   232dc:	fe843703          	ld	a4,-24(s0)
   232e0:	fa843783          	ld	a5,-88(s0)
   232e4:	40f707b3          	sub	a5,a4,a5
   232e8:	0007879b          	sext.w	a5,a5
   232ec:	00078513          	mv	a0,a5
   232f0:	06813083          	ld	ra,104(sp)
   232f4:	06013403          	ld	s0,96(sp)
   232f8:	07010113          	addi	sp,sp,112
   232fc:	00008067          	ret

0000000000023300 <init_printk_done>:
   23300:	fe010113          	addi	sp,sp,-32
   23304:	00113c23          	sd	ra,24(sp)
   23308:	00813823          	sd	s0,16(sp)
   2330c:	02010413          	addi	s0,sp,32
   23310:	00003797          	auipc	a5,0x3
   23314:	ef878793          	addi	a5,a5,-264 # 26208 <g_printk_status>
   23318:	00100713          	li	a4,1
   2331c:	00e7a023          	sw	a4,0(a5)
   23320:	fe043423          	sd	zero,-24(s0)
   23324:	0300006f          	j	23354 <init_printk_done+0x54>
   23328:	00003717          	auipc	a4,0x3
   2332c:	de070713          	addi	a4,a4,-544 # 26108 <log_buf>
   23330:	fe843783          	ld	a5,-24(s0)
   23334:	00f707b3          	add	a5,a4,a5
   23338:	0007c783          	lbu	a5,0(a5)
   2333c:	0007879b          	sext.w	a5,a5
   23340:	00078513          	mv	a0,a5
   23344:	591000ef          	jal	ra,240d4 <putchar>
   23348:	fe843783          	ld	a5,-24(s0)
   2334c:	00178793          	addi	a5,a5,1
   23350:	fef43423          	sd	a5,-24(s0)
   23354:	00003797          	auipc	a5,0x3
   23358:	ebc78793          	addi	a5,a5,-324 # 26210 <g_record_len>
   2335c:	0007b783          	ld	a5,0(a5)
   23360:	fe843703          	ld	a4,-24(s0)
   23364:	fcf762e3          	bltu	a4,a5,23328 <init_printk_done+0x28>
   23368:	00003797          	auipc	a5,0x3
   2336c:	c9878793          	addi	a5,a5,-872 # 26000 <g_record>
   23370:	00003717          	auipc	a4,0x3
   23374:	d9870713          	addi	a4,a4,-616 # 26108 <log_buf>
   23378:	00e7b023          	sd	a4,0(a5)
   2337c:	00003797          	auipc	a5,0x3
   23380:	e9478793          	addi	a5,a5,-364 # 26210 <g_record_len>
   23384:	0007b023          	sd	zero,0(a5)
   23388:	00000013          	nop
   2338c:	01813083          	ld	ra,24(sp)
   23390:	01013403          	ld	s0,16(sp)
   23394:	02010113          	addi	sp,sp,32
   23398:	00008067          	ret

000000000002339c <printk>:
   2339c:	f9010113          	addi	sp,sp,-112
   233a0:	02113423          	sd	ra,40(sp)
   233a4:	02813023          	sd	s0,32(sp)
   233a8:	03010413          	addi	s0,sp,48
   233ac:	fca43c23          	sd	a0,-40(s0)
   233b0:	00b43423          	sd	a1,8(s0)
   233b4:	00c43823          	sd	a2,16(s0)
   233b8:	00d43c23          	sd	a3,24(s0)
   233bc:	02e43023          	sd	a4,32(s0)
   233c0:	02f43423          	sd	a5,40(s0)
   233c4:	03043823          	sd	a6,48(s0)
   233c8:	03143c23          	sd	a7,56(s0)
   233cc:	04040793          	addi	a5,s0,64
   233d0:	fcf43823          	sd	a5,-48(s0)
   233d4:	fd043783          	ld	a5,-48(s0)
   233d8:	fc878793          	addi	a5,a5,-56
   233dc:	fef43023          	sd	a5,-32(s0)
   233e0:	fe043783          	ld	a5,-32(s0)
   233e4:	00078693          	mv	a3,a5
   233e8:	fd843603          	ld	a2,-40(s0)
   233ec:	10000593          	li	a1,256
   233f0:	00003517          	auipc	a0,0x3
   233f4:	c1850513          	addi	a0,a0,-1000 # 26008 <print_buf>
   233f8:	f60ff0ef          	jal	ra,22b58 <myprintf>
   233fc:	00050793          	mv	a5,a0
   23400:	fef42423          	sw	a5,-24(s0)
   23404:	00003797          	auipc	a5,0x3
   23408:	e0478793          	addi	a5,a5,-508 # 26208 <g_printk_status>
   2340c:	0007a783          	lw	a5,0(a5)
   23410:	06079663          	bnez	a5,2347c <printk+0xe0>
   23414:	00003797          	auipc	a5,0x3
   23418:	bec78793          	addi	a5,a5,-1044 # 26000 <g_record>
   2341c:	0007b783          	ld	a5,0(a5)
   23420:	fe842703          	lw	a4,-24(s0)
   23424:	00070613          	mv	a2,a4
   23428:	00003597          	auipc	a1,0x3
   2342c:	be058593          	addi	a1,a1,-1056 # 26008 <print_buf>
   23430:	00078513          	mv	a0,a5
   23434:	138000ef          	jal	ra,2356c <memcpy>
   23438:	fe842703          	lw	a4,-24(s0)
   2343c:	00003797          	auipc	a5,0x3
   23440:	ccc78793          	addi	a5,a5,-820 # 26108 <log_buf>
   23444:	00f70733          	add	a4,a4,a5
   23448:	00003797          	auipc	a5,0x3
   2344c:	bb878793          	addi	a5,a5,-1096 # 26000 <g_record>
   23450:	00e7b023          	sd	a4,0(a5)
   23454:	fe842703          	lw	a4,-24(s0)
   23458:	00003797          	auipc	a5,0x3
   2345c:	db878793          	addi	a5,a5,-584 # 26210 <g_record_len>
   23460:	0007b783          	ld	a5,0(a5)
   23464:	00f70733          	add	a4,a4,a5
   23468:	00003797          	auipc	a5,0x3
   2346c:	da878793          	addi	a5,a5,-600 # 26210 <g_record_len>
   23470:	00e7b023          	sd	a4,0(a5)
   23474:	00000793          	li	a5,0
   23478:	0900006f          	j	23508 <printk+0x16c>
   2347c:	fe042623          	sw	zero,-20(s0)
   23480:	0680006f          	j	234e8 <printk+0x14c>
   23484:	00003717          	auipc	a4,0x3
   23488:	b8470713          	addi	a4,a4,-1148 # 26008 <print_buf>
   2348c:	fec42783          	lw	a5,-20(s0)
   23490:	00f707b3          	add	a5,a4,a5
   23494:	0007c783          	lbu	a5,0(a5)
   23498:	00078713          	mv	a4,a5
   2349c:	00a00793          	li	a5,10
   234a0:	00f71663          	bne	a4,a5,234ac <printk+0x110>
   234a4:	00d00513          	li	a0,13
   234a8:	42d000ef          	jal	ra,240d4 <putchar>
   234ac:	00003717          	auipc	a4,0x3
   234b0:	b5c70713          	addi	a4,a4,-1188 # 26008 <print_buf>
   234b4:	fec42783          	lw	a5,-20(s0)
   234b8:	00f707b3          	add	a5,a4,a5
   234bc:	0007c783          	lbu	a5,0(a5)
   234c0:	0007879b          	sext.w	a5,a5
   234c4:	00078513          	mv	a0,a5
   234c8:	40d000ef          	jal	ra,240d4 <putchar>
   234cc:	fec42783          	lw	a5,-20(s0)
   234d0:	00078713          	mv	a4,a5
   234d4:	10000793          	li	a5,256
   234d8:	02e7e463          	bltu	a5,a4,23500 <printk+0x164>
   234dc:	fec42783          	lw	a5,-20(s0)
   234e0:	0017879b          	addiw	a5,a5,1
   234e4:	fef42623          	sw	a5,-20(s0)
   234e8:	fec42703          	lw	a4,-20(s0)
   234ec:	fe842783          	lw	a5,-24(s0)
   234f0:	0007071b          	sext.w	a4,a4
   234f4:	0007879b          	sext.w	a5,a5
   234f8:	f8f746e3          	blt	a4,a5,23484 <printk+0xe8>
   234fc:	0080006f          	j	23504 <printk+0x168>
   23500:	00000013          	nop
   23504:	fe842783          	lw	a5,-24(s0)
   23508:	00078513          	mv	a0,a5
   2350c:	02813083          	ld	ra,40(sp)
   23510:	02013403          	ld	s0,32(sp)
   23514:	07010113          	addi	sp,sp,112
   23518:	00008067          	ret

000000000002351c <strlen>:
   2351c:	fd010113          	addi	sp,sp,-48
   23520:	02813423          	sd	s0,40(sp)
   23524:	03010413          	addi	s0,sp,48
   23528:	fca43c23          	sd	a0,-40(s0)
   2352c:	fd843783          	ld	a5,-40(s0)
   23530:	fef43423          	sd	a5,-24(s0)
   23534:	0100006f          	j	23544 <strlen+0x28>
   23538:	fe843783          	ld	a5,-24(s0)
   2353c:	00178793          	addi	a5,a5,1
   23540:	fef43423          	sd	a5,-24(s0)
   23544:	fe843783          	ld	a5,-24(s0)
   23548:	0007c783          	lbu	a5,0(a5)
   2354c:	fe0796e3          	bnez	a5,23538 <strlen+0x1c>
   23550:	fe843703          	ld	a4,-24(s0)
   23554:	fd843783          	ld	a5,-40(s0)
   23558:	40f707b3          	sub	a5,a4,a5
   2355c:	00078513          	mv	a0,a5
   23560:	02813403          	ld	s0,40(sp)
   23564:	03010113          	addi	sp,sp,48
   23568:	00008067          	ret

000000000002356c <memcpy>:
   2356c:	fc010113          	addi	sp,sp,-64
   23570:	02813c23          	sd	s0,56(sp)
   23574:	04010413          	addi	s0,sp,64
   23578:	fca43c23          	sd	a0,-40(s0)
   2357c:	fcb43823          	sd	a1,-48(s0)
   23580:	fcc43423          	sd	a2,-56(s0)
   23584:	fd843783          	ld	a5,-40(s0)
   23588:	fef43423          	sd	a5,-24(s0)
   2358c:	fd043783          	ld	a5,-48(s0)
   23590:	fef43023          	sd	a5,-32(s0)
   23594:	0240006f          	j	235b8 <memcpy+0x4c>
   23598:	fe043703          	ld	a4,-32(s0)
   2359c:	00170793          	addi	a5,a4,1
   235a0:	fef43023          	sd	a5,-32(s0)
   235a4:	fe843783          	ld	a5,-24(s0)
   235a8:	00178693          	addi	a3,a5,1
   235ac:	fed43423          	sd	a3,-24(s0)
   235b0:	00074703          	lbu	a4,0(a4)
   235b4:	00e78023          	sb	a4,0(a5)
   235b8:	fc843783          	ld	a5,-56(s0)
   235bc:	fff78713          	addi	a4,a5,-1
   235c0:	fce43423          	sd	a4,-56(s0)
   235c4:	fc079ae3          	bnez	a5,23598 <memcpy+0x2c>
   235c8:	fd843783          	ld	a5,-40(s0)
   235cc:	00078513          	mv	a0,a5
   235d0:	03813403          	ld	s0,56(sp)
   235d4:	04010113          	addi	sp,sp,64
   235d8:	00008067          	ret

00000000000235dc <read32>:
   235dc:	fe010113          	addi	sp,sp,-32
   235e0:	00813c23          	sd	s0,24(sp)
   235e4:	02010413          	addi	s0,sp,32
   235e8:	fea43423          	sd	a0,-24(s0)
   235ec:	fe843783          	ld	a5,-24(s0)
   235f0:	0007a783          	lw	a5,0(a5)
   235f4:	0007879b          	sext.w	a5,a5
   235f8:	00078513          	mv	a0,a5
   235fc:	01813403          	ld	s0,24(sp)
   23600:	02010113          	addi	sp,sp,32
   23604:	00008067          	ret

0000000000023608 <write32>:
   23608:	fe010113          	addi	sp,sp,-32
   2360c:	00813c23          	sd	s0,24(sp)
   23610:	02010413          	addi	s0,sp,32
   23614:	fea43423          	sd	a0,-24(s0)
   23618:	00058793          	mv	a5,a1
   2361c:	fef42223          	sw	a5,-28(s0)
   23620:	fe843783          	ld	a5,-24(s0)
   23624:	fe442703          	lw	a4,-28(s0)
   23628:	00e7a023          	sw	a4,0(a5)
   2362c:	00000013          	nop
   23630:	01813403          	ld	s0,24(sp)
   23634:	02010113          	addi	sp,sp,32
   23638:	00008067          	ret

000000000002363c <sdelay>:
   2363c:	fe010113          	addi	sp,sp,-32
   23640:	00813c23          	sd	s0,24(sp)
   23644:	02010413          	addi	s0,sp,32
   23648:	fea43423          	sd	a0,-24(s0)
   2364c:	fe843783          	ld	a5,-24(s0)
   23650:	00a79793          	slli	a5,a5,0xa
   23654:	fef43423          	sd	a5,-24(s0)
   23658:	00000013          	nop
   2365c:	fe843783          	ld	a5,-24(s0)
   23660:	fff78713          	addi	a4,a5,-1
   23664:	fee43423          	sd	a4,-24(s0)
   23668:	fe079ae3          	bnez	a5,2365c <sdelay+0x20>
   2366c:	00000013          	nop
   23670:	00000013          	nop
   23674:	01813403          	ld	s0,24(sp)
   23678:	02010113          	addi	sp,sp,32
   2367c:	00008067          	ret

0000000000023680 <set_pll_cpux_axi>:
   23680:	fe010113          	addi	sp,sp,-32
   23684:	00113c23          	sd	ra,24(sp)
   23688:	00813823          	sd	s0,16(sp)
   2368c:	02010413          	addi	s0,sp,32
   23690:	30100593          	li	a1,769
   23694:	020027b7          	lui	a5,0x2002
   23698:	d0078513          	addi	a0,a5,-768 # 2001d00 <TEXT_ROM+0x1fdad00>
   2369c:	f6dff0ef          	jal	ra,23608 <write32>
   236a0:	00100513          	li	a0,1
   236a4:	f99ff0ef          	jal	ra,2363c <sdelay>
   236a8:	02001537          	lui	a0,0x2001
   236ac:	f31ff0ef          	jal	ra,235dc <read32>
   236b0:	00050793          	mv	a5,a0
   236b4:	fef42623          	sw	a5,-20(s0)
   236b8:	fec42703          	lw	a4,-20(s0)
   236bc:	f80007b7          	lui	a5,0xf8000
   236c0:	fff78793          	addi	a5,a5,-1 # fffffffff7ffffff <TEXT_ROM+0xfffffffff7fd8fff>
   236c4:	00f777b3          	and	a5,a4,a5
   236c8:	fef42623          	sw	a5,-20(s0)
   236cc:	fec42783          	lw	a5,-20(s0)
   236d0:	00078593          	mv	a1,a5
   236d4:	02001537          	lui	a0,0x2001
   236d8:	f31ff0ef          	jal	ra,23608 <write32>
   236dc:	02001537          	lui	a0,0x2001
   236e0:	efdff0ef          	jal	ra,235dc <read32>
   236e4:	00050793          	mv	a5,a0
   236e8:	fef42623          	sw	a5,-20(s0)
   236ec:	fec42703          	lw	a4,-20(s0)
   236f0:	400007b7          	lui	a5,0x40000
   236f4:	00f767b3          	or	a5,a4,a5
   236f8:	fef42623          	sw	a5,-20(s0)
   236fc:	fec42783          	lw	a5,-20(s0)
   23700:	00078593          	mv	a1,a5
   23704:	02001537          	lui	a0,0x2001
   23708:	f01ff0ef          	jal	ra,23608 <write32>
   2370c:	00500513          	li	a0,5
   23710:	f2dff0ef          	jal	ra,2363c <sdelay>
   23714:	02001537          	lui	a0,0x2001
   23718:	ec5ff0ef          	jal	ra,235dc <read32>
   2371c:	00050793          	mv	a5,a0
   23720:	fef42623          	sw	a5,-20(s0)
   23724:	fec42703          	lw	a4,-20(s0)
   23728:	fffc07b7          	lui	a5,0xfffc0
   2372c:	0fc78793          	addi	a5,a5,252 # fffffffffffc00fc <TEXT_ROM+0xfffffffffff990fc>
   23730:	00f777b3          	and	a5,a4,a5
   23734:	fef42623          	sw	a5,-20(s0)
   23738:	fec42703          	lw	a4,-20(s0)
   2373c:	000037b7          	lui	a5,0x3
   23740:	90078793          	addi	a5,a5,-1792 # 2900 <_start-0x1f700>
   23744:	00f767b3          	or	a5,a4,a5
   23748:	fef42623          	sw	a5,-20(s0)
   2374c:	fec42783          	lw	a5,-20(s0)
   23750:	00078593          	mv	a1,a5
   23754:	02001537          	lui	a0,0x2001
   23758:	eb1ff0ef          	jal	ra,23608 <write32>
   2375c:	02001537          	lui	a0,0x2001
   23760:	e7dff0ef          	jal	ra,235dc <read32>
   23764:	00050793          	mv	a5,a0
   23768:	fef42623          	sw	a5,-20(s0)
   2376c:	fec42703          	lw	a4,-20(s0)
   23770:	200007b7          	lui	a5,0x20000
   23774:	00f767b3          	or	a5,a4,a5
   23778:	fef42623          	sw	a5,-20(s0)
   2377c:	fec42783          	lw	a5,-20(s0)
   23780:	00078593          	mv	a1,a5
   23784:	02001537          	lui	a0,0x2001
   23788:	e81ff0ef          	jal	ra,23608 <write32>
   2378c:	02001537          	lui	a0,0x2001
   23790:	e4dff0ef          	jal	ra,235dc <read32>
   23794:	00050793          	mv	a5,a0
   23798:	fef42623          	sw	a5,-20(s0)
   2379c:	fec42703          	lw	a4,-20(s0)
   237a0:	800007b7          	lui	a5,0x80000
   237a4:	00f767b3          	or	a5,a4,a5
   237a8:	fef42623          	sw	a5,-20(s0)
   237ac:	fec42783          	lw	a5,-20(s0)
   237b0:	00078593          	mv	a1,a5
   237b4:	02001537          	lui	a0,0x2001
   237b8:	e51ff0ef          	jal	ra,23608 <write32>
   237bc:	00000013          	nop
   237c0:	02001537          	lui	a0,0x2001
   237c4:	e19ff0ef          	jal	ra,235dc <read32>
   237c8:	00050793          	mv	a5,a0
   237cc:	0007879b          	sext.w	a5,a5
   237d0:	00078713          	mv	a4,a5
   237d4:	100007b7          	lui	a5,0x10000
   237d8:	00f777b3          	and	a5,a4,a5
   237dc:	0007879b          	sext.w	a5,a5
   237e0:	fe0780e3          	beqz	a5,237c0 <set_pll_cpux_axi+0x140>
   237e4:	01400513          	li	a0,20
   237e8:	e55ff0ef          	jal	ra,2363c <sdelay>
   237ec:	02001537          	lui	a0,0x2001
   237f0:	dedff0ef          	jal	ra,235dc <read32>
   237f4:	00050793          	mv	a5,a0
   237f8:	fef42623          	sw	a5,-20(s0)
   237fc:	fec42703          	lw	a4,-20(s0)
   23800:	080007b7          	lui	a5,0x8000
   23804:	00f767b3          	or	a5,a4,a5
   23808:	fef42623          	sw	a5,-20(s0)
   2380c:	fec42783          	lw	a5,-20(s0)
   23810:	00078593          	mv	a1,a5
   23814:	02001537          	lui	a0,0x2001
   23818:	df1ff0ef          	jal	ra,23608 <write32>
   2381c:	02001537          	lui	a0,0x2001
   23820:	dbdff0ef          	jal	ra,235dc <read32>
   23824:	00050793          	mv	a5,a0
   23828:	fef42623          	sw	a5,-20(s0)
   2382c:	fec42703          	lw	a4,-20(s0)
   23830:	e00007b7          	lui	a5,0xe0000
   23834:	fff78793          	addi	a5,a5,-1 # ffffffffdfffffff <TEXT_ROM+0xffffffffdffd8fff>
   23838:	00f777b3          	and	a5,a4,a5
   2383c:	fef42623          	sw	a5,-20(s0)
   23840:	fec42783          	lw	a5,-20(s0)
   23844:	00078593          	mv	a1,a5
   23848:	02001537          	lui	a0,0x2001
   2384c:	dbdff0ef          	jal	ra,23608 <write32>
   23850:	00100513          	li	a0,1
   23854:	de9ff0ef          	jal	ra,2363c <sdelay>
   23858:	020027b7          	lui	a5,0x2002
   2385c:	d0078513          	addi	a0,a5,-768 # 2001d00 <TEXT_ROM+0x1fdad00>
   23860:	d7dff0ef          	jal	ra,235dc <read32>
   23864:	00050793          	mv	a5,a0
   23868:	fef42623          	sw	a5,-20(s0)
   2386c:	fec42703          	lw	a4,-20(s0)
   23870:	f90007b7          	lui	a5,0xf9000
   23874:	cf078793          	addi	a5,a5,-784 # fffffffff8fffcf0 <TEXT_ROM+0xfffffffff8fd8cf0>
   23878:	00f777b3          	and	a5,a4,a5
   2387c:	fef42623          	sw	a5,-20(s0)
   23880:	fec42703          	lw	a4,-20(s0)
   23884:	050007b7          	lui	a5,0x5000
   23888:	10078793          	addi	a5,a5,256 # 5000100 <TEXT_ROM+0x4fd9100>
   2388c:	00f767b3          	or	a5,a4,a5
   23890:	fef42623          	sw	a5,-20(s0)
   23894:	fec42783          	lw	a5,-20(s0)
   23898:	00078593          	mv	a1,a5
   2389c:	020027b7          	lui	a5,0x2002
   238a0:	d0078513          	addi	a0,a5,-768 # 2001d00 <TEXT_ROM+0x1fdad00>
   238a4:	d65ff0ef          	jal	ra,23608 <write32>
   238a8:	00100513          	li	a0,1
   238ac:	d91ff0ef          	jal	ra,2363c <sdelay>
   238b0:	00000013          	nop
   238b4:	01813083          	ld	ra,24(sp)
   238b8:	01013403          	ld	s0,16(sp)
   238bc:	02010113          	addi	sp,sp,32
   238c0:	00008067          	ret

00000000000238c4 <set_pll_periph0>:
   238c4:	fe010113          	addi	sp,sp,-32
   238c8:	00113c23          	sd	ra,24(sp)
   238cc:	00813823          	sd	s0,16(sp)
   238d0:	02010413          	addi	s0,sp,32
   238d4:	020017b7          	lui	a5,0x2001
   238d8:	02078513          	addi	a0,a5,32 # 2001020 <TEXT_ROM+0x1fda020>
   238dc:	d01ff0ef          	jal	ra,235dc <read32>
   238e0:	00050793          	mv	a5,a0
   238e4:	0007879b          	sext.w	a5,a5
   238e8:	0007879b          	sext.w	a5,a5
   238ec:	1207cc63          	bltz	a5,23a24 <set_pll_periph0+0x160>
   238f0:	020017b7          	lui	a5,0x2001
   238f4:	51078513          	addi	a0,a5,1296 # 2001510 <TEXT_ROM+0x1fda510>
   238f8:	ce5ff0ef          	jal	ra,235dc <read32>
   238fc:	00050793          	mv	a5,a0
   23900:	fef42623          	sw	a5,-20(s0)
   23904:	fec42703          	lw	a4,-20(s0)
   23908:	fd0007b7          	lui	a5,0xfd000
   2390c:	fff78793          	addi	a5,a5,-1 # fffffffffcffffff <TEXT_ROM+0xfffffffffcfd8fff>
   23910:	00f777b3          	and	a5,a4,a5
   23914:	fef42623          	sw	a5,-20(s0)
   23918:	fec46703          	lwu	a4,-20(s0)
   2391c:	020017b7          	lui	a5,0x2001
   23920:	51078593          	addi	a1,a5,1296 # 2001510 <TEXT_ROM+0x1fda510>
   23924:	00070513          	mv	a0,a4
   23928:	ce1ff0ef          	jal	ra,23608 <write32>
   2392c:	000067b7          	lui	a5,0x6
   23930:	30078593          	addi	a1,a5,768 # 6300 <_start-0x1bd00>
   23934:	020017b7          	lui	a5,0x2001
   23938:	02078513          	addi	a0,a5,32 # 2001020 <TEXT_ROM+0x1fda020>
   2393c:	ccdff0ef          	jal	ra,23608 <write32>
   23940:	020017b7          	lui	a5,0x2001
   23944:	02078513          	addi	a0,a5,32 # 2001020 <TEXT_ROM+0x1fda020>
   23948:	c95ff0ef          	jal	ra,235dc <read32>
   2394c:	00050793          	mv	a5,a0
   23950:	fef42623          	sw	a5,-20(s0)
   23954:	fec42703          	lw	a4,-20(s0)
   23958:	200007b7          	lui	a5,0x20000
   2395c:	00f767b3          	or	a5,a4,a5
   23960:	fef42623          	sw	a5,-20(s0)
   23964:	fec42783          	lw	a5,-20(s0)
   23968:	00078593          	mv	a1,a5
   2396c:	020017b7          	lui	a5,0x2001
   23970:	02078513          	addi	a0,a5,32 # 2001020 <TEXT_ROM+0x1fda020>
   23974:	c95ff0ef          	jal	ra,23608 <write32>
   23978:	020017b7          	lui	a5,0x2001
   2397c:	02078513          	addi	a0,a5,32 # 2001020 <TEXT_ROM+0x1fda020>
   23980:	c5dff0ef          	jal	ra,235dc <read32>
   23984:	00050793          	mv	a5,a0
   23988:	fef42623          	sw	a5,-20(s0)
   2398c:	fec42703          	lw	a4,-20(s0)
   23990:	800007b7          	lui	a5,0x80000
   23994:	00f767b3          	or	a5,a4,a5
   23998:	fef42623          	sw	a5,-20(s0)
   2399c:	fec42783          	lw	a5,-20(s0)
   239a0:	00078593          	mv	a1,a5
   239a4:	020017b7          	lui	a5,0x2001
   239a8:	02078513          	addi	a0,a5,32 # 2001020 <TEXT_ROM+0x1fda020>
   239ac:	c5dff0ef          	jal	ra,23608 <write32>
   239b0:	00000013          	nop
   239b4:	020017b7          	lui	a5,0x2001
   239b8:	02078513          	addi	a0,a5,32 # 2001020 <TEXT_ROM+0x1fda020>
   239bc:	c21ff0ef          	jal	ra,235dc <read32>
   239c0:	00050793          	mv	a5,a0
   239c4:	0007879b          	sext.w	a5,a5
   239c8:	00078713          	mv	a4,a5
   239cc:	100007b7          	lui	a5,0x10000
   239d0:	00f777b3          	and	a5,a4,a5
   239d4:	0007879b          	sext.w	a5,a5
   239d8:	fc078ee3          	beqz	a5,239b4 <set_pll_periph0+0xf0>
   239dc:	01400513          	li	a0,20
   239e0:	c5dff0ef          	jal	ra,2363c <sdelay>
   239e4:	020017b7          	lui	a5,0x2001
   239e8:	02078513          	addi	a0,a5,32 # 2001020 <TEXT_ROM+0x1fda020>
   239ec:	bf1ff0ef          	jal	ra,235dc <read32>
   239f0:	00050793          	mv	a5,a0
   239f4:	fef42623          	sw	a5,-20(s0)
   239f8:	fec42703          	lw	a4,-20(s0)
   239fc:	e00007b7          	lui	a5,0xe0000
   23a00:	fff78793          	addi	a5,a5,-1 # ffffffffdfffffff <TEXT_ROM+0xffffffffdffd8fff>
   23a04:	00f777b3          	and	a5,a4,a5
   23a08:	fef42623          	sw	a5,-20(s0)
   23a0c:	fec42783          	lw	a5,-20(s0)
   23a10:	00078593          	mv	a1,a5
   23a14:	020017b7          	lui	a5,0x2001
   23a18:	02078513          	addi	a0,a5,32 # 2001020 <TEXT_ROM+0x1fda020>
   23a1c:	bedff0ef          	jal	ra,23608 <write32>
   23a20:	0080006f          	j	23a28 <set_pll_periph0+0x164>
   23a24:	00000013          	nop
   23a28:	01813083          	ld	ra,24(sp)
   23a2c:	01013403          	ld	s0,16(sp)
   23a30:	02010113          	addi	sp,sp,32
   23a34:	00008067          	ret

0000000000023a38 <set_ahb>:
   23a38:	ff010113          	addi	sp,sp,-16
   23a3c:	00113423          	sd	ra,8(sp)
   23a40:	00813023          	sd	s0,0(sp)
   23a44:	01010413          	addi	s0,sp,16
   23a48:	00200593          	li	a1,2
   23a4c:	020017b7          	lui	a5,0x2001
   23a50:	51078513          	addi	a0,a5,1296 # 2001510 <TEXT_ROM+0x1fda510>
   23a54:	bb5ff0ef          	jal	ra,23608 <write32>
   23a58:	020017b7          	lui	a5,0x2001
   23a5c:	51078513          	addi	a0,a5,1296 # 2001510 <TEXT_ROM+0x1fda510>
   23a60:	b7dff0ef          	jal	ra,235dc <read32>
   23a64:	00050793          	mv	a5,a0
   23a68:	0007879b          	sext.w	a5,a5
   23a6c:	00078713          	mv	a4,a5
   23a70:	030007b7          	lui	a5,0x3000
   23a74:	00f767b3          	or	a5,a4,a5
   23a78:	0007879b          	sext.w	a5,a5
   23a7c:	00078593          	mv	a1,a5
   23a80:	020017b7          	lui	a5,0x2001
   23a84:	51078513          	addi	a0,a5,1296 # 2001510 <TEXT_ROM+0x1fda510>
   23a88:	b81ff0ef          	jal	ra,23608 <write32>
   23a8c:	00100513          	li	a0,1
   23a90:	badff0ef          	jal	ra,2363c <sdelay>
   23a94:	00000013          	nop
   23a98:	00813083          	ld	ra,8(sp)
   23a9c:	00013403          	ld	s0,0(sp)
   23aa0:	01010113          	addi	sp,sp,16
   23aa4:	00008067          	ret

0000000000023aa8 <set_apb>:
   23aa8:	ff010113          	addi	sp,sp,-16
   23aac:	00113423          	sd	ra,8(sp)
   23ab0:	00813023          	sd	s0,0(sp)
   23ab4:	01010413          	addi	s0,sp,16
   23ab8:	10200593          	li	a1,258
   23abc:	020017b7          	lui	a5,0x2001
   23ac0:	52078513          	addi	a0,a5,1312 # 2001520 <TEXT_ROM+0x1fda520>
   23ac4:	b45ff0ef          	jal	ra,23608 <write32>
   23ac8:	020017b7          	lui	a5,0x2001
   23acc:	52078513          	addi	a0,a5,1312 # 2001520 <TEXT_ROM+0x1fda520>
   23ad0:	b0dff0ef          	jal	ra,235dc <read32>
   23ad4:	00050793          	mv	a5,a0
   23ad8:	0007879b          	sext.w	a5,a5
   23adc:	00078713          	mv	a4,a5
   23ae0:	030007b7          	lui	a5,0x3000
   23ae4:	00f767b3          	or	a5,a4,a5
   23ae8:	0007879b          	sext.w	a5,a5
   23aec:	00078593          	mv	a1,a5
   23af0:	020017b7          	lui	a5,0x2001
   23af4:	52078513          	addi	a0,a5,1312 # 2001520 <TEXT_ROM+0x1fda520>
   23af8:	b11ff0ef          	jal	ra,23608 <write32>
   23afc:	00100513          	li	a0,1
   23b00:	b3dff0ef          	jal	ra,2363c <sdelay>
   23b04:	00000013          	nop
   23b08:	00813083          	ld	ra,8(sp)
   23b0c:	00013403          	ld	s0,0(sp)
   23b10:	01010113          	addi	sp,sp,16
   23b14:	00008067          	ret

0000000000023b18 <set_dma>:
   23b18:	ff010113          	addi	sp,sp,-16
   23b1c:	00113423          	sd	ra,8(sp)
   23b20:	00813023          	sd	s0,0(sp)
   23b24:	01010413          	addi	s0,sp,16
   23b28:	020017b7          	lui	a5,0x2001
   23b2c:	70c78513          	addi	a0,a5,1804 # 200170c <TEXT_ROM+0x1fda70c>
   23b30:	aadff0ef          	jal	ra,235dc <read32>
   23b34:	00050793          	mv	a5,a0
   23b38:	0007879b          	sext.w	a5,a5
   23b3c:	00078713          	mv	a4,a5
   23b40:	000107b7          	lui	a5,0x10
   23b44:	00f767b3          	or	a5,a4,a5
   23b48:	0007879b          	sext.w	a5,a5
   23b4c:	00078593          	mv	a1,a5
   23b50:	020017b7          	lui	a5,0x2001
   23b54:	70c78513          	addi	a0,a5,1804 # 200170c <TEXT_ROM+0x1fda70c>
   23b58:	ab1ff0ef          	jal	ra,23608 <write32>
   23b5c:	01400513          	li	a0,20
   23b60:	addff0ef          	jal	ra,2363c <sdelay>
   23b64:	020017b7          	lui	a5,0x2001
   23b68:	70c78513          	addi	a0,a5,1804 # 200170c <TEXT_ROM+0x1fda70c>
   23b6c:	a71ff0ef          	jal	ra,235dc <read32>
   23b70:	00050793          	mv	a5,a0
   23b74:	0007879b          	sext.w	a5,a5
   23b78:	0017e793          	ori	a5,a5,1
   23b7c:	0007879b          	sext.w	a5,a5
   23b80:	00078593          	mv	a1,a5
   23b84:	020017b7          	lui	a5,0x2001
   23b88:	70c78513          	addi	a0,a5,1804 # 200170c <TEXT_ROM+0x1fda70c>
   23b8c:	a7dff0ef          	jal	ra,23608 <write32>
   23b90:	00000013          	nop
   23b94:	00813083          	ld	ra,8(sp)
   23b98:	00013403          	ld	s0,0(sp)
   23b9c:	01010113          	addi	sp,sp,16
   23ba0:	00008067          	ret

0000000000023ba4 <set_mbus>:
   23ba4:	fe010113          	addi	sp,sp,-32
   23ba8:	00113c23          	sd	ra,24(sp)
   23bac:	00813823          	sd	s0,16(sp)
   23bb0:	02010413          	addi	s0,sp,32
   23bb4:	020017b7          	lui	a5,0x2001
   23bb8:	54078513          	addi	a0,a5,1344 # 2001540 <TEXT_ROM+0x1fda540>
   23bbc:	a21ff0ef          	jal	ra,235dc <read32>
   23bc0:	00050793          	mv	a5,a0
   23bc4:	fef42623          	sw	a5,-20(s0)
   23bc8:	fec42703          	lw	a4,-20(s0)
   23bcc:	400007b7          	lui	a5,0x40000
   23bd0:	00f767b3          	or	a5,a4,a5
   23bd4:	fef42623          	sw	a5,-20(s0)
   23bd8:	fec42783          	lw	a5,-20(s0)
   23bdc:	00078593          	mv	a1,a5
   23be0:	020017b7          	lui	a5,0x2001
   23be4:	54078513          	addi	a0,a5,1344 # 2001540 <TEXT_ROM+0x1fda540>
   23be8:	a21ff0ef          	jal	ra,23608 <write32>
   23bec:	00100513          	li	a0,1
   23bf0:	a4dff0ef          	jal	ra,2363c <sdelay>
   23bf4:	00000013          	nop
   23bf8:	01813083          	ld	ra,24(sp)
   23bfc:	01013403          	ld	s0,16(sp)
   23c00:	02010113          	addi	sp,sp,32
   23c04:	00008067          	ret

0000000000023c08 <set_module>:
   23c08:	fd010113          	addi	sp,sp,-48
   23c0c:	02113423          	sd	ra,40(sp)
   23c10:	02813023          	sd	s0,32(sp)
   23c14:	03010413          	addi	s0,sp,48
   23c18:	fca43c23          	sd	a0,-40(s0)
   23c1c:	fd843503          	ld	a0,-40(s0)
   23c20:	9bdff0ef          	jal	ra,235dc <read32>
   23c24:	00050793          	mv	a5,a0
   23c28:	0007879b          	sext.w	a5,a5
   23c2c:	0007879b          	sext.w	a5,a5
   23c30:	0c07c263          	bltz	a5,23cf4 <set_module+0xec>
   23c34:	fd843503          	ld	a0,-40(s0)
   23c38:	9a5ff0ef          	jal	ra,235dc <read32>
   23c3c:	00050793          	mv	a5,a0
   23c40:	fef42623          	sw	a5,-20(s0)
   23c44:	fec42703          	lw	a4,-20(s0)
   23c48:	c00007b7          	lui	a5,0xc0000
   23c4c:	00f767b3          	or	a5,a4,a5
   23c50:	0007879b          	sext.w	a5,a5
   23c54:	00078593          	mv	a1,a5
   23c58:	fd843503          	ld	a0,-40(s0)
   23c5c:	9adff0ef          	jal	ra,23608 <write32>
   23c60:	fd843503          	ld	a0,-40(s0)
   23c64:	979ff0ef          	jal	ra,235dc <read32>
   23c68:	00050793          	mv	a5,a0
   23c6c:	fef42623          	sw	a5,-20(s0)
   23c70:	fec42703          	lw	a4,-20(s0)
   23c74:	200007b7          	lui	a5,0x20000
   23c78:	00f767b3          	or	a5,a4,a5
   23c7c:	fef42623          	sw	a5,-20(s0)
   23c80:	fec42783          	lw	a5,-20(s0)
   23c84:	00078593          	mv	a1,a5
   23c88:	fd843503          	ld	a0,-40(s0)
   23c8c:	97dff0ef          	jal	ra,23608 <write32>
   23c90:	00000013          	nop
   23c94:	fd843503          	ld	a0,-40(s0)
   23c98:	945ff0ef          	jal	ra,235dc <read32>
   23c9c:	00050793          	mv	a5,a0
   23ca0:	0007879b          	sext.w	a5,a5
   23ca4:	00078713          	mv	a4,a5
   23ca8:	100007b7          	lui	a5,0x10000
   23cac:	00f777b3          	and	a5,a4,a5
   23cb0:	0007879b          	sext.w	a5,a5
   23cb4:	fe0780e3          	beqz	a5,23c94 <set_module+0x8c>
   23cb8:	01400513          	li	a0,20
   23cbc:	981ff0ef          	jal	ra,2363c <sdelay>
   23cc0:	fd843503          	ld	a0,-40(s0)
   23cc4:	919ff0ef          	jal	ra,235dc <read32>
   23cc8:	00050793          	mv	a5,a0
   23ccc:	fef42623          	sw	a5,-20(s0)
   23cd0:	fec42703          	lw	a4,-20(s0)
   23cd4:	e00007b7          	lui	a5,0xe0000
   23cd8:	fff78793          	addi	a5,a5,-1 # ffffffffdfffffff <TEXT_ROM+0xffffffffdffd8fff>
   23cdc:	00f777b3          	and	a5,a4,a5
   23ce0:	fef42623          	sw	a5,-20(s0)
   23ce4:	fec42783          	lw	a5,-20(s0)
   23ce8:	00078593          	mv	a1,a5
   23cec:	fd843503          	ld	a0,-40(s0)
   23cf0:	919ff0ef          	jal	ra,23608 <write32>
   23cf4:	00000013          	nop
   23cf8:	02813083          	ld	ra,40(sp)
   23cfc:	02013403          	ld	s0,32(sp)
   23d00:	03010113          	addi	sp,sp,48
   23d04:	00008067          	ret

0000000000023d08 <sys_clock_init>:
   23d08:	ff010113          	addi	sp,sp,-16
   23d0c:	00113423          	sd	ra,8(sp)
   23d10:	00813023          	sd	s0,0(sp)
   23d14:	01010413          	addi	s0,sp,16
   23d18:	969ff0ef          	jal	ra,23680 <set_pll_cpux_axi>
   23d1c:	ba9ff0ef          	jal	ra,238c4 <set_pll_periph0>
   23d20:	d19ff0ef          	jal	ra,23a38 <set_ahb>
   23d24:	d85ff0ef          	jal	ra,23aa8 <set_apb>
   23d28:	df1ff0ef          	jal	ra,23b18 <set_dma>
   23d2c:	e79ff0ef          	jal	ra,23ba4 <set_mbus>
   23d30:	020017b7          	lui	a5,0x2001
   23d34:	02078513          	addi	a0,a5,32 # 2001020 <TEXT_ROM+0x1fda020>
   23d38:	ed1ff0ef          	jal	ra,23c08 <set_module>
   23d3c:	020017b7          	lui	a5,0x2001
   23d40:	04078513          	addi	a0,a5,64 # 2001040 <TEXT_ROM+0x1fda040>
   23d44:	ec5ff0ef          	jal	ra,23c08 <set_module>
   23d48:	020017b7          	lui	a5,0x2001
   23d4c:	04878513          	addi	a0,a5,72 # 2001048 <TEXT_ROM+0x1fda048>
   23d50:	eb9ff0ef          	jal	ra,23c08 <set_module>
   23d54:	020017b7          	lui	a5,0x2001
   23d58:	05878513          	addi	a0,a5,88 # 2001058 <TEXT_ROM+0x1fda058>
   23d5c:	eadff0ef          	jal	ra,23c08 <set_module>
   23d60:	020017b7          	lui	a5,0x2001
   23d64:	07878513          	addi	a0,a5,120 # 2001078 <TEXT_ROM+0x1fda078>
   23d68:	ea1ff0ef          	jal	ra,23c08 <set_module>
   23d6c:	020017b7          	lui	a5,0x2001
   23d70:	08078513          	addi	a0,a5,128 # 2001080 <TEXT_ROM+0x1fda080>
   23d74:	e95ff0ef          	jal	ra,23c08 <set_module>
   23d78:	00000013          	nop
   23d7c:	00813083          	ld	ra,8(sp)
   23d80:	00013403          	ld	s0,0(sp)
   23d84:	01010113          	addi	sp,sp,16
   23d88:	00008067          	ret

0000000000023d8c <read8>:
   23d8c:	fe010113          	addi	sp,sp,-32
   23d90:	00813c23          	sd	s0,24(sp)
   23d94:	02010413          	addi	s0,sp,32
   23d98:	fea43423          	sd	a0,-24(s0)
   23d9c:	fe843783          	ld	a5,-24(s0)
   23da0:	0007c783          	lbu	a5,0(a5)
   23da4:	0ff7f793          	andi	a5,a5,255
   23da8:	00078513          	mv	a0,a5
   23dac:	01813403          	ld	s0,24(sp)
   23db0:	02010113          	addi	sp,sp,32
   23db4:	00008067          	ret

0000000000023db8 <read32>:
   23db8:	fe010113          	addi	sp,sp,-32
   23dbc:	00813c23          	sd	s0,24(sp)
   23dc0:	02010413          	addi	s0,sp,32
   23dc4:	fea43423          	sd	a0,-24(s0)
   23dc8:	fe843783          	ld	a5,-24(s0)
   23dcc:	0007a783          	lw	a5,0(a5)
   23dd0:	0007879b          	sext.w	a5,a5
   23dd4:	00078513          	mv	a0,a5
   23dd8:	01813403          	ld	s0,24(sp)
   23ddc:	02010113          	addi	sp,sp,32
   23de0:	00008067          	ret

0000000000023de4 <write32>:
   23de4:	fe010113          	addi	sp,sp,-32
   23de8:	00813c23          	sd	s0,24(sp)
   23dec:	02010413          	addi	s0,sp,32
   23df0:	fea43423          	sd	a0,-24(s0)
   23df4:	00058793          	mv	a5,a1
   23df8:	fef42223          	sw	a5,-28(s0)
   23dfc:	fe843783          	ld	a5,-24(s0)
   23e00:	fe442703          	lw	a4,-28(s0)
   23e04:	00e7a023          	sw	a4,0(a5)
   23e08:	00000013          	nop
   23e0c:	01813403          	ld	s0,24(sp)
   23e10:	02010113          	addi	sp,sp,32
   23e14:	00008067          	ret

0000000000023e18 <uart_init>:
   23e18:	fe010113          	addi	sp,sp,-32
   23e1c:	00113c23          	sd	ra,24(sp)
   23e20:	00813823          	sd	s0,16(sp)
   23e24:	02010413          	addi	s0,sp,32
   23e28:	020007b7          	lui	a5,0x2000
   23e2c:	0f078793          	addi	a5,a5,240 # 20000f0 <TEXT_ROM+0x1fd90f0>
   23e30:	fef43423          	sd	a5,-24(s0)
   23e34:	fe843503          	ld	a0,-24(s0)
   23e38:	f81ff0ef          	jal	ra,23db8 <read32>
   23e3c:	00050793          	mv	a5,a0
   23e40:	fef42223          	sw	a5,-28(s0)
   23e44:	fe442703          	lw	a4,-28(s0)
   23e48:	fffff7b7          	lui	a5,0xfffff
   23e4c:	0ff78793          	addi	a5,a5,255 # fffffffffffff0ff <TEXT_ROM+0xfffffffffffd80ff>
   23e50:	00f777b3          	and	a5,a4,a5
   23e54:	fef42223          	sw	a5,-28(s0)
   23e58:	fe442783          	lw	a5,-28(s0)
   23e5c:	3007e793          	ori	a5,a5,768
   23e60:	fef42223          	sw	a5,-28(s0)
   23e64:	fe442783          	lw	a5,-28(s0)
   23e68:	00078593          	mv	a1,a5
   23e6c:	fe843503          	ld	a0,-24(s0)
   23e70:	f75ff0ef          	jal	ra,23de4 <write32>
   23e74:	fe843503          	ld	a0,-24(s0)
   23e78:	f41ff0ef          	jal	ra,23db8 <read32>
   23e7c:	00050793          	mv	a5,a0
   23e80:	fef42223          	sw	a5,-28(s0)
   23e84:	fe442703          	lw	a4,-28(s0)
   23e88:	fff107b7          	lui	a5,0xfff10
   23e8c:	fff78793          	addi	a5,a5,-1 # fffffffffff0ffff <TEXT_ROM+0xffffffffffee8fff>
   23e90:	00f777b3          	and	a5,a4,a5
   23e94:	fef42223          	sw	a5,-28(s0)
   23e98:	fe442703          	lw	a4,-28(s0)
   23e9c:	000307b7          	lui	a5,0x30
   23ea0:	00f767b3          	or	a5,a4,a5
   23ea4:	fef42223          	sw	a5,-28(s0)
   23ea8:	fe442783          	lw	a5,-28(s0)
   23eac:	00078593          	mv	a1,a5
   23eb0:	fe843503          	ld	a0,-24(s0)
   23eb4:	f31ff0ef          	jal	ra,23de4 <write32>
   23eb8:	020027b7          	lui	a5,0x2002
   23ebc:	90c78793          	addi	a5,a5,-1780 # 200190c <TEXT_ROM+0x1fda90c>
   23ec0:	fef43423          	sd	a5,-24(s0)
   23ec4:	fe843503          	ld	a0,-24(s0)
   23ec8:	ef1ff0ef          	jal	ra,23db8 <read32>
   23ecc:	00050793          	mv	a5,a0
   23ed0:	fef42223          	sw	a5,-28(s0)
   23ed4:	fe442783          	lw	a5,-28(s0)
   23ed8:	0017e793          	ori	a5,a5,1
   23edc:	fef42223          	sw	a5,-28(s0)
   23ee0:	fe442783          	lw	a5,-28(s0)
   23ee4:	00078593          	mv	a1,a5
   23ee8:	fe843503          	ld	a0,-24(s0)
   23eec:	ef9ff0ef          	jal	ra,23de4 <write32>
   23ef0:	020027b7          	lui	a5,0x2002
   23ef4:	90c78793          	addi	a5,a5,-1780 # 200190c <TEXT_ROM+0x1fda90c>
   23ef8:	fef43423          	sd	a5,-24(s0)
   23efc:	fe843503          	ld	a0,-24(s0)
   23f00:	eb9ff0ef          	jal	ra,23db8 <read32>
   23f04:	00050793          	mv	a5,a0
   23f08:	fef42223          	sw	a5,-28(s0)
   23f0c:	fe442703          	lw	a4,-28(s0)
   23f10:	000107b7          	lui	a5,0x10
   23f14:	00f767b3          	or	a5,a4,a5
   23f18:	fef42223          	sw	a5,-28(s0)
   23f1c:	fe442783          	lw	a5,-28(s0)
   23f20:	00078593          	mv	a1,a5
   23f24:	fe843503          	ld	a0,-24(s0)
   23f28:	ebdff0ef          	jal	ra,23de4 <write32>
   23f2c:	025007b7          	lui	a5,0x2500
   23f30:	fef43423          	sd	a5,-24(s0)
   23f34:	fe843783          	ld	a5,-24(s0)
   23f38:	00478793          	addi	a5,a5,4 # 2500004 <TEXT_ROM+0x24d9004>
   23f3c:	00000593          	li	a1,0
   23f40:	00078513          	mv	a0,a5
   23f44:	ea1ff0ef          	jal	ra,23de4 <write32>
   23f48:	fe843783          	ld	a5,-24(s0)
   23f4c:	00878793          	addi	a5,a5,8
   23f50:	0f700593          	li	a1,247
   23f54:	00078513          	mv	a0,a5
   23f58:	e8dff0ef          	jal	ra,23de4 <write32>
   23f5c:	fe843783          	ld	a5,-24(s0)
   23f60:	01078793          	addi	a5,a5,16
   23f64:	00000593          	li	a1,0
   23f68:	00078513          	mv	a0,a5
   23f6c:	e79ff0ef          	jal	ra,23de4 <write32>
   23f70:	fe843783          	ld	a5,-24(s0)
   23f74:	00c78793          	addi	a5,a5,12
   23f78:	00078513          	mv	a0,a5
   23f7c:	e3dff0ef          	jal	ra,23db8 <read32>
   23f80:	00050793          	mv	a5,a0
   23f84:	fef42223          	sw	a5,-28(s0)
   23f88:	fe442783          	lw	a5,-28(s0)
   23f8c:	0807e793          	ori	a5,a5,128
   23f90:	fef42223          	sw	a5,-28(s0)
   23f94:	fe843783          	ld	a5,-24(s0)
   23f98:	00c78793          	addi	a5,a5,12
   23f9c:	fe442703          	lw	a4,-28(s0)
   23fa0:	00070593          	mv	a1,a4
   23fa4:	00078513          	mv	a0,a5
   23fa8:	e3dff0ef          	jal	ra,23de4 <write32>
   23fac:	00d00593          	li	a1,13
   23fb0:	fe843503          	ld	a0,-24(s0)
   23fb4:	e31ff0ef          	jal	ra,23de4 <write32>
   23fb8:	fe843783          	ld	a5,-24(s0)
   23fbc:	00478793          	addi	a5,a5,4
   23fc0:	00000593          	li	a1,0
   23fc4:	00078513          	mv	a0,a5
   23fc8:	e1dff0ef          	jal	ra,23de4 <write32>
   23fcc:	fe843783          	ld	a5,-24(s0)
   23fd0:	00c78793          	addi	a5,a5,12
   23fd4:	00078513          	mv	a0,a5
   23fd8:	de1ff0ef          	jal	ra,23db8 <read32>
   23fdc:	00050793          	mv	a5,a0
   23fe0:	fef42223          	sw	a5,-28(s0)
   23fe4:	fe442783          	lw	a5,-28(s0)
   23fe8:	f7f7f793          	andi	a5,a5,-129
   23fec:	fef42223          	sw	a5,-28(s0)
   23ff0:	fe843783          	ld	a5,-24(s0)
   23ff4:	00c78793          	addi	a5,a5,12
   23ff8:	fe442703          	lw	a4,-28(s0)
   23ffc:	00070593          	mv	a1,a4
   24000:	00078513          	mv	a0,a5
   24004:	de1ff0ef          	jal	ra,23de4 <write32>
   24008:	fe843783          	ld	a5,-24(s0)
   2400c:	00c78793          	addi	a5,a5,12
   24010:	00078513          	mv	a0,a5
   24014:	da5ff0ef          	jal	ra,23db8 <read32>
   24018:	00050793          	mv	a5,a0
   2401c:	fef42223          	sw	a5,-28(s0)
   24020:	fe442783          	lw	a5,-28(s0)
   24024:	fe07f793          	andi	a5,a5,-32
   24028:	fef42223          	sw	a5,-28(s0)
   2402c:	fe442783          	lw	a5,-28(s0)
   24030:	0037e793          	ori	a5,a5,3
   24034:	fef42223          	sw	a5,-28(s0)
   24038:	fe843783          	ld	a5,-24(s0)
   2403c:	00c78793          	addi	a5,a5,12
   24040:	fe442703          	lw	a4,-28(s0)
   24044:	00070593          	mv	a1,a4
   24048:	00078513          	mv	a0,a5
   2404c:	d99ff0ef          	jal	ra,23de4 <write32>
   24050:	00000013          	nop
   24054:	01813083          	ld	ra,24(sp)
   24058:	01013403          	ld	s0,16(sp)
   2405c:	02010113          	addi	sp,sp,32
   24060:	00008067          	ret

0000000000024064 <uart_send>:
   24064:	fd010113          	addi	sp,sp,-48
   24068:	02113423          	sd	ra,40(sp)
   2406c:	02813023          	sd	s0,32(sp)
   24070:	03010413          	addi	s0,sp,48
   24074:	00050793          	mv	a5,a0
   24078:	fcf40fa3          	sb	a5,-33(s0)
   2407c:	025007b7          	lui	a5,0x2500
   24080:	fef43423          	sd	a5,-24(s0)
   24084:	00000013          	nop
   24088:	fe843783          	ld	a5,-24(s0)
   2408c:	07c78793          	addi	a5,a5,124 # 250007c <TEXT_ROM+0x24d907c>
   24090:	00078513          	mv	a0,a5
   24094:	d25ff0ef          	jal	ra,23db8 <read32>
   24098:	00050793          	mv	a5,a0
   2409c:	0007879b          	sext.w	a5,a5
   240a0:	0027f793          	andi	a5,a5,2
   240a4:	0007879b          	sext.w	a5,a5
   240a8:	fe0780e3          	beqz	a5,24088 <uart_send+0x24>
   240ac:	fdf44783          	lbu	a5,-33(s0)
   240b0:	0007879b          	sext.w	a5,a5
   240b4:	00078593          	mv	a1,a5
   240b8:	fe843503          	ld	a0,-24(s0)
   240bc:	d29ff0ef          	jal	ra,23de4 <write32>
   240c0:	00000013          	nop
   240c4:	02813083          	ld	ra,40(sp)
   240c8:	02013403          	ld	s0,32(sp)
   240cc:	03010113          	addi	sp,sp,48
   240d0:	00008067          	ret

00000000000240d4 <putchar>:
   240d4:	fe010113          	addi	sp,sp,-32
   240d8:	00113c23          	sd	ra,24(sp)
   240dc:	00813823          	sd	s0,16(sp)
   240e0:	02010413          	addi	s0,sp,32
   240e4:	00050793          	mv	a5,a0
   240e8:	fef42623          	sw	a5,-20(s0)
   240ec:	fec42783          	lw	a5,-20(s0)
   240f0:	0ff7f793          	andi	a5,a5,255
   240f4:	00078513          	mv	a0,a5
   240f8:	f6dff0ef          	jal	ra,24064 <uart_send>
   240fc:	fec42783          	lw	a5,-20(s0)
   24100:	00078513          	mv	a0,a5
   24104:	01813083          	ld	ra,24(sp)
   24108:	01013403          	ld	s0,16(sp)
   2410c:	02010113          	addi	sp,sp,32
   24110:	00008067          	ret

0000000000024114 <uart_recv>:
   24114:	fe010113          	addi	sp,sp,-32
   24118:	00113c23          	sd	ra,24(sp)
   2411c:	00813823          	sd	s0,16(sp)
   24120:	02010413          	addi	s0,sp,32
   24124:	025007b7          	lui	a5,0x2500
   24128:	fef43423          	sd	a5,-24(s0)
   2412c:	00000013          	nop
   24130:	fe843783          	ld	a5,-24(s0)
   24134:	07c78793          	addi	a5,a5,124 # 250007c <TEXT_ROM+0x24d907c>
   24138:	00078513          	mv	a0,a5
   2413c:	c7dff0ef          	jal	ra,23db8 <read32>
   24140:	00050793          	mv	a5,a0
   24144:	0007879b          	sext.w	a5,a5
   24148:	0087f793          	andi	a5,a5,8
   2414c:	0007879b          	sext.w	a5,a5
   24150:	fe0780e3          	beqz	a5,24130 <uart_recv+0x1c>
   24154:	fe843503          	ld	a0,-24(s0)
   24158:	c35ff0ef          	jal	ra,23d8c <read8>
   2415c:	00050793          	mv	a5,a0
   24160:	00078513          	mv	a0,a5
   24164:	01813083          	ld	ra,24(sp)
   24168:	01013403          	ld	s0,16(sp)
   2416c:	02010113          	addi	sp,sp,32
   24170:	00008067          	ret

0000000000024174 <uart_send_string>:
   24174:	fd010113          	addi	sp,sp,-48
   24178:	02113423          	sd	ra,40(sp)
   2417c:	02813023          	sd	s0,32(sp)
   24180:	03010413          	addi	s0,sp,48
   24184:	fca43c23          	sd	a0,-40(s0)
   24188:	fe042623          	sw	zero,-20(s0)
   2418c:	04c0006f          	j	241d8 <uart_send_string+0x64>
   24190:	fec42783          	lw	a5,-20(s0)
   24194:	fd843703          	ld	a4,-40(s0)
   24198:	00f707b3          	add	a5,a4,a5
   2419c:	0007c783          	lbu	a5,0(a5)
   241a0:	00078713          	mv	a4,a5
   241a4:	00a00793          	li	a5,10
   241a8:	00f71663          	bne	a4,a5,241b4 <uart_send_string+0x40>
   241ac:	00d00513          	li	a0,13
   241b0:	eb5ff0ef          	jal	ra,24064 <uart_send>
   241b4:	fec42783          	lw	a5,-20(s0)
   241b8:	fd843703          	ld	a4,-40(s0)
   241bc:	00f707b3          	add	a5,a4,a5
   241c0:	0007c783          	lbu	a5,0(a5)
   241c4:	00078513          	mv	a0,a5
   241c8:	e9dff0ef          	jal	ra,24064 <uart_send>
   241cc:	fec42783          	lw	a5,-20(s0)
   241d0:	0017879b          	addiw	a5,a5,1
   241d4:	fef42623          	sw	a5,-20(s0)
   241d8:	fec42783          	lw	a5,-20(s0)
   241dc:	fd843703          	ld	a4,-40(s0)
   241e0:	00f707b3          	add	a5,a4,a5
   241e4:	0007c783          	lbu	a5,0(a5)
   241e8:	fa0794e3          	bnez	a5,24190 <uart_send_string+0x1c>
   241ec:	00000013          	nop
   241f0:	00000013          	nop
   241f4:	02813083          	ld	ra,40(sp)
   241f8:	02013403          	ld	s0,32(sp)
   241fc:	03010113          	addi	sp,sp,48
   24200:	00008067          	ret

0000000000024204 <vpf_str_to_num>:
   24204:	fc010113          	addi	sp,sp,-64
   24208:	02813c23          	sd	s0,56(sp)
   2420c:	04010413          	addi	s0,sp,64
   24210:	fca43423          	sd	a0,-56(s0)
   24214:	fcb43023          	sd	a1,-64(s0)
   24218:	fe042223          	sw	zero,-28(s0)
   2421c:	fc843783          	ld	a5,-56(s0)
   24220:	fef43423          	sd	a5,-24(s0)
   24224:	0900006f          	j	242b4 <vpf_str_to_num+0xb0>
   24228:	fe843783          	ld	a5,-24(s0)
   2422c:	0007c783          	lbu	a5,0(a5)
   24230:	00078713          	mv	a4,a5
   24234:	02f00793          	li	a5,47
   24238:	02e7f063          	bgeu	a5,a4,24258 <vpf_str_to_num+0x54>
   2423c:	fe843783          	ld	a5,-24(s0)
   24240:	0007c783          	lbu	a5,0(a5)
   24244:	00078713          	mv	a4,a5
   24248:	03900793          	li	a5,57
   2424c:	00e7e663          	bltu	a5,a4,24258 <vpf_str_to_num+0x54>
   24250:	00100793          	li	a5,1
   24254:	0080006f          	j	2425c <vpf_str_to_num+0x58>
   24258:	00000793          	li	a5,0
   2425c:	fef42023          	sw	a5,-32(s0)
   24260:	fe042783          	lw	a5,-32(s0)
   24264:	0007879b          	sext.w	a5,a5
   24268:	04078e63          	beqz	a5,242c4 <vpf_str_to_num+0xc0>
   2426c:	fe843783          	ld	a5,-24(s0)
   24270:	0007c783          	lbu	a5,0(a5)
   24274:	0007879b          	sext.w	a5,a5
   24278:	fd07879b          	addiw	a5,a5,-48
   2427c:	fcf42e23          	sw	a5,-36(s0)
   24280:	fe442703          	lw	a4,-28(s0)
   24284:	00070793          	mv	a5,a4
   24288:	0027979b          	slliw	a5,a5,0x2
   2428c:	00e787bb          	addw	a5,a5,a4
   24290:	0017979b          	slliw	a5,a5,0x1
   24294:	fef42223          	sw	a5,-28(s0)
   24298:	fe442703          	lw	a4,-28(s0)
   2429c:	fdc42783          	lw	a5,-36(s0)
   242a0:	00f707bb          	addw	a5,a4,a5
   242a4:	fef42223          	sw	a5,-28(s0)
   242a8:	fe843783          	ld	a5,-24(s0)
   242ac:	00178793          	addi	a5,a5,1
   242b0:	fef43423          	sd	a5,-24(s0)
   242b4:	fc843783          	ld	a5,-56(s0)
   242b8:	0007c783          	lbu	a5,0(a5)
   242bc:	f60796e3          	bnez	a5,24228 <vpf_str_to_num+0x24>
   242c0:	0080006f          	j	242c8 <vpf_str_to_num+0xc4>
   242c4:	00000013          	nop
   242c8:	fc043783          	ld	a5,-64(s0)
   242cc:	fe442703          	lw	a4,-28(s0)
   242d0:	00e7a023          	sw	a4,0(a5)
   242d4:	fe843703          	ld	a4,-24(s0)
   242d8:	fc843783          	ld	a5,-56(s0)
   242dc:	40f707b3          	sub	a5,a4,a5
   242e0:	0007879b          	sext.w	a5,a5
   242e4:	00078513          	mv	a0,a5
   242e8:	03813403          	ld	s0,56(sp)
   242ec:	04010113          	addi	sp,sp,64
   242f0:	00008067          	ret

00000000000242f4 <vpf_num_to_str>:
   242f4:	fb010113          	addi	sp,sp,-80
   242f8:	04113423          	sd	ra,72(sp)
   242fc:	04813023          	sd	s0,64(sp)
   24300:	05010413          	addi	s0,sp,80
   24304:	00050793          	mv	a5,a0
   24308:	00068713          	mv	a4,a3
   2430c:	faf42e23          	sw	a5,-68(s0)
   24310:	00058793          	mv	a5,a1
   24314:	faf42c23          	sw	a5,-72(s0)
   24318:	00060793          	mv	a5,a2
   2431c:	faf42a23          	sw	a5,-76(s0)
   24320:	00070793          	mv	a5,a4
   24324:	faf42823          	sw	a5,-80(s0)
   24328:	fe042223          	sw	zero,-28(s0)
   2432c:	0280006f          	j	24354 <vpf_num_to_str+0x60>
   24330:	fb042783          	lw	a5,-80(s0)
   24334:	0ff7f713          	andi	a4,a5,255
   24338:	fe442783          	lw	a5,-28(s0)
   2433c:	ff040693          	addi	a3,s0,-16
   24340:	00f687b3          	add	a5,a3,a5
   24344:	fce78823          	sb	a4,-48(a5)
   24348:	fe442783          	lw	a5,-28(s0)
   2434c:	0017879b          	addiw	a5,a5,1
   24350:	fef42223          	sw	a5,-28(s0)
   24354:	fe442783          	lw	a5,-28(s0)
   24358:	00078713          	mv	a4,a5
   2435c:	01f00793          	li	a5,31
   24360:	fce7f8e3          	bgeu	a5,a4,24330 <vpf_num_to_str+0x3c>
   24364:	00a00793          	li	a5,10
   24368:	fef42623          	sw	a5,-20(s0)
   2436c:	fb842783          	lw	a5,-72(s0)
   24370:	0007879b          	sext.w	a5,a5
   24374:	00078663          	beqz	a5,24380 <vpf_num_to_str+0x8c>
   24378:	01000793          	li	a5,16
   2437c:	fef42623          	sw	a5,-20(s0)
   24380:	fe042423          	sw	zero,-24(s0)
   24384:	fbc42703          	lw	a4,-68(s0)
   24388:	fec42783          	lw	a5,-20(s0)
   2438c:	02f777bb          	remuw	a5,a4,a5
   24390:	0007879b          	sext.w	a5,a5
   24394:	fef42023          	sw	a5,-32(s0)
   24398:	fe042783          	lw	a5,-32(s0)
   2439c:	0007871b          	sext.w	a4,a5
   243a0:	00900793          	li	a5,9
   243a4:	02e7d463          	bge	a5,a4,243cc <vpf_num_to_str+0xd8>
   243a8:	fe042783          	lw	a5,-32(s0)
   243ac:	0ff7f793          	andi	a5,a5,255
   243b0:	0577879b          	addiw	a5,a5,87
   243b4:	0ff7f713          	andi	a4,a5,255
   243b8:	fe842783          	lw	a5,-24(s0)
   243bc:	ff040693          	addi	a3,s0,-16
   243c0:	00f687b3          	add	a5,a3,a5
   243c4:	fce78823          	sb	a4,-48(a5)
   243c8:	0240006f          	j	243ec <vpf_num_to_str+0xf8>
   243cc:	fe042783          	lw	a5,-32(s0)
   243d0:	0ff7f793          	andi	a5,a5,255
   243d4:	0307879b          	addiw	a5,a5,48
   243d8:	0ff7f713          	andi	a4,a5,255
   243dc:	fe842783          	lw	a5,-24(s0)
   243e0:	ff040693          	addi	a3,s0,-16
   243e4:	00f687b3          	add	a5,a3,a5
   243e8:	fce78823          	sb	a4,-48(a5)
   243ec:	fbc42703          	lw	a4,-68(s0)
   243f0:	fec42783          	lw	a5,-20(s0)
   243f4:	02f757bb          	divuw	a5,a4,a5
   243f8:	faf42e23          	sw	a5,-68(s0)
   243fc:	fe842783          	lw	a5,-24(s0)
   24400:	0017879b          	addiw	a5,a5,1
   24404:	fef42423          	sw	a5,-24(s0)
   24408:	fbc42783          	lw	a5,-68(s0)
   2440c:	0007879b          	sext.w	a5,a5
   24410:	f6079ae3          	bnez	a5,24384 <vpf_num_to_str+0x90>
   24414:	fb442783          	lw	a5,-76(s0)
   24418:	0007879b          	sext.w	a5,a5
   2441c:	02f05c63          	blez	a5,24454 <vpf_num_to_str+0x160>
   24420:	fb442783          	lw	a5,-76(s0)
   24424:	00078713          	mv	a4,a5
   24428:	01f00793          	li	a5,31
   2442c:	00e7f663          	bgeu	a5,a4,24438 <vpf_num_to_str+0x144>
   24430:	01f00793          	li	a5,31
   24434:	faf42a23          	sw	a5,-76(s0)
   24438:	fe842703          	lw	a4,-24(s0)
   2443c:	fb442783          	lw	a5,-76(s0)
   24440:	0007071b          	sext.w	a4,a4
   24444:	0007879b          	sext.w	a5,a5
   24448:	00f75663          	bge	a4,a5,24454 <vpf_num_to_str+0x160>
   2444c:	fb442783          	lw	a5,-76(s0)
   24450:	fef42423          	sw	a5,-24(s0)
   24454:	fe842783          	lw	a5,-24(s0)
   24458:	ff040713          	addi	a4,s0,-16
   2445c:	00f707b3          	add	a5,a4,a5
   24460:	fc078823          	sb	zero,-48(a5)
   24464:	fe842783          	lw	a5,-24(s0)
   24468:	fff7879b          	addiw	a5,a5,-1
   2446c:	fef42223          	sw	a5,-28(s0)
   24470:	0280006f          	j	24498 <vpf_num_to_str+0x1a4>
   24474:	fe442783          	lw	a5,-28(s0)
   24478:	ff040713          	addi	a4,s0,-16
   2447c:	00f707b3          	add	a5,a4,a5
   24480:	fd07c783          	lbu	a5,-48(a5)
   24484:	00078513          	mv	a0,a5
   24488:	bddff0ef          	jal	ra,24064 <uart_send>
   2448c:	fe442783          	lw	a5,-28(s0)
   24490:	fff7879b          	addiw	a5,a5,-1
   24494:	fef42223          	sw	a5,-28(s0)
   24498:	fe442783          	lw	a5,-28(s0)
   2449c:	0007879b          	sext.w	a5,a5
   244a0:	fc07dae3          	bgez	a5,24474 <vpf_num_to_str+0x180>
   244a4:	00000013          	nop
   244a8:	00000013          	nop
   244ac:	04813083          	ld	ra,72(sp)
   244b0:	04013403          	ld	s0,64(sp)
   244b4:	05010113          	addi	sp,sp,80
   244b8:	00008067          	ret

00000000000244bc <vpf>:
   244bc:	fb010113          	addi	sp,sp,-80
   244c0:	04113423          	sd	ra,72(sp)
   244c4:	04813023          	sd	s0,64(sp)
   244c8:	05010413          	addi	s0,sp,80
   244cc:	faa43c23          	sd	a0,-72(s0)
   244d0:	fab43823          	sd	a1,-80(s0)
   244d4:	02000793          	li	a5,32
   244d8:	fcf42a23          	sw	a5,-44(s0)
   244dc:	fb843783          	ld	a5,-72(s0)
   244e0:	fef43423          	sd	a5,-24(s0)
   244e4:	1880006f          	j	2466c <vpf+0x1b0>
   244e8:	fc042e23          	sw	zero,-36(s0)
   244ec:	fc042223          	sw	zero,-60(s0)
   244f0:	fe843783          	ld	a5,-24(s0)
   244f4:	0007c783          	lbu	a5,0(a5)
   244f8:	fcf42823          	sw	a5,-48(s0)
   244fc:	fe843783          	ld	a5,-24(s0)
   24500:	fef43023          	sd	a5,-32(s0)
   24504:	fe843783          	ld	a5,-24(s0)
   24508:	0007c783          	lbu	a5,0(a5)
   2450c:	00078713          	mv	a4,a5
   24510:	02500793          	li	a5,37
   24514:	06f71863          	bne	a4,a5,24584 <vpf+0xc8>
   24518:	fe843783          	ld	a5,-24(s0)
   2451c:	fef43023          	sd	a5,-32(s0)
   24520:	fe843783          	ld	a5,-24(s0)
   24524:	00178793          	addi	a5,a5,1
   24528:	fef43423          	sd	a5,-24(s0)
   2452c:	fe843783          	ld	a5,-24(s0)
   24530:	0007c783          	lbu	a5,0(a5)
   24534:	00078713          	mv	a4,a5
   24538:	02f00793          	li	a5,47
   2453c:	02e7fe63          	bgeu	a5,a4,24578 <vpf+0xbc>
   24540:	fe843783          	ld	a5,-24(s0)
   24544:	0007c783          	lbu	a5,0(a5)
   24548:	00078713          	mv	a4,a5
   2454c:	03900793          	li	a5,57
   24550:	02e7e463          	bltu	a5,a4,24578 <vpf+0xbc>
   24554:	fc440793          	addi	a5,s0,-60
   24558:	00078593          	mv	a1,a5
   2455c:	fe843503          	ld	a0,-24(s0)
   24560:	ca5ff0ef          	jal	ra,24204 <vpf_str_to_num>
   24564:	00050793          	mv	a5,a0
   24568:	00078713          	mv	a4,a5
   2456c:	fe843783          	ld	a5,-24(s0)
   24570:	00e787b3          	add	a5,a5,a4
   24574:	fef43423          	sd	a5,-24(s0)
   24578:	fe843783          	ld	a5,-24(s0)
   2457c:	0007c783          	lbu	a5,0(a5)
   24580:	fcf42e23          	sw	a5,-36(s0)
   24584:	fdc42783          	lw	a5,-36(s0)
   24588:	0007871b          	sext.w	a4,a5
   2458c:	06400793          	li	a5,100
   24590:	00f70a63          	beq	a4,a5,245a4 <vpf+0xe8>
   24594:	fdc42783          	lw	a5,-36(s0)
   24598:	0007871b          	sext.w	a4,a5
   2459c:	07800793          	li	a5,120
   245a0:	04f71863          	bne	a4,a5,245f0 <vpf+0x134>
   245a4:	fb043783          	ld	a5,-80(s0)
   245a8:	00878713          	addi	a4,a5,8
   245ac:	fae43823          	sd	a4,-80(s0)
   245b0:	0007a783          	lw	a5,0(a5)
   245b4:	fcf42423          	sw	a5,-56(s0)
   245b8:	fc842503          	lw	a0,-56(s0)
   245bc:	fdc42783          	lw	a5,-36(s0)
   245c0:	0007871b          	sext.w	a4,a5
   245c4:	07800793          	li	a5,120
   245c8:	40f707b3          	sub	a5,a4,a5
   245cc:	0017b793          	seqz	a5,a5
   245d0:	0ff7f793          	andi	a5,a5,255
   245d4:	0007879b          	sext.w	a5,a5
   245d8:	fc442703          	lw	a4,-60(s0)
   245dc:	fd442683          	lw	a3,-44(s0)
   245e0:	00070613          	mv	a2,a4
   245e4:	00078593          	mv	a1,a5
   245e8:	d0dff0ef          	jal	ra,242f4 <vpf_num_to_str>
   245ec:	0740006f          	j	24660 <vpf+0x1a4>
   245f0:	fc042c23          	sw	zero,-40(s0)
   245f4:	0280006f          	j	2461c <vpf+0x160>
   245f8:	fd842783          	lw	a5,-40(s0)
   245fc:	fe043703          	ld	a4,-32(s0)
   24600:	00f707b3          	add	a5,a4,a5
   24604:	0007c783          	lbu	a5,0(a5)
   24608:	00078513          	mv	a0,a5
   2460c:	a59ff0ef          	jal	ra,24064 <uart_send>
   24610:	fd842783          	lw	a5,-40(s0)
   24614:	0017879b          	addiw	a5,a5,1
   24618:	fcf42c23          	sw	a5,-40(s0)
   2461c:	fd842703          	lw	a4,-40(s0)
   24620:	fe843683          	ld	a3,-24(s0)
   24624:	fe043783          	ld	a5,-32(s0)
   24628:	40f687b3          	sub	a5,a3,a5
   2462c:	fcf746e3          	blt	a4,a5,245f8 <vpf+0x13c>
   24630:	fdc42783          	lw	a5,-36(s0)
   24634:	0007879b          	sext.w	a5,a5
   24638:	00078863          	beqz	a5,24648 <vpf+0x18c>
   2463c:	fdc42783          	lw	a5,-36(s0)
   24640:	0ff7f793          	andi	a5,a5,255
   24644:	00c0006f          	j	24650 <vpf+0x194>
   24648:	fd042783          	lw	a5,-48(s0)
   2464c:	0ff7f793          	andi	a5,a5,255
   24650:	fcf407a3          	sb	a5,-49(s0)
   24654:	fcf44783          	lbu	a5,-49(s0)
   24658:	00078513          	mv	a0,a5
   2465c:	a09ff0ef          	jal	ra,24064 <uart_send>
   24660:	fe843783          	ld	a5,-24(s0)
   24664:	00178793          	addi	a5,a5,1
   24668:	fef43423          	sd	a5,-24(s0)
   2466c:	fe843783          	ld	a5,-24(s0)
   24670:	0007c783          	lbu	a5,0(a5)
   24674:	e6079ae3          	bnez	a5,244e8 <vpf+0x2c>
   24678:	00000793          	li	a5,0
   2467c:	00078513          	mv	a0,a5
   24680:	04813083          	ld	ra,72(sp)
   24684:	04013403          	ld	s0,64(sp)
   24688:	05010113          	addi	sp,sp,80
   2468c:	00008067          	ret

0000000000024690 <sys_uart_printf>:
   24690:	f9010113          	addi	sp,sp,-112
   24694:	02113423          	sd	ra,40(sp)
   24698:	02813023          	sd	s0,32(sp)
   2469c:	03010413          	addi	s0,sp,48
   246a0:	fca43c23          	sd	a0,-40(s0)
   246a4:	00b43423          	sd	a1,8(s0)
   246a8:	00c43823          	sd	a2,16(s0)
   246ac:	00d43c23          	sd	a3,24(s0)
   246b0:	02e43023          	sd	a4,32(s0)
   246b4:	02f43423          	sd	a5,40(s0)
   246b8:	03043823          	sd	a6,48(s0)
   246bc:	03143c23          	sd	a7,56(s0)
   246c0:	04040793          	addi	a5,s0,64
   246c4:	fcf43823          	sd	a5,-48(s0)
   246c8:	fd043783          	ld	a5,-48(s0)
   246cc:	fc878793          	addi	a5,a5,-56
   246d0:	fef43423          	sd	a5,-24(s0)
   246d4:	fe843783          	ld	a5,-24(s0)
   246d8:	00078593          	mv	a1,a5
   246dc:	fd843503          	ld	a0,-40(s0)
   246e0:	dddff0ef          	jal	ra,244bc <vpf>
   246e4:	00000793          	li	a5,0
   246e8:	00078513          	mv	a0,a5
   246ec:	02813083          	ld	ra,40(sp)
   246f0:	02013403          	ld	s0,32(sp)
   246f4:	07010113          	addi	sp,sp,112
   246f8:	00008067          	ret

00000000000246fc <print_hex>:
   246fc:	fd010113          	addi	sp,sp,-48
   24700:	02113423          	sd	ra,40(sp)
   24704:	02813023          	sd	s0,32(sp)
   24708:	03010413          	addi	s0,sp,48
   2470c:	00050793          	mv	a5,a0
   24710:	fcf42e23          	sw	a5,-36(s0)
   24714:	03000513          	li	a0,48
   24718:	94dff0ef          	jal	ra,24064 <uart_send>
   2471c:	07800513          	li	a0,120
   24720:	945ff0ef          	jal	ra,24064 <uart_send>
   24724:	00700793          	li	a5,7
   24728:	fef42623          	sw	a5,-20(s0)
   2472c:	07c0006f          	j	247a8 <print_hex+0xac>
   24730:	fec42783          	lw	a5,-20(s0)
   24734:	0027979b          	slliw	a5,a5,0x2
   24738:	0007879b          	sext.w	a5,a5
   2473c:	00078713          	mv	a4,a5
   24740:	fdc42783          	lw	a5,-36(s0)
   24744:	00e7d7bb          	srlw	a5,a5,a4
   24748:	0007879b          	sext.w	a5,a5
   2474c:	0007879b          	sext.w	a5,a5
   24750:	00f7f793          	andi	a5,a5,15
   24754:	fef42423          	sw	a5,-24(s0)
   24758:	fe842783          	lw	a5,-24(s0)
   2475c:	0007871b          	sext.w	a4,a5
   24760:	00900793          	li	a5,9
   24764:	02e7c063          	blt	a5,a4,24784 <print_hex+0x88>
   24768:	fe842783          	lw	a5,-24(s0)
   2476c:	0ff7f793          	andi	a5,a5,255
   24770:	0307879b          	addiw	a5,a5,48
   24774:	0ff7f793          	andi	a5,a5,255
   24778:	00078513          	mv	a0,a5
   2477c:	8e9ff0ef          	jal	ra,24064 <uart_send>
   24780:	01c0006f          	j	2479c <print_hex+0xa0>
   24784:	fe842783          	lw	a5,-24(s0)
   24788:	0ff7f793          	andi	a5,a5,255
   2478c:	0377879b          	addiw	a5,a5,55
   24790:	0ff7f793          	andi	a5,a5,255
   24794:	00078513          	mv	a0,a5
   24798:	8cdff0ef          	jal	ra,24064 <uart_send>
   2479c:	fec42783          	lw	a5,-20(s0)
   247a0:	fff7879b          	addiw	a5,a5,-1
   247a4:	fef42623          	sw	a5,-20(s0)
   247a8:	fec42783          	lw	a5,-20(s0)
   247ac:	0007879b          	sext.w	a5,a5
   247b0:	f807d0e3          	bgez	a5,24730 <print_hex+0x34>
   247b4:	00000013          	nop
   247b8:	00000013          	nop
   247bc:	02813083          	ld	ra,40(sp)
   247c0:	02013403          	ld	s0,32(sp)
   247c4:	03010113          	addi	sp,sp,48
   247c8:	00008067          	ret
   247cc:	0000                	unimp
	...

00000000000247d0 <my_test_data>:
   247d0:	abcd                	j	24dc2 <boot_string+0xa>
   247d2:	abcd                	j	24dc4 <boot_string+0xc>
   247d4:	5678                	lw	a4,108(a2)
   247d6:	1234                	addi	a3,sp,296

00000000000247d8 <load_store_test>:
   247d8:	000212b7          	lui	t0,0x21
   247dc:	00028303          	lb	t1,0(t0) # 21000 <_start-0x1000>
   247e0:	00428303          	lb	t1,4(t0)
   247e4:	ffc28303          	lb	t1,-4(t0)
   247e8:	0002b303          	ld	t1,0(t0)
   247ec:	00428303          	lb	t1,4(t0)
   247f0:	00000297          	auipc	t0,0x0
   247f4:	fe028293          	addi	t0,t0,-32 # 247d0 <my_test_data>
   247f8:	00000317          	auipc	t1,0x0
   247fc:	fd830313          	addi	t1,t1,-40 # 247d0 <my_test_data>
   24800:	802002b7          	lui	t0,0x80200
   24804:	40200337          	lui	t1,0x40200
   24808:	00008067          	ret

000000000002480c <shift_test>:
   2480c:	c00002b7          	lui	t0,0xc0000
   24810:	0452829b          	addiw	t0,t0,69
   24814:	02129293          	slli	t0,t0,0x21
   24818:	4012d593          	srai	a1,t0,0x1
   2481c:	0012d313          	srli	t1,t0,0x1
   24820:	0250029b          	addiw	t0,zero,37
   24824:	01f29293          	slli	t0,t0,0x1f
   24828:	08a28293          	addi	t0,t0,138 # ffffffffc000008a <TEXT_ROM+0xffffffffbffd908a>
   2482c:	4012d61b          	sraiw	a2,t0,0x1
   24830:	0012d31b          	srliw	t1,t0,0x1
   24834:	0012969b          	slliw	a3,t0,0x1
   24838:	0490029b          	addiw	t0,zero,73
   2483c:	01e29293          	slli	t0,t0,0x1e
   24840:	08a28293          	addi	t0,t0,138
   24844:	4012d61b          	sraiw	a2,t0,0x1
   24848:	0012d31b          	srliw	t1,t0,0x1
   2484c:	0012971b          	slliw	a4,t0,0x1
   24850:	00008067          	ret

0000000000024854 <add_sub_test>:
   24854:	80028593          	addi	a1,t0,-2048
   24858:	000012b7          	lui	t0,0x1
   2485c:	a012829b          	addiw	t0,t0,-1535
   24860:	01529293          	slli	t0,t0,0x15
   24864:	40000337          	lui	t1,0x40000
   24868:	70028593          	addi	a1,t0,1792 # 1700 <_start-0x20900>
   2486c:	80028593          	addi	a1,t0,-2048
   24870:	0802861b          	addiw	a2,t0,128
   24874:	006286b3          	add	a3,t0,t1
   24878:	0062873b          	addw	a4,t0,t1
   2487c:	000012b7          	lui	t0,0x1
   24880:	c012829b          	addiw	t0,t0,-1023
   24884:	01529293          	slli	t0,t0,0x15
   24888:	00200337          	lui	t1,0x200
   2488c:	40628533          	sub	a0,t0,t1
   24890:	406285bb          	subw	a1,t0,t1
   24894:	00008067          	ret

0000000000024898 <add_test>:
   24898:	00b50533          	add	a0,a0,a1
   2489c:	00000013          	nop
   248a0:	00008067          	ret

00000000000248a4 <branch_test>:
   248a4:	ff810113          	addi	sp,sp,-8
   248a8:	00113023          	sd	ra,0(sp)
   248ac:	00100513          	li	a0,1
   248b0:	00200593          	li	a1,2
   248b4:	fe5ff0ef          	jal	ra,24898 <add_test>
   248b8:	00000013          	nop
   248bc:	00013083          	ld	ra,0(sp)
   248c0:	00810113          	addi	sp,sp,8
   248c4:	00008067          	ret

00000000000248c8 <my_memcpy_test>:
   248c8:	000202b7          	lui	t0,0x20
   248cc:	00021337          	lui	t1,0x21
   248d0:	02028393          	addi	t2,t0,32 # 20020 <_start-0x1fe0>

00000000000248d4 <.loop>:
   248d4:	0002be03          	ld	t3,0(t0)
   248d8:	01c33023          	sd	t3,0(t1) # 21000 <_start-0x1000>
   248dc:	00828293          	addi	t0,t0,8
   248e0:	00830313          	addi	t1,t1,8
   248e4:	fe72c8e3          	blt	t0,t2,248d4 <.loop>
   248e8:	00008067          	ret

00000000000248ec <compare_and_return>:
   248ec:	00b56663          	bltu	a0,a1,248f8 <compare_and_return+0xc>
   248f0:	00000793          	li	a5,0
   248f4:	0080006f          	j	248fc <compare_and_return+0x10>
   248f8:	fff00793          	li	a5,-1
   248fc:	00078513          	mv	a0,a5
   24900:	00008067          	ret

0000000000024904 <sel_test>:
   24904:	00050663          	beqz	a0,24910 <sel_test+0xc>
   24908:	fff58793          	addi	a5,a1,-1
   2490c:	0080006f          	j	24914 <sel_test+0x10>
   24910:	00258793          	addi	a5,a1,2
   24914:	00078513          	mv	a0,a5
   24918:	00008067          	ret

000000000002491c <bl_test>:
   2491c:	ff010113          	addi	sp,sp,-16
   24920:	00113423          	sd	ra,8(sp)
   24924:	fe1ff0ef          	jal	ra,24904 <sel_test>
   24928:	00813083          	ld	ra,8(sp)
   2492c:	01010113          	addi	sp,sp,16
   24930:	00008067          	ret
   24934:	00000013          	nop

0000000000024938 <func_addr>:
   24938:	0800                	addi	s0,sp,16
   2493a:	0080                	addi	s0,sp,64
   2493c:	0000                	unimp
   2493e:	0000                	unimp
   24940:	0860                	addi	s0,sp,28
   24942:	0080                	addi	s0,sp,64
   24944:	0000                	unimp
   24946:	0000                	unimp
   24948:	0880                	addi	s0,sp,80
   2494a:	0080                	addi	s0,sp,64
   2494c:	0000                	unimp
	...

0000000000024950 <func_string>:
   24950:	7566                	ld	a0,120(sp)
   24952:	636e                	ld	t1,216(sp)
   24954:	615f 6600 6e75      	0x6e756600615f
   2495a:	00625f63          	bge	tp,t1,24978 <op_2>
   2495e:	7566                	ld	a0,120(sp)
   24960:	636e                	ld	t1,216(sp)
   24962:	635f 0100 0000      	0x100635f

0000000000024968 <func_num_syms>:
   24968:	00000003          	lb	zero,0(zero) # 0 <_start-0x22000>
   2496c:	0000                	unimp
	...

0000000000024970 <op_1>:
   24970:	00b50533          	add	a0,a0,a1
   24974:	00008067          	ret

0000000000024978 <op_2>:
   24978:	40b50533          	sub	a0,a0,a1
   2497c:	00008067          	ret

0000000000024980 <macro_test_1>:
   24980:	ff010113          	addi	sp,sp,-16
   24984:	00113423          	sd	ra,8(sp)
   24988:	00050293          	mv	t0,a0
   2498c:	00058313          	mv	t1,a1
   24990:	00028513          	mv	a0,t0
   24994:	00030593          	mv	a1,t1
   24998:	fd9ff0ef          	jal	ra,24970 <op_1>
   2499c:	00813083          	ld	ra,8(sp)
   249a0:	01010113          	addi	sp,sp,16
   249a4:	00008067          	ret

00000000000249a8 <macro_test_2>:
   249a8:	ff010113          	addi	sp,sp,-16
   249ac:	00113423          	sd	ra,8(sp)
   249b0:	00050293          	mv	t0,a0
   249b4:	00058313          	mv	t1,a1
   249b8:	00028513          	mv	a0,t0
   249bc:	00030593          	mv	a1,t1
   249c0:	fb9ff0ef          	jal	ra,24978 <op_2>
   249c4:	00813083          	ld	ra,8(sp)
   249c8:	01010113          	addi	sp,sp,16
   249cc:	00008067          	ret
	...

00000000000249d8 <__init_uart>:
   249d8:	020002b7          	lui	t0,0x2000
   249dc:	0f02829b          	addiw	t0,t0,240
   249e0:	0002a303          	lw	t1,0(t0) # 2000000 <TEXT_ROM+0x1fd9000>
   249e4:	fff0f3b7          	lui	t2,0xfff0f
   249e8:	0ff3839b          	addiw	t2,t2,255
   249ec:	00737333          	and	t1,t1,t2
   249f0:	000303b7          	lui	t2,0x30
   249f4:	3003839b          	addiw	t2,t2,768
   249f8:	00736333          	or	t1,t1,t2
   249fc:	0062a023          	sw	t1,0(t0)
   24a00:	020022b7          	lui	t0,0x2002
   24a04:	90c2829b          	addiw	t0,t0,-1780
   24a08:	0002a303          	lw	t1,0(t0) # 2002000 <TEXT_ROM+0x1fdb000>
   24a0c:	00136313          	ori	t1,t1,1
   24a10:	0062a023          	sw	t1,0(t0)
   24a14:	020022b7          	lui	t0,0x2002
   24a18:	90c2829b          	addiw	t0,t0,-1780
   24a1c:	0002a303          	lw	t1,0(t0) # 2002000 <TEXT_ROM+0x1fdb000>
   24a20:	000103b7          	lui	t2,0x10
   24a24:	00736333          	or	t1,t1,t2
   24a28:	0062a023          	sw	t1,0(t0)
   24a2c:	025002b7          	lui	t0,0x2500
   24a30:	0002a223          	sw	zero,4(t0) # 2500004 <TEXT_ROM+0x24d9004>
   24a34:	0f700313          	li	t1,247
   24a38:	0062a423          	sw	t1,8(t0)
   24a3c:	0002a823          	sw	zero,16(t0)
   24a40:	00c2a303          	lw	t1,12(t0)
   24a44:	08036313          	ori	t1,t1,128
   24a48:	0062a623          	sw	t1,12(t0)
   24a4c:	00d00393          	li	t2,13
   24a50:	0072a023          	sw	t2,0(t0)
   24a54:	00000393          	li	t2,0
   24a58:	0072a223          	sw	t2,4(t0)
   24a5c:	08034313          	xori	t1,t1,128
   24a60:	0062a623          	sw	t1,12(t0)
   24a64:	00c2a303          	lw	t1,12(t0)
   24a68:	ff000393          	li	t2,-16
   24a6c:	00737333          	and	t1,t1,t2
   24a70:	00300393          	li	t2,3
   24a74:	00736333          	or	t1,t1,t2
   24a78:	0062a623          	sw	t1,12(t0)
   24a7c:	00008067          	ret

0000000000024a80 <put_uart>:
   24a80:	025002b7          	lui	t0,0x2500

0000000000024a84 <.loop>:
   24a84:	07c2a303          	lw	t1,124(t0) # 250007c <TEXT_ROM+0x24d907c>
   24a88:	00237313          	andi	t1,t1,2
   24a8c:	fe030ce3          	beqz	t1,24a84 <.loop>
   24a90:	00a28023          	sb	a0,0(t0)
   24a94:	00008067          	ret

0000000000024a98 <put_string_uart>:
   24a98:	00008c13          	mv	s8,ra
   24a9c:	00050793          	mv	a5,a0

0000000000024aa0 <.loop1>:
   24aa0:	0007c503          	lbu	a0,0(a5)
   24aa4:	00050863          	beqz	a0,24ab4 <.loop1+0x14>
   24aa8:	fd9ff0ef          	jal	ra,24a80 <put_uart>
   24aac:	00178793          	addi	a5,a5,1
   24ab0:	ff1ff06f          	j	24aa0 <.loop1>
   24ab4:	000c0093          	mv	ra,s8
   24ab8:	00008067          	ret

0000000000024abc <__memset_16bytes_asm>:
   24abc:	00000293          	li	t0,0

0000000000024ac0 <.loop>:
   24ac0:	00b53023          	sd	a1,0(a0) # 2001000 <TEXT_ROM+0x1fda000>
   24ac4:	00b53423          	sd	a1,8(a0)
   24ac8:	01028293          	addi	t0,t0,16
   24acc:	fec2cae3          	blt	t0,a2,24ac0 <.loop>
   24ad0:	00008067          	ret

Disassembly of section .rodata:

0000000000024ad8 <_etext>:
   24ad8:	303c                	fld	fa5,96(s0)
   24ada:	2578                	fld	fa4,200(a0)
   24adc:	786c                	ld	a1,240(s0)
   24ade:	203e                	fld	ft0,456(sp)
   24ae0:	7325                	lui	t1,0xfffe9
   24ae2:	000a                	c.slli	zero,0x2
   24ae4:	0000                	unimp
   24ae6:	0000                	unimp
   24ae8:	616c                	ld	a1,192(a0)
   24aea:	3362                	fld	ft6,56(sp)
   24aec:	352d                	addiw	a0,a0,-21
   24aee:	203a                	fld	ft0,392(sp)
   24af0:	706d6f63          	bltu	s10,t1,2520e <stacks_start+0x20e>
   24af4:	7261                	lui	tp,0xffff8
   24af6:	5f65                	li	t5,-7
   24af8:	6e61                	lui	t3,0x18
   24afa:	5f64                	lw	s1,124(a4)
   24afc:	6572                	ld	a0,280(sp)
   24afe:	7574                	ld	a3,232(a0)
   24b00:	6e72                	ld	t3,280(sp)
   24b02:	6f20                	ld	s0,88(a4)
   24b04:	00000a6b          	0xa6b
   24b08:	616c                	ld	a1,192(a0)
   24b0a:	3362                	fld	ft6,56(sp)
   24b0c:	372d                	addiw	a4,a4,-21
   24b0e:	203a                	fld	ft0,392(sp)
   24b10:	7262                	ld	tp,56(sp)
   24b12:	6e61                	lui	t3,0x18
   24b14:	74206863          	bltu	zero,sp,25264 <stacks_start+0x264>
   24b18:	7365                	lui	t1,0xffff9
   24b1a:	2074                	fld	fa3,192(s0)
   24b1c:	000a6b6f          	jal	s6,cab1c <TEXT_ROM+0xa3b1c>
   24b20:	616c                	ld	a1,192(a0)
   24b22:	3562                	fld	fa0,56(sp)
   24b24:	352d                	addiw	a0,a0,-21
   24b26:	203a                	fld	ft0,392(sp)
   24b28:	616d                	addi	sp,sp,240
   24b2a:	5f6f7263          	bgeu	t5,s6,2510e <stacks_start+0x10e>
   24b2e:	6574                	ld	a3,200(a0)
   24b30:	315f7473          	csrrci	s0,0x315,30
   24b34:	6f20                	ld	s0,88(a4)
   24b36:	00000a6b          	0xa6b
   24b3a:	0000                	unimp
   24b3c:	0000                	unimp
   24b3e:	0000                	unimp
   24b40:	616c                	ld	a1,192(a0)
   24b42:	3562                	fld	fa0,56(sp)
   24b44:	352d                	addiw	a0,a0,-21
   24b46:	203a                	fld	ft0,392(sp)
   24b48:	616d                	addi	sp,sp,240
   24b4a:	5f6f7263          	bgeu	t5,s6,2512e <stacks_start+0x12e>
   24b4e:	6574                	ld	a3,200(a0)
   24b50:	325f7473          	csrrci	s0,mhpmevent5,30
   24b54:	6f20                	ld	s0,88(a4)
   24b56:	00000a6b          	0xa6b
   24b5a:	0000                	unimp
   24b5c:	0000                	unimp
   24b5e:	0000                	unimp
   24b60:	6542                	ld	a0,16(sp)
   24b62:	4f6e                	lw	t5,216(sp)
   24b64:	6d692053          	0x6d692053
   24b68:	6761                	lui	a4,0x18
   24b6a:	2065                	0x2065
   24b6c:	616c                	ld	a1,192(a0)
   24b6e:	6f79                	lui	t5,0x1e
   24b70:	7475                	lui	s0,0xffffd
   24b72:	0a3a                	slli	s4,s4,0xe
   24b74:	0000                	unimp
   24b76:	0000                	unimp
   24b78:	2020                	fld	fs0,64(s0)
   24b7a:	742e                	ld	s0,232(sp)
   24b7c:	7865                	lui	a6,0xffff9
   24b7e:	2e74                	fld	fa3,216(a2)
   24b80:	6f62                	ld	t5,24(sp)
   24b82:	203a746f          	jal	s0,cc584 <TEXT_ROM+0xa5584>
   24b86:	7830                	ld	a2,112(s0)
   24b88:	3025                	0x3025
   24b8a:	6c38                	ld	a4,88(s0)
   24b8c:	2078                	fld	fa4,192(s0)
   24b8e:	202d                	0x202d
   24b90:	7830                	ld	a2,112(s0)
   24b92:	3025                	0x3025
   24b94:	6c38                	ld	a4,88(s0)
   24b96:	2078                	fld	fa4,192(s0)
   24b98:	2528                	fld	fa0,72(a0)
   24b9a:	6c36                	ld	s8,328(sp)
   24b9c:	2064                	fld	fs1,192(s0)
   24b9e:	2942                	fld	fs2,16(sp)
   24ba0:	000a                	c.slli	zero,0x2
   24ba2:	0000                	unimp
   24ba4:	0000                	unimp
   24ba6:	0000                	unimp
   24ba8:	2020                	fld	fs0,64(s0)
   24baa:	2020                	fld	fs0,64(s0)
   24bac:	2020                	fld	fs0,64(s0)
   24bae:	2e20                	fld	fs0,88(a2)
   24bb0:	6574                	ld	a3,200(a0)
   24bb2:	7478                	ld	a4,232(s0)
   24bb4:	203a                	fld	ft0,392(sp)
   24bb6:	7830                	ld	a2,112(s0)
   24bb8:	3025                	0x3025
   24bba:	6c38                	ld	a4,88(s0)
   24bbc:	2078                	fld	fa4,192(s0)
   24bbe:	202d                	0x202d
   24bc0:	7830                	ld	a2,112(s0)
   24bc2:	3025                	0x3025
   24bc4:	6c38                	ld	a4,88(s0)
   24bc6:	2078                	fld	fa4,192(s0)
   24bc8:	2528                	fld	fa0,72(a0)
   24bca:	6c36                	ld	s8,328(sp)
   24bcc:	2064                	fld	fs1,192(s0)
   24bce:	2942                	fld	fs2,16(sp)
   24bd0:	000a                	c.slli	zero,0x2
   24bd2:	0000                	unimp
   24bd4:	0000                	unimp
   24bd6:	0000                	unimp
   24bd8:	2020                	fld	fs0,64(s0)
   24bda:	2020                	fld	fs0,64(s0)
   24bdc:	2e20                	fld	fs0,88(a2)
   24bde:	6f72                	ld	t5,280(sp)
   24be0:	6164                	ld	s1,192(a0)
   24be2:	6174                	ld	a3,192(a0)
   24be4:	203a                	fld	ft0,392(sp)
   24be6:	7830                	ld	a2,112(s0)
   24be8:	3025                	0x3025
   24bea:	6c38                	ld	a4,88(s0)
   24bec:	2078                	fld	fa4,192(s0)
   24bee:	202d                	0x202d
   24bf0:	7830                	ld	a2,112(s0)
   24bf2:	3025                	0x3025
   24bf4:	6c38                	ld	a4,88(s0)
   24bf6:	2078                	fld	fa4,192(s0)
   24bf8:	2528                	fld	fa0,72(a0)
   24bfa:	6c36                	ld	s8,328(sp)
   24bfc:	2064                	fld	fs1,192(s0)
   24bfe:	2942                	fld	fs2,16(sp)
   24c00:	000a                	c.slli	zero,0x2
   24c02:	0000                	unimp
   24c04:	0000                	unimp
   24c06:	0000                	unimp
   24c08:	2020                	fld	fs0,64(s0)
   24c0a:	2020                	fld	fs0,64(s0)
   24c0c:	2020                	fld	fs0,64(s0)
   24c0e:	2e20                	fld	fs0,88(a2)
   24c10:	6164                	ld	s1,192(a0)
   24c12:	6174                	ld	a3,192(a0)
   24c14:	203a                	fld	ft0,392(sp)
   24c16:	7830                	ld	a2,112(s0)
   24c18:	3025                	0x3025
   24c1a:	6c38                	ld	a4,88(s0)
   24c1c:	2078                	fld	fa4,192(s0)
   24c1e:	202d                	0x202d
   24c20:	7830                	ld	a2,112(s0)
   24c22:	3025                	0x3025
   24c24:	6c38                	ld	a4,88(s0)
   24c26:	2078                	fld	fa4,192(s0)
   24c28:	2528                	fld	fa0,72(a0)
   24c2a:	6c36                	ld	s8,328(sp)
   24c2c:	2064                	fld	fs1,192(s0)
   24c2e:	2942                	fld	fs2,16(sp)
   24c30:	000a                	c.slli	zero,0x2
   24c32:	0000                	unimp
   24c34:	0000                	unimp
   24c36:	0000                	unimp
   24c38:	2020                	fld	fs0,64(s0)
   24c3a:	2020                	fld	fs0,64(s0)
   24c3c:	2020                	fld	fs0,64(s0)
   24c3e:	2020                	fld	fs0,64(s0)
   24c40:	622e                	ld	tp,200(sp)
   24c42:	203a7373          	csrrci	t1,0x203,20
   24c46:	7830                	ld	a2,112(s0)
   24c48:	3025                	0x3025
   24c4a:	6c38                	ld	a4,88(s0)
   24c4c:	2078                	fld	fa4,192(s0)
   24c4e:	202d                	0x202d
   24c50:	7830                	ld	a2,112(s0)
   24c52:	3025                	0x3025
   24c54:	6c38                	ld	a4,88(s0)
   24c56:	2078                	fld	fa4,192(s0)
   24c58:	2528                	fld	fa0,72(a0)
   24c5a:	6c36                	ld	s8,328(sp)
   24c5c:	2064                	fld	fs1,192(s0)
   24c5e:	2942                	fld	fs2,16(sp)
   24c60:	000a                	c.slli	zero,0x2
   24c62:	0000                	unimp
   24c64:	0000                	unimp
   24c66:	0000                	unimp
   24c68:	636c6557          	0x636c6557
   24c6c:	20656d6f          	jal	s10,7ae72 <TEXT_ROM+0x53e72>
   24c70:	4952                	lw	s2,20(sp)
   24c72:	562d4353          	0x562d4353
   24c76:	0d21                	addi	s10,s10,8
   24c78:	000a                	c.slli	zero,0x2
   24c7a:	0000                	unimp
   24c7c:	0000                	unimp
   24c7e:	0000                	unimp
   24c80:	7270                	ld	a2,224(a2)
   24c82:	6e69                	lui	t3,0x1a
   24c84:	6b74                	ld	a3,208(a4)
   24c86:	6920                	ld	s0,80(a0)
   24c88:	696e                	ld	s2,216(sp)
   24c8a:	2074                	fld	fa3,192(s0)
   24c8c:	6f64                	ld	s1,216(a4)
   24c8e:	656e                	ld	a0,216(sp)
   24c90:	000a                	c.slli	zero,0x2
   24c92:	0000                	unimp
   24c94:	0000                	unimp
   24c96:	0000                	unimp
   24c98:	3130                	fld	fa2,96(a0)
   24c9a:	3332                	fld	ft6,296(sp)
   24c9c:	3534                	fld	fa3,104(a0)
   24c9e:	3736                	fld	fa4,360(sp)
   24ca0:	3938                	fld	fa4,112(a0)
   24ca2:	4241                	li	tp,16
   24ca4:	46454443          	fmadd.q	fs0,fa0,ft4,fs0,rmm
   24ca8:	4a494847          	fmsub.d	fa6,fs2,ft4,fs1,rmm
   24cac:	4e4d4c4b          	fnmsub.q	fs8,fs10,ft4,fs1,rmm
   24cb0:	5251504f          	fnmadd.d	ft0,ft2,ft5,fa0,unknown
   24cb4:	56555453          	0x56555453
   24cb8:	5a595857          	0x5a595857
   24cbc:	0000                	unimp
   24cbe:	0000                	unimp
   24cc0:	3130                	fld	fa2,96(a0)
   24cc2:	3332                	fld	ft6,296(sp)
   24cc4:	3534                	fld	fa3,104(a0)
   24cc6:	3736                	fld	fa4,360(sp)
   24cc8:	3938                	fld	fa4,112(a0)
   24cca:	6261                	lui	tp,0x18
   24ccc:	66656463          	bltu	a0,t1,25334 <stacks_start+0x334>
   24cd0:	6a696867          	0x6a696867
   24cd4:	6e6d6c6b          	0x6e6d6c6b
   24cd8:	7271706f          	j	3cbfe <TEXT_ROM+0x15bfe>
   24cdc:	76757473          	csrrci	s0,0x767,10
   24ce0:	7a797877          	0x7a797877
   24ce4:	0000                	unimp
   24ce6:	0000                	unimp
   24ce8:	4e3c                	lw	a5,88(a2)
   24cea:	4c55                	li	s8,21
   24cec:	3e4c                	fld	fa1,184(a2)
   24cee:	0000                	unimp
   24cf0:	df44                	sw	s1,60(a4)
   24cf2:	df74ffff          	0xdf74ffff
   24cf6:	df74ffff          	0xdf74ffff
   24cfa:	df54ffff          	0xdf54ffff
   24cfe:	df74ffff          	0xdf74ffff
   24d02:	df74ffff          	0xdf74ffff
   24d06:	df74ffff          	0xdf74ffff
   24d0a:	df74ffff          	0xdf74ffff
   24d0e:	df74ffff          	0xdf74ffff
   24d12:	df74ffff          	0xdf74ffff
   24d16:	df74ffff          	0xdf74ffff
   24d1a:	df34ffff          	0xdf34ffff
   24d1e:	df74ffff          	0xdf74ffff
   24d22:	df24ffff          	0xdf24ffff
   24d26:	df74ffff          	0xdf74ffff
   24d2a:	df74ffff          	0xdf74ffff
   24d2e:	df64ffff          	0xdf64ffff
   24d32:	e3a0ffff          	0xe3a0ffff
   24d36:	e3c4ffff          	0xe3c4ffff
   24d3a:	e3c4ffff          	0xe3c4ffff
   24d3e:	e3c4ffff          	0xe3c4ffff
   24d42:	e3c4ffff          	0xe3c4ffff
   24d46:	e3c4ffff          	0xe3c4ffff
   24d4a:	e3c4ffff          	0xe3c4ffff
   24d4e:	e3c4ffff          	0xe3c4ffff
   24d52:	e3c4ffff          	0xe3c4ffff
   24d56:	e3c4ffff          	0xe3c4ffff
   24d5a:	e3c4ffff          	0xe3c4ffff
   24d5e:	e140ffff          	0xe140ffff
   24d62:	e3acffff          	0xe3acffff
   24d66:	e3c4ffff          	0xe3c4ffff
   24d6a:	e3c4ffff          	0xe3c4ffff
   24d6e:	e3c4ffff          	0xe3c4ffff
   24d72:	e3c4ffff          	0xe3c4ffff
   24d76:	e3acffff          	0xe3acffff
   24d7a:	e3c4ffff          	0xe3c4ffff
   24d7e:	e3c4ffff          	0xe3c4ffff
   24d82:	e3c4ffff          	0xe3c4ffff
   24d86:	e3c4ffff          	0xe3c4ffff
   24d8a:	e300ffff          	0xe300ffff
   24d8e:	e388ffff          	0xe388ffff
   24d92:	e330ffff          	0xe330ffff
   24d96:	e3c4ffff          	0xe3c4ffff
   24d9a:	e3c4ffff          	0xe3c4ffff
   24d9e:	e1d8ffff          	0xe1d8ffff
   24da2:	e3c4ffff          	0xe3c4ffff
   24da6:	e3b8ffff          	0xe3b8ffff
   24daa:	e3c4ffff          	0xe3c4ffff
   24dae:	e3c4ffff          	0xe3c4ffff
   24db2:	e394ffff          	0xe394ffff
   24db6:	          	0x6f42ffff

0000000000024db8 <boot_string>:
   24db8:	6f42                	ld	t5,16(sp)
   24dba:	6e69746f          	jal	s0,bc4a0 <TEXT_ROM+0x954a0>
   24dbe:	74612067          	0x74612067
   24dc2:	6120                	ld	s0,64(a0)
   24dc4:	000a6d73          	csrrsi	s10,ustatus,20

Disassembly of section .data:

0000000000025000 <stacks_start>:
	...

Disassembly of section .sdata:

0000000000026000 <g_record>:
   26000:	6108                	ld	a0,0(a0)
   26002:	0002                	c.slli64	zero
   26004:	0000                	unimp
	...

Disassembly of section .bss:

0000000000026008 <print_buf>:
	...

0000000000026108 <log_buf>:
	...

0000000000026208 <g_printk_status>:
	...

0000000000026210 <g_record_len>:
	...

Disassembly of section .debug_info:

0000000000000000 <.debug_info>:
       0:	00000267          	jalr	tp,zero # 0 <_start-0x22000>
       4:	0004                	0x4
       6:	0000                	unimp
       8:	0000                	unimp
       a:	0108                	addi	a0,sp,128
       c:	00000083          	lb	ra,0(zero) # 0 <_start-0x22000>
      10:	c70c                	sw	a1,8(a4)
      12:	0001                	nop
      14:	fe00                	sd	s0,56(a2)
      16:	0000                	unimp
      18:	6800                	ld	s0,16(s0)
      1a:	0220                	addi	s0,sp,264
      1c:	0000                	unimp
      1e:	0000                	unimp
      20:	1000                	addi	s0,sp,32
      22:	0004                	0x4
	...
      2c:	0200                	addi	s0,sp,256
      2e:	0601                	addi	a2,a2,0
      30:	0041                	c.nop	16
      32:	0000                	unimp
      34:	0102                	c.slli64	sp
      36:	3f08                	fld	fa0,56(a4)
      38:	0000                	unimp
      3a:	0200                	addi	s0,sp,256
      3c:	0502                	c.slli64	a0
      3e:	017e                	slli	sp,sp,0x1f
      40:	0000                	unimp
      42:	0202                	c.slli64	tp
      44:	00006207          	vle32.v	v4,(zero),v0.t
      48:	0300                	addi	s0,sp,384
      4a:	0504                	addi	s1,sp,640
      4c:	6e69                	lui	t3,0x1a
      4e:	0074                	addi	a3,sp,12
      50:	0402                	c.slli64	s0
      52:	00015c07          	vle16.v	v24,(sp),v0.t
      56:	0200                	addi	s0,sp,256
      58:	0508                	addi	a0,sp,640
      5a:	0170                	addi	a2,sp,140
      5c:	0000                	unimp
      5e:	0802                	c.slli64	a6
      60:	00015207          	vle16.v	v4,(sp),v0.t
      64:	0200                	addi	s0,sp,256
      66:	0508                	addi	a0,sp,640
      68:	0175                	addi	sp,sp,29
      6a:	0000                	unimp
      6c:	0802                	c.slli64	a6
      6e:	00015707          	vle16.v	v14,(sp),v0.t
      72:	0400                	addi	s0,sp,512
      74:	006c                	addi	a1,sp,12
      76:	0000                	unimp
      78:	007e                	c.slli	zero,0x1f
      7a:	0000                	unimp
      7c:	0005                	c.nop	1
      7e:	3506                	fld	fa0,96(sp)
      80:	0000                	unimp
      82:	0100                	addi	s0,sp,128
      84:	1611                	addi	a2,a2,-28
      86:	00000073          	ecall
      8a:	5406                	lw	s0,96(sp)
      8c:	0000                	unimp
      8e:	0100                	addi	s0,sp,128
      90:	1612                	slli	a2,a2,0x24
      92:	006c                	addi	a1,sp,12
      94:	0000                	unimp
      96:	9806                	add	a6,a6,ra
      98:	0001                	nop
      9a:	0100                	addi	s0,sp,128
      9c:	00a20d13          	addi	s10,tp,10 # 1800a <_start-0x9ff6>
      a0:	0000                	unimp
      a2:	0102                	c.slli64	sp
      a4:	4808                	lw	a0,16(s0)
      a6:	0000                	unimp
      a8:	0400                	addi	s0,sp,512
      aa:	00a2                	slli	ra,ra,0x8
      ac:	0000                	unimp
      ae:	00b4                	addi	a3,sp,72
      b0:	0000                	unimp
      b2:	0005                	c.nop	1
      b4:	2a06                	fld	fs4,64(sp)
      b6:	0000                	unimp
      b8:	0100                	addi	s0,sp,128
      ba:	0d62                	slli	s10,s10,0x18
      bc:	00a9                	addi	ra,ra,10
      be:	0000                	unimp
      c0:	a406                	fsd	ft1,8(sp)
      c2:	0001                	nop
      c4:	0100                	addi	s0,sp,128
      c6:	1b62                	slli	s6,s6,0x38
      c8:	00a9                	addi	ra,ra,10
      ca:	0000                	unimp
      cc:	b006                	fsd	ft1,32(sp)
      ce:	0001                	nop
      d0:	0100                	addi	s0,sp,128
      d2:	00a90d63          	beq	s2,a0,ec <_start-0x21f14>
      d6:	0000                	unimp
      d8:	6906                	ld	s2,64(sp)
      da:	0001                	nop
      dc:	0100                	addi	s0,sp,128
      de:	00a91663          	bne	s2,a0,ea <_start-0x21f16>
      e2:	0000                	unimp
      e4:	e606                	sd	ra,264(sp)
      e6:	0000                	unimp
      e8:	0100                	addi	s0,sp,128
      ea:	0d64                	addi	s1,sp,668
      ec:	00a9                	addi	ra,ra,10
      ee:	0000                	unimp
      f0:	7506                	ld	a0,96(sp)
      f2:	0000                	unimp
      f4:	0100                	addi	s0,sp,128
      f6:	1864                	addi	s1,sp,60
      f8:	00a9                	addi	ra,ra,10
      fa:	0000                	unimp
      fc:	9206                	add	tp,tp,ra
      fe:	0001                	nop
     100:	0100                	addi	s0,sp,128
     102:	0d65                	addi	s10,s10,25
     104:	00a9                	addi	ra,ra,10
     106:	0000                	unimp
     108:	4d06                	lw	s10,64(sp)
     10a:	0000                	unimp
     10c:	0100                	addi	s0,sp,128
     10e:	1665                	addi	a2,a2,-7
     110:	00a9                	addi	ra,ra,10
     112:	0000                	unimp
     114:	8d06                	mv	s10,ra
     116:	0001                	nop
     118:	0100                	addi	s0,sp,128
     11a:	0d66                	slli	s10,s10,0x19
     11c:	00a9                	addi	ra,ra,10
     11e:	0000                	unimp
     120:	0a06                	slli	s4,s4,0x1
     122:	0000                	unimp
     124:	0100                	addi	s0,sp,128
     126:	1566                	slli	a0,a0,0x39
     128:	00a9                	addi	ra,ra,10
     12a:	0000                	unimp
     12c:	0001bb07          	fld	fs6,0(gp)
     130:	0100                	addi	s0,sp,128
     132:	0685                	addi	a3,a3,1
     134:	2414                	fld	fa3,8(s0)
     136:	0002                	c.slli64	zero
     138:	0000                	unimp
     13a:	0000                	unimp
     13c:	0064                	addi	s1,sp,12
     13e:	0000                	unimp
     140:	0000                	unimp
     142:	0000                	unimp
     144:	9c01                	subw	s0,s0,s0
     146:	8808                	0x8808
     148:	0001                	nop
     14a:	0100                	addi	s0,sp,128
     14c:	0d7c                	addi	a5,sp,668
     14e:	23a8                	fld	fa0,64(a5)
     150:	0002                	c.slli64	zero
     152:	0000                	unimp
     154:	0000                	unimp
     156:	006c                	addi	a1,sp,12
     158:	0000                	unimp
     15a:	0000                	unimp
     15c:	0000                	unimp
     15e:	9c01                	subw	s0,s0,s0
     160:	0192                	slli	gp,gp,0x4
     162:	0000                	unimp
     164:	1509                	addi	a0,a0,-30
     166:	0000                	unimp
     168:	0100                	addi	s0,sp,128
     16a:	107e                	c.slli	zero,0x3f
     16c:	006c                	addi	a1,sp,12
     16e:	0000                	unimp
     170:	9102                	jalr	sp
     172:	0a68                	addi	a0,sp,284
     174:	6e65                	lui	t3,0x19
     176:	0064                	addi	s1,sp,12
     178:	7f01                	lui	t5,0xfffe0
     17a:	6c10                	ld	a2,24(s0)
     17c:	0000                	unimp
     17e:	0200                	addi	s0,sp,256
     180:	6091                	lui	ra,0x4
     182:	b609                	j	fffffffffffffc84 <TEXT_ROM+0xfffffffffffd8c84>
     184:	0001                	nop
     186:	0100                	addi	s0,sp,128
     188:	0b80                	addi	s0,sp,464
     18a:	0050                	addi	a2,sp,4
     18c:	0000                	unimp
     18e:	9102                	jalr	sp
     190:	005c                	addi	a5,sp,4
     192:	0000000b          	0xb
     196:	0100                	addi	s0,sp,128
     198:	0d68                	addi	a0,sp,668
     19a:	2274                	fld	fa3,192(a2)
     19c:	0002                	c.slli64	zero
     19e:	0000                	unimp
     1a0:	0000                	unimp
     1a2:	0134                	addi	a3,sp,136
     1a4:	0000                	unimp
     1a6:	0000                	unimp
     1a8:	0000                	unimp
     1aa:	9c01                	subw	s0,s0,s0
     1ac:	210c                	fld	fa1,0(a0)
     1ae:	0000                	unimp
     1b0:	0100                	addi	s0,sp,128
     1b2:	063c                	addi	a5,sp,776
     1b4:	2164                	fld	fs1,192(a0)
     1b6:	0002                	c.slli64	zero
     1b8:	0000                	unimp
     1ba:	0000                	unimp
     1bc:	0110                	addi	a2,sp,128
     1be:	0000                	unimp
     1c0:	0000                	unimp
     1c2:	0000                	unimp
     1c4:	9c01                	subw	s0,s0,s0
     1c6:	01e9                	addi	gp,gp,26
     1c8:	0000                	unimp
     1ca:	1009                	c.nop	-30
     1cc:	0000                	unimp
     1ce:	0100                	addi	s0,sp,128
     1d0:	103e                	c.slli	zero,0x2f
     1d2:	006c                	addi	a1,sp,12
     1d4:	0000                	unimp
     1d6:	9102                	jalr	sp
     1d8:	0968                	addi	a0,sp,156
     1da:	007e                	c.slli	zero,0x1f
     1dc:	0000                	unimp
     1de:	3e01                	addiw	t3,t3,-32
     1e0:	6c16                	ld	s8,320(sp)
     1e2:	0000                	unimp
     1e4:	0200                	addi	s0,sp,256
     1e6:	6091                	lui	ra,0x4
     1e8:	0d00                	addi	s0,sp,656
     1ea:	00ee                	slli	ra,ra,0x1b
     1ec:	0000                	unimp
     1ee:	1501                	addi	a0,a0,-32
     1f0:	490c                	lw	a1,16(a0)
     1f2:	0000                	unimp
     1f4:	6800                	ld	s0,16(s0)
     1f6:	0220                	addi	s0,sp,264
     1f8:	0000                	unimp
     1fa:	0000                	unimp
     1fc:	fc00                	sd	s0,56(s0)
     1fe:	0000                	unimp
     200:	0000                	unimp
     202:	0000                	unimp
     204:	0100                	addi	s0,sp,128
     206:	649c                	ld	a5,8(s1)
     208:	0002                	c.slli64	zero
     20a:	0e00                	addi	s0,sp,784
     20c:	003a                	c.slli	zero,0xe
     20e:	0000                	unimp
     210:	1501                	addi	a0,a0,-32
     212:	6c2a                	ld	s8,136(sp)
     214:	0000                	unimp
     216:	0200                	addi	s0,sp,256
     218:	4891                	li	a7,4
     21a:	690a                	ld	s2,128(sp)
     21c:	0100                	addi	s0,sp,128
     21e:	00490617          	auipc	a2,0x490
     222:	0000                	unimp
     224:	9102                	jalr	sp
     226:	0a6c                	addi	a1,sp,284
     228:	0070                	addi	a2,sp,12
     22a:	1801                	addi	a6,a6,-32
     22c:	6408                	ld	a0,8(s0)
     22e:	0002                	c.slli64	zero
     230:	0200                	addi	s0,sp,256
     232:	6091                	lui	ra,0x4
     234:	9d09                	subw	a0,a0,a0
     236:	0001                	nop
     238:	0100                	addi	s0,sp,128
     23a:	0c18                	addi	a4,sp,528
     23c:	0264                	addi	s1,sp,268
     23e:	0000                	unimp
     240:	9102                	jalr	sp
     242:	0f58                	addi	a4,sp,916
     244:	0000001b          	sext.w	zero,zero
     248:	2101                	sext.w	sp,sp
     24a:	d001                	beqz	s0,14a <_start-0x21eb6>
     24c:	0220                	addi	s0,sp,264
     24e:	0000                	unimp
     250:	0000                	unimp
     252:	0f00                	addi	s0,sp,912
     254:	0310                	addi	a2,sp,384
     256:	0000                	unimp
     258:	3601                	addiw	a2,a2,-32
     25a:	3801                	addiw	a6,a6,-32
     25c:	0221                	addi	tp,tp,8
     25e:	0000                	unimp
     260:	0000                	unimp
     262:	0000                	unimp
     264:	0810                	addi	a2,sp,16
     266:	00a2                	slli	ra,ra,0x8
     268:	0000                	unimp
     26a:	f000                	sd	s0,32(s0)
     26c:	0001                	nop
     26e:	0400                	addi	s0,sp,512
     270:	1a00                	addi	s0,sp,304
     272:	0001                	nop
     274:	0800                	addi	s0,sp,16
     276:	8301                	c.srli64	a4
     278:	0000                	unimp
     27a:	0c00                	addi	s0,sp,528
     27c:	01e1                	addi	gp,gp,24
     27e:	0000                	unimp
     280:	00fe                	slli	ra,ra,0x1f
     282:	0000                	unimp
     284:	2478                	fld	fa4,200(s0)
     286:	0002                	c.slli64	zero
     288:	0000                	unimp
     28a:	0000                	unimp
     28c:	023c                	addi	a5,sp,264
     28e:	0000                	unimp
     290:	0000                	unimp
     292:	0000                	unimp
     294:	000002bf 41060102 	0x41060102000002bf
     29c:	0000                	unimp
     29e:	0200                	addi	s0,sp,256
     2a0:	0801                	addi	a6,a6,0
     2a2:	0000003f 7e050202 	0x7e0502020000003f
     2aa:	0001                	nop
     2ac:	0200                	addi	s0,sp,256
     2ae:	0702                	c.slli64	a4
     2b0:	0062                	c.slli	zero,0x18
     2b2:	0000                	unimp
     2b4:	69050403          	lb	s0,1680(a0)
     2b8:	746e                	ld	s0,248(sp)
     2ba:	0200                	addi	s0,sp,256
     2bc:	0704                	addi	s1,sp,896
     2be:	015c                	addi	a5,sp,132
     2c0:	0000                	unimp
     2c2:	0802                	c.slli64	a6
     2c4:	7005                	c.lui	zero,0xfffe1
     2c6:	0001                	nop
     2c8:	0200                	addi	s0,sp,256
     2ca:	0708                	addi	a0,sp,896
     2cc:	0152                	slli	sp,sp,0x14
     2ce:	0000                	unimp
     2d0:	d404                	sw	s1,40(s0)
     2d2:	0001                	nop
     2d4:	0200                	addi	s0,sp,256
     2d6:	005e1c1b          	slliw	s8,t3,0x5
     2da:	0000                	unimp
     2dc:	0802                	c.slli64	a6
     2de:	7505                	lui	a0,0xfffe1
     2e0:	0001                	nop
     2e2:	0200                	addi	s0,sp,256
     2e4:	0708                	addi	a0,sp,896
     2e6:	00000157          	vadd.vv	v2,v0,v0,v0.t
     2ea:	f505                	bnez	a0,212 <_start-0x21dee>
     2ec:	0001                	nop
     2ee:	0100                	addi	s0,sp,128
     2f0:	0734                	addi	a3,sp,904
     2f2:	000000cb          	fnmsub.s	ft1,ft0,ft0,ft0,rne
     2f6:	2668                	fld	fa0,200(a2)
     2f8:	0002                	c.slli64	zero
     2fa:	0000                	unimp
     2fc:	0000                	unimp
     2fe:	004c                	addi	a1,sp,4
     300:	0000                	unimp
     302:	0000                	unimp
     304:	0000                	unimp
     306:	9c01                	subw	s0,s0,s0
     308:	000000cb          	fnmsub.s	ft1,ft0,ft0,ft0,rne
     30c:	7306                	ld	t1,96(sp)
     30e:	0100                	addi	s0,sp,128
     310:	1434                	addi	a3,sp,552
     312:	000000cb          	fnmsub.s	ft1,ft0,ft0,ft0,rne
     316:	9102                	jalr	sp
     318:	0668                	addi	a0,sp,780
     31a:	34010063          	beqz	sp,65a <_start-0x219a6>
     31e:	0000491b          	0x491b
     322:	0200                	addi	s0,sp,256
     324:	6491                	lui	s1,0x4
     326:	00021407          	flh	fs0,0(tp) # 0 <_start-0x22000>
     32a:	0100                	addi	s0,sp,128
     32c:	2534                	fld	fa3,72(a0)
     32e:	0065                	c.nop	25
     330:	0000                	unimp
     332:	9102                	jalr	sp
     334:	0058                	addi	a4,sp,4
     336:	0808                	addi	a0,sp,16
     338:	f309                	bnez	a4,23a <_start-0x21dc6>
     33a:	0001                	nop
     33c:	0100                	addi	s0,sp,128
     33e:	0e0e                	slli	t3,t3,0x3
     340:	000000cb          	fnmsub.s	ft1,ft0,ft0,ft0,rne
     344:	24dc                	fld	fa5,136(s1)
     346:	0002                	c.slli64	zero
     348:	0000                	unimp
     34a:	0000                	unimp
     34c:	018c                	addi	a1,sp,192
     34e:	0000                	unimp
     350:	0000                	unimp
     352:	0000                	unimp
     354:	9c01                	subw	s0,s0,s0
     356:	0190                	addi	a2,sp,192
     358:	0000                	unimp
     35a:	7306                	ld	t1,96(sp)
     35c:	0100                	addi	s0,sp,128
     35e:	1d0e                	slli	s10,s10,0x23
     360:	0190                	addi	a2,sp,192
     362:	0000                	unimp
     364:	7fa89103          	lh	sp,2042(a7)
     368:	6306                	ld	t1,64(sp)
     36a:	0100                	addi	s0,sp,128
     36c:	240e                	fld	fs0,192(sp)
     36e:	0049                	c.nop	18
     370:	0000                	unimp
     372:	7fa49103          	lh	sp,2042(s1) # 47fa <_start-0x1d806>
     376:	00021407          	flh	fs0,0(tp) # 0 <_start-0x22000>
     37a:	0100                	addi	s0,sp,128
     37c:	2e0e                	fld	ft8,192(sp)
     37e:	0065                	c.nop	25
     380:	0000                	unimp
     382:	7f989103          	lh	sp,2041(a7)
     386:	700a                	0x700a
     388:	0100                	addi	s0,sp,128
     38a:	0810                	addi	a2,sp,16
     38c:	0190                	addi	a2,sp,192
     38e:	0000                	unimp
     390:	9102                	jalr	sp
     392:	0b68                	addi	a0,sp,412
     394:	000001db          	0x1db
     398:	1101                	addi	sp,sp,-32
     39a:	7810                	ld	a2,48(s0)
     39c:	0000                	unimp
     39e:	0200                	addi	s0,sp,256
     3a0:	4891                	li	a7,4
     3a2:	0001b60b          	extu	a2,gp,0,0
     3a6:	0100                	addi	s0,sp,128
     3a8:	0912                	slli	s2,s2,0x4
     3aa:	0065                	c.nop	25
     3ac:	0000                	unimp
     3ae:	7fb89103          	lh	sp,2043(a7)
     3b2:	0001ee0b          	0x1ee0b
     3b6:	0100                	addi	s0,sp,128
     3b8:	0f12                	slli	t5,t5,0x4
     3ba:	0065                	c.nop	25
     3bc:	0000                	unimp
     3be:	9102                	jalr	sp
     3c0:	0a60                	addi	s0,sp,284
     3c2:	006e                	c.slli	zero,0x1b
     3c4:	1301                	addi	t1,t1,-32
     3c6:	4906                	lw	s2,64(sp)
     3c8:	0000                	unimp
     3ca:	0300                	addi	s0,sp,384
     3cc:	b491                	j	fffffffffffffe10 <TEXT_ROM+0xfffffffffffd8e10>
     3ce:	00690a7f          	0x690a7f
     3d2:	1301                	addi	t1,t1,-32
     3d4:	4909                	li	s2,2
     3d6:	0000                	unimp
     3d8:	0200                	addi	s0,sp,256
     3da:	5c91                	li	s9,-28
     3dc:	00020c0b          	0x20c0b
     3e0:	0100                	addi	s0,sp,128
     3e2:	1014                	addi	a3,sp,32
     3e4:	0078                	addi	a4,sp,12
     3e6:	0000                	unimp
     3e8:	9102                	jalr	sp
     3ea:	0b40                	addi	s0,sp,404
     3ec:	00000193          	li	gp,0
     3f0:	1501                	addi	a0,a0,-32
     3f2:	7810                	ld	a2,48(s0)
     3f4:	0000                	unimp
     3f6:	0200                	addi	s0,sp,256
     3f8:	5091                	li	ra,-28
     3fa:	0c00                	addi	s0,sp,528
     3fc:	9608                	0x9608
     3fe:	0001                	nop
     400:	0200                	addi	s0,sp,256
     402:	0801                	addi	a6,a6,0
     404:	0048                	addi	a0,sp,4
     406:	0000                	unimp
     408:	fc0d                	bnez	s0,342 <_start-0x21cbe>
     40a:	0001                	nop
     40c:	0100                	addi	s0,sp,128
     40e:	0e05                	addi	t3,t3,1
     410:	000000cb          	fnmsub.s	ft1,ft0,ft0,ft0,rne
     414:	2478                	fld	fa4,200(s0)
     416:	0002                	c.slli64	zero
     418:	0000                	unimp
     41a:	0000                	unimp
     41c:	0064                	addi	s1,sp,12
     41e:	0000                	unimp
     420:	0000                	unimp
     422:	0000                	unimp
     424:	9c01                	subw	s0,s0,s0
     426:	7306                	ld	t1,96(sp)
     428:	0100                	addi	s0,sp,128
     42a:	2405                	addiw	s0,s0,1
     42c:	000000cb          	fnmsub.s	ft1,ft0,ft0,ft0,rne
     430:	9102                	jalr	sp
     432:	0658                	addi	a4,sp,772
     434:	05010063          	beq	sp,a6,474 <_start-0x21b8c>
     438:	0000492b          	0x492b
     43c:	0200                	addi	s0,sp,256
     43e:	5491                	li	s1,-28
     440:	00021407          	flh	fs0,0(tp) # 0 <_start-0x22000>
     444:	0100                	addi	s0,sp,128
     446:	3505                	addiw	a0,a0,-31
     448:	0065                	c.nop	25
     44a:	0000                	unimp
     44c:	9102                	jalr	sp
     44e:	0a48                	addi	a0,sp,276
     450:	7378                	ld	a4,224(a4)
     452:	0100                	addi	s0,sp,128
     454:	01900807          	0x1900807
     458:	0000                	unimp
     45a:	9102                	jalr	sp
     45c:	0068                	addi	a0,sp,12
     45e:	5200                	lw	s0,32(a2)
     460:	0004                	0x4
     462:	0400                	addi	s0,sp,512
     464:	fb00                	sd	s0,48(a4)
     466:	0001                	nop
     468:	0800                	addi	s0,sp,16
     46a:	8301                	c.srli64	a4
     46c:	0000                	unimp
     46e:	0c00                	addi	s0,sp,528
     470:	00000273          	0x273
     474:	00fe                	slli	ra,ra,0x1f
     476:	0000                	unimp
     478:	26b4                	fld	fa3,72(a3)
     47a:	0002                	c.slli64	zero
     47c:	0000                	unimp
     47e:	0000                	unimp
     480:	0e68                	addi	a0,sp,796
     482:	0000                	unimp
     484:	0000                	unimp
     486:	0000                	unimp
     488:	0491                	addi	s1,s1,4
     48a:	0000                	unimp
     48c:	2e02                	fld	ft8,0(sp)
     48e:	0002                	c.slli64	zero
     490:	0200                	addi	s0,sp,256
     492:	1b08                	addi	a0,sp,432
     494:	0039                	c.nop	14
     496:	0000                	unimp
     498:	02240803          	lb	a6,34(s0) # ffffffffffffd022 <TEXT_ROM+0xfffffffffffd6022>
     49c:	0000                	unimp
     49e:	0104                	addi	s1,sp,128
     4a0:	4106                	lw	sp,64(sp)
     4a2:	0000                	unimp
     4a4:	0400                	addi	s0,sp,512
     4a6:	0801                	addi	a6,a6,0
     4a8:	0000003f 7e050204 	0x7e0502040000003f
     4b0:	0001                	nop
     4b2:	0400                	addi	s0,sp,512
     4b4:	0702                	c.slli64	a4
     4b6:	0062                	c.slli	zero,0x18
     4b8:	0000                	unimp
     4ba:	0405                	addi	s0,s0,1
     4bc:	6905                	lui	s2,0x1
     4be:	746e                	ld	s0,248(sp)
     4c0:	0400                	addi	s0,sp,512
     4c2:	0704                	addi	s1,sp,896
     4c4:	015c                	addi	a5,sp,132
     4c6:	0000                	unimp
     4c8:	0804                	addi	s1,sp,16
     4ca:	7005                	c.lui	zero,0xfffe1
     4cc:	0001                	nop
     4ce:	0400                	addi	s0,sp,512
     4d0:	0708                	addi	a0,sp,896
     4d2:	0152                	slli	sp,sp,0x14
     4d4:	0000                	unimp
     4d6:	0804                	addi	s1,sp,16
     4d8:	7505                	lui	a0,0xfffe1
     4da:	0001                	nop
     4dc:	0400                	addi	s0,sp,512
     4de:	0708                	addi	a0,sp,896
     4e0:	00000157          	vadd.vv	v2,v0,v0,v0.t
     4e4:	9506                	add	a0,a0,ra
     4e6:	0000                	unimp
     4e8:	9500                	0x9500
     4ea:	0000                	unimp
     4ec:	0700                	addi	s0,sp,896
     4ee:	007e                	c.slli	zero,0x1f
     4f0:	0000                	unimp
     4f2:	010400ff          	0x10400ff
     4f6:	4808                	lw	a0,16(s0)
     4f8:	0000                	unimp
     4fa:	0800                	addi	s0,sp,16
     4fc:	0095                	addi	ra,ra,5
     4fe:	0000                	unimp
     500:	ac09                	j	712 <_start-0x218ee>
     502:	0002                	c.slli64	zero
     504:	0100                	addi	s0,sp,128
     506:	0d08                	addi	a0,sp,656
     508:	0085                	addi	ra,ra,1
     50a:	0000                	unimp
     50c:	0309                	addi	t1,t1,2
     50e:	6008                	ld	a0,0(s0)
     510:	0002                	c.slli64	zero
     512:	0000                	unimp
     514:	0000                	unimp
     516:	9509                	srai	a0,a0,0x22
     518:	0002                	c.slli64	zero
     51a:	0100                	addi	s0,sp,128
     51c:	0d0d                	addi	s10,s10,3
     51e:	0085                	addi	ra,ra,1
     520:	0000                	unimp
     522:	0309                	addi	t1,t1,2
     524:	6108                	ld	a0,0(a0)
     526:	0002                	c.slli64	zero
     528:	0000                	unimp
     52a:	0000                	unimp
     52c:	870a                	mv	a4,sp
     52e:	0002                	c.slli64	zero
     530:	0700                	addi	s0,sp,896
     532:	6204                	ld	s1,0(a2)
     534:	0000                	unimp
     536:	0100                	addi	s0,sp,128
     538:	00ec060f          	0xec060f
     53c:	0000                	unimp
     53e:	0002e60b          	0x2e60b
     542:	0000                	unimp
     544:	00024f0b          	lrb	t5,tp,zero,0
     548:	0100                	addi	s0,sp,128
     54a:	0900                	addi	s0,sp,144
     54c:	0285                	addi	t0,t0,1
     54e:	0000                	unimp
     550:	1401                	addi	s0,s0,-32
     552:	0000cd1b          	0xcd1b
     556:	0900                	addi	s0,sp,144
     558:	02620803          	lb	a6,38(tp) # 26 <_start-0x21fda>
     55c:	0000                	unimp
     55e:	0000                	unimp
     560:	0900                	addi	s0,sp,144
     562:	000002a3          	sb	zero,5(zero) # 5 <_start-0x21ffb>
     566:	1501                	addi	a0,a0,-32
     568:	180e                	slli	a6,a6,0x23
     56a:	0001                	nop
     56c:	0900                	addi	s0,sp,144
     56e:	02600003          	lb	zero,38(zero) # 26 <_start-0x21fda>
     572:	0000                	unimp
     574:	0000                	unimp
     576:	0c00                	addi	s0,sp,528
     578:	9508                	0x9508
     57a:	0000                	unimp
     57c:	0900                	addi	s0,sp,144
     57e:	0242                	slli	tp,tp,0x10
     580:	0000                	unimp
     582:	1601                	addi	a2,a2,-32
     584:	7e16                	ld	t3,352(sp)
     586:	0000                	unimp
     588:	0900                	addi	s0,sp,144
     58a:	02621003          	lh	zero,38(tp) # 26 <_start-0x21fda>
     58e:	0000                	unimp
     590:	0000                	unimp
     592:	0d00                	addi	s0,sp,656
     594:	000002d3          	fadd.s	ft5,ft0,ft0,rne
     598:	6201                	0x6201
     59a:	0501                	addi	a0,a0,0
     59c:	0000005b          	0x5b
     5a0:	339c                	fld	fa5,32(a5)
     5a2:	0002                	c.slli64	zero
     5a4:	0000                	unimp
     5a6:	0000                	unimp
     5a8:	0180                	addi	s0,sp,192
     5aa:	0000                	unimp
     5ac:	0000                	unimp
     5ae:	0000                	unimp
     5b0:	9c01                	subw	s0,s0,s0
     5b2:	0000019b          	sext.w	gp,zero
     5b6:	660e                	ld	a2,192(sp)
     5b8:	746d                	lui	s0,0xffffb
     5ba:	0100                	addi	s0,sp,128
     5bc:	0162                	slli	sp,sp,0x18
     5be:	9b18                	0x9b18
     5c0:	0001                	nop
     5c2:	0300                	addi	s0,sp,384
     5c4:	9891                	andi	s1,s1,-28
     5c6:	61100f7f          	0x61100f7f
     5ca:	6772                	ld	a4,280(sp)
     5cc:	0100                	addi	s0,sp,128
     5ce:	0164                	addi	s1,sp,140
     5d0:	2d0a                	fld	fs10,128(sp)
     5d2:	0000                	unimp
     5d4:	0300                	addi	s0,sp,384
     5d6:	a091                	j	61a <_start-0x219e6>
     5d8:	656c107f          	0x656c107f
     5dc:	006e                	c.slli	zero,0x1b
     5de:	6501                	0x6501
     5e0:	0601                	addi	a2,a2,0
     5e2:	0000005b          	0x5b
     5e6:	7fa89103          	lh	sp,2042(a7)
     5ea:	6910                	ld	a2,16(a0)
     5ec:	0100                	addi	s0,sp,128
     5ee:	0166                	slli	sp,sp,0x19
     5f0:	5b06                	lw	s6,96(sp)
     5f2:	0000                	unimp
     5f4:	0300                	addi	s0,sp,384
     5f6:	ac91                	j	84a <_start-0x217b6>
     5f8:	080c007f          	0x80c007f
     5fc:	009c                	addi	a5,sp,64
     5fe:	0000                	unimp
     600:	0411                	addi	s0,s0,4
     602:	01000003          	lb	zero,16(zero) # 10 <_start-0x21ff0>
     606:	0155                	addi	sp,sp,21
     608:	0006                	c.slli	zero,0x1
     60a:	00000233          	add	tp,zero,zero
     60e:	0000                	unimp
     610:	9c00                	0x9c00
     612:	0000                	unimp
     614:	0000                	unimp
     616:	0000                	unimp
     618:	0100                	addi	s0,sp,128
     61a:	cf9c                	sw	a5,24(a5)
     61c:	0001                	nop
     61e:	1000                	addi	s0,sp,32
     620:	0069                	c.nop	26
     622:	5701                	li	a4,-32
     624:	1001                	c.nop	-32
     626:	007e                	c.slli	zero,0x1f
     628:	0000                	unimp
     62a:	9102                	jalr	sp
     62c:	0068                	addi	a0,sp,12
     62e:	6a12                	ld	s4,256(sp)
     630:	0002                	c.slli64	zero
     632:	0100                	addi	s0,sp,128
     634:	0592                	slli	a1,a1,0x4
     636:	0000005b          	0x5b
     63a:	2b58                	fld	fa4,144(a4)
     63c:	0002                	c.slli64	zero
     63e:	0000                	unimp
     640:	0000                	unimp
     642:	07a8                	addi	a0,sp,968
     644:	0000                	unimp
     646:	0000                	unimp
     648:	0000                	unimp
     64a:	9c01                	subw	s0,s0,s0
     64c:	02e5                	addi	t0,t0,25
     64e:	0000                	unimp
     650:	00019d13          	slli	s10,gp,0x0
     654:	0100                	addi	s0,sp,128
     656:	1492                	slli	s1,s1,0x24
     658:	0118                	addi	a4,sp,128
     65a:	0000                	unimp
     65c:	7fa89103          	lh	sp,2042(a7)
     660:	0001b613          	sltiu	a2,gp,0
     664:	0100                	addi	s0,sp,128
     666:	2992                	fld	fs3,256(sp)
     668:	0062                	c.slli	zero,0x18
     66a:	0000                	unimp
     66c:	7fa49103          	lh	sp,2042(s1)
     670:	6614                	ld	a3,8(a2)
     672:	746d                	lui	s0,0xffffb
     674:	0100                	addi	s0,sp,128
     676:	019b0f93          	addi	t6,s6,25
     67a:	0000                	unimp
     67c:	7f989103          	lh	sp,2041(a7)
     680:	6114                	ld	a3,0(a0)
     682:	6772                	ld	a4,280(sp)
     684:	0100                	addi	s0,sp,128
     686:	002d1c93          	slli	s9,s10,0x2
     68a:	0000                	unimp
     68c:	7f909103          	lh	sp,2041(ra) # 47f9 <_start-0x1d807>
     690:	7015                	c.lui	zero,0xfffe5
     692:	0100736f          	jal	t1,76a2 <_start-0x1a95e>
     696:	0895                	addi	a7,a7,5
     698:	0118                	addi	a4,sp,128
     69a:	0000                	unimp
     69c:	9102                	jalr	sp
     69e:	0968                	addi	a0,sp,156
     6a0:	029d                	addi	t0,t0,7
     6a2:	0000                	unimp
     6a4:	9601                	srai	a2,a2,0x20
     6a6:	5b06                	lw	s6,96(sp)
     6a8:	0000                	unimp
     6aa:	0200                	addi	s0,sp,256
     6ac:	6491                	lui	s1,0x4
     6ae:	3609                	addiw	a2,a2,-30
     6b0:	0002                	c.slli64	zero
     6b2:	0100                	addi	s0,sp,128
     6b4:	005b0697          	auipc	a3,0x5b0
     6b8:	0000                	unimp
     6ba:	7fb49103          	lh	sp,2043(s1) # 47fb <_start-0x1d805>
     6be:	bd09                	j	4d0 <_start-0x21b30>
     6c0:	0002                	c.slli64	zero
     6c2:	0100                	addi	s0,sp,128
     6c4:	0698                	addi	a4,sp,832
     6c6:	0000005b          	0x5b
     6ca:	7fb09103          	lh	sp,2043(ra)
     6ce:	1a09                	addi	s4,s4,-30
     6d0:	0002                	c.slli64	zero
     6d2:	0100                	addi	s0,sp,128
     6d4:	0699                	addi	a3,a3,6
     6d6:	0000005b          	0x5b
     6da:	9102                	jalr	sp
     6dc:	1560                	addi	s0,sp,684
     6de:	7069                	c.lui	zero,0xffffa
     6e0:	0100                	addi	s0,sp,128
     6e2:	089a                	slli	a7,a7,0x6
     6e4:	0118                	addi	a4,sp,128
     6e6:	0000                	unimp
     6e8:	7fb89103          	lh	sp,2043(a7)
     6ec:	7315                	lui	t1,0xfffe5
     6ee:	0100                	addi	s0,sp,128
     6f0:	0118089b          	addiw	a7,a6,17
     6f4:	0000                	unimp
     6f6:	9102                	jalr	sp
     6f8:	1558                	addi	a4,sp,676
     6fa:	0069                	c.nop	26
     6fc:	9c01                	subw	s0,s0,s0
     6fe:	5b06                	lw	s6,96(sp)
     700:	0000                	unimp
     702:	0200                	addi	s0,sp,256
     704:	5491                	li	s1,-28
     706:	6c15                	lui	s8,0x5
     708:	6e65                	lui	t3,0x19
     70a:	0100                	addi	s0,sp,128
     70c:	069d                	addi	a3,a3,7
     70e:	0000005b          	0x5b
     712:	9102                	jalr	sp
     714:	1550                	addi	a2,sp,676
     716:	756e                	ld	a0,248(sp)
     718:	006d                	c.nop	27
     71a:	9e01                	subw	a2,a2,s0
     71c:	7e10                	ld	a2,56(a2)
     71e:	0000                	unimp
     720:	0200                	addi	s0,sp,256
     722:	4891                	li	a7,4
     724:	6509                	lui	a0,0x2
     726:	0002                	c.slli64	zero
     728:	0100                	addi	s0,sp,128
     72a:	069f 005b 0000      	0x5b069f
     730:	9102                	jalr	sp
     732:	1644                	addi	s1,sp,804
     734:	02b6                	slli	t0,t0,0xd
     736:	0000                	unimp
     738:	ab01                	j	c48 <_start-0x213b8>
     73a:	bc01                	j	14a <_start-0x21eb6>
     73c:	0000022b          	0x22b
     740:	0000                	unimp
     742:	0000                	unimp
     744:	0002df17          	auipc	t5,0x2d
     748:	0100                	addi	s0,sp,128
     74a:	01180e37          	lui	t3,0x1180
     74e:	0000                	unimp
     750:	2758                	fld	fa4,136(a4)
     752:	0002                	c.slli64	zero
     754:	0000                	unimp
     756:	0000                	unimp
     758:	0400                	addi	s0,sp,512
     75a:	0000                	unimp
     75c:	0000                	unimp
     75e:	0000                	unimp
     760:	9c01                	subw	s0,s0,s0
     762:	000003ef          	jal	t2,762 <_start-0x2189e>
     766:	7314                	ld	a3,32(a4)
     768:	7274                	ld	a3,224(a2)
     76a:	0100                	addi	s0,sp,128
     76c:	01181b37          	lui	s6,0x1181
     770:	0000                	unimp
     772:	7eb89103          	lh	sp,2027(a7)
     776:	6e14                	ld	a3,24(a2)
     778:	6d75                	lui	s10,0x1d
     77a:	0100                	addi	s0,sp,128
     77c:	007e2e37          	lui	t3,0x7e2
     780:	0000                	unimp
     782:	7eb09103          	lh	sp,2027(ra)
     786:	00026513          	ori	a0,tp,0
     78a:	0100                	addi	s0,sp,128
     78c:	005b3737          	lui	a4,0x5b3
     790:	0000                	unimp
     792:	7eac9103          	lh	sp,2026(s9)
     796:	0001b613          	sltiu	a2,gp,0
     79a:	0100                	addi	s0,sp,128
     79c:	005b4137          	lui	sp,0x5b4
     7a0:	0000                	unimp
     7a2:	7ea89103          	lh	sp,2026(a7)
     7a6:	0002bd13          	sltiu	s10,t0,0
     7aa:	0100                	addi	s0,sp,128
     7ac:	005b4b37          	lui	s6,0x5b4
     7b0:	0000                	unimp
     7b2:	7ea49103          	lh	sp,2026(s1)
     7b6:	0002ce13          	xori	t3,t0,0
     7ba:	0100                	addi	s0,sp,128
     7bc:	0838                	addi	a4,sp,24
     7be:	0000005b          	0x5b
     7c2:	7ea09103          	lh	sp,2026(ra)
     7c6:	6315                	lui	t1,0x5
     7c8:	0100                	addi	s0,sp,128
     7ca:	073a                	slli	a4,a4,0xe
     7cc:	0095                	addi	ra,ra,5
     7ce:	0000                	unimp
     7d0:	9102                	jalr	sp
     7d2:	02f9095b          	0x2f9095b
     7d6:	0000                	unimp
     7d8:	3a01                	addiw	s4,s4,-32
     7da:	950a                	add	a0,a0,sp
     7dc:	0000                	unimp
     7de:	0200                	addi	s0,sp,256
     7e0:	6f91                	lui	t6,0x4
     7e2:	7415                	lui	s0,0xfffe5
     7e4:	706d                	c.lui	zero,0xffffb
     7e6:	0100                	addi	s0,sp,128
     7e8:	143a                	slli	s0,s0,0x2e
     7ea:	000003ef          	jal	t2,7ea <_start-0x21816>
     7ee:	7ec89103          	lh	sp,2028(a7)
     7f2:	8009                	srli	s0,s0,0x2
     7f4:	0002                	c.slli64	zero
     7f6:	0100                	addi	s0,sp,128
     7f8:	0077073b          	addw	a4,a4,t2
     7fc:	0000                	unimp
     7fe:	9102                	jalr	sp
     800:	0950                	addi	a2,sp,148
     802:	000002c7          	fmsub.s	ft5,ft0,ft0,ft0,rne
     806:	3d01                	addiw	s10,s10,-32
     808:	9b0e                	add	s6,s6,gp
     80a:	0001                	nop
     80c:	0200                	addi	s0,sp,256
     80e:	6091                	lui	ra,0x4
     810:	6915                	lui	s2,0x5
     812:	0100                	addi	s0,sp,128
     814:	063e                	slli	a2,a2,0xf
     816:	0000005b          	0x5b
     81a:	9102                	jalr	sp
     81c:	185c                	addi	a5,sp,52
     81e:	2928                	fld	fa0,80(a0)
     820:	0002                	c.slli64	zero
     822:	0000                	unimp
     824:	0000                	unimp
     826:	002c                	addi	a1,sp,8
     828:	0000                	unimp
     82a:	0000                	unimp
     82c:	0000                	unimp
     82e:	6309                	lui	t1,0x2
     830:	0002                	c.slli64	zero
     832:	0100                	addi	s0,sp,128
     834:	00622663          	0x622663
     838:	0000                	unimp
     83a:	9102                	jalr	sp
     83c:	094c                	addi	a1,sp,148
     83e:	02fe                	slli	t0,t0,0x1f
     840:	0000                	unimp
     842:	6301                	0x6301
     844:	6244                	ld	s1,128(a2)
     846:	0000                	unimp
     848:	0200                	addi	s0,sp,256
     84a:	4891                	li	a7,4
     84c:	0000                	unimp
     84e:	9506                	add	a0,a0,ra
     850:	0000                	unimp
     852:	ff00                	sd	s0,56(a4)
     854:	07000003          	lb	zero,112(zero) # 70 <_start-0x21f90>
     858:	007e                	c.slli	zero,0x1f
     85a:	0000                	unimp
     85c:	da17007f          	0xda17007f
     860:	0002                	c.slli64	zero
     862:	0100                	addi	s0,sp,128
     864:	142a                	slli	s0,s0,0x2a
     866:	0000019b          	sext.w	gp,zero
     86a:	26b4                	fld	fa3,72(a3)
     86c:	0002                	c.slli64	zero
     86e:	0000                	unimp
     870:	0000                	unimp
     872:	00a4                	addi	s1,sp,72
     874:	0000                	unimp
     876:	0000                	unimp
     878:	0000                	unimp
     87a:	9c01                	subw	s0,s0,s0
     87c:	0000044f          	fnmadd.s	fs0,ft0,ft0,ft0,rne
     880:	00019d13          	slli	s10,gp,0x0
     884:	0100                	addi	s0,sp,128
     886:	2c2a                	fld	fs8,136(sp)
     888:	0000019b          	sext.w	gp,zero
     88c:	9102                	jalr	sp
     88e:	1358                	addi	a4,sp,420
     890:	02df 0000 2a01      	0x2a01000002df
     896:	4f39                	li	t5,14
     898:	0004                	0x4
     89a:	0200                	addi	s0,sp,256
     89c:	5091                	li	ra,-28
     89e:	7415                	lui	s0,0xfffe5
     8a0:	706d                	c.lui	zero,0xffffb
     8a2:	0100                	addi	s0,sp,128
     8a4:	062c                	addi	a1,sp,776
     8a6:	0000005b          	0x5b
     8aa:	9102                	jalr	sp
     8ac:	006c                	addi	a1,sp,12
     8ae:	080c                	addi	a1,sp,16
     8b0:	0000005b          	0x5b
     8b4:	0400                	addi	s0,sp,512
     8b6:	0001                	nop
     8b8:	0400                	addi	s0,sp,512
     8ba:	7400                	ld	s0,40(s0)
     8bc:	08000003          	lb	zero,128(zero) # 80 <_start-0x21f80>
     8c0:	8301                	c.srli64	a4
     8c2:	0000                	unimp
     8c4:	0c00                	addi	s0,sp,528
     8c6:	0315                	addi	t1,t1,5
     8c8:	0000                	unimp
     8ca:	00fe                	slli	ra,ra,0x1f
     8cc:	0000                	unimp
     8ce:	351c                	fld	fa5,40(a0)
     8d0:	0002                	c.slli64	zero
     8d2:	0000                	unimp
     8d4:	0000                	unimp
     8d6:	00c0                	addi	s0,sp,68
     8d8:	0000                	unimp
     8da:	0000                	unimp
     8dc:	0000                	unimp
     8de:	100c                	addi	a1,sp,32
     8e0:	0000                	unimp
     8e2:	d402                	sw	zero,40(sp)
     8e4:	0001                	nop
     8e6:	0100                	addi	s0,sp,128
     8e8:	1c02                	slli	s8,s8,0x20
     8ea:	0039                	c.nop	14
     8ec:	0000                	unimp
     8ee:	52070803          	lb	a6,1312(a4) # 5b3520 <TEXT_ROM+0x58c520>
     8f2:	0001                	nop
     8f4:	0400                	addi	s0,sp,512
     8f6:	00000327          	vse8.v	v6,(zero),v0.t
     8fa:	0e01                	addi	t3,t3,0
     8fc:	0000ac07          	flw	fs8,0(ra) # 4000 <_start-0x1e000>
     900:	6c00                	ld	s0,24(s0)
     902:	0235                	addi	tp,tp,13
     904:	0000                	unimp
     906:	0000                	unimp
     908:	7000                	ld	s0,32(s0)
     90a:	0000                	unimp
     90c:	0000                	unimp
     90e:	0000                	unimp
     910:	0100                	addi	s0,sp,128
     912:	ac9c                	fsd	fa5,24(s1)
     914:	0000                	unimp
     916:	0500                	addi	s0,sp,640
     918:	0322                	slli	t1,t1,0x8
     91a:	0000                	unimp
     91c:	0e01                	addi	t3,t3,0
     91e:	ac14                	fsd	fa3,24(s0)
     920:	0000                	unimp
     922:	0200                	addi	s0,sp,256
     924:	5891                	li	a7,-28
     926:	7306                	ld	t1,96(sp)
     928:	6372                	ld	t1,280(sp)
     92a:	0100                	addi	s0,sp,128
     92c:	260e                	fld	fa2,192(sp)
     92e:	00ae                	slli	ra,ra,0xb
     930:	0000                	unimp
     932:	9102                	jalr	sp
     934:	0550                	addi	a2,sp,644
     936:	0214                	addi	a3,sp,256
     938:	0000                	unimp
     93a:	0e01                	addi	t3,t3,0
     93c:	2d32                	fld	fs10,264(sp)
     93e:	0000                	unimp
     940:	0200                	addi	s0,sp,256
     942:	4891                	li	a7,4
     944:	706d7407          	0x706d7407
     948:	0100                	addi	s0,sp,128
     94a:	0810                	addi	a2,sp,16
     94c:	00b5                	addi	ra,ra,13
     94e:	0000                	unimp
     950:	9102                	jalr	sp
     952:	0768                	addi	a0,sp,908
     954:	11010073          	0x11010073
     958:	c70e                	sw	gp,140(sp)
     95a:	0000                	unimp
     95c:	0200                	addi	s0,sp,256
     95e:	6091                	lui	ra,0x4
     960:	0800                	addi	s0,sp,16
     962:	0908                	addi	a0,sp,144
     964:	b408                	fsd	fa0,40(s0)
     966:	0000                	unimp
     968:	0a00                	addi	s0,sp,272
     96a:	0809                	addi	a6,a6,2
     96c:	000000bb          	addw	ra,zero,zero
     970:	48080103          	lb	sp,1152(a6) # ffffffffffff9480 <TEXT_ROM+0xfffffffffffd2480>
     974:	0000                	unimp
     976:	0b00                	addi	s0,sp,400
     978:	000000bb          	addw	ra,zero,zero
     97c:	0809                	addi	a6,a6,2
     97e:	00c2                	slli	ra,ra,0x10
     980:	0000                	unimp
     982:	2e0c                	fld	fa1,24(a2)
     984:	01000003          	lb	zero,16(zero) # 10 <_start-0x21ff0>
     988:	0804                	addi	s1,sp,16
     98a:	002d                	c.nop	11
     98c:	0000                	unimp
     98e:	351c                	fld	fa5,40(a0)
     990:	0002                	c.slli64	zero
     992:	0000                	unimp
     994:	0000                	unimp
     996:	0050                	addi	a2,sp,4
     998:	0000                	unimp
     99a:	0000                	unimp
     99c:	0000                	unimp
     99e:	9c01                	subw	s0,s0,s0
     9a0:	7306                	ld	t1,96(sp)
     9a2:	0100                	addi	s0,sp,128
     9a4:	1b04                	addi	s1,sp,432
     9a6:	000000c7          	fmsub.s	ft1,ft0,ft0,ft0,rne
     9aa:	9102                	jalr	sp
     9ac:	0758                	addi	a4,sp,900
     9ae:	01006373          	csrrsi	t1,0x10,0
     9b2:	0e06                	slli	t3,t3,0x1
     9b4:	000000c7          	fmsub.s	ft1,ft0,ft0,ft0,rne
     9b8:	9102                	jalr	sp
     9ba:	0068                	addi	a0,sp,12
     9bc:	5b00                	lw	s0,48(a4)
     9be:	0002                	c.slli64	zero
     9c0:	0400                	addi	s0,sp,512
     9c2:	2b00                	fld	fs0,16(a4)
     9c4:	0004                	0x4
     9c6:	0800                	addi	s0,sp,16
     9c8:	8301                	c.srli64	a4
     9ca:	0000                	unimp
     9cc:	0c00                	addi	s0,sp,528
     9ce:	03b4                	addi	a3,sp,456
     9d0:	0000                	unimp
     9d2:	00fe                	slli	ra,ra,0x1f
     9d4:	0000                	unimp
     9d6:	35dc                	fld	fa5,168(a1)
     9d8:	0002                	c.slli64	zero
     9da:	0000                	unimp
     9dc:	0000                	unimp
     9de:	07b0                	addi	a2,sp,968
     9e0:	0000                	unimp
     9e2:	0000                	unimp
     9e4:	0000                	unimp
     9e6:	000010ef          	jal	ra,19e6 <_start-0x2061a>
     9ea:	0102                	c.slli64	sp
     9ec:	4106                	lw	sp,64(sp)
     9ee:	0000                	unimp
     9f0:	0200                	addi	s0,sp,256
     9f2:	0801                	addi	a6,a6,0
     9f4:	0000003f 7e050202 	0x7e0502020000003f
     9fc:	0001                	nop
     9fe:	0200                	addi	s0,sp,256
     a00:	0702                	c.slli64	a4
     a02:	0062                	c.slli	zero,0x18
     a04:	0000                	unimp
     a06:	69050403          	lb	s0,1680(a0) # 2690 <_start-0x1f970>
     a0a:	746e                	ld	s0,248(sp)
     a0c:	0400                	addi	s0,sp,512
     a0e:	03a5                	addi	t2,t2,9
     a10:	0000                	unimp
     a12:	5c160f03          	lb	t5,1473(a2) # 4907df <TEXT_ROM+0x4697df>
     a16:	0000                	unimp
     a18:	0200                	addi	s0,sp,256
     a1a:	0704                	addi	s1,sp,896
     a1c:	015c                	addi	a5,sp,132
     a1e:	0000                	unimp
     a20:	0802                	c.slli64	a6
     a22:	7005                	c.lui	zero,0xfffe1
     a24:	0001                	nop
     a26:	0200                	addi	s0,sp,256
     a28:	0708                	addi	a0,sp,896
     a2a:	0152                	slli	sp,sp,0x14
     a2c:	0000                	unimp
     a2e:	0802                	c.slli64	a6
     a30:	7505                	lui	a0,0xfffe1
     a32:	0001                	nop
     a34:	0200                	addi	s0,sp,256
     a36:	0708                	addi	a0,sp,896
     a38:	00000157          	vadd.vv	v2,v0,v0,v0.t
     a3c:	8704                	0x8704
     a3e:	03000003          	lb	zero,48(zero) # 30 <_start-0x21fd0>
     a42:	1c24                	addi	s1,sp,568
     a44:	006a                	c.slli	zero,0x1a
     a46:	0000                	unimp
     a48:	ab04                	fsd	fs1,16(a4)
     a4a:	04000003          	lb	zero,64(zero) # 40 <_start-0x21fc0>
     a4e:	0f11                	addi	t5,t5,4
     a50:	0050                	addi	a2,sp,4
     a52:	0000                	unimp
     a54:	cc05                	beqz	s0,a8c <_start-0x21574>
     a56:	02000003          	lb	zero,32(zero) # 20 <_start-0x21fe0>
     a5a:	06d0                	addi	a2,sp,836
     a5c:	3d08                	fld	fa0,56(a0)
     a5e:	0002                	c.slli64	zero
     a60:	0000                	unimp
     a62:	0000                	unimp
     a64:	0084                	addi	s1,sp,64
     a66:	0000                	unimp
     a68:	0000                	unimp
     a6a:	0000                	unimp
     a6c:	9c01                	subw	s0,s0,s0
     a6e:	6406                	ld	s0,64(sp)
     a70:	02000003          	lb	zero,32(zero) # 20 <_start-0x21fe0>
     a74:	3c080db7          	lui	s11,0x3c080
     a78:	0002                	c.slli64	zero
     a7a:	0000                	unimp
     a7c:	0000                	unimp
     a7e:	0100                	addi	s0,sp,128
     a80:	0000                	unimp
     a82:	0000                	unimp
     a84:	0000                	unimp
     a86:	9c01                	subw	s0,s0,s0
     a88:	00ee                	slli	ra,ra,0x1b
     a8a:	0000                	unimp
     a8c:	00003a07          	fld	fs4,0(zero) # 0 <_start-0x22000>
     a90:	0200                	addi	s0,sp,256
     a92:	007f27b7          	lui	a5,0x7f2
     a96:	0000                	unimp
     a98:	9102                	jalr	sp
     a9a:	0858                	addi	a4,sp,20
     a9c:	6176                	ld	sp,344(sp)
     a9e:	006c                	addi	a1,sp,12
     aa0:	b902                	fsd	ft0,176(sp)
     aa2:	00008b0b          	0x8b0b
     aa6:	0200                	addi	s0,sp,256
     aa8:	6c91                	lui	s9,0x4
     aaa:	0600                	addi	s0,sp,768
     aac:	00000377          	radd16	t1,zero,zero
     ab0:	ac02                	fsd	ft0,24(sp)
     ab2:	a40d                	j	cd4 <_start-0x2132c>
     ab4:	0000023b          	addw	tp,zero,zero
     ab8:	0000                	unimp
     aba:	6400                	ld	s0,8(s0)
     abc:	0000                	unimp
     abe:	0000                	unimp
     ac0:	0000                	unimp
     ac2:	0100                	addi	s0,sp,128
     ac4:	1c9c                	addi	a5,sp,624
     ac6:	0001                	nop
     ac8:	0800                	addi	s0,sp,16
     aca:	6176                	ld	sp,344(sp)
     acc:	006c                	addi	a1,sp,12
     ace:	ae02                	fsd	ft0,280(sp)
     ad0:	00008b0b          	0x8b0b
     ad4:	0200                	addi	s0,sp,256
     ad6:	6c91                	lui	s9,0x4
     ad8:	0900                	addi	s0,sp,144
     ada:	0396                	slli	t2,t2,0x5
     adc:	0000                	unimp
     ade:	a302                	fsd	ft0,384(sp)
     ae0:	180d                	addi	a6,a6,-29
     ae2:	0000023b          	addw	tp,zero,zero
     ae6:	0000                	unimp
     ae8:	8c00                	0x8c00
     aea:	0000                	unimp
     aec:	0000                	unimp
     aee:	0000                	unimp
     af0:	0100                	addi	s0,sp,128
     af2:	099c                	addi	a5,sp,208
     af4:	034c                	addi	a1,sp,388
     af6:	0000                	unimp
     af8:	9c02                	jalr	s8
     afa:	a80d                	j	b2c <_start-0x214d4>
     afc:	023a                	slli	tp,tp,0xe
     afe:	0000                	unimp
     b00:	0000                	unimp
     b02:	7000                	ld	s0,32(s0)
     b04:	0000                	unimp
     b06:	0000                	unimp
     b08:	0000                	unimp
     b0a:	0100                	addi	s0,sp,128
     b0c:	099c                	addi	a5,sp,208
     b0e:	03c4                	addi	s1,sp,452
     b10:	0000                	unimp
     b12:	9502                	jalr	a0
     b14:	380d                	addiw	a6,a6,-29
     b16:	023a                	slli	tp,tp,0xe
     b18:	0000                	unimp
     b1a:	0000                	unimp
     b1c:	7000                	ld	s0,32(s0)
     b1e:	0000                	unimp
     b20:	0000                	unimp
     b22:	0000                	unimp
     b24:	0100                	addi	s0,sp,128
     b26:	069c                	addi	a5,sp,832
     b28:	0354                	addi	a3,sp,388
     b2a:	0000                	unimp
     b2c:	7102                	ld	sp,32(sp)
     b2e:	c40d                	beqz	s0,b58 <_start-0x214a8>
     b30:	0238                	addi	a4,sp,264
     b32:	0000                	unimp
     b34:	0000                	unimp
     b36:	7400                	ld	s0,40(s0)
     b38:	0001                	nop
     b3a:	0000                	unimp
     b3c:	0000                	unimp
     b3e:	0100                	addi	s0,sp,128
     b40:	989c                	0x989c
     b42:	0001                	nop
     b44:	0800                	addi	s0,sp,16
     b46:	6176                	ld	sp,344(sp)
     b48:	006c                	addi	a1,sp,12
     b4a:	7302                	ld	t1,32(sp)
     b4c:	00008b0b          	0x8b0b
     b50:	0200                	addi	s0,sp,256
     b52:	6c91                	lui	s9,0x4
     b54:	0600                	addi	s0,sp,768
     b56:	0000033b          	addw	t1,zero,zero
     b5a:	3702                	fld	fa4,32(sp)
     b5c:	800d                	srli	s0,s0,0x3
     b5e:	0236                	slli	tp,tp,0xd
     b60:	0000                	unimp
     b62:	0000                	unimp
     b64:	4400                	lw	s0,8(s0)
     b66:	0002                	c.slli64	zero
     b68:	0000                	unimp
     b6a:	0000                	unimp
     b6c:	0100                	addi	s0,sp,128
     b6e:	c69c                	sw	a5,8(a3)
     b70:	0001                	nop
     b72:	0800                	addi	s0,sp,16
     b74:	6176                	ld	sp,344(sp)
     b76:	006c                	addi	a1,sp,12
     b78:	3902                	fld	fs2,32(sp)
     b7a:	00008b0b          	0x8b0b
     b7e:	0200                	addi	s0,sp,256
     b80:	6c91                	lui	s9,0x4
     b82:	0a00                	addi	s0,sp,272
     b84:	039e                	slli	t2,t2,0x7
     b86:	0000                	unimp
     b88:	2702                	fld	fa4,0(sp)
     b8a:	3c06                	fld	fs8,96(sp)
     b8c:	0236                	slli	tp,tp,0xd
     b8e:	0000                	unimp
     b90:	0000                	unimp
     b92:	4400                	lw	s0,8(s0)
     b94:	0000                	unimp
     b96:	0000                	unimp
     b98:	0000                	unimp
     b9a:	0100                	addi	s0,sp,128
     b9c:	f39c                	sd	a5,32(a5)
     b9e:	0001                	nop
     ba0:	0b00                	addi	s0,sp,400
     ba2:	7375                	lui	t1,0xffffd
     ba4:	0200                	addi	s0,sp,256
     ba6:	00781b27          	fsh	ft7,22(a6)
     baa:	0000                	unimp
     bac:	9102                	jalr	sp
     bae:	0068                	addi	a0,sp,12
     bb0:	6f0c                	ld	a1,24(a4)
     bb2:	01000003          	lb	zero,16(zero) # 10 <_start-0x21ff0>
     bb6:	1428                	addi	a0,sp,552
     bb8:	3608                	fld	fa0,40(a2)
     bba:	0002                	c.slli64	zero
     bbc:	0000                	unimp
     bbe:	0000                	unimp
     bc0:	0034                	addi	a3,sp,8
     bc2:	0000                	unimp
     bc4:	0000                	unimp
     bc6:	0000                	unimp
     bc8:	9c01                	subw	s0,s0,s0
     bca:	0230                	addi	a2,sp,264
     bcc:	0000                	unimp
     bce:	00003a07          	fld	fs4,0(zero) # 0 <_start-0x22000>
     bd2:	0100                	addi	s0,sp,128
     bd4:	2b28                	fld	fa0,80(a4)
     bd6:	0000007f          	0x7f
     bda:	9102                	jalr	sp
     bdc:	0768                	addi	a0,sp,908
     bde:	0335                	addi	t1,t1,13
     be0:	0000                	unimp
     be2:	2801                	sext.w	a6,a6
     be4:	00005037          	lui	zero,0x5
     be8:	0200                	addi	s0,sp,256
     bea:	6491                	lui	s1,0x4
     bec:	0d00                	addi	s0,sp,656
     bee:	0380                	addi	s0,sp,448
     bf0:	0000                	unimp
     bf2:	1401                	addi	s0,s0,-32
     bf4:	5015                	c.li	zero,-27
     bf6:	0000                	unimp
     bf8:	dc00                	sw	s0,56(s0)
     bfa:	0235                	addi	tp,tp,13
     bfc:	0000                	unimp
     bfe:	0000                	unimp
     c00:	2c00                	fld	fs0,24(s0)
     c02:	0000                	unimp
     c04:	0000                	unimp
     c06:	0000                	unimp
     c08:	0100                	addi	s0,sp,128
     c0a:	079c                	addi	a5,sp,960
     c0c:	003a                	c.slli	zero,0xe
     c0e:	0000                	unimp
     c10:	1401                	addi	s0,s0,-32
     c12:	00007f2b          	0x7f2b
     c16:	0200                	addi	s0,sp,256
     c18:	6891                	lui	a7,0x4
     c1a:	0000                	unimp
     c1c:	04f5                	addi	s1,s1,29
     c1e:	0000                	unimp
     c20:	0004                	0x4
     c22:	00000533          	add	a0,zero,zero
     c26:	0108                	addi	a0,sp,128
     c28:	00000083          	lb	ra,0(zero) # 0 <_start-0x22000>
     c2c:	0f0c                	addi	a1,sp,912
     c2e:	0004                	0x4
     c30:	fe00                	sd	s0,56(a2)
     c32:	0000                	unimp
     c34:	8c00                	0x8c00
     c36:	023d                	addi	tp,tp,15
     c38:	0000                	unimp
     c3a:	0000                	unimp
     c3c:	4000                	lw	s0,0(s0)
     c3e:	000a                	c.slli	zero,0x2
     c40:	0000                	unimp
     c42:	0000                	unimp
     c44:	6200                	ld	s0,0(a2)
     c46:	0015                	c.nop	5
     c48:	0200                	addi	s0,sp,256
     c4a:	0601                	addi	a2,a2,0
     c4c:	0041                	c.nop	16
     c4e:	0000                	unimp
     c50:	00042603          	lw	a2,0(s0) # fffffffffffe5000 <TEXT_ROM+0xfffffffffffbe000>
     c54:	0300                	addi	s0,sp,384
     c56:	1709                	addi	a4,a4,-30
     c58:	0040                	addi	s0,sp,4
     c5a:	0000                	unimp
     c5c:	0102                	c.slli64	sp
     c5e:	3f08                	fld	fa0,56(a4)
     c60:	0000                	unimp
     c62:	0200                	addi	s0,sp,256
     c64:	0502                	c.slli64	a0
     c66:	017e                	slli	sp,sp,0x1f
     c68:	0000                	unimp
     c6a:	0202                	c.slli64	tp
     c6c:	00006207          	vle32.v	v4,(zero),v0.t
     c70:	0400                	addi	s0,sp,512
     c72:	0504                	addi	s1,sp,640
     c74:	6e69                	lui	t3,0x1a
     c76:	0074                	addi	a3,sp,12
     c78:	0003a503          	lw	a0,0(t2) # 10000 <_start-0x12000>
     c7c:	0300                	addi	s0,sp,384
     c7e:	0068160f          	0x68160f
     c82:	0000                	unimp
     c84:	0402                	c.slli64	s0
     c86:	00015c07          	vle16.v	v24,(sp),v0.t
     c8a:	0200                	addi	s0,sp,256
     c8c:	0508                	addi	a0,sp,640
     c8e:	0170                	addi	a2,sp,140
     c90:	0000                	unimp
     c92:	0802                	c.slli64	a6
     c94:	00015207          	vle16.v	v4,(sp),v0.t
     c98:	0200                	addi	s0,sp,256
     c9a:	0508                	addi	a0,sp,640
     c9c:	0175                	addi	sp,sp,29
     c9e:	0000                	unimp
     ca0:	0802                	c.slli64	a6
     ca2:	00015707          	vle16.v	v14,(sp),v0.t
     ca6:	0300                	addi	s0,sp,384
     ca8:	00000387          	vle8.v	v7,(zero),v0.t
     cac:	761c2403          	lw	s0,1889(s8) # 5761 <_start-0x1c89f>
     cb0:	0000                	unimp
     cb2:	0300                	addi	s0,sp,384
     cb4:	022e                	slli	tp,tp,0xb
     cb6:	0000                	unimp
     cb8:	0804                	addi	s1,sp,16
     cba:	0000a31b          	0xa31b
     cbe:	0500                	addi	s0,sp,640
     cc0:	2408                	fld	fa0,8(s0)
     cc2:	0002                	c.slli64	zero
     cc4:	0300                	addi	s0,sp,384
     cc6:	000003ab          	0x3ab
     cca:	1105                	addi	sp,sp,-31
     ccc:	00005c0f          	0x5c0f
     cd0:	0600                	addi	s0,sp,768
     cd2:	03e5                	addi	t2,t2,25
     cd4:	0000                	unimp
     cd6:	e602                	sd	zero,264(sp)
     cd8:	fc06                	sd	ra,56(sp)
     cda:	0246                	slli	tp,tp,0x11
     cdc:	0000                	unimp
     cde:	0000                	unimp
     ce0:	d000                	sw	s0,32(s0)
     ce2:	0000                	unimp
     ce4:	0000                	unimp
     ce6:	0000                	unimp
     ce8:	0100                	addi	s0,sp,128
     cea:	ff9c                	sd	a5,56(a5)
     cec:	0000                	unimp
     cee:	0700                	addi	s0,sp,896
     cf0:	6176                	ld	sp,344(sp)
     cf2:	006c                	addi	a1,sp,12
     cf4:	e602                	sd	zero,264(sp)
     cf6:	681d                	lui	a6,0x7
     cf8:	0000                	unimp
     cfa:	0200                	addi	s0,sp,256
     cfc:	5c91                	li	s9,-28
     cfe:	6908                	ld	a0,16(a0)
     d00:	0200                	addi	s0,sp,256
     d02:	09e8                	addi	a0,sp,220
     d04:	0055                	c.nop	21
     d06:	0000                	unimp
     d08:	9102                	jalr	sp
     d0a:	096c                	addi	a1,sp,156
     d0c:	0445                	addi	s0,s0,17
     d0e:	0000                	unimp
     d10:	e902                	sd	zero,144(sp)
     d12:	5509                	li	a0,-30
     d14:	0000                	unimp
     d16:	0200                	addi	s0,sp,256
     d18:	6891                	lui	a7,0x4
     d1a:	0a00                	addi	s0,sp,272
     d1c:	0435                	addi	s0,s0,13
     d1e:	0000                	unimp
     d20:	d902                	sw	zero,176(sp)
     d22:	5505                	li	a0,-31
     d24:	0000                	unimp
     d26:	9000                	0x9000
     d28:	0246                	slli	tp,tp,0x11
     d2a:	0000                	unimp
     d2c:	0000                	unimp
     d2e:	6c00                	ld	s0,24(s0)
     d30:	0000                	unimp
     d32:	0000                	unimp
     d34:	0000                	unimp
     d36:	0100                	addi	s0,sp,128
     d38:	429c                	lw	a5,0(a3)
     d3a:	0001                	nop
     d3c:	0700                	addi	s0,sp,896
     d3e:	6d66                	ld	s10,88(sp)
     d40:	0074                	addi	a3,sp,12
     d42:	d902                	sw	zero,176(sp)
     d44:	4222                	lw	tp,8(sp)
     d46:	0001                	nop
     d48:	0300                	addi	s0,sp,384
     d4a:	9891                	andi	s1,s1,-28
     d4c:	76080b7f          	0x76080b7f
     d50:	0061                	c.nop	24
     d52:	dc02                	sw	zero,56(sp)
     d54:	970a                	add	a4,a4,sp
     d56:	0000                	unimp
     d58:	0300                	addi	s0,sp,384
     d5a:	a891                	j	dae <_start-0x21252>
     d5c:	080c007f          	0x80c007f
     d60:	0000014f          	fnmadd.s	ft2,ft0,ft0,ft0,rne
     d64:	0102                	c.slli64	sp
     d66:	4808                	lw	a0,16(s0)
     d68:	0000                	unimp
     d6a:	0d00                	addi	s0,sp,656
     d6c:	0148                	addi	a0,sp,132
     d6e:	0000                	unimp
     d70:	760e                	ld	a2,224(sp)
     d72:	6670                	ld	a2,200(a2)
     d74:	0200                	addi	s0,sp,256
     d76:	0cb4                	addi	a3,sp,600
     d78:	0055                	c.nop	21
     d7a:	0000                	unimp
     d7c:	44bc                	lw	a5,72(s1)
     d7e:	0002                	c.slli64	zero
     d80:	0000                	unimp
     d82:	0000                	unimp
     d84:	01d4                	addi	a3,sp,196
     d86:	0000                	unimp
     d88:	0000                	unimp
     d8a:	0000                	unimp
     d8c:	9c01                	subw	s0,s0,s0
     d8e:	0000020f          	0x20f
     d92:	746d6607          	0x746d6607
     d96:	0200                	addi	s0,sp,256
     d98:	1db4                	addi	a3,sp,760
     d9a:	0142                	slli	sp,sp,0x10
     d9c:	0000                	unimp
     d9e:	7fb89103          	lh	sp,2043(a7) # 47fb <_start-0x1d805>
     da2:	00617607          	0x617607
     da6:	b402                	fsd	ft0,40(sp)
     da8:	972a                	add	a4,a4,a0
     daa:	0000                	unimp
     dac:	0300                	addi	s0,sp,384
     dae:	b091                	j	5f2 <_start-0x21a0e>
     db0:	0070087f          	0x70087f
     db4:	b602                	fsd	ft0,296(sp)
     db6:	0001420f          	0x1420f
     dba:	0200                	addi	s0,sp,256
     dbc:	6891                	lui	a7,0x4
     dbe:	7108                	ld	a0,32(a0)
     dc0:	0200                	addi	s0,sp,256
     dc2:	14b6                	slli	s1,s1,0x2d
     dc4:	0142                	slli	sp,sp,0x10
     dc6:	0000                	unimp
     dc8:	9102                	jalr	sp
     dca:	0860                	addi	s0,sp,28
     dcc:	0066                	c.slli	zero,0x19
     dce:	b702                	fsd	ft0,424(sp)
     dd0:	5506                	lw	a0,96(sp)
     dd2:	0000                	unimp
     dd4:	0200                	addi	s0,sp,256
     dd6:	5c91                	li	s9,-28
     dd8:	6308                	ld	a0,0(a4)
     dda:	0200                	addi	s0,sp,256
     ddc:	005509b7          	lui	s3,0x550
     de0:	0000                	unimp
     de2:	9102                	jalr	sp
     de4:	0850                	addi	a2,sp,20
     de6:	6176                	ld	sp,344(sp)
     de8:	0069                	c.nop	26
     dea:	b702                	fsd	ft0,424(sp)
     dec:	550c                	lw	a1,40(a0)
     dee:	0000                	unimp
     df0:	0200                	addi	s0,sp,256
     df2:	4891                	li	a7,4
     df4:	7008                	ld	a0,32(s0)
     df6:	006c                	addi	a1,sp,12
     df8:	b702                	fsd	ft0,424(sp)
     dfa:	5511                	li	a0,-28
     dfc:	0000                	unimp
     dfe:	0200                	addi	s0,sp,256
     e00:	4491                	li	s1,4
     e02:	7008                	ld	a0,32(s0)
     e04:	b7020063          	beq	tp,a6,164 <_start-0x21e9c>
     e08:	5515                	li	a0,-27
     e0a:	0000                	unimp
     e0c:	0200                	addi	s0,sp,256
     e0e:	5491                	li	s1,-28
     e10:	6908                	ld	a0,16(a0)
     e12:	0200                	addi	s0,sp,256
     e14:	005519b7          	lui	s3,0x551
     e18:	0000                	unimp
     e1a:	9102                	jalr	sp
     e1c:	0858                	addi	a4,sp,20
     e1e:	0074                	addi	a3,sp,12
     e20:	b802                	fsd	ft0,48(sp)
     e22:	4010                	lw	a2,0(s0)
     e24:	0000                	unimp
     e26:	0200                	addi	s0,sp,256
     e28:	4f91                	li	t6,4
     e2a:	0f00                	addi	s0,sp,912
     e2c:	0454                	addi	a3,sp,516
     e2e:	0000                	unimp
     e30:	9002                	ebreak
     e32:	f40d                	bnez	s0,d5c <_start-0x212a4>
     e34:	0242                	slli	tp,tp,0x10
     e36:	0000                	unimp
     e38:	0000                	unimp
     e3a:	c800                	sw	s0,16(s0)
     e3c:	0001                	nop
     e3e:	0000                	unimp
     e40:	0000                	unimp
     e42:	0100                	addi	s0,sp,128
     e44:	b19c                	fsd	fa5,32(a1)
     e46:	0002                	c.slli64	zero
     e48:	0700                	addi	s0,sp,896
     e4a:	0061                	c.nop	24
     e4c:	9002                	ebreak
     e4e:	a925                	j	1286 <_start-0x20d7a>
     e50:	0000                	unimp
     e52:	0300                	addi	s0,sp,384
     e54:	bc91                	j	8a8 <_start-0x21758>
     e56:	7369077f          	0x7369077f
     e5a:	0068                	addi	a0,sp,12
     e5c:	9002                	ebreak
     e5e:	552c                	lw	a1,104(a0)
     e60:	0000                	unimp
     e62:	0300                	addi	s0,sp,384
     e64:	b891                	j	6b8 <_start-0x21948>
     e66:	6c70077f          	0x6c70077f
     e6a:	0200                	addi	s0,sp,256
     e6c:	3590                	fld	fa2,40(a1)
     e6e:	0055                	c.nop	21
     e70:	0000                	unimp
     e72:	7fb49103          	lh	sp,2043(s1) # 47fb <_start-0x1d805>
     e76:	00637007          	0x637007
     e7a:	9002                	ebreak
     e7c:	553d                	li	a0,-17
     e7e:	0000                	unimp
     e80:	0300                	addi	s0,sp,384
     e82:	b091                	j	6c6 <_start-0x2193a>
     e84:	7562087f          	0x7562087f
     e88:	0066                	c.slli	zero,0x19
     e8a:	9202                	jalr	tp
     e8c:	0002b107          	fld	ft2,0(t0)
     e90:	0200                	addi	s0,sp,256
     e92:	4091                	li	ra,4
     e94:	6509                	lui	a0,0x2
     e96:	0002                	c.slli64	zero
     e98:	0200                	addi	s0,sp,256
     e9a:	00a90b93          	addi	s7,s2,10 # 500a <_start-0x1cff6>
     e9e:	0000                	unimp
     ea0:	9102                	jalr	sp
     ea2:	086c                	addi	a1,sp,28
     ea4:	6469                	lui	s0,0x1a
     ea6:	0078                	addi	a4,sp,12
     ea8:	9402                	jalr	s0
     eaa:	5506                	lw	a0,96(sp)
     eac:	0000                	unimp
     eae:	0200                	addi	s0,sp,256
     eb0:	6891                	lui	a7,0x4
     eb2:	6908                	ld	a0,16(a0)
     eb4:	0200                	addi	s0,sp,256
     eb6:	0b94                	addi	a3,sp,464
     eb8:	0055                	c.nop	21
     eba:	0000                	unimp
     ebc:	9102                	jalr	sp
     ebe:	0864                	addi	s1,sp,28
     ec0:	0074                	addi	a3,sp,12
     ec2:	9402                	jalr	s0
     ec4:	550e                	lw	a0,224(sp)
     ec6:	0000                	unimp
     ec8:	0200                	addi	s0,sp,256
     eca:	6091                	lui	ra,0x4
     ecc:	1000                	addi	s0,sp,32
     ece:	0148                	addi	a0,sp,132
     ed0:	0000                	unimp
     ed2:	02c1                	addi	t0,t0,16
     ed4:	0000                	unimp
     ed6:	8411                	srai	s0,s0,0x4
     ed8:	0000                	unimp
     eda:	1f00                	addi	s0,sp,944
     edc:	1200                	addi	s0,sp,288
     ede:	0400                	addi	s0,sp,512
     ee0:	0000                	unimp
     ee2:	7d02                	ld	s10,32(sp)
     ee4:	550c                	lw	a1,40(a0)
     ee6:	0000                	unimp
     ee8:	0400                	addi	s0,sp,512
     eea:	0242                	slli	tp,tp,0x10
     eec:	0000                	unimp
     eee:	0000                	unimp
     ef0:	f000                	sd	s0,32(s0)
     ef2:	0000                	unimp
     ef4:	0000                	unimp
     ef6:	0000                	unimp
     ef8:	0100                	addi	s0,sp,128
     efa:	3a9c                	fld	fa5,48(a3)
     efc:	07000003          	lb	zero,112(zero) # 70 <_start-0x21f90>
     f00:	6d66                	ld	s10,88(sp)
     f02:	0074                	addi	a3,sp,12
     f04:	7d02                	ld	s10,32(sp)
     f06:	4228                	lw	a0,64(a2)
     f08:	0001                	nop
     f0a:	0200                	addi	s0,sp,256
     f0c:	4891                	li	a7,4
     f0e:	6d756e07          	vloxseg4ei32.v	v28,(a0),v23,v0.t
     f12:	0200                	addi	s0,sp,256
     f14:	337d                	addiw	t1,t1,-1
     f16:	033a                	slli	t1,t1,0xe
     f18:	0000                	unimp
     f1a:	9102                	jalr	sp
     f1c:	0840                	addi	s0,sp,20
     f1e:	0070                	addi	a2,sp,12
     f20:	7f02                	ld	t5,32(sp)
     f22:	0001420f          	0x1420f
     f26:	0200                	addi	s0,sp,256
     f28:	6891                	lui	a7,0x4
     f2a:	7208                	ld	a0,32(a2)
     f2c:	7365                	lui	t1,0xffff9
     f2e:	0200                	addi	s0,sp,256
     f30:	0680                	addi	s0,sp,832
     f32:	0055                	c.nop	21
     f34:	0000                	unimp
     f36:	9102                	jalr	sp
     f38:	0864                	addi	s1,sp,28
     f3a:	0064                	addi	s1,sp,12
     f3c:	8002                	0x8002
     f3e:	0000550b          	srb	a0,zero,zero,0
     f42:	0200                	addi	s0,sp,256
     f44:	5c91                	li	s9,-28
     f46:	6908                	ld	a0,16(a0)
     f48:	02006473          	csrrsi	s0,0x20,0
     f4c:	0e80                	addi	s0,sp,848
     f4e:	0055                	c.nop	21
     f50:	0000                	unimp
     f52:	9102                	jalr	sp
     f54:	0060                	addi	s0,sp,12
     f56:	080c                	addi	a1,sp,16
     f58:	0055                	c.nop	21
     f5a:	0000                	unimp
     f5c:	ef06                	sd	ra,408(sp)
     f5e:	02000003          	lb	zero,32(zero) # 20 <_start-0x21fe0>
     f62:	0671                	addi	a2,a2,28
     f64:	4174                	lw	a3,68(a0)
     f66:	0002                	c.slli64	zero
     f68:	0000                	unimp
     f6a:	0000                	unimp
     f6c:	0090                	addi	a2,sp,64
     f6e:	0000                	unimp
     f70:	0000                	unimp
     f72:	0000                	unimp
     f74:	9c01                	subw	s0,s0,s0
     f76:	0000037b          	0x37b
     f7a:	72747307          	0x72747307
     f7e:	0200                	addi	s0,sp,256
     f80:	1d71                	addi	s10,s10,-4
     f82:	0000037b          	0x37b
     f86:	9102                	jalr	sp
     f88:	0858                	addi	a4,sp,20
     f8a:	0069                	c.nop	26
     f8c:	7302                	ld	t1,32(sp)
     f8e:	5509                	li	a0,-30
     f90:	0000                	unimp
     f92:	0200                	addi	s0,sp,256
     f94:	6c91                	lui	s9,0x4
     f96:	0c00                	addi	s0,sp,528
     f98:	4808                	lw	a0,16(s0)
     f9a:	0001                	nop
     f9c:	0a00                	addi	s0,sp,272
     f9e:	0000042b          	0x42b
     fa2:	6902                	ld	s2,0(sp)
     fa4:	4806                	lw	a6,64(sp)
     fa6:	0001                	nop
     fa8:	1400                	addi	s0,sp,544
     faa:	0241                	addi	tp,tp,16
     fac:	0000                	unimp
     fae:	0000                	unimp
     fb0:	6000                	ld	s0,0(s0)
     fb2:	0000                	unimp
     fb4:	0000                	unimp
     fb6:	0000                	unimp
     fb8:	0100                	addi	s0,sp,128
     fba:	b39c                	fsd	fa5,32(a5)
     fbc:	09000003          	lb	zero,144(zero) # 90 <_start-0x21f70>
     fc0:	003a                	c.slli	zero,0xe
     fc2:	0000                	unimp
     fc4:	6b02                	ld	s6,0(sp)
     fc6:	8b11                	andi	a4,a4,4
     fc8:	0000                	unimp
     fca:	0200                	addi	s0,sp,256
     fcc:	6891                	lui	a7,0x4
     fce:	0a00                	addi	s0,sp,272
     fd0:	041e                	slli	s0,s0,0x7
     fd2:	0000                	unimp
     fd4:	6302                	ld	t1,0(sp)
     fd6:	5505                	li	a0,-31
     fd8:	0000                	unimp
     fda:	d400                	sw	s0,40(s0)
     fdc:	0240                	addi	s0,sp,260
     fde:	0000                	unimp
     fe0:	0000                	unimp
     fe2:	4000                	lw	s0,0(s0)
     fe4:	0000                	unimp
     fe6:	0000                	unimp
     fe8:	0000                	unimp
     fea:	0100                	addi	s0,sp,128
     fec:	e39c                	sd	a5,0(a5)
     fee:	07000003          	lb	zero,112(zero) # 70 <_start-0x21f90>
     ff2:	63020063          	beq	tp,a6,1612 <_start-0x209ee>
     ff6:	5511                	li	a0,-28
     ff8:	0000                	unimp
     ffa:	0200                	addi	s0,sp,256
     ffc:	6c91                	lui	s9,0x4
     ffe:	0600                	addi	s0,sp,768
    1000:	044a                	slli	s0,s0,0x12
    1002:	0000                	unimp
    1004:	5b02                	lw	s6,32(sp)
    1006:	6406                	ld	s0,64(sp)
    1008:	0240                	addi	s0,sp,260
    100a:	0000                	unimp
    100c:	0000                	unimp
    100e:	7000                	ld	s0,32(s0)
    1010:	0000                	unimp
    1012:	0000                	unimp
    1014:	0000                	unimp
    1016:	0100                	addi	s0,sp,128
    1018:	1e9c                	addi	a5,sp,880
    101a:	0004                	0x4
    101c:	0700                	addi	s0,sp,896
    101e:	5b020063          	beq	tp,a6,15be <_start-0x20a42>
    1022:	4815                	li	a6,5
    1024:	0001                	nop
    1026:	0200                	addi	s0,sp,256
    1028:	5f91                	li	t6,-28
    102a:	3a09                	addiw	s4,s4,-30
    102c:	0000                	unimp
    102e:	0200                	addi	s0,sp,256
    1030:	115d                	addi	sp,sp,-9
    1032:	0000008b          	0x8b
    1036:	9102                	jalr	sp
    1038:	0068                	addi	a0,sp,12
    103a:	db06                	sw	ra,180(sp)
    103c:	02000003          	lb	zero,32(zero) # 20 <_start-0x21fe0>
    1040:	061f 3e18 0002      	0x23e18061f
    1046:	0000                	unimp
    1048:	0000                	unimp
    104a:	024c                	addi	a1,sp,260
    104c:	0000                	unimp
    104e:	0000                	unimp
    1050:	0000                	unimp
    1052:	9c01                	subw	s0,s0,s0
    1054:	0000045b          	0x45b
    1058:	3a09                	addiw	s4,s4,-30
    105a:	0000                	unimp
    105c:	0200                	addi	s0,sp,256
    105e:	1121                	addi	sp,sp,-24
    1060:	0000008b          	0x8b
    1064:	9102                	jalr	sp
    1066:	0868                	addi	a0,sp,28
    1068:	6176                	ld	sp,344(sp)
    106a:	006c                	addi	a1,sp,12
    106c:	2202                	fld	ft4,0(sp)
    106e:	5c08                	lw	a0,56(s0)
    1070:	0000                	unimp
    1072:	0200                	addi	s0,sp,256
    1074:	6491                	lui	s1,0x4
    1076:	1300                	addi	s0,sp,416
    1078:	0000036f          	jal	t1,1078 <_start-0x20f88>
    107c:	2801                	sext.w	a6,a6
    107e:	e414                	sd	a3,8(s0)
    1080:	023d                	addi	tp,tp,15
    1082:	0000                	unimp
    1084:	0000                	unimp
    1086:	3400                	fld	fs0,40(s0)
    1088:	0000                	unimp
    108a:	0000                	unimp
    108c:	0000                	unimp
    108e:	0100                	addi	s0,sp,128
    1090:	989c                	0x989c
    1092:	0004                	0x4
    1094:	1400                	addi	s0,sp,544
    1096:	003a                	c.slli	zero,0xe
    1098:	0000                	unimp
    109a:	2801                	sext.w	a6,a6
    109c:	00008b2b          	0x8b2b
    10a0:	0200                	addi	s0,sp,256
    10a2:	6891                	lui	a7,0x4
    10a4:	3514                	fld	fa3,40(a0)
    10a6:	01000003          	lb	zero,16(zero) # 10 <_start-0x21ff0>
    10aa:	3728                	fld	fa0,104(a4)
    10ac:	005c                	addi	a5,sp,4
    10ae:	0000                	unimp
    10b0:	9102                	jalr	sp
    10b2:	0064                	addi	s1,sp,12
    10b4:	8012                	c.mv	zero,tp
    10b6:	01000003          	lb	zero,16(zero) # 10 <_start-0x21ff0>
    10ba:	1514                	addi	a3,sp,672
    10bc:	005c                	addi	a5,sp,4
    10be:	0000                	unimp
    10c0:	3db8                	fld	fa4,120(a1)
    10c2:	0002                	c.slli64	zero
    10c4:	0000                	unimp
    10c6:	0000                	unimp
    10c8:	002c                	addi	a1,sp,8
    10ca:	0000                	unimp
    10cc:	0000                	unimp
    10ce:	0000                	unimp
    10d0:	9c01                	subw	s0,s0,s0
    10d2:	04ca                	slli	s1,s1,0x12
    10d4:	0000                	unimp
    10d6:	3a14                	fld	fa3,48(a2)
    10d8:	0000                	unimp
    10da:	0100                	addi	s0,sp,128
    10dc:	2b14                	fld	fa3,16(a4)
    10de:	0000008b          	0x8b
    10e2:	9102                	jalr	sp
    10e4:	0068                	addi	a0,sp,12
    10e6:	6315                	lui	t1,0x5
    10e8:	0004                	0x4
    10ea:	0100                	addi	s0,sp,128
    10ec:	140a                	slli	s0,s0,0x22
    10ee:	0034                	addi	a3,sp,8
    10f0:	0000                	unimp
    10f2:	3d8c                	fld	fa1,56(a1)
    10f4:	0002                	c.slli64	zero
    10f6:	0000                	unimp
    10f8:	0000                	unimp
    10fa:	002c                	addi	a1,sp,8
    10fc:	0000                	unimp
    10fe:	0000                	unimp
    1100:	0000                	unimp
    1102:	9c01                	subw	s0,s0,s0
    1104:	3a14                	fld	fa3,48(a2)
    1106:	0000                	unimp
    1108:	0100                	addi	s0,sp,128
    110a:	290a                	fld	fs2,128(sp)
    110c:	0000008b          	0x8b
    1110:	9102                	jalr	sp
    1112:	0068                	addi	a0,sp,12
    1114:	2a00                	fld	fs0,16(a2)
    1116:	0000                	unimp
    1118:	0200                	addi	s0,sp,256
    111a:	a000                	fsd	fs0,0(s0)
    111c:	0006                	c.slli	zero,0x1
    111e:	0800                	addi	s0,sp,16
    1120:	a201                	j	1220 <_start-0x20de0>
    1122:	001c                	0x1c
    1124:	d000                	sw	s0,32(s0)
    1126:	00000247          	fmsub.s	ft4,ft0,ft0,ft0,rne
    112a:	0000                	unimp
    112c:	d000                	sw	s0,32(s0)
    112e:	0249                	addi	tp,tp,18
    1130:	0000                	unimp
    1132:	0000                	unimp
    1134:	6900                	ld	s0,16(a0)
    1136:	0004                	0x4
    1138:	7800                	ld	s0,48(s0)
    113a:	0004                	0x4
    113c:	c700                	sw	s0,8(a4)
    113e:	0004                	0x4
    1140:	0100                	addi	s0,sp,128
    1142:	2a80                	fld	fs0,16(a3)
    1144:	0000                	unimp
    1146:	0200                	addi	s0,sp,256
    1148:	b400                	fsd	fs0,40(s0)
    114a:	0006                	c.slli	zero,0x1
    114c:	0800                	addi	s0,sp,16
    114e:	1701                	addi	a4,a4,-32
    1150:	001f 0000 0220      	0x2200000001f
    1156:	0000                	unimp
    1158:	0000                	unimp
    115a:	6800                	ld	s0,16(s0)
    115c:	0220                	addi	s0,sp,264
    115e:	0000                	unimp
    1160:	0000                	unimp
    1162:	d300                	sw	s0,32(a4)
    1164:	0004                	0x4
    1166:	7800                	ld	s0,48(s0)
    1168:	0004                	0x4
    116a:	c700                	sw	s0,8(a4)
    116c:	0004                	0x4
    116e:	0100                	addi	s0,sp,128
    1170:	2a80                	fld	fs0,16(a3)
    1172:	0000                	unimp
    1174:	0200                	addi	s0,sp,256
    1176:	c800                	sw	s0,16(s0)
    1178:	0006                	c.slli	zero,0x1
    117a:	0800                	addi	s0,sp,16
    117c:	c801                	beqz	s0,118c <_start-0x20e74>
    117e:	001f d800 0249      	0x249d800001f
    1184:	0000                	unimp
    1186:	0000                	unimp
    1188:	bc00                	fsd	fs0,56(s0)
    118a:	024a                	slli	tp,tp,0x12
    118c:	0000                	unimp
    118e:	0000                	unimp
    1190:	de00                	sw	s0,56(a2)
    1192:	0004                	0x4
    1194:	7800                	ld	s0,48(s0)
    1196:	0004                	0x4
    1198:	c700                	sw	s0,8(a4)
    119a:	0004                	0x4
    119c:	0100                	addi	s0,sp,128
    119e:	2a80                	fld	fs0,16(a3)
    11a0:	0000                	unimp
    11a2:	0200                	addi	s0,sp,256
    11a4:	dc00                	sw	s0,56(s0)
    11a6:	0006                	c.slli	zero,0x1
    11a8:	0800                	addi	s0,sp,16
    11aa:	4101                	li	sp,0
    11ac:	0021                	c.nop	8
    11ae:	bc00                	fsd	fs0,56(s0)
    11b0:	024a                	slli	tp,tp,0x12
    11b2:	0000                	unimp
    11b4:	0000                	unimp
    11b6:	d400                	sw	s0,40(s0)
    11b8:	024a                	slli	tp,tp,0x12
    11ba:	0000                	unimp
    11bc:	0000                	unimp
    11be:	f100                	sd	s0,32(a0)
    11c0:	0004                	0x4
    11c2:	7800                	ld	s0,48(s0)
    11c4:	0004                	0x4
    11c6:	c700                	sw	s0,8(a4)
    11c8:	0004                	0x4
    11ca:	0100                	addi	s0,sp,128
    11cc:	80              	Address 0x00000000000011cc is out of bounds.


Disassembly of section .debug_abbrev:

0000000000000000 <.debug_abbrev>:
   0:	1101                	addi	sp,sp,-32
   2:	2501                	sext.w	a0,a0
   4:	130e                	slli	t1,t1,0x23
   6:	1b0e030b          	0x1b0e030b
   a:	110e                	slli	sp,sp,0x23
   c:	1201                	addi	tp,tp,-32
   e:	00171007          	flh	ft0,1(a4)
  12:	0200                	addi	s0,sp,256
  14:	0024                	addi	s1,sp,8
  16:	0b3e0b0b          	0xb3e0b0b
  1a:	00000e03          	lb	t3,0(zero) # 0 <_start-0x22000>
  1e:	0b002403          	lw	s0,176(zero) # b0 <_start-0x21f50>
  22:	030b3e0b          	extu	t3,s6,0,48
  26:	0008                	0x8
  28:	0400                	addi	s0,sp,512
  2a:	0101                	addi	sp,sp,0
  2c:	1349                	addi	t1,t1,-14
  2e:	1301                	addi	t1,t1,-32
  30:	0000                	unimp
  32:	2105                	addiw	sp,sp,1
  34:	0000                	unimp
  36:	0600                	addi	s0,sp,768
  38:	0034                	addi	a3,sp,8
  3a:	0b3a0e03          	lb	t3,179(s4)
  3e:	0b390b3b          	0xb390b3b
  42:	1349                	addi	t1,t1,-14
  44:	193c193f 2e070000 	0x2e070000193c193f
  4c:	3f00                	fld	fs0,56(a4)
  4e:	0319                	addi	t1,t1,6
  50:	3a0e                	fld	fs4,224(sp)
  52:	390b3b0b          	extu	s6,s6,14,16
  56:	1119270b          	ext	a4,s2,4,17
  5a:	1201                	addi	tp,tp,-32
  5c:	96184007          	flq	ft0,-1695(a6) # 6961 <_start-0x1b69f>
  60:	1942                	slli	s2,s2,0x30
  62:	0000                	unimp
  64:	2e08                	fld	fa0,24(a2)
  66:	0301                	addi	t1,t1,0
  68:	3a0e                	fld	fs4,224(sp)
  6a:	390b3b0b          	extu	s6,s6,14,16
  6e:	1119270b          	ext	a4,s2,4,17
  72:	1201                	addi	tp,tp,-32
  74:	96184007          	flq	ft0,-1695(a6)
  78:	1942                	slli	s2,s2,0x30
  7a:	1301                	addi	t1,t1,-32
  7c:	0000                	unimp
  7e:	3409                	addiw	s0,s0,-30
  80:	0300                	addi	s0,sp,384
  82:	3a0e                	fld	fs4,224(sp)
  84:	390b3b0b          	extu	s6,s6,14,16
  88:	0213490b          	lrb	s2,t1,ra,1
  8c:	0018                	0x18
  8e:	0a00                	addi	s0,sp,272
  90:	0034                	addi	a3,sp,8
  92:	0b3a0803          	lb	a6,179(s4)
  96:	0b390b3b          	0xb390b3b
  9a:	1349                	addi	t1,t1,-14
  9c:	1802                	slli	a6,a6,0x20
  9e:	0000                	unimp
  a0:	03002e0b          	ext	t3,zero,0,48
  a4:	3a0e                	fld	fs4,224(sp)
  a6:	390b3b0b          	extu	s6,s6,14,16
  aa:	1119270b          	ext	a4,s2,4,17
  ae:	1201                	addi	tp,tp,-32
  b0:	96184007          	flq	ft0,-1695(a6)
  b4:	1942                	slli	s2,s2,0x30
  b6:	0000                	unimp
  b8:	2e0c                	fld	fa1,24(a2)
  ba:	3f01                	addiw	t5,t5,-32
  bc:	0319                	addi	t1,t1,6
  be:	3a0e                	fld	fs4,224(sp)
  c0:	390b3b0b          	extu	s6,s6,14,16
  c4:	1119270b          	ext	a4,s2,4,17
  c8:	1201                	addi	tp,tp,-32
  ca:	96184007          	flq	ft0,-1695(a6)
  ce:	1942                	slli	s2,s2,0x30
  d0:	1301                	addi	t1,t1,-32
  d2:	0000                	unimp
  d4:	2e0d                	addiw	t3,t3,3
  d6:	0301                	addi	t1,t1,0
  d8:	3a0e                	fld	fs4,224(sp)
  da:	390b3b0b          	extu	s6,s6,14,16
  de:	4919270b          	ext	a4,s2,18,17
  e2:	12011113          	0x12011113
  e6:	96184007          	flq	ft0,-1695(a6)
  ea:	1942                	slli	s2,s2,0x30
  ec:	1301                	addi	t1,t1,-32
  ee:	0000                	unimp
  f0:	050e                	slli	a0,a0,0x3
  f2:	0300                	addi	s0,sp,384
  f4:	3a0e                	fld	fs4,224(sp)
  f6:	390b3b0b          	extu	s6,s6,14,16
  fa:	0213490b          	lrb	s2,t1,ra,1
  fe:	0018                	0x18
 100:	0f00                	addi	s0,sp,912
 102:	000a                	c.slli	zero,0x2
 104:	0b3a0e03          	lb	t3,179(s4)
 108:	0b390b3b          	0xb390b3b
 10c:	0111                	addi	sp,sp,4
 10e:	0000                	unimp
 110:	0f10                	addi	a2,sp,912
 112:	0b00                	addi	s0,sp,400
 114:	0013490b          	lrb	s2,t1,ra,0
 118:	0000                	unimp
 11a:	1101                	addi	sp,sp,-32
 11c:	2501                	sext.w	a0,a0
 11e:	130e                	slli	t1,t1,0x23
 120:	1b0e030b          	0x1b0e030b
 124:	110e                	slli	sp,sp,0x23
 126:	1201                	addi	tp,tp,-32
 128:	00171007          	flh	ft0,1(a4)
 12c:	0200                	addi	s0,sp,256
 12e:	0024                	addi	s1,sp,8
 130:	0b3e0b0b          	0xb3e0b0b
 134:	00000e03          	lb	t3,0(zero) # 0 <_start-0x22000>
 138:	0b002403          	lw	s0,176(zero) # b0 <_start-0x21f50>
 13c:	030b3e0b          	extu	t3,s6,0,48
 140:	0008                	0x8
 142:	0400                	addi	s0,sp,512
 144:	0016                	c.slli	zero,0x5
 146:	0b3a0e03          	lb	t3,179(s4)
 14a:	0b390b3b          	0xb390b3b
 14e:	1349                	addi	t1,t1,-14
 150:	0000                	unimp
 152:	2e05                	addiw	t3,t3,1
 154:	3f01                	addiw	t5,t5,-32
 156:	0319                	addi	t1,t1,6
 158:	3a0e                	fld	fs4,224(sp)
 15a:	390b3b0b          	extu	s6,s6,14,16
 15e:	4919270b          	ext	a4,s2,18,17
 162:	12011113          	0x12011113
 166:	96184007          	flq	ft0,-1695(a6)
 16a:	1942                	slli	s2,s2,0x30
 16c:	1301                	addi	t1,t1,-32
 16e:	0000                	unimp
 170:	0506                	slli	a0,a0,0x1
 172:	0300                	addi	s0,sp,384
 174:	3a08                	fld	fa0,48(a2)
 176:	390b3b0b          	extu	s6,s6,14,16
 17a:	0213490b          	lrb	s2,t1,ra,1
 17e:	0018                	0x18
 180:	0700                	addi	s0,sp,896
 182:	0005                	c.nop	1
 184:	0b3a0e03          	lb	t3,179(s4)
 188:	0b390b3b          	0xb390b3b
 18c:	1349                	addi	t1,t1,-14
 18e:	1802                	slli	a6,a6,0x20
 190:	0000                	unimp
 192:	0f08                	addi	a0,sp,912
 194:	0b00                	addi	s0,sp,400
 196:	0900000b          	0x900000b
 19a:	012e                	slli	sp,sp,0xb
 19c:	0b3a0e03          	lb	t3,179(s4)
 1a0:	0b390b3b          	0xb390b3b
 1a4:	13491927          	fsh	fs4,306(s2)
 1a8:	0111                	addi	sp,sp,4
 1aa:	0712                	slli	a4,a4,0x4
 1ac:	1840                	addi	s0,sp,52
 1ae:	4296                	lw	t0,68(sp)
 1b0:	0119                	addi	sp,sp,6
 1b2:	0a000013          	li	zero,160
 1b6:	0034                	addi	a3,sp,8
 1b8:	0b3a0803          	lb	a6,179(s4)
 1bc:	0b390b3b          	0xb390b3b
 1c0:	1349                	addi	t1,t1,-14
 1c2:	1802                	slli	a6,a6,0x20
 1c4:	0000                	unimp
 1c6:	0300340b          	extu	s0,zero,0,48
 1ca:	3a0e                	fld	fs4,224(sp)
 1cc:	390b3b0b          	extu	s6,s6,14,16
 1d0:	0213490b          	lrb	s2,t1,ra,1
 1d4:	0018                	0x18
 1d6:	0c00                	addi	s0,sp,528
 1d8:	0b0b000f          	0xb0b000f
 1dc:	1349                	addi	t1,t1,-14
 1de:	0000                	unimp
 1e0:	2e0d                	addiw	t3,t3,3
 1e2:	0301                	addi	t1,t1,0
 1e4:	3a0e                	fld	fs4,224(sp)
 1e6:	390b3b0b          	extu	s6,s6,14,16
 1ea:	4919270b          	ext	a4,s2,18,17
 1ee:	12011113          	0x12011113
 1f2:	97184007          	flq	ft0,-1679(a6)
 1f6:	1942                	slli	s2,s2,0x30
 1f8:	0000                	unimp
 1fa:	0100                	addi	s0,sp,128
 1fc:	0111                	addi	sp,sp,4
 1fe:	0e25                	addi	t3,t3,9
 200:	0e030b13          	addi	s6,t1,224 # 50e0 <_start-0x1cf20>
 204:	01110e1b          	addiw	t3,sp,17
 208:	0712                	slli	a4,a4,0x4
 20a:	1710                	addi	a2,sp,928
 20c:	0000                	unimp
 20e:	1602                	slli	a2,a2,0x20
 210:	0300                	addi	s0,sp,384
 212:	3a0e                	fld	fs4,224(sp)
 214:	390b3b0b          	extu	s6,s6,14,16
 218:	0013490b          	lrb	s2,t1,ra,0
 21c:	0300                	addi	s0,sp,384
 21e:	0b0b000f          	0xb0b000f
 222:	00000e03          	lb	t3,0(zero) # 0 <_start-0x22000>
 226:	2404                	fld	fs1,8(s0)
 228:	0b00                	addi	s0,sp,400
 22a:	030b3e0b          	extu	t3,s6,0,48
 22e:	000e                	c.slli	zero,0x3
 230:	0500                	addi	s0,sp,640
 232:	0024                	addi	s1,sp,8
 234:	0b3e0b0b          	0xb3e0b0b
 238:	00000803          	lb	a6,0(zero) # 0 <_start-0x22000>
 23c:	0106                	slli	sp,sp,0x1
 23e:	4901                	li	s2,0
 240:	00130113          	addi	sp,t1,1
 244:	0700                	addi	s0,sp,896
 246:	0021                	c.nop	8
 248:	1349                	addi	t1,t1,-14
 24a:	00000b2f          	vamoaddei8.v	zero,(zero),v0,v22,v0.t
 24e:	2608                	fld	fa0,8(a2)
 250:	4900                	lw	s0,16(a0)
 252:	09000013          	li	zero,144
 256:	0034                	addi	a3,sp,8
 258:	0b3a0e03          	lb	t3,179(s4)
 25c:	0b390b3b          	0xb390b3b
 260:	1349                	addi	t1,t1,-14
 262:	1802                	slli	a6,a6,0x20
 264:	0000                	unimp
 266:	040a                	slli	s0,s0,0x2
 268:	0301                	addi	t1,t1,0
 26a:	3e0e                	fld	ft8,224(sp)
 26c:	490b0b0b          	0x490b0b0b
 270:	3b0b3a13          	sltiu	s4,s6,944
 274:	010b390b          	extu	s2,s6,0,16
 278:	0b000013          	li	zero,176
 27c:	0028                	addi	a0,sp,8
 27e:	0b1c0e03          	lb	t3,177(s8)
 282:	0000                	unimp
 284:	0f0c                	addi	a1,sp,912
 286:	0b00                	addi	s0,sp,400
 288:	0013490b          	lrb	s2,t1,ra,0
 28c:	0d00                	addi	s0,sp,656
 28e:	012e                	slli	sp,sp,0xb
 290:	0e03193f 053b0b3a 	0x53b0b3a0e03193f
 298:	0b39                	addi	s6,s6,14
 29a:	13491927          	fsh	fs4,306(s2)
 29e:	0111                	addi	sp,sp,4
 2a0:	0712                	slli	a4,a4,0x4
 2a2:	1840                	addi	s0,sp,52
 2a4:	4296                	lw	t0,68(sp)
 2a6:	0119                	addi	sp,sp,6
 2a8:	0e000013          	li	zero,224
 2ac:	0005                	c.nop	1
 2ae:	0b3a0803          	lb	a6,179(s4)
 2b2:	0b39053b          	0xb39053b
 2b6:	1349                	addi	t1,t1,-14
 2b8:	1802                	slli	a6,a6,0x20
 2ba:	0000                	unimp
 2bc:	0000180f          	0x180f
 2c0:	1000                	addi	s0,sp,32
 2c2:	0034                	addi	a3,sp,8
 2c4:	0b3a0803          	lb	a6,179(s4)
 2c8:	0b39053b          	0xb39053b
 2cc:	1349                	addi	t1,t1,-14
 2ce:	1802                	slli	a6,a6,0x20
 2d0:	0000                	unimp
 2d2:	2e11                	addiw	t3,t3,4
 2d4:	3f01                	addiw	t5,t5,-32
 2d6:	0319                	addi	t1,t1,6
 2d8:	3a0e                	fld	fs4,224(sp)
 2da:	39053b0b          	extu	s6,a0,14,16
 2de:	1119270b          	ext	a4,s2,4,17
 2e2:	1201                	addi	tp,tp,-32
 2e4:	96184007          	flq	ft0,-1695(a6)
 2e8:	1942                	slli	s2,s2,0x30
 2ea:	1301                	addi	t1,t1,-32
 2ec:	0000                	unimp
 2ee:	2e12                	fld	ft8,256(sp)
 2f0:	3f01                	addiw	t5,t5,-32
 2f2:	0319                	addi	t1,t1,6
 2f4:	3a0e                	fld	fs4,224(sp)
 2f6:	390b3b0b          	extu	s6,s6,14,16
 2fa:	4919270b          	ext	a4,s2,18,17
 2fe:	12011113          	0x12011113
 302:	96184007          	flq	ft0,-1695(a6)
 306:	1942                	slli	s2,s2,0x30
 308:	1301                	addi	t1,t1,-32
 30a:	0000                	unimp
 30c:	03000513          	li	a0,48
 310:	3a0e                	fld	fs4,224(sp)
 312:	390b3b0b          	extu	s6,s6,14,16
 316:	0213490b          	lrb	s2,t1,ra,1
 31a:	0018                	0x18
 31c:	1400                	addi	s0,sp,544
 31e:	0005                	c.nop	1
 320:	0b3a0803          	lb	a6,179(s4)
 324:	0b390b3b          	0xb390b3b
 328:	1349                	addi	t1,t1,-14
 32a:	1802                	slli	a6,a6,0x20
 32c:	0000                	unimp
 32e:	3415                	addiw	s0,s0,-27
 330:	0300                	addi	s0,sp,384
 332:	3a08                	fld	fa0,48(a2)
 334:	390b3b0b          	extu	s6,s6,14,16
 338:	0213490b          	lrb	s2,t1,ra,1
 33c:	0018                	0x18
 33e:	1600                	addi	s0,sp,800
 340:	000a                	c.slli	zero,0x2
 342:	0b3a0e03          	lb	t3,179(s4)
 346:	0b390b3b          	0xb390b3b
 34a:	0111                	addi	sp,sp,4
 34c:	0000                	unimp
 34e:	03012e17          	auipc	t3,0x3012
 352:	3a0e                	fld	fs4,224(sp)
 354:	390b3b0b          	extu	s6,s6,14,16
 358:	4919270b          	ext	a4,s2,18,17
 35c:	12011113          	0x12011113
 360:	97184007          	flq	ft0,-1679(a6)
 364:	1942                	slli	s2,s2,0x30
 366:	1301                	addi	t1,t1,-32
 368:	0000                	unimp
 36a:	0b18                	addi	a4,sp,400
 36c:	1101                	addi	sp,sp,-32
 36e:	1201                	addi	tp,tp,-32
 370:	00000007          	vle8.v	v0,(zero),v0.t
 374:	1101                	addi	sp,sp,-32
 376:	2501                	sext.w	a0,a0
 378:	130e                	slli	t1,t1,0x23
 37a:	1b0e030b          	0x1b0e030b
 37e:	110e                	slli	sp,sp,0x23
 380:	1201                	addi	tp,tp,-32
 382:	00171007          	flh	ft0,1(a4)
 386:	0200                	addi	s0,sp,256
 388:	0016                	c.slli	zero,0x5
 38a:	0b3a0e03          	lb	t3,179(s4)
 38e:	0b390b3b          	0xb390b3b
 392:	1349                	addi	t1,t1,-14
 394:	0000                	unimp
 396:	0b002403          	lw	s0,176(zero) # b0 <_start-0x21f50>
 39a:	030b3e0b          	extu	t3,s6,0,48
 39e:	000e                	c.slli	zero,0x3
 3a0:	0400                	addi	s0,sp,512
 3a2:	012e                	slli	sp,sp,0xb
 3a4:	0e03193f 0b3b0b3a 	0xb3b0b3a0e03193f
 3ac:	0b39                	addi	s6,s6,14
 3ae:	13491927          	fsh	fs4,306(s2)
 3b2:	0111                	addi	sp,sp,4
 3b4:	0712                	slli	a4,a4,0x4
 3b6:	1840                	addi	s0,sp,52
 3b8:	01194297          	auipc	t0,0x1194
 3bc:	05000013          	li	zero,80
 3c0:	0005                	c.nop	1
 3c2:	0b3a0e03          	lb	t3,179(s4)
 3c6:	0b390b3b          	0xb390b3b
 3ca:	1349                	addi	t1,t1,-14
 3cc:	1802                	slli	a6,a6,0x20
 3ce:	0000                	unimp
 3d0:	0506                	slli	a0,a0,0x1
 3d2:	0300                	addi	s0,sp,384
 3d4:	3a08                	fld	fa0,48(a2)
 3d6:	390b3b0b          	extu	s6,s6,14,16
 3da:	0213490b          	lrb	s2,t1,ra,1
 3de:	0018                	0x18
 3e0:	0700                	addi	s0,sp,896
 3e2:	0034                	addi	a3,sp,8
 3e4:	0b3a0803          	lb	a6,179(s4)
 3e8:	0b390b3b          	0xb390b3b
 3ec:	1349                	addi	t1,t1,-14
 3ee:	1802                	slli	a6,a6,0x20
 3f0:	0000                	unimp
 3f2:	0f08                	addi	a0,sp,912
 3f4:	0b00                	addi	s0,sp,400
 3f6:	0900000b          	0x900000b
 3fa:	0b0b000f          	0xb0b000f
 3fe:	1349                	addi	t1,t1,-14
 400:	0000                	unimp
 402:	260a                	fld	fa2,128(sp)
 404:	0000                	unimp
 406:	0b00                	addi	s0,sp,400
 408:	0026                	c.slli	zero,0x9
 40a:	1349                	addi	t1,t1,-14
 40c:	0000                	unimp
 40e:	2e0c                	fld	fa1,24(a2)
 410:	3f01                	addiw	t5,t5,-32
 412:	0319                	addi	t1,t1,6
 414:	3a0e                	fld	fs4,224(sp)
 416:	390b3b0b          	extu	s6,s6,14,16
 41a:	4919270b          	ext	a4,s2,18,17
 41e:	12011113          	0x12011113
 422:	97184007          	flq	ft0,-1679(a6)
 426:	1942                	slli	s2,s2,0x30
 428:	0000                	unimp
 42a:	0100                	addi	s0,sp,128
 42c:	0111                	addi	sp,sp,4
 42e:	0e25                	addi	t3,t3,9
 430:	0e030b13          	addi	s6,t1,224
 434:	01110e1b          	addiw	t3,sp,17
 438:	0712                	slli	a4,a4,0x4
 43a:	1710                	addi	a2,sp,928
 43c:	0000                	unimp
 43e:	2402                	fld	fs0,0(sp)
 440:	0b00                	addi	s0,sp,400
 442:	030b3e0b          	extu	t3,s6,0,48
 446:	000e                	c.slli	zero,0x3
 448:	0300                	addi	s0,sp,384
 44a:	0024                	addi	s1,sp,8
 44c:	0b3e0b0b          	0xb3e0b0b
 450:	00000803          	lb	a6,0(zero) # 0 <_start-0x22000>
 454:	1604                	addi	s1,sp,800
 456:	0300                	addi	s0,sp,384
 458:	3a0e                	fld	fs4,224(sp)
 45a:	390b3b0b          	extu	s6,s6,14,16
 45e:	0013490b          	lrb	s2,t1,ra,0
 462:	0500                	addi	s0,sp,640
 464:	002e                	c.slli	zero,0xb
 466:	0e03193f 0b3b0b3a 	0xb3b0b3a0e03193f
 46e:	0b39                	addi	s6,s6,14
 470:	01111927          	fsh	fa7,18(sp) # 5b4012 <TEXT_ROM+0x58d012>
 474:	0712                	slli	a4,a4,0x4
 476:	1840                	addi	s0,sp,52
 478:	4296                	lw	t0,68(sp)
 47a:	0019                	c.nop	6
 47c:	0600                	addi	s0,sp,768
 47e:	012e                	slli	sp,sp,0xb
 480:	0b3a0e03          	lb	t3,179(s4)
 484:	0b390b3b          	0xb390b3b
 488:	01111927          	fsh	fa7,18(sp)
 48c:	0712                	slli	a4,a4,0x4
 48e:	1840                	addi	s0,sp,52
 490:	4296                	lw	t0,68(sp)
 492:	0119                	addi	sp,sp,6
 494:	07000013          	li	zero,112
 498:	0005                	c.nop	1
 49a:	0b3a0e03          	lb	t3,179(s4)
 49e:	0b390b3b          	0xb390b3b
 4a2:	1349                	addi	t1,t1,-14
 4a4:	1802                	slli	a6,a6,0x20
 4a6:	0000                	unimp
 4a8:	3408                	fld	fa0,40(s0)
 4aa:	0300                	addi	s0,sp,384
 4ac:	3a08                	fld	fa0,48(a2)
 4ae:	390b3b0b          	extu	s6,s6,14,16
 4b2:	0213490b          	lrb	s2,t1,ra,1
 4b6:	0018                	0x18
 4b8:	0900                	addi	s0,sp,144
 4ba:	002e                	c.slli	zero,0xb
 4bc:	0b3a0e03          	lb	t3,179(s4)
 4c0:	0b390b3b          	0xb390b3b
 4c4:	01111927          	fsh	fa7,18(sp)
 4c8:	0712                	slli	a4,a4,0x4
 4ca:	1840                	addi	s0,sp,52
 4cc:	4296                	lw	t0,68(sp)
 4ce:	0019                	c.nop	6
 4d0:	0a00                	addi	s0,sp,272
 4d2:	012e                	slli	sp,sp,0xb
 4d4:	0e03193f 0b3b0b3a 	0xb3b0b3a0e03193f
 4dc:	0b39                	addi	s6,s6,14
 4de:	01111927          	fsh	fa7,18(sp)
 4e2:	0712                	slli	a4,a4,0x4
 4e4:	1840                	addi	s0,sp,52
 4e6:	01194297          	auipc	t0,0x1194
 4ea:	0b000013          	li	zero,176
 4ee:	0005                	c.nop	1
 4f0:	0b3a0803          	lb	a6,179(s4)
 4f4:	0b390b3b          	0xb390b3b
 4f8:	1349                	addi	t1,t1,-14
 4fa:	1802                	slli	a6,a6,0x20
 4fc:	0000                	unimp
 4fe:	2e0c                	fld	fa1,24(a2)
 500:	0301                	addi	t1,t1,0
 502:	3a0e                	fld	fs4,224(sp)
 504:	390b3b0b          	extu	s6,s6,14,16
 508:	1119270b          	ext	a4,s2,4,17
 50c:	1201                	addi	tp,tp,-32
 50e:	97184007          	flq	ft0,-1679(a6)
 512:	1942                	slli	s2,s2,0x30
 514:	1301                	addi	t1,t1,-32
 516:	0000                	unimp
 518:	2e0d                	addiw	t3,t3,3
 51a:	0301                	addi	t1,t1,0
 51c:	3a0e                	fld	fs4,224(sp)
 51e:	390b3b0b          	extu	s6,s6,14,16
 522:	4919270b          	ext	a4,s2,18,17
 526:	12011113          	0x12011113
 52a:	97184007          	flq	ft0,-1679(a6)
 52e:	1942                	slli	s2,s2,0x30
 530:	0000                	unimp
 532:	0100                	addi	s0,sp,128
 534:	0111                	addi	sp,sp,4
 536:	0e25                	addi	t3,t3,9
 538:	0e030b13          	addi	s6,t1,224
 53c:	01110e1b          	addiw	t3,sp,17
 540:	0712                	slli	a4,a4,0x4
 542:	1710                	addi	a2,sp,928
 544:	0000                	unimp
 546:	2402                	fld	fs0,0(sp)
 548:	0b00                	addi	s0,sp,400
 54a:	030b3e0b          	extu	t3,s6,0,48
 54e:	000e                	c.slli	zero,0x3
 550:	0300                	addi	s0,sp,384
 552:	0016                	c.slli	zero,0x5
 554:	0b3a0e03          	lb	t3,179(s4)
 558:	0b390b3b          	0xb390b3b
 55c:	1349                	addi	t1,t1,-14
 55e:	0000                	unimp
 560:	2404                	fld	fs1,8(s0)
 562:	0b00                	addi	s0,sp,400
 564:	030b3e0b          	extu	t3,s6,0,48
 568:	0008                	0x8
 56a:	0500                	addi	s0,sp,640
 56c:	0b0b000f          	0xb0b000f
 570:	00000e03          	lb	t3,0(zero) # 0 <_start-0x22000>
 574:	2e06                	fld	ft8,64(sp)
 576:	3f01                	addiw	t5,t5,-32
 578:	0319                	addi	t1,t1,6
 57a:	3a0e                	fld	fs4,224(sp)
 57c:	390b3b0b          	extu	s6,s6,14,16
 580:	1119270b          	ext	a4,s2,4,17
 584:	1201                	addi	tp,tp,-32
 586:	96184007          	flq	ft0,-1695(a6)
 58a:	1942                	slli	s2,s2,0x30
 58c:	1301                	addi	t1,t1,-32
 58e:	0000                	unimp
 590:	03000507          	vle8ff.v	v10,(zero)
 594:	3a08                	fld	fa0,48(a2)
 596:	390b3b0b          	extu	s6,s6,14,16
 59a:	0213490b          	lrb	s2,t1,ra,1
 59e:	0018                	0x18
 5a0:	0800                	addi	s0,sp,16
 5a2:	0034                	addi	a3,sp,8
 5a4:	0b3a0803          	lb	a6,179(s4)
 5a8:	0b390b3b          	0xb390b3b
 5ac:	1349                	addi	t1,t1,-14
 5ae:	1802                	slli	a6,a6,0x20
 5b0:	0000                	unimp
 5b2:	3409                	addiw	s0,s0,-30
 5b4:	0300                	addi	s0,sp,384
 5b6:	3a0e                	fld	fs4,224(sp)
 5b8:	390b3b0b          	extu	s6,s6,14,16
 5bc:	0213490b          	lrb	s2,t1,ra,1
 5c0:	0018                	0x18
 5c2:	0a00                	addi	s0,sp,272
 5c4:	012e                	slli	sp,sp,0xb
 5c6:	0e03193f 0b3b0b3a 	0xb3b0b3a0e03193f
 5ce:	0b39                	addi	s6,s6,14
 5d0:	13491927          	fsh	fs4,306(s2)
 5d4:	0111                	addi	sp,sp,4
 5d6:	0712                	slli	a4,a4,0x4
 5d8:	1840                	addi	s0,sp,52
 5da:	4296                	lw	t0,68(sp)
 5dc:	0119                	addi	sp,sp,6
 5de:	0b000013          	li	zero,176
 5e2:	0018                	0x18
 5e4:	0000                	unimp
 5e6:	0f0c                	addi	a1,sp,912
 5e8:	0b00                	addi	s0,sp,400
 5ea:	0013490b          	lrb	s2,t1,ra,0
 5ee:	0d00                	addi	s0,sp,656
 5f0:	0026                	c.slli	zero,0x9
 5f2:	1349                	addi	t1,t1,-14
 5f4:	0000                	unimp
 5f6:	2e0e                	fld	ft8,192(sp)
 5f8:	0301                	addi	t1,t1,0
 5fa:	3a08                	fld	fa0,48(a2)
 5fc:	390b3b0b          	extu	s6,s6,14,16
 600:	4919270b          	ext	a4,s2,18,17
 604:	12011113          	0x12011113
 608:	96184007          	flq	ft0,-1695(a6)
 60c:	1942                	slli	s2,s2,0x30
 60e:	1301                	addi	t1,t1,-32
 610:	0000                	unimp
 612:	03012e0f          	0x3012e0f
 616:	3a0e                	fld	fs4,224(sp)
 618:	390b3b0b          	extu	s6,s6,14,16
 61c:	1119270b          	ext	a4,s2,4,17
 620:	1201                	addi	tp,tp,-32
 622:	96184007          	flq	ft0,-1695(a6)
 626:	1942                	slli	s2,s2,0x30
 628:	1301                	addi	t1,t1,-32
 62a:	0000                	unimp
 62c:	0110                	addi	a2,sp,128
 62e:	4901                	li	s2,0
 630:	00130113          	addi	sp,t1,1
 634:	1100                	addi	s0,sp,160
 636:	0021                	c.nop	8
 638:	1349                	addi	t1,t1,-14
 63a:	00000b2f          	vamoaddei8.v	zero,(zero),v0,v22,v0.t
 63e:	2e12                	fld	ft8,256(sp)
 640:	0301                	addi	t1,t1,0
 642:	3a0e                	fld	fs4,224(sp)
 644:	390b3b0b          	extu	s6,s6,14,16
 648:	4919270b          	ext	a4,s2,18,17
 64c:	12011113          	0x12011113
 650:	97184007          	flq	ft0,-1679(a6)
 654:	1942                	slli	s2,s2,0x30
 656:	1301                	addi	t1,t1,-32
 658:	0000                	unimp
 65a:	03012e13          	slti	t3,sp,48
 65e:	3a0e                	fld	fs4,224(sp)
 660:	390b3b0b          	extu	s6,s6,14,16
 664:	1119270b          	ext	a4,s2,4,17
 668:	1201                	addi	tp,tp,-32
 66a:	97184007          	flq	ft0,-1679(a6)
 66e:	1942                	slli	s2,s2,0x30
 670:	1301                	addi	t1,t1,-32
 672:	0000                	unimp
 674:	0514                	addi	a3,sp,640
 676:	0300                	addi	s0,sp,384
 678:	3a0e                	fld	fs4,224(sp)
 67a:	390b3b0b          	extu	s6,s6,14,16
 67e:	0213490b          	lrb	s2,t1,ra,1
 682:	0018                	0x18
 684:	1500                	addi	s0,sp,672
 686:	012e                	slli	sp,sp,0xb
 688:	0b3a0e03          	lb	t3,179(s4)
 68c:	0b390b3b          	0xb390b3b
 690:	13491927          	fsh	fs4,306(s2)
 694:	0111                	addi	sp,sp,4
 696:	0712                	slli	a4,a4,0x4
 698:	1840                	addi	s0,sp,52
 69a:	00194297          	auipc	t0,0x194
 69e:	0000                	unimp
 6a0:	1101                	addi	sp,sp,-32
 6a2:	1000                	addi	s0,sp,32
 6a4:	1106                	slli	sp,sp,0x21
 6a6:	1201                	addi	tp,tp,-32
 6a8:	0301                	addi	t1,t1,0
 6aa:	1b0e                	slli	s6,s6,0x23
 6ac:	250e                	fld	fa0,192(sp)
 6ae:	130e                	slli	t1,t1,0x23
 6b0:	0005                	c.nop	1
 6b2:	0000                	unimp
 6b4:	1101                	addi	sp,sp,-32
 6b6:	1000                	addi	s0,sp,32
 6b8:	1106                	slli	sp,sp,0x21
 6ba:	1201                	addi	tp,tp,-32
 6bc:	0301                	addi	t1,t1,0
 6be:	1b0e                	slli	s6,s6,0x23
 6c0:	250e                	fld	fa0,192(sp)
 6c2:	130e                	slli	t1,t1,0x23
 6c4:	0005                	c.nop	1
 6c6:	0000                	unimp
 6c8:	1101                	addi	sp,sp,-32
 6ca:	1000                	addi	s0,sp,32
 6cc:	1106                	slli	sp,sp,0x21
 6ce:	1201                	addi	tp,tp,-32
 6d0:	0301                	addi	t1,t1,0
 6d2:	1b0e                	slli	s6,s6,0x23
 6d4:	250e                	fld	fa0,192(sp)
 6d6:	130e                	slli	t1,t1,0x23
 6d8:	0005                	c.nop	1
 6da:	0000                	unimp
 6dc:	1101                	addi	sp,sp,-32
 6de:	1000                	addi	s0,sp,32
 6e0:	1106                	slli	sp,sp,0x21
 6e2:	1201                	addi	tp,tp,-32
 6e4:	0301                	addi	t1,t1,0
 6e6:	1b0e                	slli	s6,s6,0x23
 6e8:	250e                	fld	fa0,192(sp)
 6ea:	130e                	slli	t1,t1,0x23
 6ec:	0005                	c.nop	1
	...

Disassembly of section .debug_aranges:

0000000000000000 <.debug_aranges>:
   0:	002c                	addi	a1,sp,8
   2:	0000                	unimp
   4:	0002                	c.slli64	zero
   6:	0000                	unimp
   8:	0000                	unimp
   a:	0008                	0x8
   c:	0000                	unimp
   e:	0000                	unimp
  10:	2068                	fld	fa0,192(s0)
  12:	0002                	c.slli64	zero
  14:	0000                	unimp
  16:	0000                	unimp
  18:	0410                	addi	a2,sp,512
	...
  2e:	0000                	unimp
  30:	002c                	addi	a1,sp,8
  32:	0000                	unimp
  34:	0002                	c.slli64	zero
  36:	0000026b          	0x26b
  3a:	0008                	0x8
  3c:	0000                	unimp
  3e:	0000                	unimp
  40:	2478                	fld	fa4,200(s0)
  42:	0002                	c.slli64	zero
  44:	0000                	unimp
  46:	0000                	unimp
  48:	023c                	addi	a5,sp,264
	...
  5e:	0000                	unimp
  60:	002c                	addi	a1,sp,8
  62:	0000                	unimp
  64:	0002                	c.slli64	zero
  66:	045f 0000 0008      	0x80000045f
  6c:	0000                	unimp
  6e:	0000                	unimp
  70:	26b4                	fld	fa3,72(a3)
  72:	0002                	c.slli64	zero
  74:	0000                	unimp
  76:	0000                	unimp
  78:	0e68                	addi	a0,sp,796
	...
  8e:	0000                	unimp
  90:	002c                	addi	a1,sp,8
  92:	0000                	unimp
  94:	0002                	c.slli64	zero
  96:	08b5                	addi	a7,a7,13
  98:	0000                	unimp
  9a:	0008                	0x8
  9c:	0000                	unimp
  9e:	0000                	unimp
  a0:	351c                	fld	fa5,40(a0)
  a2:	0002                	c.slli64	zero
  a4:	0000                	unimp
  a6:	0000                	unimp
  a8:	00c0                	addi	s0,sp,68
	...
  be:	0000                	unimp
  c0:	002c                	addi	a1,sp,8
  c2:	0000                	unimp
  c4:	0002                	c.slli64	zero
  c6:	09bd                	addi	s3,s3,15
  c8:	0000                	unimp
  ca:	0008                	0x8
  cc:	0000                	unimp
  ce:	0000                	unimp
  d0:	35dc                	fld	fa5,168(a1)
  d2:	0002                	c.slli64	zero
  d4:	0000                	unimp
  d6:	0000                	unimp
  d8:	07b0                	addi	a2,sp,968
	...
  ee:	0000                	unimp
  f0:	002c                	addi	a1,sp,8
  f2:	0000                	unimp
  f4:	0002                	c.slli64	zero
  f6:	0c1c                	addi	a5,sp,528
  f8:	0000                	unimp
  fa:	0008                	0x8
  fc:	0000                	unimp
  fe:	0000                	unimp
 100:	3d8c                	fld	fa1,56(a1)
 102:	0002                	c.slli64	zero
 104:	0000                	unimp
 106:	0000                	unimp
 108:	0a40                	addi	s0,sp,276
	...
 11e:	0000                	unimp
 120:	002c                	addi	a1,sp,8
 122:	0000                	unimp
 124:	0002                	c.slli64	zero
 126:	1115                	addi	sp,sp,-27
 128:	0000                	unimp
 12a:	0008                	0x8
 12c:	0000                	unimp
 12e:	0000                	unimp
 130:	47d0                	lw	a2,12(a5)
 132:	0002                	c.slli64	zero
 134:	0000                	unimp
 136:	0000                	unimp
 138:	0200                	addi	s0,sp,256
	...
 14e:	0000                	unimp
 150:	002c                	addi	a1,sp,8
 152:	0000                	unimp
 154:	0002                	c.slli64	zero
 156:	00001143          	fmadd.s	ft2,ft0,ft0,ft0,rtz
 15a:	0008                	0x8
 15c:	0000                	unimp
 15e:	0000                	unimp
 160:	2000                	fld	fs0,0(s0)
 162:	0002                	c.slli64	zero
 164:	0000                	unimp
 166:	0000                	unimp
 168:	0068                	addi	a0,sp,12
	...
 17e:	0000                	unimp
 180:	002c                	addi	a1,sp,8
 182:	0000                	unimp
 184:	0002                	c.slli64	zero
 186:	1171                	addi	sp,sp,-4
 188:	0000                	unimp
 18a:	0008                	0x8
 18c:	0000                	unimp
 18e:	0000                	unimp
 190:	49d8                	lw	a4,20(a1)
 192:	0002                	c.slli64	zero
 194:	0000                	unimp
 196:	0000                	unimp
 198:	00e4                	addi	s1,sp,76
	...
 1ae:	0000                	unimp
 1b0:	002c                	addi	a1,sp,8
 1b2:	0000                	unimp
 1b4:	0002                	c.slli64	zero
 1b6:	119f 0000 0008      	0x80000119f
 1bc:	0000                	unimp
 1be:	0000                	unimp
 1c0:	4abc                	lw	a5,80(a3)
 1c2:	0002                	c.slli64	zero
 1c4:	0000                	unimp
 1c6:	0000                	unimp
 1c8:	0018                	0x18
	...

Disassembly of section .debug_line:

0000000000000000 <.debug_line>:
       0:	000002bb          	addw	t0,zero,zero
       4:	00230003          	lb	zero,2(t1)
       8:	0000                	unimp
       a:	0101                	addi	sp,sp,0
       c:	000d0efb          	0xd0efb
      10:	0101                	addi	sp,sp,0
      12:	0101                	addi	sp,sp,0
      14:	0000                	unimp
      16:	0100                	addi	s0,sp,128
      18:	0000                	unimp
      1a:	7301                	lui	t1,0xfffe0
      1c:	6372                	ld	t1,280(sp)
      1e:	0000                	unimp
      20:	6e72656b          	0x6e72656b
      24:	6c65                	lui	s8,0x19
      26:	632e                	ld	t1,200(sp)
      28:	0100                	addi	s0,sp,128
      2a:	0000                	unimp
      2c:	0500                	addi	s0,sp,640
      2e:	0001                	nop
      30:	0209                	addi	tp,tp,2
      32:	2068                	fld	fa0,192(s0)
      34:	0002                	c.slli64	zero
      36:	0000                	unimp
      38:	0000                	unimp
      3a:	05011503          	lh	a0,80(sp)
      3e:	0309                	addi	t1,t1,2
      40:	0904                	addi	s1,sp,144
      42:	0014                	0x14
      44:	0501                	addi	a0,a0,0
      46:	0302                	c.slli64	t1
      48:	0900                	addi	s0,sp,144
      4a:	0004                	0x4
      4c:	0501                	addi	a0,a0,0
      4e:	0318                	addi	a4,sp,384
      50:	0901                	addi	s2,s2,0
      52:	0004                	0x4
      54:	0501                	addi	a0,a0,0
      56:	0306                	slli	t1,t1,0x1
      58:	0900                	addi	s0,sp,144
      5a:	0018                	0x18
      5c:	0501                	addi	a0,a0,0
      5e:	0022                	c.slli	zero,0x8
      60:	0402                	c.slli64	s0
      62:	0302                	c.slli64	t1
      64:	0008097f          	0x8097f
      68:	0501                	addi	a0,a0,0
      6a:	0010                	0x10
      6c:	0402                	c.slli64	s0
      6e:	0301                	addi	t1,t1,0
      70:	0900                	addi	s0,sp,144
      72:	000c                	0xc
      74:	0501                	addi	a0,a0,0
      76:	0002                	c.slli64	zero
      78:	0402                	c.slli64	s0
      7a:	0301                	addi	t1,t1,0
      7c:	0900                	addi	s0,sp,144
      7e:	0010                	0x10
      80:	0501                	addi	a0,a0,0
      82:	0309                	addi	t1,t1,2
      84:	0905                	addi	s2,s2,1
      86:	0004                	0x4
      88:	0501                	addi	a0,a0,0
      8a:	0304                	addi	s1,sp,384
      8c:	097d                	addi	s2,s2,31
      8e:	0008                	0x8
      90:	0501                	addi	a0,a0,0
      92:	09060307          	vlse8.v	v6,(a2),a6,v0.t
      96:	0004                	0x4
      98:	0501                	addi	a0,a0,0
      9a:	0308                	addi	a0,sp,384
      9c:	0902                	c.slli64	s2
      9e:	000c                	0xc
      a0:	0501                	addi	a0,a0,0
      a2:	030d                	addi	t1,t1,3
      a4:	0901                	addi	s2,s2,0
      a6:	000c                	0xc
      a8:	0501                	addi	a0,a0,0
      aa:	0306                	slli	t1,t1,0x1
      ac:	0901                	addi	s2,s2,0
      ae:	0008                	0x8
      b0:	0501                	addi	a0,a0,0
      b2:	09040307          	vlse8.v	v6,(s0),a6,v0.t
      b6:	0004                	0x4
      b8:	0501                	addi	a0,a0,0
      ba:	030a                	slli	t1,t1,0x2
      bc:	0902                	c.slli64	s2
      be:	000c                	0xc
      c0:	0501                	addi	a0,a0,0
      c2:	0309                	addi	t1,t1,2
      c4:	0900                	addi	s0,sp,144
      c6:	0008                	0x8
      c8:	0501                	addi	a0,a0,0
      ca:	0308                	addi	a0,sp,384
      cc:	0901                	addi	s2,s2,0
      ce:	0004                	0x4
      d0:	0501                	addi	a0,a0,0
      d2:	0309                	addi	t1,t1,2
      d4:	0902                	c.slli64	s2
      d6:	000c                	0xc
      d8:	0501                	addi	a0,a0,0
      da:	0308                	addi	a0,sp,384
      dc:	0901                	addi	s2,s2,0
      de:	000c                	0xc
      e0:	0501                	addi	a0,a0,0
      e2:	030e                	slli	t1,t1,0x3
      e4:	0901                	addi	s2,s2,0
      e6:	000c                	0xc
      e8:	0501                	addi	a0,a0,0
      ea:	0305                	addi	t1,t1,1
      ec:	0906                	slli	s2,s2,0x1
      ee:	0008                	0x8
      f0:	0501                	addi	a0,a0,0
      f2:	030c                	addi	a1,sp,384
      f4:	0902                	c.slli64	s2
      f6:	0014                	0x14
      f8:	0501                	addi	a0,a0,0
      fa:	0301                	addi	t1,t1,0
      fc:	0901                	addi	s2,s2,0
      fe:	0004                	0x4
     100:	0301                	addi	t1,t1,0
     102:	00140903          	lb	s2,1(s0) # 1a001 <_start-0x7fff>
     106:	0501                	addi	a0,a0,0
     108:	0302                	c.slli64	t1
     10a:	00100903          	lb	s2,1(zero) # 1 <_start-0x21fff>
     10e:	0301                	addi	t1,t1,0
     110:	0901                	addi	s2,s2,0
     112:	0004                	0x4
     114:	0301                	addi	t1,t1,0
     116:	0901                	addi	s2,s2,0
     118:	0004                	0x4
     11a:	0301                	addi	t1,t1,0
     11c:	0901                	addi	s2,s2,0
     11e:	0004                	0x4
     120:	0301                	addi	t1,t1,0
     122:	0902                	c.slli64	s2
     124:	0004                	0x4
     126:	0301                	addi	t1,t1,0
     128:	00040903          	lb	s2,0(s0)
     12c:	0501                	addi	a0,a0,0
     12e:	0309                	addi	t1,t1,2
     130:	00100903          	lb	s2,1(zero) # 1 <_start-0x21fff>
     134:	0501                	addi	a0,a0,0
     136:	0305                	addi	t1,t1,1
     138:	0901                	addi	s2,s2,0
     13a:	0010                	0x10
     13c:	0501                	addi	a0,a0,0
     13e:	09010303          	lb	t1,144(sp)
     142:	0008                	0x8
     144:	0501                	addi	a0,a0,0
     146:	0309                	addi	t1,t1,2
     148:	0902                	c.slli64	s2
     14a:	000c                	0xc
     14c:	0501                	addi	a0,a0,0
     14e:	0305                	addi	t1,t1,1
     150:	0901                	addi	s2,s2,0
     152:	0010                	0x10
     154:	0501                	addi	a0,a0,0
     156:	09010303          	lb	t1,144(sp)
     15a:	000c                	0xc
     15c:	0501                	addi	a0,a0,0
     15e:	0309                	addi	t1,t1,2
     160:	0902                	c.slli64	s2
     162:	000c                	0xc
     164:	0301                	addi	t1,t1,0
     166:	0901                	addi	s2,s2,0
     168:	0010                	0x10
     16a:	0501                	addi	a0,a0,0
     16c:	0302                	c.slli64	t1
     16e:	0902                	c.slli64	s2
     170:	0010                	0x10
     172:	0301                	addi	t1,t1,0
     174:	0901                	addi	s2,s2,0
     176:	0004                	0x4
     178:	0501                	addi	a0,a0,0
     17a:	0309                	addi	t1,t1,2
     17c:	0902                	c.slli64	s2
     17e:	000c                	0xc
     180:	0501                	addi	a0,a0,0
     182:	0305                	addi	t1,t1,1
     184:	0901                	addi	s2,s2,0
     186:	0010                	0x10
     188:	0501                	addi	a0,a0,0
     18a:	09010303          	lb	t1,144(sp)
     18e:	000c                	0xc
     190:	0501                	addi	a0,a0,0
     192:	0309                	addi	t1,t1,2
     194:	0902                	c.slli64	s2
     196:	000c                	0xc
     198:	0501                	addi	a0,a0,0
     19a:	0305                	addi	t1,t1,1
     19c:	0901                	addi	s2,s2,0
     19e:	0010                	0x10
     1a0:	0501                	addi	a0,a0,0
     1a2:	09010303          	lb	t1,144(sp)
     1a6:	0008                	0x8
     1a8:	0501                	addi	a0,a0,0
     1aa:	0301                	addi	t1,t1,0
     1ac:	0901                	addi	s2,s2,0
     1ae:	000c                	0xc
     1b0:	0301                	addi	t1,t1,0
     1b2:	0909                	addi	s2,s2,2
     1b4:	0014                	0x14
     1b6:	0501                	addi	a0,a0,0
     1b8:	0302                	c.slli64	t1
     1ba:	0901                	addi	s2,s2,0
     1bc:	0010                	0x10
     1be:	0301                	addi	t1,t1,0
     1c0:	0901                	addi	s2,s2,0
     1c2:	000c                	0xc
     1c4:	0501                	addi	a0,a0,0
     1c6:	0320                	addi	s0,sp,392
     1c8:	0902                	c.slli64	s2
     1ca:	0010                	0x10
     1cc:	0501                	addi	a0,a0,0
     1ce:	0302                	c.slli64	t1
     1d0:	097e                	slli	s2,s2,0x1f
     1d2:	0014                	0x14
     1d4:	0301                	addi	t1,t1,0
     1d6:	00100903          	lb	s2,1(zero) # 1 <_start-0x21fff>
     1da:	0501                	addi	a0,a0,0
     1dc:	0902031b          	addiw	t1,tp,144
     1e0:	0010                	0x10
     1e2:	0501                	addi	a0,a0,0
     1e4:	0302                	c.slli64	t1
     1e6:	097e                	slli	s2,s2,0x1f
     1e8:	0014                	0x14
     1ea:	0301                	addi	t1,t1,0
     1ec:	00100903          	lb	s2,1(zero) # 1 <_start-0x21fff>
     1f0:	0501                	addi	a0,a0,0
     1f2:	031d                	addi	t1,t1,7
     1f4:	0902                	c.slli64	s2
     1f6:	0010                	0x10
     1f8:	0501                	addi	a0,a0,0
     1fa:	0302                	c.slli64	t1
     1fc:	097e                	slli	s2,s2,0x1f
     1fe:	0014                	0x14
     200:	0301                	addi	t1,t1,0
     202:	00100903          	lb	s2,1(zero) # 1 <_start-0x21fff>
     206:	0501                	addi	a0,a0,0
     208:	0902031b          	addiw	t1,tp,144
     20c:	0010                	0x10
     20e:	0501                	addi	a0,a0,0
     210:	0302                	c.slli64	t1
     212:	097e                	slli	s2,s2,0x1f
     214:	0014                	0x14
     216:	0301                	addi	t1,t1,0
     218:	00100903          	lb	s2,1(zero) # 1 <_start-0x21fff>
     21c:	0501                	addi	a0,a0,0
     21e:	031a                	slli	t1,t1,0x6
     220:	0902                	c.slli64	s2
     222:	0010                	0x10
     224:	0501                	addi	a0,a0,0
     226:	0302                	c.slli64	t1
     228:	097e                	slli	s2,s2,0x1f
     22a:	0014                	0x14
     22c:	0501                	addi	a0,a0,0
     22e:	0301                	addi	t1,t1,0
     230:	00100903          	lb	s2,1(zero) # 1 <_start-0x21fff>
     234:	0301                	addi	t1,t1,0
     236:	00140903          	lb	s2,1(s0)
     23a:	0501                	addi	a0,a0,0
     23c:	0310                	addi	a2,sp,384
     23e:	0901                	addi	s2,s2,0
     240:	0010                	0x10
     242:	0301                	addi	t1,t1,0
     244:	0901                	addi	s2,s2,0
     246:	000c                	0xc
     248:	0501                	addi	a0,a0,0
     24a:	0316                	slli	t1,t1,0x5
     24c:	0901                	addi	s2,s2,0
     24e:	000c                	0xc
     250:	0501                	addi	a0,a0,0
     252:	0900030b          	0x900030b
     256:	0010                	0x10
     258:	0501                	addi	a0,a0,0
     25a:	0302                	c.slli64	t1
     25c:	0902                	c.slli64	s2
     25e:	0008                	0x8
     260:	0501                	addi	a0,a0,0
     262:	0301                	addi	t1,t1,0
     264:	0901                	addi	s2,s2,0
     266:	0018                	0x18
     268:	0301                	addi	t1,t1,0
     26a:	00140903          	lb	s2,1(s0)
     26e:	0501                	addi	a0,a0,0
     270:	0302                	c.slli64	t1
     272:	0901                	addi	s2,s2,0
     274:	0010                	0x10
     276:	0301                	addi	t1,t1,0
     278:	0901                	addi	s2,s2,0
     27a:	0004                	0x4
     27c:	0301                	addi	t1,t1,0
     27e:	0901                	addi	s2,s2,0
     280:	0004                	0x4
     282:	0301                	addi	t1,t1,0
     284:	0901                	addi	s2,s2,0
     286:	000c                	0xc
     288:	0301                	addi	t1,t1,0
     28a:	0901                	addi	s2,s2,0
     28c:	0004                	0x4
     28e:	0301                	addi	t1,t1,0
     290:	0902                	c.slli64	s2
     292:	000c                	0xc
     294:	0301                	addi	t1,t1,0
     296:	00040903          	lb	s2,0(s0)
     29a:	0301                	addi	t1,t1,0
     29c:	0901                	addi	s2,s2,0
     29e:	000c                	0xc
     2a0:	0301                	addi	t1,t1,0
     2a2:	0901                	addi	s2,s2,0
     2a4:	000c                	0xc
     2a6:	0301                	addi	t1,t1,0
     2a8:	0902                	c.slli64	s2
     2aa:	000c                	0xc
     2ac:	0501                	addi	a0,a0,0
     2ae:	0008                	0x8
     2b0:	0402                	c.slli64	s0
     2b2:	0301                	addi	t1,t1,0
     2b4:	0902                	c.slli64	s2
     2b6:	0004                	0x4
     2b8:	0901                	addi	s2,s2,0
     2ba:	0004                	0x4
     2bc:	0100                	addi	s0,sp,128
     2be:	ce01                	beqz	a2,2d6 <_start-0x21d2a>
     2c0:	0001                	nop
     2c2:	0300                	addi	s0,sp,384
     2c4:	3600                	fld	fs0,40(a2)
     2c6:	0000                	unimp
     2c8:	0100                	addi	s0,sp,128
     2ca:	fb01                	bnez	a4,1da <_start-0x21e26>
     2cc:	0d0e                	slli	s10,s10,0x3
     2ce:	0100                	addi	s0,sp,128
     2d0:	0101                	addi	sp,sp,0
     2d2:	0001                	nop
     2d4:	0000                	unimp
     2d6:	0001                	nop
     2d8:	0100                	addi	s0,sp,128
     2da:	00637273          	csrrci	tp,0x6,6
     2de:	6e69                	lui	t3,0x1a
     2e0:	64756c63          	bltu	a0,t2,938 <_start-0x216c8>
     2e4:	0065                	c.nop	25
     2e6:	6d00                	ld	s0,24(a0)
     2e8:	6d65                	lui	s10,0x19
     2ea:	2e746573          	csrrsi	a0,0x2e7,8
     2ee:	00010063          	beqz	sp,2ee <_start-0x21d12>
     2f2:	7400                	ld	s0,40(s0)
     2f4:	7079                	c.lui	zero,0xffffe
     2f6:	7365                	lui	t1,0xffff9
     2f8:	682e                	ld	a6,200(sp)
     2fa:	0200                	addi	s0,sp,256
     2fc:	0000                	unimp
     2fe:	0500                	addi	s0,sp,640
     300:	0001                	nop
     302:	0209                	addi	tp,tp,2
     304:	2478                	fld	fa4,200(s0)
     306:	0002                	c.slli64	zero
     308:	0000                	unimp
     30a:	0000                	unimp
     30c:	03080517          	auipc	a0,0x3080
     310:	0901                	addi	s2,s2,0
     312:	001c                	0x1c
     314:	0301                	addi	t1,t1,0
     316:	0902                	c.slli64	s2
     318:	0008                	0x8
     31a:	0501                	addi	a0,a0,0
     31c:	0306                	slli	t1,t1,0x1
     31e:	0901                	addi	s2,s2,0
     320:	0004                	0x4
     322:	0501                	addi	a0,a0,0
     324:	0309                	addi	t1,t1,2
     326:	0900                	addi	s0,sp,144
     328:	000c                	0xc
     32a:	0501                	addi	a0,a0,0
     32c:	030e                	slli	t1,t1,0x3
     32e:	000c097f          	0xc097f
     332:	0501                	addi	a0,a0,0
     334:	0308                	addi	a0,sp,384
     336:	0900                	addi	s0,sp,144
     338:	000c                	0xc
     33a:	0501                	addi	a0,a0,0
     33c:	0309                	addi	t1,t1,2
     33e:	0902                	c.slli64	s2
     340:	0004                	0x4
     342:	0501                	addi	a0,a0,0
     344:	0301                	addi	t1,t1,0
     346:	0901                	addi	s2,s2,0
     348:	0004                	0x4
     34a:	0301                	addi	t1,t1,0
     34c:	00100903          	lb	s2,1(zero) # 1 <_start-0x21fff>
     350:	0501                	addi	a0,a0,0
     352:	0308                	addi	a0,sp,384
     354:	0901                	addi	s2,s2,0
     356:	0020                	addi	s0,sp,8
     358:	0501                	addi	a0,a0,0
     35a:	0310                	addi	a2,sp,384
     35c:	0901                	addi	s2,s2,0
     35e:	0008                	0x8
     360:	0501                	addi	a0,a0,0
     362:	0901030f          	0x901030f
     366:	0008                	0x8
     368:	0501                	addi	a0,a0,0
     36a:	0310                	addi	a2,sp,384
     36c:	0902                	c.slli64	s2
     36e:	0008                	0x8
     370:	0301                	addi	t1,t1,0
     372:	0901                	addi	s2,s2,0
     374:	0008                	0x8
     376:	0501                	addi	a0,a0,0
     378:	0309                	addi	t1,t1,2
     37a:	0905                	addi	s2,s2,1
     37c:	0004                	0x4
     37e:	0501                	addi	a0,a0,0
     380:	0302                	c.slli64	t1
     382:	0900                	addi	s0,sp,144
     384:	0004                	0x4
     386:	0501                	addi	a0,a0,0
     388:	001f 0402 0303      	0x3030402001f
     38e:	0901                	addi	s2,s2,0
     390:	0004                	0x4
     392:	0501                	addi	a0,a0,0
     394:	002d                	c.nop	11
     396:	0402                	c.slli64	s0
     398:	09000303          	lb	t1,144(zero) # 90 <_start-0x21f70>
     39c:	0008                	0x8
     39e:	0501                	addi	a0,a0,0
     3a0:	04020027          	vsuxei8.v	v0,(tp),v0,v0.t
     3a4:	09000303          	lb	t1,144(zero) # 90 <_start-0x21f70>
     3a8:	000c                	0xc
     3aa:	0501                	addi	a0,a0,0
     3ac:	0008                	0x8
     3ae:	0402                	c.slli64	s0
     3b0:	09000303          	lb	t1,144(zero) # 90 <_start-0x21f70>
     3b4:	0004                	0x4
     3b6:	0501                	addi	a0,a0,0
     3b8:	0016                	c.slli	zero,0x5
     3ba:	0402                	c.slli64	s0
     3bc:	097f0303          	lb	t1,151(t5) # 2d7db <TEXT_ROM+0x67db>
     3c0:	000c                	0xc
     3c2:	0501                	addi	a0,a0,0
     3c4:	0002                	c.slli64	zero
     3c6:	0402                	c.slli64	s0
     3c8:	0301                	addi	t1,t1,0
     3ca:	0900                	addi	s0,sp,144
     3cc:	000c                	0xc
     3ce:	0501                	addi	a0,a0,0
     3d0:	09040317          	auipc	t1,0x9040
     3d4:	0010                	0x10
     3d6:	0501                	addi	a0,a0,0
     3d8:	030e                	slli	t1,t1,0x3
     3da:	0900                	addi	s0,sp,144
     3dc:	0008                	0x8
     3de:	0501                	addi	a0,a0,0
     3e0:	0305                	addi	t1,t1,1
     3e2:	0900                	addi	s0,sp,144
     3e4:	0008                	0x8
     3e6:	0501                	addi	a0,a0,0
     3e8:	0901031b          	addiw	t1,sp,144
     3ec:	0004                	0x4
     3ee:	0501                	addi	a0,a0,0
     3f0:	0308                	addi	a0,sp,384
     3f2:	0900                	addi	s0,sp,144
     3f4:	0008                	0x8
     3f6:	0301                	addi	t1,t1,0
     3f8:	0901                	addi	s2,s2,0
     3fa:	000c                	0xc
     3fc:	0501                	addi	a0,a0,0
     3fe:	09010303          	lb	t1,144(sp)
     402:	0010                	0x10
     404:	0501                	addi	a0,a0,0
     406:	0305                	addi	t1,t1,1
     408:	0901                	addi	s2,s2,0
     40a:	0014                	0x14
     40c:	0501                	addi	a0,a0,0
     40e:	0308                	addi	a0,sp,384
     410:	0901                	addi	s2,s2,0
     412:	0010                	0x10
     414:	0501                	addi	a0,a0,0
     416:	0305                	addi	t1,t1,1
     418:	0904                	addi	s1,sp,144
     41a:	0010                	0x10
     41c:	0501                	addi	a0,a0,0
     41e:	030c                	addi	a1,sp,384
     420:	0901                	addi	s2,s2,0
     422:	000c                	0xc
     424:	0501                	addi	a0,a0,0
     426:	0305                	addi	t1,t1,1
     428:	0900                	addi	s0,sp,144
     42a:	000c                	0xc
     42c:	0501                	addi	a0,a0,0
     42e:	0308                	addi	a0,sp,384
     430:	0901                	addi	s2,s2,0
     432:	0004                	0x4
     434:	0501                	addi	a0,a0,0
     436:	09020323          	sb	a6,134(tp) # 86 <_start-0x21f7a>
     43a:	0010                	0x10
     43c:	0501                	addi	a0,a0,0
     43e:	09000303          	lb	t1,144(zero) # 90 <_start-0x21f70>
     442:	000c                	0xc
     444:	0501                	addi	a0,a0,0
     446:	0306                	slli	t1,t1,0x1
     448:	0902                	c.slli64	s2
     44a:	0010                	0x10
     44c:	0501                	addi	a0,a0,0
     44e:	031a                	slli	t1,t1,0x6
     450:	0901                	addi	s2,s2,0
     452:	0008                	0x8
     454:	0501                	addi	a0,a0,0
     456:	0316                	slli	t1,t1,0x5
     458:	0900                	addi	s0,sp,144
     45a:	0010                	0x10
     45c:	0501                	addi	a0,a0,0
     45e:	0304                	addi	s1,sp,384
     460:	0900                	addi	s0,sp,144
     462:	0008                	0x8
     464:	0501                	addi	a0,a0,0
     466:	0309                	addi	t1,t1,2
     468:	00140903          	lb	s2,1(s0)
     46c:	0501                	addi	a0,a0,0
     46e:	0301                	addi	t1,t1,0
     470:	0901                	addi	s2,s2,0
     472:	0004                	0x4
     474:	0301                	addi	t1,t1,0
     476:	00140903          	lb	s2,1(s0)
     47a:	0501                	addi	a0,a0,0
     47c:	0309                	addi	t1,t1,2
     47e:	0901                	addi	s2,s2,0
     480:	0020                	addi	s0,sp,8
     482:	0501                	addi	a0,a0,0
     484:	0301                	addi	t1,t1,0
     486:	0901                	addi	s2,s2,0
     488:	0018                	0x18
     48a:	0901                	addi	s2,s2,0
     48c:	0014                	0x14
     48e:	0100                	addi	s0,sp,128
     490:	7701                	lui	a4,0xfffe0
     492:	0300000b          	icache.iva	zero
     496:	3700                	fld	fs0,40(a4)
     498:	0000                	unimp
     49a:	0100                	addi	s0,sp,128
     49c:	fb01                	bnez	a4,3ac <_start-0x21c54>
     49e:	0d0e                	slli	s10,s10,0x3
     4a0:	0100                	addi	s0,sp,128
     4a2:	0101                	addi	sp,sp,0
     4a4:	0001                	nop
     4a6:	0000                	unimp
     4a8:	0001                	nop
     4aa:	0100                	addi	s0,sp,128
     4ac:	00637273          	csrrci	tp,0x6,6
     4b0:	6e69                	lui	t3,0x1a
     4b2:	64756c63          	bltu	a0,t2,b0a <_start-0x214f6>
     4b6:	0065                	c.nop	25
     4b8:	7000                	ld	s0,32(s0)
     4ba:	6972                	ld	s2,280(sp)
     4bc:	746e                	ld	s0,248(sp)
     4be:	00632e6b          	0x632e6b
     4c2:	0001                	nop
     4c4:	7300                	ld	s0,32(a4)
     4c6:	6474                	ld	a3,200(s0)
     4c8:	7261                	lui	tp,0xffff8
     4ca:	00682e67          	0x682e67
     4ce:	0002                	c.slli64	zero
     4d0:	0000                	unimp
     4d2:	0105                	addi	sp,sp,1
     4d4:	0900                	addi	s0,sp,144
     4d6:	b402                	fsd	ft0,40(sp)
     4d8:	0226                	slli	tp,tp,0x9
     4da:	0000                	unimp
     4dc:	0000                	unimp
     4de:	0300                	addi	s0,sp,384
     4e0:	012a                	slli	sp,sp,0xa
     4e2:	0605                	addi	a2,a2,1
     4e4:	14090103          	lb	sp,320(s2)
     4e8:	0100                	addi	s0,sp,128
     4ea:	0805                	addi	a6,a6,1
     4ec:	04090203          	lb	tp,64(s2)
     4f0:	0100                	addi	s0,sp,128
     4f2:	0705                	addi	a4,a4,1
     4f4:	04090103          	lb	sp,64(s2)
     4f8:	0100                	addi	s0,sp,128
     4fa:	1205                	addi	tp,tp,-31
     4fc:	18090103          	lb	sp,384(s2)
     500:	0100                	addi	s0,sp,128
     502:	0a05                	addi	s4,s4,1
     504:	0c090003          	lb	zero,192(s2)
     508:	0100                	addi	s0,sp,128
     50a:	1605                	addi	a2,a2,-31
     50c:	08090003          	lb	zero,128(s2)
     510:	0100                	addi	s0,sp,128
     512:	0705                	addi	a4,a4,1
     514:	08090003          	lb	zero,128(s2)
     518:	0100                	addi	s0,sp,128
     51a:	0b05                	addi	s6,s6,1
     51c:	0c097e03          	0xc097e03
     520:	0100                	addi	s0,sp,128
     522:	0805                	addi	a6,a6,1
     524:	08090003          	lb	zero,128(s2)
     528:	0100                	addi	s0,sp,128
     52a:	1f05                	addi	t5,t5,-31
     52c:	0200                	addi	s0,sp,256
     52e:	0104                	addi	s1,sp,128
     530:	0c090003          	lb	zero,192(s2)
     534:	0100                	addi	s0,sp,128
     536:	1b05                	addi	s6,s6,-31
     538:	0200                	addi	s0,sp,256
     53a:	0104                	addi	s1,sp,128
     53c:	08090003          	lb	zero,128(s2)
     540:	0100                	addi	s0,sp,128
     542:	0a05                	addi	s4,s4,1
     544:	0c090503          	lb	a0,192(s2)
     548:	0100                	addi	s0,sp,128
     54a:	0905                	addi	s2,s2,1
     54c:	0c090103          	lb	sp,192(s2)
     550:	0100                	addi	s0,sp,128
     552:	0105                	addi	sp,sp,1
     554:	04090103          	lb	sp,64(s2)
     558:	0100                	addi	s0,sp,128
     55a:	10090403          	lb	s0,256(s2)
     55e:	0100                	addi	s0,sp,128
     560:	0a05                	addi	s4,s4,1
     562:	44090103          	lb	sp,1088(s2)
     566:	0100                	addi	s0,sp,128
     568:	0e05                	addi	t3,t3,1
     56a:	04090303          	lb	t1,64(s2)
     56e:	0100                	addi	s0,sp,128
     570:	0b05                	addi	s6,s6,1
     572:	0c090303          	lb	t1,192(s2)
     576:	0100                	addi	s0,sp,128
     578:	0505                	addi	a0,a0,1
     57a:	0c090003          	lb	zero,192(s2)
     57e:	0100                	addi	s0,sp,128
     580:	0a05                	addi	s4,s4,1
     582:	04090103          	lb	sp,64(s2)
     586:	0100                	addi	s0,sp,128
     588:	0b05                	addi	s6,s6,1
     58a:	0c090103          	lb	sp,192(s2)
     58e:	0100                	addi	s0,sp,128
     590:	0505                	addi	a0,a0,1
     592:	0c090003          	lb	zero,192(s2)
     596:	0100                	addi	s0,sp,128
     598:	0805                	addi	a6,a6,1
     59a:	04090103          	lb	sp,64(s2)
     59e:	0100                	addi	s0,sp,128
     5a0:	0505                	addi	a0,a0,1
     5a2:	0c090103          	lb	sp,192(s2)
     5a6:	0100                	addi	s0,sp,128
     5a8:	0f05                	addi	t5,t5,1
     5aa:	0200                	addi	s0,sp,256
     5ac:	0104                	addi	s1,sp,128
     5ae:	10090003          	lb	zero,256(s2)
     5b2:	0100                	addi	s0,sp,128
     5b4:	0a05                	addi	s4,s4,1
     5b6:	10090103          	lb	sp,256(s2)
     5ba:	0100                	addi	s0,sp,128
     5bc:	0c05                	addi	s8,s8,1
     5be:	08090203          	lb	tp,128(s2)
     5c2:	0100                	addi	s0,sp,128
     5c4:	0405                	addi	s0,s0,1
     5c6:	0c090003          	lb	zero,192(s2)
     5ca:	0100                	addi	s0,sp,128
     5cc:	0200                	addi	s0,sp,256
     5ce:	0104                	addi	s1,sp,128
     5d0:	0306                	slli	t1,t1,0x1
     5d2:	0900                	addi	s0,sp,144
     5d4:	0004                	0x4
     5d6:	0001                	nop
     5d8:	0402                	c.slli64	s0
     5da:	0302                	c.slli64	t1
     5dc:	0900                	addi	s0,sp,144
     5de:	0008                	0x8
     5e0:	0001                	nop
     5e2:	0402                	c.slli64	s0
     5e4:	0304                	addi	s1,sp,384
     5e6:	0900                	addi	s0,sp,144
     5e8:	0004                	0x4
     5ea:	0501                	addi	a0,a0,0
     5ec:	0402000b          	sfence.vmas	tp,zero
     5f0:	0604                	addi	s1,sp,768
     5f2:	04090203          	lb	tp,64(s2)
     5f6:	0100                	addi	s0,sp,128
     5f8:	0505                	addi	a0,a0,1
     5fa:	0200                	addi	s0,sp,256
     5fc:	0404                	addi	s1,sp,512
     5fe:	0c090003          	lb	zero,192(s2)
     602:	0100                	addi	s0,sp,128
     604:	0805                	addi	a6,a6,1
     606:	04090103          	lb	sp,64(s2)
     60a:	0100                	addi	s0,sp,128
     60c:	0605                	addi	a2,a2,1
     60e:	08090103          	lb	sp,128(s2)
     612:	0100                	addi	s0,sp,128
     614:	0905                	addi	s2,s2,1
     616:	08090103          	lb	sp,128(s2)
     61a:	0100                	addi	s0,sp,128
     61c:	0a05                	addi	s4,s4,1
     61e:	08090103          	lb	sp,128(s2)
     622:	0100                	addi	s0,sp,128
     624:	0805                	addi	a6,a6,1
     626:	08090003          	lb	zero,128(s2)
     62a:	0100                	addi	s0,sp,128
     62c:	1305                	addi	t1,t1,-31
     62e:	08090103          	lb	sp,128(s2)
     632:	0100                	addi	s0,sp,128
     634:	0d05                	addi	s10,s10,1
     636:	0c090003          	lb	zero,192(s2)
     63a:	0100                	addi	s0,sp,128
     63c:	0905                	addi	s2,s2,1
     63e:	04090103          	lb	sp,64(s2)
     642:	0100                	addi	s0,sp,128
     644:	0805                	addi	a6,a6,1
     646:	08090103          	lb	sp,128(s2)
     64a:	0100                	addi	s0,sp,128
     64c:	1305                	addi	t1,t1,-31
     64e:	10090103          	lb	sp,256(s2)
     652:	0100                	addi	s0,sp,128
     654:	0d05                	addi	s10,s10,1
     656:	0c090003          	lb	zero,192(s2)
     65a:	0100                	addi	s0,sp,128
     65c:	0905                	addi	s2,s2,1
     65e:	04090103          	lb	sp,64(s2)
     662:	0100                	addi	s0,sp,128
     664:	0805                	addi	a6,a6,1
     666:	08090103          	lb	sp,128(s2)
     66a:	0100                	addi	s0,sp,128
     66c:	0b05                	addi	s6,s6,1
     66e:	0c090403          	lb	s0,192(s2)
     672:	0100                	addi	s0,sp,128
     674:	0505                	addi	a0,a0,1
     676:	0c090003          	lb	zero,192(s2)
     67a:	0100                	addi	s0,sp,128
     67c:	0605                	addi	a2,a2,1
     67e:	04090103          	lb	sp,64(s2)
     682:	0100                	addi	s0,sp,128
     684:	0905                	addi	s2,s2,1
     686:	10090103          	lb	sp,256(s2)
     68a:	0100                	addi	s0,sp,128
     68c:	0b05                	addi	s6,s6,1
     68e:	10090103          	lb	sp,256(s2)
     692:	0100                	addi	s0,sp,128
     694:	0805                	addi	a6,a6,1
     696:	10090103          	lb	sp,256(s2)
     69a:	0100                	addi	s0,sp,128
     69c:	0405                	addi	s0,s0,1
     69e:	0c090303          	lb	t1,192(s2)
     6a2:	0100                	addi	s0,sp,128
     6a4:	0505                	addi	a0,a0,1
     6a6:	04090103          	lb	sp,64(s2)
     6aa:	0100                	addi	s0,sp,128
     6ac:	0805                	addi	a6,a6,1
     6ae:	08090103          	lb	sp,128(s2)
     6b2:	0100                	addi	s0,sp,128
     6b4:	0c05                	addi	s8,s8,1
     6b6:	0c090003          	lb	zero,192(s2)
     6ba:	0100                	addi	s0,sp,128
     6bc:	2605                	addiw	a2,a2,1
     6be:	14090303          	lb	t1,320(s2)
     6c2:	0100                	addi	s0,sp,128
     6c4:	6a05                	lui	s4,0x1
     6c6:	08090003          	lb	zero,128(s2)
     6ca:	0100                	addi	s0,sp,128
     6cc:	5105                	li	sp,-31
     6ce:	0c090003          	lb	zero,192(s2)
     6d2:	0100                	addi	s0,sp,128
     6d4:	9305                	srli	a4,a4,0x21
     6d6:	0301                	addi	t1,t1,0
     6d8:	0900                	addi	s0,sp,144
     6da:	0004                	0x4
     6dc:	0501                	addi	a0,a0,0
     6de:	037a                	slli	t1,t1,0x1e
     6e0:	0900                	addi	s0,sp,144
     6e2:	0004                	0x4
     6e4:	0501                	addi	a0,a0,0
     6e6:	019d                	addi	gp,gp,7
     6e8:	0c090003          	lb	zero,192(s2)
     6ec:	0100                	addi	s0,sp,128
     6ee:	1705                	addi	a4,a4,-31
     6f0:	04090003          	lb	zero,64(s2)
     6f4:	0100                	addi	s0,sp,128
     6f6:	1505                	addi	a0,a0,-31
     6f8:	08090003          	lb	zero,128(s2)
     6fc:	0100                	addi	s0,sp,128
     6fe:	0905                	addi	s2,s2,1
     700:	08090003          	lb	zero,128(s2)
     704:	0100                	addi	s0,sp,128
     706:	1505                	addi	a0,a0,-31
     708:	0c090003          	lb	zero,192(s2)
     70c:	0100                	addi	s0,sp,128
     70e:	0d05                	addi	s10,s10,1
     710:	04090003          	lb	zero,64(s2)
     714:	0100                	addi	s0,sp,128
     716:	0905                	addi	s2,s2,1
     718:	0c097f03          	0xc097f03
     71c:	0100                	addi	s0,sp,128
     71e:	0505                	addi	a0,a0,1
     720:	08090203          	lb	tp,128(s2)
     724:	0100                	addi	s0,sp,128
     726:	0d05                	addi	s10,s10,1
     728:	14090103          	lb	sp,320(s2)
     72c:	0100                	addi	s0,sp,128
     72e:	0705                	addi	a4,a4,1
     730:	08090103          	lb	sp,128(s2)
     734:	0100                	addi	s0,sp,128
     736:	0c05                	addi	s8,s8,1
     738:	10090103          	lb	sp,256(s2)
     73c:	0100                	addi	s0,sp,128
     73e:	0505                	addi	a0,a0,1
     740:	0c090003          	lb	zero,192(s2)
     744:	0100                	addi	s0,sp,128
     746:	0905                	addi	s2,s2,1
     748:	04090103          	lb	sp,64(s2)
     74c:	0100                	addi	s0,sp,128
     74e:	0805                	addi	a6,a6,1
     750:	04090103          	lb	sp,64(s2)
     754:	0100                	addi	s0,sp,128
     756:	0b05                	addi	s6,s6,1
     758:	0c090003          	lb	zero,192(s2)
     75c:	0100                	addi	s0,sp,128
     75e:	0e05                	addi	t3,t3,1
     760:	08097f03          	0x8097f03
     764:	0100                	addi	s0,sp,128
     766:	0905                	addi	s2,s2,1
     768:	0c090003          	lb	zero,192(s2)
     76c:	0100                	addi	s0,sp,128
     76e:	0505                	addi	a0,a0,1
     770:	04090203          	lb	tp,64(s2)
     774:	0100                	addi	s0,sp,128
     776:	0705                	addi	a4,a4,1
     778:	0c090103          	lb	sp,192(s2)
     77c:	0100                	addi	s0,sp,128
     77e:	0a05                	addi	s4,s4,1
     780:	0c090003          	lb	zero,192(s2)
     784:	0100                	addi	s0,sp,128
     786:	0b05                	addi	s6,s6,1
     788:	08090203          	lb	tp,128(s2)
     78c:	0100                	addi	s0,sp,128
     78e:	0505                	addi	a0,a0,1
     790:	0c090003          	lb	zero,192(s2)
     794:	0100                	addi	s0,sp,128
     796:	0605                	addi	a2,a2,1
     798:	04090103          	lb	sp,64(s2)
     79c:	0100                	addi	s0,sp,128
     79e:	0805                	addi	a6,a6,1
     7a0:	10090103          	lb	sp,256(s2)
     7a4:	0100                	addi	s0,sp,128
     7a6:	0b05                	addi	s6,s6,1
     7a8:	0c090003          	lb	zero,192(s2)
     7ac:	0100                	addi	s0,sp,128
     7ae:	0c090103          	lb	sp,192(s2)
     7b2:	0100                	addi	s0,sp,128
     7b4:	0805                	addi	a6,a6,1
     7b6:	10090103          	lb	sp,256(s2)
     7ba:	0100                	addi	s0,sp,128
     7bc:	0b05                	addi	s6,s6,1
     7be:	0c090003          	lb	zero,192(s2)
     7c2:	0100                	addi	s0,sp,128
     7c4:	0805                	addi	a6,a6,1
     7c6:	08090103          	lb	sp,128(s2)
     7ca:	0100                	addi	s0,sp,128
     7cc:	0b05                	addi	s6,s6,1
     7ce:	0c090003          	lb	zero,192(s2)
     7d2:	0100                	addi	s0,sp,128
     7d4:	0d05                	addi	s10,s10,1
     7d6:	0c090403          	lb	s0,192(s2)
     7da:	0100                	addi	s0,sp,128
     7dc:	0505                	addi	a0,a0,1
     7de:	0c090003          	lb	zero,192(s2)
     7e2:	0100                	addi	s0,sp,128
     7e4:	0905                	addi	s2,s2,1
     7e6:	04090103          	lb	sp,64(s2)
     7ea:	0100                	addi	s0,sp,128
     7ec:	0805                	addi	a6,a6,1
     7ee:	04090103          	lb	sp,64(s2)
     7f2:	0100                	addi	s0,sp,128
     7f4:	0b05                	addi	s6,s6,1
     7f6:	0c090003          	lb	zero,192(s2)
     7fa:	0100                	addi	s0,sp,128
     7fc:	0e05                	addi	t3,t3,1
     7fe:	08097f03          	0x8097f03
     802:	0100                	addi	s0,sp,128
     804:	0905                	addi	s2,s2,1
     806:	0c090003          	lb	zero,192(s2)
     80a:	0100                	addi	s0,sp,128
     80c:	0805                	addi	a6,a6,1
     80e:	04090203          	lb	tp,64(s2)
     812:	0100                	addi	s0,sp,128
     814:	0705                	addi	a4,a4,1
     816:	04090103          	lb	sp,64(s2)
     81a:	0100                	addi	s0,sp,128
     81c:	0a05                	addi	s4,s4,1
     81e:	0c090003          	lb	zero,192(s2)
     822:	0100                	addi	s0,sp,128
     824:	1605                	addi	a2,a2,-31
     826:	08097f03          	0x8097f03
     82a:	0100                	addi	s0,sp,128
     82c:	0805                	addi	a6,a6,1
     82e:	0c090003          	lb	zero,192(s2)
     832:	0100                	addi	s0,sp,128
     834:	0c090203          	lb	tp,192(s2)
     838:	0100                	addi	s0,sp,128
     83a:	0705                	addi	a4,a4,1
     83c:	04090103          	lb	sp,64(s2)
     840:	0100                	addi	s0,sp,128
     842:	0f05                	addi	t5,t5,1
     844:	0c090003          	lb	zero,192(s2)
     848:	0100                	addi	s0,sp,128
     84a:	0a05                	addi	s4,s4,1
     84c:	10090003          	lb	zero,256(s2)
     850:	0100                	addi	s0,sp,128
     852:	04097f03          	0x4097f03
     856:	0100                	addi	s0,sp,128
     858:	0805                	addi	a6,a6,1
     85a:	0c090003          	lb	zero,192(s2)
     85e:	0100                	addi	s0,sp,128
     860:	04090203          	lb	tp,64(s2)
     864:	0100                	addi	s0,sp,128
     866:	0705                	addi	a4,a4,1
     868:	04090103          	lb	sp,64(s2)
     86c:	0100                	addi	s0,sp,128
     86e:	0a05                	addi	s4,s4,1
     870:	0c090003          	lb	zero,192(s2)
     874:	0100                	addi	s0,sp,128
     876:	0d05                	addi	s10,s10,1
     878:	08097f03          	0x8097f03
     87c:	0100                	addi	s0,sp,128
     87e:	0805                	addi	a6,a6,1
     880:	0c090003          	lb	zero,192(s2)
     884:	0100                	addi	s0,sp,128
     886:	0905                	addi	s2,s2,1
     888:	04090303          	lb	t1,64(s2)
     88c:	0100                	addi	s0,sp,128
     88e:	0105                	addi	sp,sp,1
     890:	0200                	addi	s0,sp,256
     892:	0104                	addi	s1,sp,128
     894:	04090103          	lb	sp,64(s2)
     898:	0100                	addi	s0,sp,128
     89a:	10091303          	lh	t1,256(s2)
     89e:	0100                	addi	s0,sp,128
     8a0:	0605                	addi	a2,a2,1
     8a2:	24090d03          	lb	s10,576(s2)
     8a6:	0100                	addi	s0,sp,128
     8a8:	0205                	addi	tp,tp,1
     8aa:	08090203          	lb	tp,128(s2)
     8ae:	0100                	addi	s0,sp,128
     8b0:	0705                	addi	a4,a4,1
     8b2:	04090103          	lb	sp,64(s2)
     8b6:	0100                	addi	s0,sp,128
     8b8:	0605                	addi	a2,a2,1
     8ba:	08090003          	lb	zero,128(s2)
     8be:	0100                	addi	s0,sp,128
     8c0:	0805                	addi	a6,a6,1
     8c2:	0c090103          	lb	sp,192(s2)
     8c6:	0100                	addi	s0,sp,128
     8c8:	0d05                	addi	s10,s10,1
     8ca:	0c090003          	lb	zero,192(s2)
     8ce:	0100                	addi	s0,sp,128
     8d0:	0b05                	addi	s6,s6,1
     8d2:	08090003          	lb	zero,128(s2)
     8d6:	0100                	addi	s0,sp,128
     8d8:	0405                	addi	s0,s0,1
     8da:	04090103          	lb	sp,64(s2)
     8de:	0100                	addi	s0,sp,128
     8e0:	0905                	addi	s2,s2,1
     8e2:	04090403          	lb	s0,64(s2)
     8e6:	0100                	addi	s0,sp,128
     8e8:	0305                	addi	t1,t1,1
     8ea:	04090203          	lb	tp,64(s2)
     8ee:	0100                	addi	s0,sp,128
     8f0:	0b05                	addi	s6,s6,1
     8f2:	0c090103          	lb	sp,192(s2)
     8f6:	0100                	addi	s0,sp,128
     8f8:	0a05                	addi	s4,s4,1
     8fa:	4c090203          	lb	tp,1216(s2)
     8fe:	0100                	addi	s0,sp,128
     900:	0405                	addi	s0,s0,1
     902:	0c090103          	lb	sp,192(s2)
     906:	0100                	addi	s0,sp,128
     908:	0a05                	addi	s4,s4,1
     90a:	04090203          	lb	tp,64(s2)
     90e:	0100                	addi	s0,sp,128
     910:	0405                	addi	s0,s0,1
     912:	0c090103          	lb	sp,192(s2)
     916:	0100                	addi	s0,sp,128
     918:	0a05                	addi	s4,s4,1
     91a:	04090203          	lb	tp,64(s2)
     91e:	0100                	addi	s0,sp,128
     920:	0405                	addi	s0,s0,1
     922:	0c090103          	lb	sp,192(s2)
     926:	0100                	addi	s0,sp,128
     928:	0a05                	addi	s4,s4,1
     92a:	04090203          	lb	tp,64(s2)
     92e:	0100                	addi	s0,sp,128
     930:	0405                	addi	s0,s0,1
     932:	0c090103          	lb	sp,192(s2)
     936:	0100                	addi	s0,sp,128
     938:	0a05                	addi	s4,s4,1
     93a:	04090203          	lb	tp,64(s2)
     93e:	0100                	addi	s0,sp,128
     940:	0405                	addi	s0,s0,1
     942:	0c090103          	lb	sp,192(s2)
     946:	0100                	addi	s0,sp,128
     948:	0f05                	addi	t5,t5,1
     94a:	04090403          	lb	s0,64(s2)
     94e:	0100                	addi	s0,sp,128
     950:	0905                	addi	s2,s2,1
     952:	08090103          	lb	sp,128(s2)
     956:	0100                	addi	s0,sp,128
     958:	0605                	addi	a2,a2,1
     95a:	08090003          	lb	zero,128(s2)
     95e:	0100                	addi	s0,sp,128
     960:	1a05                	addi	s4,s4,-31
     962:	0200                	addi	s0,sp,256
     964:	0104                	addi	s1,sp,128
     966:	0c090003          	lb	zero,192(s2)
     96a:	0100                	addi	s0,sp,128
     96c:	1605                	addi	a2,a2,-31
     96e:	0200                	addi	s0,sp,256
     970:	0104                	addi	s1,sp,128
     972:	08090003          	lb	zero,128(s2)
     976:	0100                	addi	s0,sp,128
     978:	0a05                	addi	s4,s4,1
     97a:	0c090103          	lb	sp,192(s2)
     97e:	0100                	addi	s0,sp,128
     980:	0805                	addi	a6,a6,1
     982:	14090003          	lb	zero,320(s2)
     986:	0100                	addi	s0,sp,128
     988:	0e05                	addi	t3,t3,1
     98a:	04090103          	lb	sp,64(s2)
     98e:	0100                	addi	s0,sp,128
     990:	0d05                	addi	s10,s10,1
     992:	08090003          	lb	zero,128(s2)
     996:	0100                	addi	s0,sp,128
     998:	2805                	addiw	a6,a6,1
     99a:	0c090103          	lb	sp,192(s2)
     99e:	0100                	addi	s0,sp,128
     9a0:	1005                	c.nop	-31
     9a2:	10090003          	lb	zero,256(s2)
     9a6:	0100                	addi	s0,sp,128
     9a8:	1405                	addi	s0,s0,-31
     9aa:	04090103          	lb	sp,64(s2)
     9ae:	0100                	addi	s0,sp,128
     9b0:	0705                	addi	a4,a4,1
     9b2:	04090003          	lb	zero,64(s2)
     9b6:	0100                	addi	s0,sp,128
     9b8:	1305                	addi	t1,t1,-31
     9ba:	04090103          	lb	sp,64(s2)
     9be:	0100                	addi	s0,sp,128
     9c0:	1105                	addi	sp,sp,-31
     9c2:	0c090003          	lb	zero,192(s2)
     9c6:	0100                	addi	s0,sp,128
     9c8:	0b05                	addi	s6,s6,1
     9ca:	04090103          	lb	sp,64(s2)
     9ce:	0100                	addi	s0,sp,128
     9d0:	0d05                	addi	s10,s10,1
     9d2:	0c090503          	lb	a0,192(s2)
     9d6:	0100                	addi	s0,sp,128
     9d8:	0705                	addi	a4,a4,1
     9da:	08090103          	lb	sp,128(s2)
     9de:	0100                	addi	s0,sp,128
     9e0:	0605                	addi	a2,a2,1
     9e2:	08090003          	lb	zero,128(s2)
     9e6:	0100                	addi	s0,sp,128
     9e8:	0405                	addi	s0,s0,1
     9ea:	0c090103          	lb	sp,192(s2)
     9ee:	0100                	addi	s0,sp,128
     9f0:	0a05                	addi	s4,s4,1
     9f2:	0c090103          	lb	sp,192(s2)
     9f6:	0100                	addi	s0,sp,128
     9f8:	0705                	addi	a4,a4,1
     9fa:	08090003          	lb	zero,128(s2)
     9fe:	0100                	addi	s0,sp,128
     a00:	1b05                	addi	s6,s6,-31
     a02:	0200                	addi	s0,sp,256
     a04:	0104                	addi	s1,sp,128
     a06:	0c090003          	lb	zero,192(s2)
     a0a:	0100                	addi	s0,sp,128
     a0c:	1705                	addi	a4,a4,-31
     a0e:	0200                	addi	s0,sp,256
     a10:	0104                	addi	s1,sp,128
     a12:	08090003          	lb	zero,128(s2)
     a16:	0100                	addi	s0,sp,128
     a18:	0b05                	addi	s6,s6,1
     a1a:	0c090103          	lb	sp,192(s2)
     a1e:	0100                	addi	s0,sp,128
     a20:	0905                	addi	s2,s2,1
     a22:	14090003          	lb	zero,320(s2)
     a26:	0100                	addi	s0,sp,128
     a28:	0d05                	addi	s10,s10,1
     a2a:	04090103          	lb	sp,64(s2)
     a2e:	0100                	addi	s0,sp,128
     a30:	0c05                	addi	s8,s8,1
     a32:	08090003          	lb	zero,128(s2)
     a36:	0100                	addi	s0,sp,128
     a38:	2705                	addiw	a4,a4,1
     a3a:	0c090103          	lb	sp,192(s2)
     a3e:	0100                	addi	s0,sp,128
     a40:	0f05                	addi	t5,t5,1
     a42:	10090003          	lb	zero,256(s2)
     a46:	0100                	addi	s0,sp,128
     a48:	1205                	addi	tp,tp,-31
     a4a:	04090103          	lb	sp,64(s2)
     a4e:	0100                	addi	s0,sp,128
     a50:	0705                	addi	a4,a4,1
     a52:	04090003          	lb	zero,64(s2)
     a56:	0100                	addi	s0,sp,128
     a58:	0f05                	addi	t5,t5,1
     a5a:	04090103          	lb	sp,64(s2)
     a5e:	0100                	addi	s0,sp,128
     a60:	0d05                	addi	s10,s10,1
     a62:	04090703          	lb	a4,64(s2)
     a66:	0100                	addi	s0,sp,128
     a68:	0705                	addi	a4,a4,1
     a6a:	08090103          	lb	sp,128(s2)
     a6e:	0100                	addi	s0,sp,128
     a70:	0605                	addi	a2,a2,1
     a72:	08090003          	lb	zero,128(s2)
     a76:	0100                	addi	s0,sp,128
     a78:	1605                	addi	a2,a2,-31
     a7a:	0200                	addi	s0,sp,256
     a7c:	0104                	addi	s1,sp,128
     a7e:	0c090003          	lb	zero,192(s2)
     a82:	0100                	addi	s0,sp,128
     a84:	1305                	addi	t1,t1,-31
     a86:	0200                	addi	s0,sp,256
     a88:	0104                	addi	s1,sp,128
     a8a:	08090003          	lb	zero,128(s2)
     a8e:	0100                	addi	s0,sp,128
     a90:	2505                	addiw	a0,a0,1
     a92:	0200                	addi	s0,sp,256
     a94:	0204                	addi	s1,sp,256
     a96:	0c090003          	lb	zero,192(s2)
     a9a:	0100                	addi	s0,sp,128
     a9c:	2205                	addiw	tp,tp,1
     a9e:	0200                	addi	s0,sp,256
     aa0:	0204                	addi	s1,sp,256
     aa2:	08090003          	lb	zero,128(s2)
     aa6:	0100                	addi	s0,sp,128
     aa8:	1005                	c.nop	-31
     aaa:	0c090103          	lb	sp,192(s2)
     aae:	0100                	addi	s0,sp,128
     ab0:	0e05                	addi	t3,t3,1
     ab2:	08090003          	lb	zero,128(s2)
     ab6:	0100                	addi	s0,sp,128
     ab8:	0405                	addi	s0,s0,1
     aba:	04090103          	lb	sp,64(s2)
     abe:	0100                	addi	s0,sp,128
     ac0:	0705                	addi	a4,a4,1
     ac2:	0c090203          	lb	tp,192(s2)
     ac6:	0100                	addi	s0,sp,128
     ac8:	1c05                	addi	s8,s8,-31
     aca:	0200                	addi	s0,sp,256
     acc:	0104                	addi	s1,sp,128
     ace:	10090003          	lb	zero,256(s2)
     ad2:	0100                	addi	s0,sp,128
     ad4:	1905                	addi	s2,s2,-31
     ad6:	0200                	addi	s0,sp,256
     ad8:	0104                	addi	s1,sp,128
     ada:	08090003          	lb	zero,128(s2)
     ade:	0100                	addi	s0,sp,128
     ae0:	0f05                	addi	t5,t5,1
     ae2:	0c090103          	lb	sp,192(s2)
     ae6:	0100                	addi	s0,sp,128
     ae8:	0505                	addi	a0,a0,1
     aea:	08090103          	lb	sp,128(s2)
     aee:	0100                	addi	s0,sp,128
     af0:	0b05                	addi	s6,s6,1
     af2:	0c090403          	lb	s0,192(s2)
     af6:	0100                	addi	s0,sp,128
     af8:	1005                	c.nop	-31
     afa:	4c090303          	lb	t1,1216(s2)
     afe:	0100                	addi	s0,sp,128
     b00:	0705                	addi	a4,a4,1
     b02:	0c090003          	lb	zero,192(s2)
     b06:	0100                	addi	s0,sp,128
     b08:	0b05                	addi	s6,s6,1
     b0a:	04090103          	lb	sp,64(s2)
     b0e:	0100                	addi	s0,sp,128
     b10:	0a05                	addi	s4,s4,1
     b12:	04090103          	lb	sp,64(s2)
     b16:	0100                	addi	s0,sp,128
     b18:	0d05                	addi	s10,s10,1
     b1a:	0c090003          	lb	zero,192(s2)
     b1e:	0100                	addi	s0,sp,128
     b20:	0c05                	addi	s8,s8,1
     b22:	08097f03          	0x8097f03
     b26:	0100                	addi	s0,sp,128
     b28:	0b05                	addi	s6,s6,1
     b2a:	0c090003          	lb	zero,192(s2)
     b2e:	0100                	addi	s0,sp,128
     b30:	0c05                	addi	s8,s8,1
     b32:	04090003          	lb	zero,64(s2)
     b36:	0100                	addi	s0,sp,128
     b38:	0b05                	addi	s6,s6,1
     b3a:	04090003          	lb	zero,64(s2)
     b3e:	0100                	addi	s0,sp,128
     b40:	3205                	addiw	tp,tp,-31
     b42:	04090203          	lb	tp,64(s2)
     b46:	0100                	addi	s0,sp,128
     b48:	0805                	addi	a6,a6,1
     b4a:	10090003          	lb	zero,256(s2)
     b4e:	0100                	addi	s0,sp,128
     b50:	0d05                	addi	s10,s10,1
     b52:	0c090003          	lb	zero,192(s2)
     b56:	0100                	addi	s0,sp,128
     b58:	0b05                	addi	s6,s6,1
     b5a:	04090003          	lb	zero,64(s2)
     b5e:	0100                	addi	s0,sp,128
     b60:	0a05                	addi	s4,s4,1
     b62:	04090103          	lb	sp,64(s2)
     b66:	0100                	addi	s0,sp,128
     b68:	0905                	addi	s2,s2,1
     b6a:	04090103          	lb	sp,64(s2)
     b6e:	0100                	addi	s0,sp,128
     b70:	0c05                	addi	s8,s8,1
     b72:	0c090003          	lb	zero,192(s2)
     b76:	0100                	addi	s0,sp,128
     b78:	0b05                	addi	s6,s6,1
     b7a:	08097f03          	0x8097f03
     b7e:	0100                	addi	s0,sp,128
     b80:	0a05                	addi	s4,s4,1
     b82:	0c090003          	lb	zero,192(s2)
     b86:	0100                	addi	s0,sp,128
     b88:	0b05                	addi	s6,s6,1
     b8a:	04090003          	lb	zero,64(s2)
     b8e:	0100                	addi	s0,sp,128
     b90:	0a05                	addi	s4,s4,1
     b92:	04090003          	lb	zero,64(s2)
     b96:	0100                	addi	s0,sp,128
     b98:	0405                	addi	s0,s0,1
     b9a:	04090303          	lb	t1,64(s2)
     b9e:	0100                	addi	s0,sp,128
     ba0:	0605                	addi	a2,a2,1
     ba2:	04090403          	lb	s0,64(s2)
     ba6:	0100                	addi	s0,sp,128
     ba8:	0705                	addi	a4,a4,1
     baa:	14090103          	lb	sp,320(s2)
     bae:	0100                	addi	s0,sp,128
     bb0:	08090103          	lb	sp,128(s2)
     bb4:	0100                	addi	s0,sp,128
     bb6:	0a05                	addi	s4,s4,1
     bb8:	0c090103          	lb	sp,192(s2)
     bbc:	0100                	addi	s0,sp,128
     bbe:	0805                	addi	a6,a6,1
     bc0:	0c090003          	lb	zero,192(s2)
     bc4:	0100                	addi	s0,sp,128
     bc6:	1205                	addi	tp,tp,-31
     bc8:	04090103          	lb	sp,64(s2)
     bcc:	0100                	addi	s0,sp,128
     bce:	0705                	addi	a4,a4,1
     bd0:	04090003          	lb	zero,64(s2)
     bd4:	0100                	addi	s0,sp,128
     bd6:	0f05                	addi	t5,t5,1
     bd8:	04090103          	lb	sp,64(s2)
     bdc:	0100                	addi	s0,sp,128
     bde:	1105                	addi	sp,sp,-31
     be0:	0c090103          	lb	sp,192(s2)
     be4:	0100                	addi	s0,sp,128
     be6:	0c05                	addi	s8,s8,1
     be8:	04090003          	lb	zero,64(s2)
     bec:	0100                	addi	s0,sp,128
     bee:	0905                	addi	s2,s2,1
     bf0:	0c090103          	lb	sp,192(s2)
     bf4:	0100                	addi	s0,sp,128
     bf6:	1005                	c.nop	-31
     bf8:	08090203          	lb	tp,128(s2)
     bfc:	0100                	addi	s0,sp,128
     bfe:	0705                	addi	a4,a4,1
     c00:	0c090003          	lb	zero,192(s2)
     c04:	0100                	addi	s0,sp,128
     c06:	0b05                	addi	s6,s6,1
     c08:	04090103          	lb	sp,64(s2)
     c0c:	0100                	addi	s0,sp,128
     c0e:	0a05                	addi	s4,s4,1
     c10:	04090103          	lb	sp,64(s2)
     c14:	0100                	addi	s0,sp,128
     c16:	0d05                	addi	s10,s10,1
     c18:	0c090003          	lb	zero,192(s2)
     c1c:	0100                	addi	s0,sp,128
     c1e:	1d05                	addi	s10,s10,-31
     c20:	08097f03          	0x8097f03
     c24:	0100                	addi	s0,sp,128
     c26:	0b05                	addi	s6,s6,1
     c28:	10090003          	lb	zero,256(s2)
     c2c:	0100                	addi	s0,sp,128
     c2e:	0c090203          	lb	tp,192(s2)
     c32:	0100                	addi	s0,sp,128
     c34:	0405                	addi	s0,s0,1
     c36:	04090003          	lb	zero,64(s2)
     c3a:	0100                	addi	s0,sp,128
     c3c:	1005                	c.nop	-31
     c3e:	0200                	addi	s0,sp,256
     c40:	0304                	addi	s1,sp,384
     c42:	04090103          	lb	sp,64(s2)
     c46:	0100                	addi	s0,sp,128
     c48:	0905                	addi	s2,s2,1
     c4a:	0200                	addi	s0,sp,256
     c4c:	0304                	addi	s1,sp,384
     c4e:	0c090003          	lb	zero,192(s2)
     c52:	0100                	addi	s0,sp,128
     c54:	0e05                	addi	t3,t3,1
     c56:	0200                	addi	s0,sp,256
     c58:	0304                	addi	s1,sp,384
     c5a:	0c090003          	lb	zero,192(s2)
     c5e:	0100                	addi	s0,sp,128
     c60:	0c05                	addi	s8,s8,1
     c62:	0200                	addi	s0,sp,256
     c64:	0304                	addi	s1,sp,384
     c66:	04090003          	lb	zero,64(s2)
     c6a:	0100                	addi	s0,sp,128
     c6c:	1a05                	addi	s4,s4,-31
     c6e:	0200                	addi	s0,sp,256
     c70:	0304                	addi	s1,sp,384
     c72:	04097f03          	0x4097f03
     c76:	0100                	addi	s0,sp,128
     c78:	0405                	addi	s0,s0,1
     c7a:	0200                	addi	s0,sp,256
     c7c:	0104                	addi	s1,sp,128
     c7e:	0c090003          	lb	zero,192(s2)
     c82:	0100                	addi	s0,sp,128
     c84:	0a05                	addi	s4,s4,1
     c86:	14090203          	lb	tp,320(s2)
     c8a:	0100                	addi	s0,sp,128
     c8c:	0905                	addi	s2,s2,1
     c8e:	04090103          	lb	sp,64(s2)
     c92:	0100                	addi	s0,sp,128
     c94:	0c05                	addi	s8,s8,1
     c96:	0c090003          	lb	zero,192(s2)
     c9a:	0100                	addi	s0,sp,128
     c9c:	1c05                	addi	s8,s8,-31
     c9e:	08097f03          	0x8097f03
     ca2:	0100                	addi	s0,sp,128
     ca4:	0a05                	addi	s4,s4,1
     ca6:	10090003          	lb	zero,256(s2)
     caa:	0100                	addi	s0,sp,128
     cac:	0405                	addi	s0,s0,1
     cae:	0c090203          	lb	tp,192(s2)
     cb2:	0100                	addi	s0,sp,128
     cb4:	0705                	addi	a4,a4,1
     cb6:	04090703          	lb	a4,64(s2)
     cba:	0100                	addi	s0,sp,128
     cbc:	0f05                	addi	t5,t5,1
     cbe:	14090103          	lb	sp,320(s2)
     cc2:	0100                	addi	s0,sp,128
     cc4:	0805                	addi	a6,a6,1
     cc6:	0c090003          	lb	zero,192(s2)
     cca:	0100                	addi	s0,sp,128
     ccc:	0405                	addi	s0,s0,1
     cce:	0c090103          	lb	sp,192(s2)
     cd2:	0100                	addi	s0,sp,128
     cd4:	1405                	addi	s0,s0,-31
     cd6:	04090603          	lb	a2,64(s2)
     cda:	0100                	addi	s0,sp,128
     cdc:	0705                	addi	a4,a4,1
     cde:	04090003          	lb	zero,64(s2)
     ce2:	0100                	addi	s0,sp,128
     ce4:	1105                	addi	sp,sp,-31
     ce6:	0c090103          	lb	sp,192(s2)
     cea:	0100                	addi	s0,sp,128
     cec:	0b05                	addi	s6,s6,1
     cee:	08090103          	lb	sp,128(s2)
     cf2:	0100                	addi	s0,sp,128
     cf4:	2a05                	addiw	s4,s4,1
     cf6:	0c090303          	lb	t1,192(s2)
     cfa:	0100                	addi	s0,sp,128
     cfc:	0a05                	addi	s4,s4,1
     cfe:	10097f03          	0x10097f03
     d02:	0100                	addi	s0,sp,128
     d04:	0405                	addi	s0,s0,1
     d06:	20090303          	lb	t1,512(s2)
     d0a:	0100                	addi	s0,sp,128
     d0c:	0905                	addi	s2,s2,1
     d0e:	04090403          	lb	s0,64(s2)
     d12:	0100                	addi	s0,sp,128
     d14:	0405                	addi	s0,s0,1
     d16:	08090103          	lb	sp,128(s2)
     d1a:	0100                	addi	s0,sp,128
     d1c:	0a05                	addi	s4,s4,1
     d1e:	04090303          	lb	t1,64(s2)
     d22:	0100                	addi	s0,sp,128
     d24:	0905                	addi	s2,s2,1
     d26:	0c090203          	lb	tp,192(s2)
     d2a:	0100                	addi	s0,sp,128
     d2c:	0405                	addi	s0,s0,1
     d2e:	08090103          	lb	sp,128(s2)
     d32:	0100                	addi	s0,sp,128
     d34:	0a05                	addi	s4,s4,1
     d36:	04090403          	lb	s0,64(s2)
     d3a:	0100                	addi	s0,sp,128
     d3c:	0905                	addi	s2,s2,1
     d3e:	0c090303          	lb	t1,192(s2)
     d42:	0100                	addi	s0,sp,128
     d44:	0405                	addi	s0,s0,1
     d46:	08090103          	lb	sp,128(s2)
     d4a:	0100                	addi	s0,sp,128
     d4c:	0805                	addi	a6,a6,1
     d4e:	04090303          	lb	t1,64(s2)
     d52:	0100                	addi	s0,sp,128
     d54:	0705                	addi	a4,a4,1
     d56:	08090003          	lb	zero,128(s2)
     d5a:	0100                	addi	s0,sp,128
     d5c:	0905                	addi	s2,s2,1
     d5e:	0c090103          	lb	sp,192(s2)
     d62:	0100                	addi	s0,sp,128
     d64:	0c05                	addi	s8,s8,1
     d66:	0c090003          	lb	zero,192(s2)
     d6a:	0100                	addi	s0,sp,128
     d6c:	0805                	addi	a6,a6,1
     d6e:	08090103          	lb	sp,128(s2)
     d72:	0100                	addi	s0,sp,128
     d74:	0705                	addi	a4,a4,1
     d76:	08090003          	lb	zero,128(s2)
     d7a:	0100                	addi	s0,sp,128
     d7c:	0905                	addi	s2,s2,1
     d7e:	04090103          	lb	sp,64(s2)
     d82:	0100                	addi	s0,sp,128
     d84:	0e05                	addi	t3,t3,1
     d86:	0c090003          	lb	zero,192(s2)
     d8a:	0100                	addi	s0,sp,128
     d8c:	0c05                	addi	s8,s8,1
     d8e:	08090003          	lb	zero,128(s2)
     d92:	0100                	addi	s0,sp,128
     d94:	0405                	addi	s0,s0,1
     d96:	04090303          	lb	t1,64(s2)
     d9a:	0100                	addi	s0,sp,128
     d9c:	0505                	addi	a0,a0,1
     d9e:	04097f03          	0x4097f03
     da2:	0100                	addi	s0,sp,128
     da4:	0405                	addi	s0,s0,1
     da6:	0c090103          	lb	sp,192(s2)
     daa:	0100                	addi	s0,sp,128
     dac:	0605                	addi	a2,a2,1
     dae:	04090303          	lb	t1,64(s2)
     db2:	0100                	addi	s0,sp,128
     db4:	0e05                	addi	t3,t3,1
     db6:	10090103          	lb	sp,256(s2)
     dba:	0100                	addi	s0,sp,128
     dbc:	0705                	addi	a4,a4,1
     dbe:	0c090003          	lb	zero,192(s2)
     dc2:	0100                	addi	s0,sp,128
     dc4:	2105                	addiw	sp,sp,1
     dc6:	04090103          	lb	sp,64(s2)
     dca:	0100                	addi	s0,sp,128
     dcc:	0905                	addi	s2,s2,1
     dce:	10090003          	lb	zero,256(s2)
     dd2:	0100                	addi	s0,sp,128
     dd4:	2105                	addiw	sp,sp,1
     dd6:	08090203          	lb	tp,128(s2)
     dda:	0100                	addi	s0,sp,128
     ddc:	0905                	addi	s2,s2,1
     dde:	10090003          	lb	zero,256(s2)
     de2:	0100                	addi	s0,sp,128
     de4:	0d05                	addi	s10,s10,1
     de6:	08090103          	lb	sp,128(s2)
     dea:	0100                	addi	s0,sp,128
     dec:	0e05                	addi	t3,t3,1
     dee:	10090103          	lb	sp,256(s2)
     df2:	0100                	addi	s0,sp,128
     df4:	0705                	addi	a4,a4,1
     df6:	0c090003          	lb	zero,192(s2)
     dfa:	0100                	addi	s0,sp,128
     dfc:	2805                	addiw	a6,a6,1
     dfe:	04090103          	lb	sp,64(s2)
     e02:	0100                	addi	s0,sp,128
     e04:	0b05                	addi	s6,s6,1
     e06:	10090003          	lb	zero,256(s2)
     e0a:	0100                	addi	s0,sp,128
     e0c:	0905                	addi	s2,s2,1
     e0e:	08090003          	lb	zero,128(s2)
     e12:	0100                	addi	s0,sp,128
     e14:	3105                	addiw	sp,sp,-31
     e16:	08090203          	lb	tp,128(s2)
     e1a:	0100                	addi	s0,sp,128
     e1c:	0b05                	addi	s6,s6,1
     e1e:	10090003          	lb	zero,256(s2)
     e22:	0100                	addi	s0,sp,128
     e24:	0905                	addi	s2,s2,1
     e26:	08090003          	lb	zero,128(s2)
     e2a:	0100                	addi	s0,sp,128
     e2c:	0d05                	addi	s10,s10,1
     e2e:	08090103          	lb	sp,128(s2)
     e32:	0100                	addi	s0,sp,128
     e34:	0e05                	addi	t3,t3,1
     e36:	10090103          	lb	sp,256(s2)
     e3a:	0100                	addi	s0,sp,128
     e3c:	0705                	addi	a4,a4,1
     e3e:	0c090003          	lb	zero,192(s2)
     e42:	0100                	addi	s0,sp,128
     e44:	2105                	addiw	sp,sp,1
     e46:	04090103          	lb	sp,64(s2)
     e4a:	0100                	addi	s0,sp,128
     e4c:	0905                	addi	s2,s2,1
     e4e:	10090003          	lb	zero,256(s2)
     e52:	0100                	addi	s0,sp,128
     e54:	08090203          	lb	tp,128(s2)
     e58:	0100                	addi	s0,sp,128
     e5a:	0e05                	addi	t3,t3,1
     e5c:	18090203          	lb	tp,384(s2)
     e60:	0100                	addi	s0,sp,128
     e62:	0705                	addi	a4,a4,1
     e64:	0c090003          	lb	zero,192(s2)
     e68:	0100                	addi	s0,sp,128
     e6a:	0b05                	addi	s6,s6,1
     e6c:	04090103          	lb	sp,64(s2)
     e70:	0100                	addi	s0,sp,128
     e72:	0905                	addi	s2,s2,1
     e74:	10090003          	lb	zero,256(s2)
     e78:	0100                	addi	s0,sp,128
     e7a:	2105                	addiw	sp,sp,1
     e7c:	08090203          	lb	tp,128(s2)
     e80:	0100                	addi	s0,sp,128
     e82:	0905                	addi	s2,s2,1
     e84:	10090003          	lb	zero,256(s2)
     e88:	0100                	addi	s0,sp,128
     e8a:	0c090203          	lb	tp,192(s2)
     e8e:	0100                	addi	s0,sp,128
     e90:	1205                	addi	tp,tp,-31
     e92:	097ed503          	lhu	a0,151(t4)
     e96:	0020                	addi	s0,sp,8
     e98:	0501                	addi	a0,a0,0
     e9a:	0009                	c.nop	2
     e9c:	0402                	c.slli64	s0
     e9e:	0301                	addi	t1,t1,0
     ea0:	0900                	addi	s0,sp,144
     ea2:	000c                	0xc
     ea4:	0501                	addi	a0,a0,0
     ea6:	0002                	c.slli64	zero
     ea8:	0402                	c.slli64	s0
     eaa:	0301                	addi	t1,t1,0
     eac:	0900                	addi	s0,sp,144
     eae:	0008                	0x8
     eb0:	0501                	addi	a0,a0,0
     eb2:	01ae0307          	0x1ae0307
     eb6:	0409                	addi	s0,s0,2
     eb8:	0100                	addi	s0,sp,128
     eba:	0d05                	addi	s10,s10,1
     ebc:	08090103          	lb	sp,128(s2)
     ec0:	0100                	addi	s0,sp,128
     ec2:	0105                	addi	sp,sp,1
     ec4:	10090103          	lb	sp,256(s2)
     ec8:	0100                	addi	s0,sp,128
     eca:	14090303          	lb	t1,320(s2)
     ece:	0100                	addi	s0,sp,128
     ed0:	1205                	addi	tp,tp,-31
     ed2:	10090303          	lb	t1,256(s2)
     ed6:	0100                	addi	s0,sp,128
     ed8:	0905                	addi	s2,s2,1
     eda:	10090203          	lb	tp,256(s2)
     ede:	0100                	addi	s0,sp,128
     ee0:	0205                	addi	tp,tp,1
     ee2:	04090003          	lb	zero,64(s2)
     ee6:	0100                	addi	s0,sp,128
     ee8:	1205                	addi	tp,tp,-31
     eea:	0200                	addi	s0,sp,256
     eec:	0304                	addi	s1,sp,384
     eee:	04090103          	lb	sp,64(s2)
     ef2:	0100                	addi	s0,sp,128
     ef4:	0305                	addi	t1,t1,1
     ef6:	0200                	addi	s0,sp,256
     ef8:	0304                	addi	s1,sp,384
     efa:	14090003          	lb	zero,320(s2)
     efe:	0100                	addi	s0,sp,128
     f00:	2105                	addiw	sp,sp,1
     f02:	0200                	addi	s0,sp,256
     f04:	0304                	addi	s1,sp,384
     f06:	0c097f03          	0xc097f03
     f0a:	0100                	addi	s0,sp,128
     f0c:	1005                	c.nop	-31
     f0e:	0200                	addi	s0,sp,256
     f10:	0104                	addi	s1,sp,128
     f12:	0c090003          	lb	zero,192(s2)
     f16:	0100                	addi	s0,sp,128
     f18:	0205                	addi	tp,tp,1
     f1a:	0200                	addi	s0,sp,256
     f1c:	0104                	addi	s1,sp,128
     f1e:	0c090003          	lb	zero,192(s2)
     f22:	0100                	addi	s0,sp,128
     f24:	0b05                	addi	s6,s6,1
     f26:	08090303          	lb	t1,128(s2)
     f2a:	0100                	addi	s0,sp,128
     f2c:	0f05                	addi	t5,t5,1
     f2e:	14090103          	lb	sp,320(s2)
     f32:	0100                	addi	s0,sp,128
     f34:	0105                	addi	sp,sp,1
     f36:	0c090103          	lb	sp,192(s2)
     f3a:	0100                	addi	s0,sp,128
     f3c:	14090303          	lb	t1,320(s2)
     f40:	0100                	addi	s0,sp,128
     f42:	0205                	addi	tp,tp,1
     f44:	30090503          	lb	a0,768(s2)
     f48:	0100                	addi	s0,sp,128
     f4a:	0805                	addi	a6,a6,1
     f4c:	14090103          	lb	sp,320(s2)
     f50:	0100                	addi	s0,sp,128
     f52:	1605                	addi	a2,a2,-31
     f54:	24090403          	lb	s0,576(s2)
     f58:	0100                	addi	s0,sp,128
     f5a:	0505                	addi	a0,a0,1
     f5c:	0c090003          	lb	zero,192(s2)
     f60:	0100                	addi	s0,sp,128
     f62:	0305                	addi	t1,t1,1
     f64:	04090103          	lb	sp,64(s2)
     f68:	0100                	addi	s0,sp,128
     f6a:	1605                	addi	a2,a2,-31
     f6c:	24090103          	lb	sp,576(s2)
     f70:	0100                	addi	s0,sp,128
     f72:	0c05                	addi	s8,s8,1
     f74:	10090003          	lb	zero,256(s2)
     f78:	0100                	addi	s0,sp,128
     f7a:	1005                	c.nop	-31
     f7c:	0c090103          	lb	sp,192(s2)
     f80:	0100                	addi	s0,sp,128
     f82:	0a05                	addi	s4,s4,1
     f84:	20090203          	lb	tp,512(s2)
     f88:	0100                	addi	s0,sp,128
     f8a:	0905                	addi	s2,s2,1
     f8c:	08090303          	lb	t1,128(s2)
     f90:	0100                	addi	s0,sp,128
     f92:	0205                	addi	tp,tp,1
     f94:	04090003          	lb	zero,64(s2)
     f98:	0100                	addi	s0,sp,128
     f9a:	1605                	addi	a2,a2,-31
     f9c:	04090103          	lb	sp,64(s2)
     fa0:	0100                	addi	s0,sp,128
     fa2:	0c05                	addi	s8,s8,1
     fa4:	14090003          	lb	zero,320(s2)
     fa8:	0100                	addi	s0,sp,128
     faa:	0d05                	addi	s10,s10,1
     fac:	0c090103          	lb	sp,192(s2)
     fb0:	0100                	addi	s0,sp,128
     fb2:	1405                	addi	s0,s0,-31
     fb4:	08090103          	lb	sp,128(s2)
     fb8:	0100                	addi	s0,sp,128
     fba:	0305                	addi	t1,t1,1
     fbc:	14090003          	lb	zero,320(s2)
     fc0:	0100                	addi	s0,sp,128
     fc2:	0905                	addi	s2,s2,1
     fc4:	0c090103          	lb	sp,192(s2)
     fc8:	0100                	addi	s0,sp,128
     fca:	0605                	addi	a2,a2,1
     fcc:	04090003          	lb	zero,64(s2)
     fd0:	0100                	addi	s0,sp,128
     fd2:	1805                	addi	a6,a6,-31
     fd4:	0200                	addi	s0,sp,256
     fd6:	0204                	addi	s1,sp,256
     fd8:	0c097c03          	0xc097c03
     fdc:	0100                	addi	s0,sp,128
     fde:	0205                	addi	tp,tp,1
     fe0:	0200                	addi	s0,sp,256
     fe2:	0104                	addi	s1,sp,128
     fe4:	0c090003          	lb	zero,192(s2)
     fe8:	0100                	addi	s0,sp,128
     fea:	0405                	addi	s0,s0,1
     fec:	18090503          	lb	a0,384(s2)
     ff0:	0100                	addi	s0,sp,128
     ff2:	0905                	addi	s2,s2,1
     ff4:	04090203          	lb	tp,64(s2)
     ff8:	0100                	addi	s0,sp,128
     ffa:	0105                	addi	sp,sp,1
     ffc:	0200                	addi	s0,sp,256
     ffe:	0104                	addi	s1,sp,128
    1000:	04090103          	lb	sp,64(s2)
    1004:	0100                	addi	s0,sp,128
    1006:	1409                	addi	s0,s0,-30
    1008:	0000                	unimp
    100a:	0101                	addi	sp,sp,0
    100c:	00df 0000 0003      	0x3000000df
    1012:	00000023          	sb	zero,0(zero) # 0 <_start-0x22000>
    1016:	0101                	addi	sp,sp,0
    1018:	000d0efb          	0xd0efb
    101c:	0101                	addi	sp,sp,0
    101e:	0101                	addi	sp,sp,0
    1020:	0000                	unimp
    1022:	0100                	addi	s0,sp,128
    1024:	0000                	unimp
    1026:	7301                	lui	t1,0xfffe0
    1028:	6372                	ld	t1,280(sp)
    102a:	0000                	unimp
    102c:	69727473          	csrrci	s0,0x697,4
    1030:	676e                	ld	a4,216(sp)
    1032:	632e                	ld	t1,200(sp)
    1034:	0100                	addi	s0,sp,128
    1036:	0000                	unimp
    1038:	0500                	addi	s0,sp,640
    103a:	0001                	nop
    103c:	0209                	addi	tp,tp,2
    103e:	351c                	fld	fa5,40(a0)
    1040:	0002                	c.slli64	zero
    1042:	0000                	unimp
    1044:	0000                	unimp
    1046:	0516                	slli	a0,a0,0x5
    1048:	030a                	slli	t1,t1,0x2
    104a:	00100903          	lb	s2,1(zero) # 1 <_start-0x21fff>
    104e:	0501                	addi	a0,a0,0
    1050:	0302                	c.slli64	t1
    1052:	0900                	addi	s0,sp,144
    1054:	0008                	0x8
    1056:	0501                	addi	a0,a0,0
    1058:	001c                	0x1c
    105a:	0402                	c.slli64	s0
    105c:	09000303          	lb	t1,144(zero) # 90 <_start-0x21f70>
    1060:	0004                	0x4
    1062:	0501                	addi	a0,a0,0
    1064:	0402000f          	0x402000f
    1068:	0301                	addi	t1,t1,0
    106a:	0900                	addi	s0,sp,144
    106c:	000c                	0xc
    106e:	0501                	addi	a0,a0,0
    1070:	0002                	c.slli64	zero
    1072:	0402                	c.slli64	s0
    1074:	0301                	addi	t1,t1,0
    1076:	0900                	addi	s0,sp,144
    1078:	0008                	0x8
    107a:	0501                	addi	a0,a0,0
    107c:	030c                	addi	a1,sp,384
    107e:	00040903          	lb	s2,0(s0)
    1082:	0501                	addi	a0,a0,0
    1084:	0301                	addi	t1,t1,0
    1086:	0901                	addi	s2,s2,0
    1088:	000c                	0xc
    108a:	0301                	addi	t1,t1,0
    108c:	00100903          	lb	s2,1(zero) # 1 <_start-0x21fff>
    1090:	0501                	addi	a0,a0,0
    1092:	0308                	addi	a0,sp,384
    1094:	0901                	addi	s2,s2,0
    1096:	0018                	0x18
    1098:	0501                	addi	a0,a0,0
    109a:	030e                	slli	t1,t1,0x3
    109c:	0901                	addi	s2,s2,0
    109e:	0008                	0x8
    10a0:	0501                	addi	a0,a0,0
    10a2:	0308                	addi	a0,sp,384
    10a4:	0902                	c.slli64	s2
    10a6:	0008                	0x8
    10a8:	0501                	addi	a0,a0,0
    10aa:	030e                	slli	t1,t1,0x3
    10ac:	0901                	addi	s2,s2,0
    10ae:	0004                	0x4
    10b0:	0501                	addi	a0,a0,0
    10b2:	09000307          	vlse8.v	v6,(zero),a6,v0.t
    10b6:	000c                	0xc
    10b8:	0501                	addi	a0,a0,0
    10ba:	030c                	addi	a1,sp,384
    10bc:	0900                	addi	s0,sp,144
    10be:	000c                	0xc
    10c0:	0501                	addi	a0,a0,0
    10c2:	030a                	slli	t1,t1,0x2
    10c4:	0900                	addi	s0,sp,144
    10c6:	0004                	0x4
    10c8:	0501                	addi	a0,a0,0
    10ca:	030e                	slli	t1,t1,0x3
    10cc:	0004097f          	0x4097f
    10d0:	0501                	addi	a0,a0,0
    10d2:	0308                	addi	a0,sp,384
    10d4:	0900                	addi	s0,sp,144
    10d6:	000c                	0xc
    10d8:	0501                	addi	a0,a0,0
    10da:	0309                	addi	t1,t1,2
    10dc:	0902                	c.slli64	s2
    10de:	0004                	0x4
    10e0:	0501                	addi	a0,a0,0
    10e2:	0301                	addi	t1,t1,0
    10e4:	0901                	addi	s2,s2,0
    10e6:	0004                	0x4
    10e8:	0901                	addi	s2,s2,0
    10ea:	0010                	0x10
    10ec:	0100                	addi	s0,sp,128
    10ee:	6f01                	0x6f01
    10f0:	0004                	0x4
    10f2:	0300                	addi	s0,sp,384
    10f4:	4d00                	lw	s0,24(a0)
    10f6:	0000                	unimp
    10f8:	0100                	addi	s0,sp,128
    10fa:	fb01                	bnez	a4,100a <_start-0x20ff6>
    10fc:	0d0e                	slli	s10,s10,0x3
    10fe:	0100                	addi	s0,sp,128
    1100:	0101                	addi	sp,sp,0
    1102:	0001                	nop
    1104:	0000                	unimp
    1106:	0001                	nop
    1108:	0100                	addi	s0,sp,128
    110a:	6e69                	lui	t3,0x1a
    110c:	64756c63          	bltu	a0,t2,1764 <_start-0x2089c>
    1110:	0065                	c.nop	25
    1112:	00637273          	csrrci	tp,0x6,6
    1116:	6900                	ld	s0,16(a0)
    1118:	00682e6f          	jal	t3,8311e <TEXT_ROM+0x5c11e>
    111c:	0001                	nop
    111e:	7300                	ld	s0,32(a4)
    1120:	7379                	lui	t1,0xffffe
    1122:	632d                	lui	t1,0xb
    1124:	6f6c                	ld	a1,216(a4)
    1126:	632e6b63          	bltu	t3,s2,175c <_start-0x208a4>
    112a:	0200                	addi	s0,sp,256
    112c:	0000                	unimp
    112e:	7974                	ld	a3,240(a0)
    1130:	6570                	ld	a2,200(a0)
    1132:	00682e73          	csrrs	t3,0x6,a6
    1136:	0001                	nop
    1138:	7300                	ld	s0,32(a4)
    113a:	6474                	ld	a3,200(s0)
    113c:	6e69                	lui	t3,0x1a
    113e:	2e74                	fld	fa3,216(a2)
    1140:	0068                	addi	a0,sp,12
    1142:	0001                	nop
    1144:	0000                	unimp
    1146:	0105                	addi	sp,sp,1
    1148:	0900                	addi	s0,sp,144
    114a:	dc02                	sw	zero,56(sp)
    114c:	0235                	addi	tp,tp,13
    114e:	0000                	unimp
    1150:	0000                	unimp
    1152:	0300                	addi	s0,sp,384
    1154:	0114                	addi	a3,sp,128
    1156:	0c05                	addi	s8,s8,1
    1158:	10090103          	lb	sp,256(s2)
    115c:	0100                	addi	s0,sp,128
    115e:	0a05                	addi	s4,s4,1
    1160:	04090003          	lb	zero,64(s2)
    1164:	0100                	addi	s0,sp,128
    1166:	0105                	addi	sp,sp,1
    1168:	08090103          	lb	sp,128(s2)
    116c:	0100                	addi	s0,sp,128
    116e:	10091203          	lh	tp,256(s2)
    1172:	0100                	addi	s0,sp,128
    1174:	0405                	addi	s0,s0,1
    1176:	18090103          	lb	sp,384(s2)
    117a:	0100                	addi	s0,sp,128
    117c:	1e05                	addi	t3,t3,-31
    117e:	04090003          	lb	zero,64(s2)
    1182:	0100                	addi	s0,sp,128
    1184:	0105                	addi	sp,sp,1
    1186:	08090103          	lb	sp,128(s2)
    118a:	0100                	addi	s0,sp,128
    118c:	0204                	addi	s1,sp,256
    118e:	10097d03          	0x10097d03
    1192:	0100                	addi	s0,sp,128
    1194:	0505                	addi	a0,a0,1
    1196:	10090803          	lb	a6,256(s2)
    119a:	0100                	addi	s0,sp,128
    119c:	0705                	addi	a4,a4,1
    119e:	0c090103          	lb	sp,192(s2)
    11a2:	0100                	addi	s0,sp,128
    11a4:	0a05                	addi	s4,s4,1
    11a6:	0200                	addi	s0,sp,256
    11a8:	0104                	addi	s1,sp,128
    11aa:	04090003          	lb	zero,64(s2)
    11ae:	0100                	addi	s0,sp,128
    11b0:	0705                	addi	a4,a4,1
    11b2:	0200                	addi	s0,sp,256
    11b4:	0104                	addi	s1,sp,128
    11b6:	0c090003          	lb	zero,192(s2)
    11ba:	0100                	addi	s0,sp,128
    11bc:	0105                	addi	sp,sp,1
    11be:	04090403          	lb	s0,64(s2)
    11c2:	0100                	addi	s0,sp,128
    11c4:	14090303          	lb	t1,320(s2)
    11c8:	0100                	addi	s0,sp,128
    11ca:	0205                	addi	tp,tp,1
    11cc:	10090403          	lb	s0,256(s2)
    11d0:	0100                	addi	s0,sp,128
    11d2:	10090103          	lb	sp,256(s2)
    11d6:	0100                	addi	s0,sp,128
    11d8:	0805                	addi	a6,a6,1
    11da:	08090303          	lb	t1,128(s2)
    11de:	0100                	addi	s0,sp,128
    11e0:	0605                	addi	a2,a2,1
    11e2:	10090103          	lb	sp,256(s2)
    11e6:	0100                	addi	s0,sp,128
    11e8:	0205                	addi	tp,tp,1
    11ea:	14090103          	lb	sp,320(s2)
    11ee:	0100                	addi	s0,sp,128
    11f0:	0805                	addi	a6,a6,1
    11f2:	10090303          	lb	t1,256(s2)
    11f6:	0100                	addi	s0,sp,128
    11f8:	0605                	addi	a2,a2,1
    11fa:	10090103          	lb	sp,256(s2)
    11fe:	0100                	addi	s0,sp,128
    1200:	0205                	addi	tp,tp,1
    1202:	10090103          	lb	sp,256(s2)
    1206:	0100                	addi	s0,sp,128
    1208:	10090103          	lb	sp,256(s2)
    120c:	0100                	addi	s0,sp,128
    120e:	0805                	addi	a6,a6,1
    1210:	08090303          	lb	t1,128(s2)
    1214:	0100                	addi	s0,sp,128
    1216:	0605                	addi	a2,a2,1
    1218:	10090103          	lb	sp,256(s2)
    121c:	0100                	addi	s0,sp,128
    121e:	14090103          	lb	sp,320(s2)
    1222:	0100                	addi	s0,sp,128
    1224:	0205                	addi	tp,tp,1
    1226:	14090103          	lb	sp,320(s2)
    122a:	0100                	addi	s0,sp,128
    122c:	0805                	addi	a6,a6,1
    122e:	10090303          	lb	t1,256(s2)
    1232:	0100                	addi	s0,sp,128
    1234:	0605                	addi	a2,a2,1
    1236:	10090103          	lb	sp,256(s2)
    123a:	0100                	addi	s0,sp,128
    123c:	0205                	addi	tp,tp,1
    123e:	10090103          	lb	sp,256(s2)
    1242:	0100                	addi	s0,sp,128
    1244:	0805                	addi	a6,a6,1
    1246:	10090303          	lb	t1,256(s2)
    124a:	0100                	addi	s0,sp,128
    124c:	0605                	addi	a2,a2,1
    124e:	10090103          	lb	sp,256(s2)
    1252:	0100                	addi	s0,sp,128
    1254:	0205                	addi	tp,tp,1
    1256:	10090103          	lb	sp,256(s2)
    125a:	0100                	addi	s0,sp,128
    125c:	0705                	addi	a4,a4,1
    125e:	10090303          	lb	t1,256(s2)
    1262:	0100                	addi	s0,sp,128
    1264:	0a05                	addi	s4,s4,1
    1266:	0200                	addi	s0,sp,256
    1268:	0104                	addi	s1,sp,128
    126a:	04090003          	lb	zero,64(s2)
    126e:	0100                	addi	s0,sp,128
    1270:	2905                	addiw	s2,s2,1
    1272:	0200                	addi	s0,sp,256
    1274:	0104                	addi	s1,sp,128
    1276:	10090003          	lb	zero,256(s2)
    127a:	0100                	addi	s0,sp,128
    127c:	0705                	addi	a4,a4,1
    127e:	0200                	addi	s0,sp,256
    1280:	0104                	addi	s1,sp,128
    1282:	10090003          	lb	zero,256(s2)
    1286:	0100                	addi	s0,sp,128
    1288:	0205                	addi	tp,tp,1
    128a:	04090103          	lb	sp,64(s2)
    128e:	0100                	addi	s0,sp,128
    1290:	0805                	addi	a6,a6,1
    1292:	08090303          	lb	t1,128(s2)
    1296:	0100                	addi	s0,sp,128
    1298:	0605                	addi	a2,a2,1
    129a:	10090103          	lb	sp,256(s2)
    129e:	0100                	addi	s0,sp,128
    12a0:	0205                	addi	tp,tp,1
    12a2:	10090103          	lb	sp,256(s2)
    12a6:	0100                	addi	s0,sp,128
    12a8:	0805                	addi	a6,a6,1
    12aa:	10090303          	lb	t1,256(s2)
    12ae:	0100                	addi	s0,sp,128
    12b0:	0605                	addi	a2,a2,1
    12b2:	10090103          	lb	sp,256(s2)
    12b6:	0100                	addi	s0,sp,128
    12b8:	0205                	addi	tp,tp,1
    12ba:	14090103          	lb	sp,320(s2)
    12be:	0100                	addi	s0,sp,128
    12c0:	10090103          	lb	sp,256(s2)
    12c4:	0100                	addi	s0,sp,128
    12c6:	0805                	addi	a6,a6,1
    12c8:	08090303          	lb	t1,128(s2)
    12cc:	0100                	addi	s0,sp,128
    12ce:	0605                	addi	a2,a2,1
    12d0:	14090103          	lb	sp,320(s2)
    12d4:	0100                	addi	s0,sp,128
    12d6:	14090103          	lb	sp,320(s2)
    12da:	0100                	addi	s0,sp,128
    12dc:	0205                	addi	tp,tp,1
    12de:	14090103          	lb	sp,320(s2)
    12e2:	0100                	addi	s0,sp,128
    12e4:	14090103          	lb	sp,320(s2)
    12e8:	0100                	addi	s0,sp,128
    12ea:	0105                	addi	sp,sp,1
    12ec:	08090103          	lb	sp,128(s2)
    12f0:	0100                	addi	s0,sp,128
    12f2:	14090303          	lb	t1,320(s2)
    12f6:	0100                	addi	s0,sp,128
    12f8:	0505                	addi	a0,a0,1
    12fa:	10090403          	lb	s0,256(s2)
    12fe:	0100                	addi	s0,sp,128
    1300:	0405                	addi	s0,s0,1
    1302:	18090003          	lb	zero,384(s2)
    1306:	0100                	addi	s0,sp,128
    1308:	0805                	addi	a6,a6,1
    130a:	04090403          	lb	s0,64(s2)
    130e:	0100                	addi	s0,sp,128
    1310:	0605                	addi	a2,a2,1
    1312:	14090103          	lb	sp,320(s2)
    1316:	0100                	addi	s0,sp,128
    1318:	0205                	addi	tp,tp,1
    131a:	14090103          	lb	sp,320(s2)
    131e:	0100                	addi	s0,sp,128
    1320:	14090303          	lb	t1,320(s2)
    1324:	0100                	addi	s0,sp,128
    1326:	0805                	addi	a6,a6,1
    1328:	14090303          	lb	t1,320(s2)
    132c:	0100                	addi	s0,sp,128
    132e:	0605                	addi	a2,a2,1
    1330:	14090103          	lb	sp,320(s2)
    1334:	0100                	addi	s0,sp,128
    1336:	0205                	addi	tp,tp,1
    1338:	10090103          	lb	sp,256(s2)
    133c:	0100                	addi	s0,sp,128
    133e:	0805                	addi	a6,a6,1
    1340:	14090303          	lb	t1,320(s2)
    1344:	0100                	addi	s0,sp,128
    1346:	0605                	addi	a2,a2,1
    1348:	14090103          	lb	sp,320(s2)
    134c:	0100                	addi	s0,sp,128
    134e:	0205                	addi	tp,tp,1
    1350:	10090103          	lb	sp,256(s2)
    1354:	0100                	addi	s0,sp,128
    1356:	0705                	addi	a4,a4,1
    1358:	14090303          	lb	t1,320(s2)
    135c:	0100                	addi	s0,sp,128
    135e:	0a05                	addi	s4,s4,1
    1360:	0200                	addi	s0,sp,256
    1362:	0104                	addi	s1,sp,128
    1364:	04090003          	lb	zero,64(s2)
    1368:	0100                	addi	s0,sp,128
    136a:	2905                	addiw	s2,s2,1
    136c:	0200                	addi	s0,sp,256
    136e:	0104                	addi	s1,sp,128
    1370:	14090003          	lb	zero,320(s2)
    1374:	0100                	addi	s0,sp,128
    1376:	0705                	addi	a4,a4,1
    1378:	0200                	addi	s0,sp,256
    137a:	0104                	addi	s1,sp,128
    137c:	10090003          	lb	zero,256(s2)
    1380:	0100                	addi	s0,sp,128
    1382:	0205                	addi	tp,tp,1
    1384:	04090103          	lb	sp,64(s2)
    1388:	0100                	addi	s0,sp,128
    138a:	0805                	addi	a6,a6,1
    138c:	08090303          	lb	t1,128(s2)
    1390:	0100                	addi	s0,sp,128
    1392:	0605                	addi	a2,a2,1
    1394:	14090103          	lb	sp,320(s2)
    1398:	0100                	addi	s0,sp,128
    139a:	0205                	addi	tp,tp,1
    139c:	14090103          	lb	sp,320(s2)
    13a0:	0100                	addi	s0,sp,128
    13a2:	0305                	addi	t1,t1,1
    13a4:	18096503          	lwu	a0,384(s2)
    13a8:	0100                	addi	s0,sp,128
    13aa:	0105                	addi	sp,sp,1
    13ac:	04091c03          	lh	s8,64(s2)
    13b0:	0100                	addi	s0,sp,128
    13b2:	10090303          	lb	t1,256(s2)
    13b6:	0100                	addi	s0,sp,128
    13b8:	0205                	addi	tp,tp,1
    13ba:	10090103          	lb	sp,256(s2)
    13be:	0100                	addi	s0,sp,128
    13c0:	2205                	addiw	tp,tp,1
    13c2:	10090103          	lb	sp,256(s2)
    13c6:	0100                	addi	s0,sp,128
    13c8:	0205                	addi	tp,tp,1
    13ca:	14090003          	lb	zero,320(s2)
    13ce:	0100                	addi	s0,sp,128
    13d0:	20090103          	lb	sp,512(s2)
    13d4:	0100                	addi	s0,sp,128
    13d6:	0105                	addi	sp,sp,1
    13d8:	08090103          	lb	sp,128(s2)
    13dc:	0100                	addi	s0,sp,128
    13de:	14090303          	lb	t1,320(s2)
    13e2:	0100                	addi	s0,sp,128
    13e4:	0205                	addi	tp,tp,1
    13e6:	10090103          	lb	sp,256(s2)
    13ea:	0100                	addi	s0,sp,128
    13ec:	3105                	addiw	sp,sp,-31
    13ee:	10090103          	lb	sp,256(s2)
    13f2:	0100                	addi	s0,sp,128
    13f4:	0205                	addi	tp,tp,1
    13f6:	14090003          	lb	zero,320(s2)
    13fa:	0100                	addi	s0,sp,128
    13fc:	20090103          	lb	sp,512(s2)
    1400:	0100                	addi	s0,sp,128
    1402:	0105                	addi	sp,sp,1
    1404:	08090103          	lb	sp,128(s2)
    1408:	0100                	addi	s0,sp,128
    140a:	14090303          	lb	t1,320(s2)
    140e:	0100                	addi	s0,sp,128
    1410:	2205                	addiw	tp,tp,1
    1412:	10090203          	lb	tp,256(s2)
    1416:	0100                	addi	s0,sp,128
    1418:	0205                	addi	tp,tp,1
    141a:	14090003          	lb	zero,320(s2)
    141e:	0100                	addi	s0,sp,128
    1420:	20090103          	lb	sp,512(s2)
    1424:	0100                	addi	s0,sp,128
    1426:	2205                	addiw	tp,tp,1
    1428:	08090203          	lb	tp,128(s2)
    142c:	0100                	addi	s0,sp,128
    142e:	0205                	addi	tp,tp,1
    1430:	14090003          	lb	zero,320(s2)
    1434:	0100                	addi	s0,sp,128
    1436:	0105                	addi	sp,sp,1
    1438:	18090103          	lb	sp,384(s2)
    143c:	0100                	addi	s0,sp,128
    143e:	14090303          	lb	t1,320(s2)
    1442:	0100                	addi	s0,sp,128
    1444:	0805                	addi	a6,a6,1
    1446:	10090403          	lb	s0,256(s2)
    144a:	0100                	addi	s0,sp,128
    144c:	0605                	addi	a2,a2,1
    144e:	14090103          	lb	sp,320(s2)
    1452:	0100                	addi	s0,sp,128
    1454:	0205                	addi	tp,tp,1
    1456:	10090103          	lb	sp,256(s2)
    145a:	0100                	addi	s0,sp,128
    145c:	14090103          	lb	sp,320(s2)
    1460:	0100                	addi	s0,sp,128
    1462:	0105                	addi	sp,sp,1
    1464:	08090103          	lb	sp,128(s2)
    1468:	0100                	addi	s0,sp,128
    146a:	14090303          	lb	t1,320(s2)
    146e:	0100                	addi	s0,sp,128
    1470:	0705                	addi	a4,a4,1
    1472:	14090303          	lb	t1,320(s2)
    1476:	0100                	addi	s0,sp,128
    1478:	0505                	addi	a0,a0,1
    147a:	10090003          	lb	zero,256(s2)
    147e:	0100                	addi	s0,sp,128
    1480:	0405                	addi	s0,s0,1
    1482:	04090003          	lb	zero,64(s2)
    1486:	0100                	addi	s0,sp,128
    1488:	0905                	addi	s2,s2,1
    148a:	04090203          	lb	tp,64(s2)
    148e:	0100                	addi	s0,sp,128
    1490:	0305                	addi	t1,t1,1
    1492:	10090103          	lb	sp,256(s2)
    1496:	0100                	addi	s0,sp,128
    1498:	0905                	addi	s2,s2,1
    149a:	1c090303          	lb	t1,448(s2)
    149e:	0100                	addi	s0,sp,128
    14a0:	0705                	addi	a4,a4,1
    14a2:	10090103          	lb	sp,256(s2)
    14a6:	0100                	addi	s0,sp,128
    14a8:	0305                	addi	t1,t1,1
    14aa:	10090103          	lb	sp,256(s2)
    14ae:	0100                	addi	s0,sp,128
    14b0:	0805                	addi	a6,a6,1
    14b2:	10090303          	lb	t1,256(s2)
    14b6:	0100                	addi	s0,sp,128
    14b8:	0b05                	addi	s6,s6,1
    14ba:	0200                	addi	s0,sp,256
    14bc:	0104                	addi	s1,sp,128
    14be:	04090003          	lb	zero,64(s2)
    14c2:	0100                	addi	s0,sp,128
    14c4:	1805                	addi	a6,a6,-31
    14c6:	0200                	addi	s0,sp,256
    14c8:	0104                	addi	s1,sp,128
    14ca:	10090003          	lb	zero,256(s2)
    14ce:	0100                	addi	s0,sp,128
    14d0:	0805                	addi	a6,a6,1
    14d2:	0200                	addi	s0,sp,256
    14d4:	0104                	addi	s1,sp,128
    14d6:	10090003          	lb	zero,256(s2)
    14da:	0100                	addi	s0,sp,128
    14dc:	0305                	addi	t1,t1,1
    14de:	04090103          	lb	sp,64(s2)
    14e2:	0100                	addi	s0,sp,128
    14e4:	0905                	addi	s2,s2,1
    14e6:	08090303          	lb	t1,128(s2)
    14ea:	0100                	addi	s0,sp,128
    14ec:	0705                	addi	a4,a4,1
    14ee:	10090103          	lb	sp,256(s2)
    14f2:	0100                	addi	s0,sp,128
    14f4:	0305                	addi	t1,t1,1
    14f6:	14090103          	lb	sp,320(s2)
    14fa:	0100                	addi	s0,sp,128
    14fc:	0105                	addi	sp,sp,1
    14fe:	10090203          	lb	tp,256(s2)
    1502:	0100                	addi	s0,sp,128
    1504:	14090303          	lb	t1,320(s2)
    1508:	0100                	addi	s0,sp,128
    150a:	0205                	addi	tp,tp,1
    150c:	10090103          	lb	sp,256(s2)
    1510:	0100                	addi	s0,sp,128
    1512:	04090103          	lb	sp,64(s2)
    1516:	0100                	addi	s0,sp,128
    1518:	04090103          	lb	sp,64(s2)
    151c:	0100                	addi	s0,sp,128
    151e:	04090103          	lb	sp,64(s2)
    1522:	0100                	addi	s0,sp,128
    1524:	04090103          	lb	sp,64(s2)
    1528:	0100                	addi	s0,sp,128
    152a:	04090103          	lb	sp,64(s2)
    152e:	0100                	addi	s0,sp,128
    1530:	04090103          	lb	sp,64(s2)
    1534:	0100                	addi	s0,sp,128
    1536:	0c090103          	lb	sp,192(s2)
    153a:	0100                	addi	s0,sp,128
    153c:	0c090103          	lb	sp,192(s2)
    1540:	0100                	addi	s0,sp,128
    1542:	0c090103          	lb	sp,192(s2)
    1546:	0100                	addi	s0,sp,128
    1548:	0c090103          	lb	sp,192(s2)
    154c:	0100                	addi	s0,sp,128
    154e:	0c090103          	lb	sp,192(s2)
    1552:	0100                	addi	s0,sp,128
    1554:	0105                	addi	sp,sp,1
    1556:	0c090103          	lb	sp,192(s2)
    155a:	0100                	addi	s0,sp,128
    155c:	1409                	addi	s0,s0,-30
    155e:	0000                	unimp
    1560:	0101                	addi	sp,sp,0
    1562:	073c                	addi	a5,sp,904
    1564:	0000                	unimp
    1566:	00580003          	lb	zero,5(a6)
    156a:	0000                	unimp
    156c:	0101                	addi	sp,sp,0
    156e:	000d0efb          	0xd0efb
    1572:	0101                	addi	sp,sp,0
    1574:	0101                	addi	sp,sp,0
    1576:	0000                	unimp
    1578:	0100                	addi	s0,sp,128
    157a:	0000                	unimp
    157c:	6901                	0x6901
    157e:	636e                	ld	t1,216(sp)
    1580:	756c                	ld	a1,232(a0)
    1582:	6564                	ld	s1,200(a0)
    1584:	7300                	ld	s0,32(a4)
    1586:	6372                	ld	t1,280(sp)
    1588:	0000                	unimp
    158a:	6f69                	lui	t5,0x1a
    158c:	682e                	ld	a6,200(sp)
    158e:	0100                	addi	s0,sp,128
    1590:	0000                	unimp
    1592:	2d737973          	csrrci	s2,0x2d7,6
    1596:	6175                	addi	sp,sp,368
    1598:	7472                	ld	s0,312(sp)
    159a:	632e                	ld	t1,200(sp)
    159c:	0200                	addi	s0,sp,256
    159e:	0000                	unimp
    15a0:	7974                	ld	a3,240(a0)
    15a2:	6570                	ld	a2,200(a0)
    15a4:	00682e73          	csrrs	t3,0x6,a6
    15a8:	0001                	nop
    15aa:	7300                	ld	s0,32(a4)
    15ac:	6474                	ld	a3,200(s0)
    15ae:	7261                	lui	tp,0xffff8
    15b0:	00682e67          	0x682e67
    15b4:	0001                	nop
    15b6:	7300                	ld	s0,32(a4)
    15b8:	6474                	ld	a3,200(s0)
    15ba:	6e69                	lui	t3,0x1a
    15bc:	2e74                	fld	fa3,216(a2)
    15be:	0068                	addi	a0,sp,12
    15c0:	0001                	nop
    15c2:	0000                	unimp
    15c4:	0105                	addi	sp,sp,1
    15c6:	0900                	addi	s0,sp,144
    15c8:	8c02                	jr	s8
    15ca:	023d                	addi	tp,tp,15
    15cc:	0000                	unimp
    15ce:	0000                	unimp
    15d0:	0300                	addi	s0,sp,384
    15d2:	010a                	slli	sp,sp,0x2
    15d4:	0c05                	addi	s8,s8,1
    15d6:	10090103          	lb	sp,256(s2)
    15da:	0100                	addi	s0,sp,128
    15dc:	0a05                	addi	s4,s4,1
    15de:	04090003          	lb	zero,64(s2)
    15e2:	0100                	addi	s0,sp,128
    15e4:	0105                	addi	sp,sp,1
    15e6:	08090103          	lb	sp,128(s2)
    15ea:	0100                	addi	s0,sp,128
    15ec:	10090803          	lb	a6,256(s2)
    15f0:	0100                	addi	s0,sp,128
    15f2:	0c05                	addi	s8,s8,1
    15f4:	10090103          	lb	sp,256(s2)
    15f8:	0100                	addi	s0,sp,128
    15fa:	0a05                	addi	s4,s4,1
    15fc:	04090003          	lb	zero,64(s2)
    1600:	0100                	addi	s0,sp,128
    1602:	0105                	addi	sp,sp,1
    1604:	08090103          	lb	sp,128(s2)
    1608:	0100                	addi	s0,sp,128
    160a:	10091203          	lh	tp,256(s2)
    160e:	0100                	addi	s0,sp,128
    1610:	0405                	addi	s0,s0,1
    1612:	18090103          	lb	sp,384(s2)
    1616:	0100                	addi	s0,sp,128
    1618:	1e05                	addi	t3,t3,-31
    161a:	04090003          	lb	zero,64(s2)
    161e:	0100                	addi	s0,sp,128
    1620:	0105                	addi	sp,sp,1
    1622:	08090103          	lb	sp,128(s2)
    1626:	0100                	addi	s0,sp,128
    1628:	0204                	addi	s1,sp,256
    162a:	10097503          	0x10097503
    162e:	0100                	addi	s0,sp,128
    1630:	0e05                	addi	t3,t3,1
    1632:	10091103          	lh	sp,256(s2)
    1636:	0100                	addi	s0,sp,128
    1638:	0f05                	addi	t5,t5,1
    163a:	0c090103          	lb	sp,192(s2)
    163e:	0100                	addi	s0,sp,128
    1640:	0d05                	addi	s10,s10,1
    1642:	10090103          	lb	sp,256(s2)
    1646:	0100                	addi	s0,sp,128
    1648:	14090103          	lb	sp,320(s2)
    164c:	0100                	addi	s0,sp,128
    164e:	0905                	addi	s2,s2,1
    1650:	0c090103          	lb	sp,192(s2)
    1654:	0100                	addi	s0,sp,128
    1656:	0f05                	addi	t5,t5,1
    1658:	10090203          	lb	tp,256(s2)
    165c:	0100                	addi	s0,sp,128
    165e:	0d05                	addi	s10,s10,1
    1660:	10090103          	lb	sp,256(s2)
    1664:	0100                	addi	s0,sp,128
    1666:	14090103          	lb	sp,320(s2)
    166a:	0100                	addi	s0,sp,128
    166c:	0905                	addi	s2,s2,1
    166e:	10090103          	lb	sp,256(s2)
    1672:	0100                	addi	s0,sp,128
    1674:	0705                	addi	a4,a4,1
    1676:	10090303          	lb	t1,256(s2)
    167a:	0100                	addi	s0,sp,128
    167c:	0805                	addi	a6,a6,1
    167e:	0c090103          	lb	sp,192(s2)
    1682:	0100                	addi	s0,sp,128
    1684:	0605                	addi	a2,a2,1
    1686:	10090103          	lb	sp,256(s2)
    168a:	0100                	addi	s0,sp,128
    168c:	0205                	addi	tp,tp,1
    168e:	0c090103          	lb	sp,192(s2)
    1692:	0100                	addi	s0,sp,128
    1694:	0705                	addi	a4,a4,1
    1696:	10090303          	lb	t1,256(s2)
    169a:	0100                	addi	s0,sp,128
    169c:	0805                	addi	a6,a6,1
    169e:	0c090103          	lb	sp,192(s2)
    16a2:	0100                	addi	s0,sp,128
    16a4:	0605                	addi	a2,a2,1
    16a6:	10090103          	lb	sp,256(s2)
    16aa:	0100                	addi	s0,sp,128
    16ac:	0205                	addi	tp,tp,1
    16ae:	10090103          	lb	sp,256(s2)
    16b2:	0100                	addi	s0,sp,128
    16b4:	0705                	addi	a4,a4,1
    16b6:	10090303          	lb	t1,256(s2)
    16ba:	0100                	addi	s0,sp,128
    16bc:	0205                	addi	tp,tp,1
    16be:	08090103          	lb	sp,128(s2)
    16c2:	0100                	addi	s0,sp,128
    16c4:	14090103          	lb	sp,320(s2)
    16c8:	0100                	addi	s0,sp,128
    16ca:	14090103          	lb	sp,320(s2)
    16ce:	0100                	addi	s0,sp,128
    16d0:	0805                	addi	a6,a6,1
    16d2:	14090103          	lb	sp,320(s2)
    16d6:	0100                	addi	s0,sp,128
    16d8:	0605                	addi	a2,a2,1
    16da:	18090103          	lb	sp,384(s2)
    16de:	0100                	addi	s0,sp,128
    16e0:	0205                	addi	tp,tp,1
    16e2:	0c090103          	lb	sp,192(s2)
    16e6:	0100                	addi	s0,sp,128
    16e8:	18090103          	lb	sp,384(s2)
    16ec:	0100                	addi	s0,sp,128
    16ee:	0c090103          	lb	sp,192(s2)
    16f2:	0100                	addi	s0,sp,128
    16f4:	0805                	addi	a6,a6,1
    16f6:	14090103          	lb	sp,320(s2)
    16fa:	0100                	addi	s0,sp,128
    16fc:	0605                	addi	a2,a2,1
    16fe:	18090103          	lb	sp,384(s2)
    1702:	0100                	addi	s0,sp,128
    1704:	0205                	addi	tp,tp,1
    1706:	0c090103          	lb	sp,192(s2)
    170a:	0100                	addi	s0,sp,128
    170c:	0805                	addi	a6,a6,1
    170e:	18090103          	lb	sp,384(s2)
    1712:	0100                	addi	s0,sp,128
    1714:	0605                	addi	a2,a2,1
    1716:	18090103          	lb	sp,384(s2)
    171a:	0100                	addi	s0,sp,128
    171c:	0c090103          	lb	sp,192(s2)
    1720:	0100                	addi	s0,sp,128
    1722:	0205                	addi	tp,tp,1
    1724:	0c090103          	lb	sp,192(s2)
    1728:	0100                	addi	s0,sp,128
    172a:	0105                	addi	sp,sp,1
    172c:	18090103          	lb	sp,384(s2)
    1730:	0100                	addi	s0,sp,128
    1732:	14090303          	lb	t1,320(s2)
    1736:	0100                	addi	s0,sp,128
    1738:	1105                	addi	sp,sp,-31
    173a:	18090103          	lb	sp,384(s2)
    173e:	0100                	addi	s0,sp,128
    1740:	0705                	addi	a4,a4,1
    1742:	08090203          	lb	tp,128(s2)
    1746:	0100                	addi	s0,sp,128
    1748:	0905                	addi	s2,s2,1
    174a:	0200                	addi	s0,sp,256
    174c:	0104                	addi	s1,sp,128
    174e:	04090003          	lb	zero,64(s2)
    1752:	0100                	addi	s0,sp,128
    1754:	1d05                	addi	s10,s10,-31
    1756:	0200                	addi	s0,sp,256
    1758:	0104                	addi	s1,sp,128
    175a:	18090003          	lb	zero,384(s2)
    175e:	0100                	addi	s0,sp,128
    1760:	0705                	addi	a4,a4,1
    1762:	0200                	addi	s0,sp,256
    1764:	0104                	addi	s1,sp,128
    1766:	08090003          	lb	zero,128(s2)
    176a:	0100                	addi	s0,sp,128
    176c:	0205                	addi	tp,tp,1
    176e:	04090103          	lb	sp,64(s2)
    1772:	0100                	addi	s0,sp,128
    1774:	0105                	addi	sp,sp,1
    1776:	14090103          	lb	sp,320(s2)
    177a:	0100                	addi	s0,sp,128
    177c:	14090303          	lb	t1,320(s2)
    1780:	0100                	addi	s0,sp,128
    1782:	0205                	addi	tp,tp,1
    1784:	18090103          	lb	sp,384(s2)
    1788:	0100                	addi	s0,sp,128
    178a:	0905                	addi	s2,s2,1
    178c:	10090103          	lb	sp,256(s2)
    1790:	0100                	addi	s0,sp,128
    1792:	0105                	addi	sp,sp,1
    1794:	04090103          	lb	sp,64(s2)
    1798:	0100                	addi	s0,sp,128
    179a:	14090303          	lb	t1,320(s2)
    179e:	0100                	addi	s0,sp,128
    17a0:	1105                	addi	sp,sp,-31
    17a2:	10090103          	lb	sp,256(s2)
    17a6:	0100                	addi	s0,sp,128
    17a8:	0705                	addi	a4,a4,1
    17aa:	08090203          	lb	tp,128(s2)
    17ae:	0100                	addi	s0,sp,128
    17b0:	0905                	addi	s2,s2,1
    17b2:	0200                	addi	s0,sp,256
    17b4:	0104                	addi	s1,sp,128
    17b6:	04090003          	lb	zero,64(s2)
    17ba:	0100                	addi	s0,sp,128
    17bc:	1d05                	addi	s10,s10,-31
    17be:	0200                	addi	s0,sp,256
    17c0:	0104                	addi	s1,sp,128
    17c2:	18090003          	lb	zero,384(s2)
    17c6:	0100                	addi	s0,sp,128
    17c8:	0705                	addi	a4,a4,1
    17ca:	0200                	addi	s0,sp,256
    17cc:	0104                	addi	s1,sp,128
    17ce:	08090003          	lb	zero,128(s2)
    17d2:	0100                	addi	s0,sp,128
    17d4:	0905                	addi	s2,s2,1
    17d6:	04090103          	lb	sp,64(s2)
    17da:	0100                	addi	s0,sp,128
    17dc:	0105                	addi	sp,sp,1
    17de:	0c090103          	lb	sp,192(s2)
    17e2:	0100                	addi	s0,sp,128
    17e4:	14090303          	lb	t1,320(s2)
    17e8:	0100                	addi	s0,sp,128
    17ea:	0c05                	addi	s8,s8,1
    17ec:	14090303          	lb	t1,320(s2)
    17f0:	0100                	addi	s0,sp,128
    17f2:	0505                	addi	a0,a0,1
    17f4:	04090003          	lb	zero,64(s2)
    17f8:	0100                	addi	s0,sp,128
    17fa:	1005                	c.nop	-31
    17fc:	04090203          	lb	tp,64(s2)
    1800:	0100                	addi	s0,sp,128
    1802:	0c05                	addi	s8,s8,1
    1804:	10090003          	lb	zero,256(s2)
    1808:	0100                	addi	s0,sp,128
    180a:	0d05                	addi	s10,s10,1
    180c:	0c090103          	lb	sp,192(s2)
    1810:	0100                	addi	s0,sp,128
    1812:	1d05                	addi	s10,s10,-31
    1814:	0200                	addi	s0,sp,256
    1816:	0204                	addi	s1,sp,256
    1818:	08090103          	lb	sp,128(s2)
    181c:	0100                	addi	s0,sp,128
    181e:	0905                	addi	s2,s2,1
    1820:	0200                	addi	s0,sp,256
    1822:	0204                	addi	s1,sp,256
    1824:	0c090003          	lb	zero,192(s2)
    1828:	0100                	addi	s0,sp,128
    182a:	2205                	addiw	tp,tp,1
    182c:	0200                	addi	s0,sp,256
    182e:	0204                	addi	s1,sp,256
    1830:	0c097c03          	0xc097c03
    1834:	0100                	addi	s0,sp,128
    1836:	1405                	addi	s0,s0,-31
    1838:	0200                	addi	s0,sp,256
    183a:	0104                	addi	s1,sp,128
    183c:	0c090003          	lb	zero,192(s2)
    1840:	0100                	addi	s0,sp,128
    1842:	0505                	addi	a0,a0,1
    1844:	0200                	addi	s0,sp,256
    1846:	0104                	addi	s1,sp,128
    1848:	10090003          	lb	zero,256(s2)
    184c:	0100                	addi	s0,sp,128
    184e:	0105                	addi	sp,sp,1
    1850:	04090603          	lb	a2,64(s2)
    1854:	0100                	addi	s0,sp,128
    1856:	18090303          	lb	t1,384(s2)
    185a:	0100                	addi	s0,sp,128
    185c:	0605                	addi	a2,a2,1
    185e:	14090403          	lb	s0,320(s2)
    1862:	0100                	addi	s0,sp,128
    1864:	0805                	addi	a6,a6,1
    1866:	04090103          	lb	sp,64(s2)
    186a:	0100                	addi	s0,sp,128
    186c:	0205                	addi	tp,tp,1
    186e:	08090003          	lb	zero,128(s2)
    1872:	0100                	addi	s0,sp,128
    1874:	0a05                	addi	s4,s4,1
    1876:	04090203          	lb	tp,64(s2)
    187a:	0100                	addi	s0,sp,128
    187c:	1405                	addi	s0,s0,-31
    187e:	08090003          	lb	zero,128(s2)
    1882:	0100                	addi	s0,sp,128
    1884:	1705                	addi	a4,a4,-31
    1886:	0200                	addi	s0,sp,256
    1888:	0104                	addi	s1,sp,128
    188a:	0c090003          	lb	zero,192(s2)
    188e:	0100                	addi	s0,sp,128
    1890:	1405                	addi	s0,s0,-31
    1892:	0200                	addi	s0,sp,256
    1894:	0104                	addi	s1,sp,128
    1896:	08090003          	lb	zero,128(s2)
    189a:	0100                	addi	s0,sp,128
    189c:	0200                	addi	s0,sp,256
    189e:	0304                	addi	s1,sp,384
    18a0:	0306                	slli	t1,t1,0x1
    18a2:	0900                	addi	s0,sp,144
    18a4:	000c                	0xc
    18a6:	0001                	nop
    18a8:	0402                	c.slli64	s0
    18aa:	0304                	addi	s1,sp,384
    18ac:	0900                	addi	s0,sp,144
    18ae:	0008                	0x8
    18b0:	0501                	addi	a0,a0,0
    18b2:	04020007          	vluxei8.v	v0,(tp),v0,v0.t
    18b6:	0606                	slli	a2,a2,0x1
    18b8:	04090003          	lb	zero,64(s2)
    18bc:	0100                	addi	s0,sp,128
    18be:	0505                	addi	a0,a0,1
    18c0:	0200                	addi	s0,sp,256
    18c2:	0604                	addi	s1,sp,768
    18c4:	04090103          	lb	sp,64(s2)
    18c8:	0100                	addi	s0,sp,128
    18ca:	0705                	addi	a4,a4,1
    18cc:	0200                	addi	s0,sp,256
    18ce:	0204                	addi	s1,sp,256
    18d0:	0c090203          	lb	tp,192(s2)
    18d4:	0100                	addi	s0,sp,128
    18d6:	0505                	addi	a0,a0,1
    18d8:	0200                	addi	s0,sp,256
    18da:	0204                	addi	s1,sp,256
    18dc:	0c090003          	lb	zero,192(s2)
    18e0:	0100                	addi	s0,sp,128
    18e2:	0705                	addi	a4,a4,1
    18e4:	0200                	addi	s0,sp,256
    18e6:	0204                	addi	s1,sp,256
    18e8:	08090103          	lb	sp,128(s2)
    18ec:	0100                	addi	s0,sp,128
    18ee:	0200                	addi	s0,sp,256
    18f0:	0204                	addi	s1,sp,256
    18f2:	18090103          	lb	sp,384(s2)
    18f6:	0100                	addi	s0,sp,128
    18f8:	1e05                	addi	t3,t3,-31
    18fa:	0200                	addi	s0,sp,256
    18fc:	0204                	addi	s1,sp,256
    18fe:	10097903          	0x10097903
    1902:	0100                	addi	s0,sp,128
    1904:	0f05                	addi	t5,t5,1
    1906:	0200                	addi	s0,sp,256
    1908:	0104                	addi	s1,sp,128
    190a:	0c090003          	lb	zero,192(s2)
    190e:	0100                	addi	s0,sp,128
    1910:	0205                	addi	tp,tp,1
    1912:	0200                	addi	s0,sp,256
    1914:	0104                	addi	s1,sp,128
    1916:	08090003          	lb	zero,128(s2)
    191a:	0100                	addi	s0,sp,128
    191c:	0405                	addi	s0,s0,1
    191e:	08090403          	lb	s0,128(s2)
    1922:	0100                	addi	s0,sp,128
    1924:	0705                	addi	a4,a4,1
    1926:	04090503          	lb	a0,64(s2)
    192a:	0100                	addi	s0,sp,128
    192c:	1205                	addi	tp,tp,-31
    192e:	0c090103          	lb	sp,192(s2)
    1932:	0100                	addi	s0,sp,128
    1934:	0a05                	addi	s4,s4,1
    1936:	0c090003          	lb	zero,192(s2)
    193a:	0100                	addi	s0,sp,128
    193c:	0105                	addi	sp,sp,1
    193e:	04090103          	lb	sp,64(s2)
    1942:	0100                	addi	s0,sp,128
    1944:	10090303          	lb	t1,256(s2)
    1948:	0100                	addi	s0,sp,128
    194a:	0805                	addi	a6,a6,1
    194c:	34090503          	lb	a0,832(s2)
    1950:	0100                	addi	s0,sp,128
    1952:	0205                	addi	tp,tp,1
    1954:	04090003          	lb	zero,64(s2)
    1958:	0100                	addi	s0,sp,128
    195a:	0a05                	addi	s4,s4,1
    195c:	0200                	addi	s0,sp,256
    195e:	0304                	addi	s1,sp,384
    1960:	04090103          	lb	sp,64(s2)
    1964:	0100                	addi	s0,sp,128
    1966:	1f05                	addi	t5,t5,-31
    1968:	0200                	addi	s0,sp,256
    196a:	0304                	addi	s1,sp,384
    196c:	18097f03          	0x18097f03
    1970:	0100                	addi	s0,sp,128
    1972:	0f05                	addi	t5,t5,1
    1974:	0200                	addi	s0,sp,256
    1976:	0104                	addi	s1,sp,128
    1978:	0c090003          	lb	zero,192(s2)
    197c:	0100                	addi	s0,sp,128
    197e:	0205                	addi	tp,tp,1
    1980:	0200                	addi	s0,sp,256
    1982:	0104                	addi	s1,sp,128
    1984:	04090003          	lb	zero,64(s2)
    1988:	0100                	addi	s0,sp,128
    198a:	0705                	addi	a4,a4,1
    198c:	0c090203          	lb	tp,192(s2)
    1990:	0100                	addi	s0,sp,128
    1992:	0405                	addi	s0,s0,1
    1994:	08090103          	lb	sp,128(s2)
    1998:	0100                	addi	s0,sp,128
    199a:	0805                	addi	a6,a6,1
    199c:	0c090103          	lb	sp,192(s2)
    19a0:	0100                	addi	s0,sp,128
    19a2:	0605                	addi	a2,a2,1
    19a4:	08090203          	lb	tp,128(s2)
    19a8:	0100                	addi	s0,sp,128
    19aa:	0905                	addi	s2,s2,1
    19ac:	04090203          	lb	tp,64(s2)
    19b0:	0100                	addi	s0,sp,128
    19b2:	0505                	addi	a0,a0,1
    19b4:	10090003          	lb	zero,256(s2)
    19b8:	0100                	addi	s0,sp,128
    19ba:	04090103          	lb	sp,64(s2)
    19be:	0100                	addi	s0,sp,128
    19c0:	1605                	addi	a2,a2,-31
    19c2:	10090103          	lb	sp,256(s2)
    19c6:	0100                	addi	s0,sp,128
    19c8:	0d05                	addi	s10,s10,1
    19ca:	10090003          	lb	zero,256(s2)
    19ce:	0100                	addi	s0,sp,128
    19d0:	1105                	addi	sp,sp,-31
    19d2:	14090203          	lb	tp,320(s2)
    19d6:	0100                	addi	s0,sp,128
    19d8:	0d05                	addi	s10,s10,1
    19da:	10090003          	lb	zero,256(s2)
    19de:	0100                	addi	s0,sp,128
    19e0:	0505                	addi	a0,a0,1
    19e2:	10090103          	lb	sp,256(s2)
    19e6:	0100                	addi	s0,sp,128
    19e8:	0605                	addi	a2,a2,1
    19ea:	10090103          	lb	sp,256(s2)
    19ee:	0100                	addi	s0,sp,128
    19f0:	0205                	addi	tp,tp,1
    19f2:	0c090103          	lb	sp,192(s2)
    19f6:	0100                	addi	s0,sp,128
    19f8:	0405                	addi	s0,s0,1
    19fa:	0c090203          	lb	tp,192(s2)
    19fe:	0100                	addi	s0,sp,128
    1a00:	0905                	addi	s2,s2,1
    1a02:	0c090203          	lb	tp,192(s2)
    1a06:	0100                	addi	s0,sp,128
    1a08:	0505                	addi	a0,a0,1
    1a0a:	04090003          	lb	zero,64(s2)
    1a0e:	0100                	addi	s0,sp,128
    1a10:	0705                	addi	a4,a4,1
    1a12:	0c090103          	lb	sp,192(s2)
    1a16:	0100                	addi	s0,sp,128
    1a18:	0505                	addi	a0,a0,1
    1a1a:	08090103          	lb	sp,128(s2)
    1a1e:	0100                	addi	s0,sp,128
    1a20:	0805                	addi	a6,a6,1
    1a22:	14090103          	lb	sp,320(s2)
    1a26:	0100                	addi	s0,sp,128
    1a28:	0b05                	addi	s6,s6,1
    1a2a:	08090203          	lb	tp,128(s2)
    1a2e:	0100                	addi	s0,sp,128
    1a30:	0805                	addi	a6,a6,1
    1a32:	10090203          	lb	tp,256(s2)
    1a36:	0100                	addi	s0,sp,128
    1a38:	0205                	addi	tp,tp,1
    1a3a:	0c090003          	lb	zero,192(s2)
    1a3e:	0100                	addi	s0,sp,128
    1a40:	0305                	addi	t1,t1,1
    1a42:	0200                	addi	s0,sp,256
    1a44:	0304                	addi	s1,sp,384
    1a46:	04090103          	lb	sp,64(s2)
    1a4a:	0100                	addi	s0,sp,128
    1a4c:	1c05                	addi	s8,s8,-31
    1a4e:	0200                	addi	s0,sp,256
    1a50:	0304                	addi	s1,sp,384
    1a52:	18097f03          	0x18097f03
    1a56:	0100                	addi	s0,sp,128
    1a58:	0205                	addi	tp,tp,1
    1a5a:	0200                	addi	s0,sp,256
    1a5c:	0104                	addi	s1,sp,128
    1a5e:	0c090003          	lb	zero,192(s2)
    1a62:	0100                	addi	s0,sp,128
    1a64:	0105                	addi	sp,sp,1
    1a66:	0c090203          	lb	tp,192(s2)
    1a6a:	0100                	addi	s0,sp,128
    1a6c:	18090303          	lb	t1,384(s2)
    1a70:	0100                	addi	s0,sp,128
    1a72:	0505                	addi	a0,a0,1
    1a74:	18090503          	lb	a0,384(s2)
    1a78:	0100                	addi	s0,sp,128
    1a7a:	0805                	addi	a6,a6,1
    1a7c:	08090103          	lb	sp,128(s2)
    1a80:	0100                	addi	s0,sp,128
    1a82:	0205                	addi	tp,tp,1
    1a84:	08090003          	lb	zero,128(s2)
    1a88:	0100                	addi	s0,sp,128
    1a8a:	0505                	addi	a0,a0,1
    1a8c:	04090203          	lb	tp,64(s2)
    1a90:	0100                	addi	s0,sp,128
    1a92:	0605                	addi	a2,a2,1
    1a94:	04090103          	lb	sp,64(s2)
    1a98:	0100                	addi	s0,sp,128
    1a9a:	0705                	addi	a4,a4,1
    1a9c:	04090103          	lb	sp,64(s2)
    1aa0:	0100                	addi	s0,sp,128
    1aa2:	0505                	addi	a0,a0,1
    1aa4:	08090003          	lb	zero,128(s2)
    1aa8:	0100                	addi	s0,sp,128
    1aaa:	04090103          	lb	sp,64(s2)
    1aae:	0100                	addi	s0,sp,128
    1ab0:	0605                	addi	a2,a2,1
    1ab2:	08090103          	lb	sp,128(s2)
    1ab6:	0100                	addi	s0,sp,128
    1ab8:	0505                	addi	a0,a0,1
    1aba:	08090003          	lb	zero,128(s2)
    1abe:	0100                	addi	s0,sp,128
    1ac0:	0605                	addi	a2,a2,1
    1ac2:	0c090203          	lb	tp,192(s2)
    1ac6:	0100                	addi	s0,sp,128
    1ac8:	0505                	addi	a0,a0,1
    1aca:	08090103          	lb	sp,128(s2)
    1ace:	0100                	addi	s0,sp,128
    1ad0:	0705                	addi	a4,a4,1
    1ad2:	0c090103          	lb	sp,192(s2)
    1ad6:	0100                	addi	s0,sp,128
    1ad8:	0605                	addi	a2,a2,1
    1ada:	08090003          	lb	zero,128(s2)
    1ade:	0100                	addi	s0,sp,128
    1ae0:	1405                	addi	s0,s0,-31
    1ae2:	0200                	addi	s0,sp,256
    1ae4:	0104                	addi	s1,sp,128
    1ae6:	0c090003          	lb	zero,192(s2)
    1aea:	0100                	addi	s0,sp,128
    1aec:	1105                	addi	sp,sp,-31
    1aee:	0200                	addi	s0,sp,256
    1af0:	0104                	addi	s1,sp,128
    1af2:	08090003          	lb	zero,128(s2)
    1af6:	0100                	addi	s0,sp,128
    1af8:	0a05                	addi	s4,s4,1
    1afa:	0c090103          	lb	sp,192(s2)
    1afe:	0100                	addi	s0,sp,128
    1b00:	0705                	addi	a4,a4,1
    1b02:	18090003          	lb	zero,384(s2)
    1b06:	0100                	addi	s0,sp,128
    1b08:	0805                	addi	a6,a6,1
    1b0a:	0c090103          	lb	sp,192(s2)
    1b0e:	0100                	addi	s0,sp,128
    1b10:	0605                	addi	a2,a2,1
    1b12:	08090003          	lb	zero,128(s2)
    1b16:	0100                	addi	s0,sp,128
    1b18:	0505                	addi	a0,a0,1
    1b1a:	04090203          	lb	tp,64(s2)
    1b1e:	0100                	addi	s0,sp,128
    1b20:	1105                	addi	sp,sp,-31
    1b22:	0200                	addi	s0,sp,256
    1b24:	0104                	addi	s1,sp,128
    1b26:	10090003          	lb	zero,256(s2)
    1b2a:	0100                	addi	s0,sp,128
    1b2c:	0805                	addi	a6,a6,1
    1b2e:	10090203          	lb	tp,256(s2)
    1b32:	0100                	addi	s0,sp,128
    1b34:	0405                	addi	s0,s0,1
    1b36:	14090103          	lb	sp,320(s2)
    1b3a:	0100                	addi	s0,sp,128
    1b3c:	0a05                	addi	s4,s4,1
    1b3e:	38090403          	lb	s0,896(s2)
    1b42:	0100                	addi	s0,sp,128
    1b44:	0405                	addi	s0,s0,1
    1b46:	04090003          	lb	zero,64(s2)
    1b4a:	0100                	addi	s0,sp,128
    1b4c:	1005                	c.nop	-31
    1b4e:	0200                	addi	s0,sp,256
    1b50:	0304                	addi	s1,sp,384
    1b52:	04090103          	lb	sp,64(s2)
    1b56:	0100                	addi	s0,sp,128
    1b58:	0505                	addi	a0,a0,1
    1b5a:	0200                	addi	s0,sp,256
    1b5c:	0304                	addi	s1,sp,384
    1b5e:	0c090003          	lb	zero,192(s2)
    1b62:	0100                	addi	s0,sp,128
    1b64:	1d05                	addi	s10,s10,-31
    1b66:	0200                	addi	s0,sp,256
    1b68:	0304                	addi	s1,sp,384
    1b6a:	0c097f03          	0xc097f03
    1b6e:	0100                	addi	s0,sp,128
    1b70:	1105                	addi	sp,sp,-31
    1b72:	0200                	addi	s0,sp,256
    1b74:	0104                	addi	s1,sp,128
    1b76:	0c090003          	lb	zero,192(s2)
    1b7a:	0100                	addi	s0,sp,128
    1b7c:	1605                	addi	a2,a2,-31
    1b7e:	0200                	addi	s0,sp,256
    1b80:	0104                	addi	s1,sp,128
    1b82:	04090003          	lb	zero,64(s2)
    1b86:	0100                	addi	s0,sp,128
    1b88:	0405                	addi	s0,s0,1
    1b8a:	0200                	addi	s0,sp,256
    1b8c:	0104                	addi	s1,sp,128
    1b8e:	0c090003          	lb	zero,192(s2)
    1b92:	0100                	addi	s0,sp,128
    1b94:	0805                	addi	a6,a6,1
    1b96:	04090203          	lb	tp,64(s2)
    1b9a:	0100                	addi	s0,sp,128
    1b9c:	0200                	addi	s0,sp,256
    1b9e:	0104                	addi	s1,sp,128
    1ba0:	0306                	slli	t1,t1,0x1
    1ba2:	0900                	addi	s0,sp,144
    1ba4:	000c                	0xc
    1ba6:	0001                	nop
    1ba8:	0402                	c.slli64	s0
    1baa:	0302                	c.slli64	t1
    1bac:	0900                	addi	s0,sp,144
    1bae:	000c                	0xc
    1bb0:	0501                	addi	a0,a0,0
    1bb2:	0006                	c.slli	zero,0x1
    1bb4:	0402                	c.slli64	s0
    1bb6:	0604                	addi	s1,sp,768
    1bb8:	08090003          	lb	zero,128(s2)
    1bbc:	0100                	addi	s0,sp,128
    1bbe:	0405                	addi	s0,s0,1
    1bc0:	0200                	addi	s0,sp,256
    1bc2:	0404                	addi	s1,sp,512
    1bc4:	04090103          	lb	sp,64(s2)
    1bc8:	0100                	addi	s0,sp,128
    1bca:	1c05                	addi	s8,s8,-31
    1bcc:	0200                	addi	s0,sp,256
    1bce:	0204                	addi	s1,sp,256
    1bd0:	0c096803          	lwu	a6,192(s2)
    1bd4:	0100                	addi	s0,sp,128
    1bd6:	0f05                	addi	t5,t5,1
    1bd8:	0200                	addi	s0,sp,256
    1bda:	0104                	addi	s1,sp,128
    1bdc:	0c090003          	lb	zero,192(s2)
    1be0:	0100                	addi	s0,sp,128
    1be2:	0205                	addi	tp,tp,1
    1be4:	0200                	addi	s0,sp,256
    1be6:	0104                	addi	s1,sp,128
    1be8:	08090003          	lb	zero,128(s2)
    1bec:	0100                	addi	s0,sp,128
    1bee:	0905                	addi	s2,s2,1
    1bf0:	04091b03          	lh	s6,64(s2)
    1bf4:	0100                	addi	s0,sp,128
    1bf6:	0105                	addi	sp,sp,1
    1bf8:	04090103          	lb	sp,64(s2)
    1bfc:	0100                	addi	s0,sp,128
    1bfe:	14090303          	lb	t1,320(s2)
    1c02:	0100                	addi	s0,sp,128
    1c04:	0205                	addi	tp,tp,1
    1c06:	30090403          	lb	s0,768(s2)
    1c0a:	0100                	addi	s0,sp,128
    1c0c:	14090103          	lb	sp,320(s2)
    1c10:	0100                	addi	s0,sp,128
    1c12:	0905                	addi	s2,s2,1
    1c14:	10090303          	lb	t1,256(s2)
    1c18:	0100                	addi	s0,sp,128
    1c1a:	0105                	addi	sp,sp,1
    1c1c:	04090103          	lb	sp,64(s2)
    1c20:	0100                	addi	s0,sp,128
    1c22:	14090403          	lb	s0,320(s2)
    1c26:	0100                	addi	s0,sp,128
    1c28:	0505                	addi	a0,a0,1
    1c2a:	18090403          	lb	s0,384(s2)
    1c2e:	0100                	addi	s0,sp,128
    1c30:	08090103          	lb	sp,128(s2)
    1c34:	0100                	addi	s0,sp,128
    1c36:	0c05                	addi	s8,s8,1
    1c38:	08090203          	lb	tp,128(s2)
    1c3c:	0100                	addi	s0,sp,128
    1c3e:	0505                	addi	a0,a0,1
    1c40:	08090003          	lb	zero,128(s2)
    1c44:	0100                	addi	s0,sp,128
    1c46:	1705                	addi	a4,a4,-31
    1c48:	04090203          	lb	tp,64(s2)
    1c4c:	0100                	addi	s0,sp,128
    1c4e:	1305                	addi	t1,t1,-31
    1c50:	0c090003          	lb	zero,192(s2)
    1c54:	0100                	addi	s0,sp,128
    1c56:	1c05                	addi	s8,s8,-31
    1c58:	10090003          	lb	zero,256(s2)
    1c5c:	0100                	addi	s0,sp,128
    1c5e:	0e05                	addi	t3,t3,1
    1c60:	04090003          	lb	zero,64(s2)
    1c64:	0100                	addi	s0,sp,128
    1c66:	0c05                	addi	s8,s8,1
    1c68:	08090103          	lb	sp,128(s2)
    1c6c:	0100                	addi	s0,sp,128
    1c6e:	0d05                	addi	s10,s10,1
    1c70:	10090103          	lb	sp,256(s2)
    1c74:	0100                	addi	s0,sp,128
    1c76:	1c090203          	lb	tp,448(s2)
    1c7a:	0100                	addi	s0,sp,128
    1c7c:	1a05                	addi	s4,s4,-31
    1c7e:	0200                	addi	s0,sp,256
    1c80:	0204                	addi	s1,sp,256
    1c82:	18097a03          	0x18097a03
    1c86:	0100                	addi	s0,sp,128
    1c88:	0505                	addi	a0,a0,1
    1c8a:	0200                	addi	s0,sp,256
    1c8c:	0104                	addi	s1,sp,128
    1c8e:	0c090003          	lb	zero,192(s2)
    1c92:	0100                	addi	s0,sp,128
    1c94:	0105                	addi	sp,sp,1
    1c96:	0c090803          	lb	a6,192(s2)
    1c9a:	0100                	addi	s0,sp,128
    1c9c:	1809                	addi	a6,a6,-30
    1c9e:	0000                	unimp
    1ca0:	0101                	addi	sp,sp,0
    1ca2:	0271                	addi	tp,tp,28
    1ca4:	0000                	unimp
    1ca6:	00250003          	lb	zero,2(a0) # 308030e <TEXT_ROM+0x305930e>
    1caa:	0000                	unimp
    1cac:	0101                	addi	sp,sp,0
    1cae:	000d0efb          	0xd0efb
    1cb2:	0101                	addi	sp,sp,0
    1cb4:	0101                	addi	sp,sp,0
    1cb6:	0000                	unimp
    1cb8:	0100                	addi	s0,sp,128
    1cba:	0000                	unimp
    1cbc:	7301                	lui	t1,0xfffe0
    1cbe:	6372                	ld	t1,280(sp)
    1cc0:	0000                	unimp
    1cc2:	7361                	lui	t1,0xffff8
    1cc4:	5f6d                	li	t5,-5
    1cc6:	6574                	ld	a3,200(a0)
    1cc8:	532e7473          	csrrci	s0,0x532,28
    1ccc:	0100                	addi	s0,sp,128
    1cce:	0000                	unimp
    1cd0:	0000                	unimp
    1cd2:	0209                	addi	tp,tp,2
    1cd4:	47d8                	lw	a4,12(a5)
    1cd6:	0002                	c.slli64	zero
    1cd8:	0000                	unimp
    1cda:	0000                	unimp
    1cdc:	0319                	addi	t1,t1,6
    1cde:	0902                	c.slli64	s2
    1ce0:	0004                	0x4
    1ce2:	0301                	addi	t1,t1,0
    1ce4:	0901                	addi	s2,s2,0
    1ce6:	0004                	0x4
    1ce8:	0301                	addi	t1,t1,0
    1cea:	0901                	addi	s2,s2,0
    1cec:	0004                	0x4
    1cee:	0301                	addi	t1,t1,0
    1cf0:	0901                	addi	s2,s2,0
    1cf2:	0004                	0x4
    1cf4:	0301                	addi	t1,t1,0
    1cf6:	0901                	addi	s2,s2,0
    1cf8:	0004                	0x4
    1cfa:	0301                	addi	t1,t1,0
    1cfc:	0902                	c.slli64	s2
    1cfe:	0004                	0x4
    1d00:	0301                	addi	t1,t1,0
    1d02:	0901                	addi	s2,s2,0
    1d04:	0008                	0x8
    1d06:	0301                	addi	t1,t1,0
    1d08:	0902                	c.slli64	s2
    1d0a:	0008                	0x8
    1d0c:	0301                	addi	t1,t1,0
    1d0e:	0901                	addi	s2,s2,0
    1d10:	0004                	0x4
    1d12:	0301                	addi	t1,t1,0
    1d14:	0901                	addi	s2,s2,0
    1d16:	0004                	0x4
    1d18:	0301                	addi	t1,t1,0
    1d1a:	0904                	addi	s1,sp,144
    1d1c:	0004                	0x4
    1d1e:	0301                	addi	t1,t1,0
    1d20:	0901                	addi	s2,s2,0
    1d22:	000c                	0xc
    1d24:	0301                	addi	t1,t1,0
    1d26:	0901                	addi	s2,s2,0
    1d28:	0004                	0x4
    1d2a:	0301                	addi	t1,t1,0
    1d2c:	0902                	c.slli64	s2
    1d2e:	0004                	0x4
    1d30:	0301                	addi	t1,t1,0
    1d32:	0901                	addi	s2,s2,0
    1d34:	000c                	0xc
    1d36:	0301                	addi	t1,t1,0
    1d38:	0901                	addi	s2,s2,0
    1d3a:	0004                	0x4
    1d3c:	0301                	addi	t1,t1,0
    1d3e:	0901                	addi	s2,s2,0
    1d40:	0004                	0x4
    1d42:	0301                	addi	t1,t1,0
    1d44:	0902                	c.slli64	s2
    1d46:	0004                	0x4
    1d48:	0301                	addi	t1,t1,0
    1d4a:	0901                	addi	s2,s2,0
    1d4c:	000c                	0xc
    1d4e:	0301                	addi	t1,t1,0
    1d50:	0901                	addi	s2,s2,0
    1d52:	0004                	0x4
    1d54:	0301                	addi	t1,t1,0
    1d56:	0901                	addi	s2,s2,0
    1d58:	0004                	0x4
    1d5a:	0301                	addi	t1,t1,0
    1d5c:	0901                	addi	s2,s2,0
    1d5e:	0004                	0x4
    1d60:	0301                	addi	t1,t1,0
    1d62:	0906                	slli	s2,s2,0x1
    1d64:	0004                	0x4
    1d66:	0301                	addi	t1,t1,0
    1d68:	0902                	c.slli64	s2
    1d6a:	0004                	0x4
    1d6c:	0301                	addi	t1,t1,0
    1d6e:	0901                	addi	s2,s2,0
    1d70:	000c                	0xc
    1d72:	0301                	addi	t1,t1,0
    1d74:	0902                	c.slli64	s2
    1d76:	0004                	0x4
    1d78:	0301                	addi	t1,t1,0
    1d7a:	0901                	addi	s2,s2,0
    1d7c:	0004                	0x4
    1d7e:	0301                	addi	t1,t1,0
    1d80:	0901                	addi	s2,s2,0
    1d82:	0004                	0x4
    1d84:	0301                	addi	t1,t1,0
    1d86:	0902                	c.slli64	s2
    1d88:	0004                	0x4
    1d8a:	0301                	addi	t1,t1,0
    1d8c:	0901                	addi	s2,s2,0
    1d8e:	0004                	0x4
    1d90:	0301                	addi	t1,t1,0
    1d92:	0902                	c.slli64	s2
    1d94:	0004                	0x4
    1d96:	0301                	addi	t1,t1,0
    1d98:	0901                	addi	s2,s2,0
    1d9a:	000c                	0xc
    1d9c:	0301                	addi	t1,t1,0
    1d9e:	0902                	c.slli64	s2
    1da0:	0004                	0x4
    1da2:	0301                	addi	t1,t1,0
    1da4:	0901                	addi	s2,s2,0
    1da6:	0004                	0x4
    1da8:	0301                	addi	t1,t1,0
    1daa:	0901                	addi	s2,s2,0
    1dac:	0004                	0x4
    1dae:	0301                	addi	t1,t1,0
    1db0:	0904                	addi	s1,sp,144
    1db2:	0004                	0x4
    1db4:	0301                	addi	t1,t1,0
    1db6:	0901                	addi	s2,s2,0
    1db8:	0004                	0x4
    1dba:	0301                	addi	t1,t1,0
    1dbc:	0901                	addi	s2,s2,0
    1dbe:	0004                	0x4
    1dc0:	0301                	addi	t1,t1,0
    1dc2:	0905                	addi	s2,s2,1
    1dc4:	0004                	0x4
    1dc6:	0301                	addi	t1,t1,0
    1dc8:	0901                	addi	s2,s2,0
    1dca:	0004                	0x4
    1dcc:	0301                	addi	t1,t1,0
    1dce:	0902                	c.slli64	s2
    1dd0:	0004                	0x4
    1dd2:	0301                	addi	t1,t1,0
    1dd4:	0901                	addi	s2,s2,0
    1dd6:	0004                	0x4
    1dd8:	0301                	addi	t1,t1,0
    1dda:	0902                	c.slli64	s2
    1ddc:	0004                	0x4
    1dde:	0301                	addi	t1,t1,0
    1de0:	0901                	addi	s2,s2,0
    1de2:	0004                	0x4
    1de4:	0301                	addi	t1,t1,0
    1de6:	00040903          	lb	s2,0(s0)
    1dea:	0301                	addi	t1,t1,0
    1dec:	0901                	addi	s2,s2,0
    1dee:	0004                	0x4
    1df0:	0301                	addi	t1,t1,0
    1df2:	0901                	addi	s2,s2,0
    1df4:	0004                	0x4
    1df6:	0301                	addi	t1,t1,0
    1df8:	0905                	addi	s2,s2,1
    1dfa:	0004                	0x4
    1dfc:	0301                	addi	t1,t1,0
    1dfe:	0901                	addi	s2,s2,0
    1e00:	0004                	0x4
    1e02:	0301                	addi	t1,t1,0
    1e04:	0901                	addi	s2,s2,0
    1e06:	0004                	0x4
    1e08:	0301                	addi	t1,t1,0
    1e0a:	00040903          	lb	s2,0(s0)
    1e0e:	0301                	addi	t1,t1,0
    1e10:	0901                	addi	s2,s2,0
    1e12:	0004                	0x4
    1e14:	0301                	addi	t1,t1,0
    1e16:	0901                	addi	s2,s2,0
    1e18:	0004                	0x4
    1e1a:	0301                	addi	t1,t1,0
    1e1c:	0901                	addi	s2,s2,0
    1e1e:	0004                	0x4
    1e20:	0301                	addi	t1,t1,0
    1e22:	0901                	addi	s2,s2,0
    1e24:	0004                	0x4
    1e26:	0301                	addi	t1,t1,0
    1e28:	0902                	c.slli64	s2
    1e2a:	0004                	0x4
    1e2c:	0301                	addi	t1,t1,0
    1e2e:	0904                	addi	s1,sp,144
    1e30:	0004                	0x4
    1e32:	0301                	addi	t1,t1,0
    1e34:	0901                	addi	s2,s2,0
    1e36:	0004                	0x4
    1e38:	0301                	addi	t1,t1,0
    1e3a:	0901                	addi	s2,s2,0
    1e3c:	0004                	0x4
    1e3e:	0301                	addi	t1,t1,0
    1e40:	0902                	c.slli64	s2
    1e42:	0004                	0x4
    1e44:	0301                	addi	t1,t1,0
    1e46:	0902                	c.slli64	s2
    1e48:	0004                	0x4
    1e4a:	0301                	addi	t1,t1,0
    1e4c:	0901                	addi	s2,s2,0
    1e4e:	0004                	0x4
    1e50:	0301                	addi	t1,t1,0
    1e52:	0905                	addi	s2,s2,1
    1e54:	0004                	0x4
    1e56:	0301                	addi	t1,t1,0
    1e58:	0901                	addi	s2,s2,0
    1e5a:	0004                	0x4
    1e5c:	0301                	addi	t1,t1,0
    1e5e:	0901                	addi	s2,s2,0
    1e60:	0004                	0x4
    1e62:	0301                	addi	t1,t1,0
    1e64:	0902                	c.slli64	s2
    1e66:	0004                	0x4
    1e68:	0301                	addi	t1,t1,0
    1e6a:	0902                	c.slli64	s2
    1e6c:	0004                	0x4
    1e6e:	0301                	addi	t1,t1,0
    1e70:	0901                	addi	s2,s2,0
    1e72:	0004                	0x4
    1e74:	0301                	addi	t1,t1,0
    1e76:	0904                	addi	s1,sp,144
    1e78:	0004                	0x4
    1e7a:	0301                	addi	t1,t1,0
    1e7c:	0901                	addi	s2,s2,0
    1e7e:	0004                	0x4
    1e80:	0301                	addi	t1,t1,0
    1e82:	0902                	c.slli64	s2
    1e84:	0004                	0x4
    1e86:	0301                	addi	t1,t1,0
    1e88:	0902                	c.slli64	s2
    1e8a:	0004                	0x4
    1e8c:	0301                	addi	t1,t1,0
    1e8e:	0901                	addi	s2,s2,0
    1e90:	0004                	0x4
    1e92:	0301                	addi	t1,t1,0
    1e94:	0901                	addi	s2,s2,0
    1e96:	0004                	0x4
    1e98:	0301                	addi	t1,t1,0
    1e9a:	0926                	slli	s2,s2,0x9
    1e9c:	0040                	addi	s0,sp,4
    1e9e:	0301                	addi	t1,t1,0
    1ea0:	0901                	addi	s2,s2,0
    1ea2:	0004                	0x4
    1ea4:	0301                	addi	t1,t1,0
    1ea6:	0904                	addi	s1,sp,144
    1ea8:	0004                	0x4
    1eaa:	0301                	addi	t1,t1,0
    1eac:	0901                	addi	s2,s2,0
    1eae:	0004                	0x4
    1eb0:	0301                	addi	t1,t1,0
    1eb2:	0904                	addi	s1,sp,144
    1eb4:	0004                	0x4
    1eb6:	0301                	addi	t1,t1,0
    1eb8:	0901                	addi	s2,s2,0
    1eba:	0004                	0x4
    1ebc:	0301                	addi	t1,t1,0
    1ebe:	0902                	c.slli64	s2
    1ec0:	0004                	0x4
    1ec2:	0301                	addi	t1,t1,0
    1ec4:	0901                	addi	s2,s2,0
    1ec6:	0004                	0x4
    1ec8:	0301                	addi	t1,t1,0
    1eca:	0902                	c.slli64	s2
    1ecc:	0004                	0x4
    1ece:	0301                	addi	t1,t1,0
    1ed0:	0902                	c.slli64	s2
    1ed2:	000c                	0xc
    1ed4:	0301                	addi	t1,t1,0
    1ed6:	0901                	addi	s2,s2,0
    1ed8:	0004                	0x4
    1eda:	0301                	addi	t1,t1,0
    1edc:	0901                	addi	s2,s2,0
    1ede:	0004                	0x4
    1ee0:	0301                	addi	t1,t1,0
    1ee2:	0904                	addi	s1,sp,144
    1ee4:	0004                	0x4
    1ee6:	0301                	addi	t1,t1,0
    1ee8:	0901                	addi	s2,s2,0
    1eea:	0004                	0x4
    1eec:	0301                	addi	t1,t1,0
    1eee:	0902                	c.slli64	s2
    1ef0:	0004                	0x4
    1ef2:	0301                	addi	t1,t1,0
    1ef4:	0901                	addi	s2,s2,0
    1ef6:	0004                	0x4
    1ef8:	0301                	addi	t1,t1,0
    1efa:	0902                	c.slli64	s2
    1efc:	0004                	0x4
    1efe:	0301                	addi	t1,t1,0
    1f00:	0902                	c.slli64	s2
    1f02:	000c                	0xc
    1f04:	0301                	addi	t1,t1,0
    1f06:	0901                	addi	s2,s2,0
    1f08:	0004                	0x4
    1f0a:	0301                	addi	t1,t1,0
    1f0c:	0901                	addi	s2,s2,0
    1f0e:	0004                	0x4
    1f10:	0901                	addi	s2,s2,0
    1f12:	0004                	0x4
    1f14:	0100                	addi	s0,sp,128
    1f16:	ad01                	j	2526 <_start-0x1fada>
    1f18:	0000                	unimp
    1f1a:	0300                	addi	s0,sp,384
    1f1c:	2100                	fld	fs0,0(a0)
    1f1e:	0000                	unimp
    1f20:	0100                	addi	s0,sp,128
    1f22:	fb01                	bnez	a4,1e32 <_start-0x201ce>
    1f24:	0d0e                	slli	s10,s10,0x3
    1f26:	0100                	addi	s0,sp,128
    1f28:	0101                	addi	sp,sp,0
    1f2a:	0001                	nop
    1f2c:	0000                	unimp
    1f2e:	0001                	nop
    1f30:	0100                	addi	s0,sp,128
    1f32:	00637273          	csrrci	tp,0x6,6
    1f36:	6200                	ld	s0,0(a2)
    1f38:	2e746f6f          	jal	t5,48a1e <TEXT_ROM+0x21a1e>
    1f3c:	00010053          	fadd.s	ft0,ft2,ft0,rne
    1f40:	0000                	unimp
    1f42:	0900                	addi	s0,sp,144
    1f44:	0002                	c.slli64	zero
    1f46:	0220                	addi	s0,sp,264
    1f48:	0000                	unimp
    1f4a:	0000                	unimp
    1f4c:	0300                	addi	s0,sp,384
    1f4e:	0109                	addi	sp,sp,2
    1f50:	08090103          	lb	sp,128(s2)
    1f54:	0100                	addi	s0,sp,128
    1f56:	08090103          	lb	sp,128(s2)
    1f5a:	0100                	addi	s0,sp,128
    1f5c:	08090203          	lb	tp,128(s2)
    1f60:	0100                	addi	s0,sp,128
    1f62:	04090103          	lb	sp,64(s2)
    1f66:	0100                	addi	s0,sp,128
    1f68:	04090103          	lb	sp,64(s2)
    1f6c:	0100                	addi	s0,sp,128
    1f6e:	04090103          	lb	sp,64(s2)
    1f72:	0100                	addi	s0,sp,128
    1f74:	04090103          	lb	sp,64(s2)
    1f78:	0100                	addi	s0,sp,128
    1f7a:	04090303          	lb	t1,64(s2)
    1f7e:	0100                	addi	s0,sp,128
    1f80:	04090203          	lb	tp,64(s2)
    1f84:	0100                	addi	s0,sp,128
    1f86:	04090103          	lb	sp,64(s2)
    1f8a:	0100                	addi	s0,sp,128
    1f8c:	08090303          	lb	t1,128(s2)
    1f90:	0100                	addi	s0,sp,128
    1f92:	08090103          	lb	sp,128(s2)
    1f96:	0100                	addi	s0,sp,128
    1f98:	04090103          	lb	sp,64(s2)
    1f9c:	0100                	addi	s0,sp,128
    1f9e:	04090303          	lb	t1,64(s2)
    1fa2:	0100                	addi	s0,sp,128
    1fa4:	04090403          	lb	s0,64(s2)
    1fa8:	0100                	addi	s0,sp,128
    1faa:	04090203          	lb	tp,64(s2)
    1fae:	0100                	addi	s0,sp,128
    1fb0:	08090103          	lb	sp,128(s2)
    1fb4:	0100                	addi	s0,sp,128
    1fb6:	04090303          	lb	t1,64(s2)
    1fba:	0100                	addi	s0,sp,128
    1fbc:	04090103          	lb	sp,64(s2)
    1fc0:	0100                	addi	s0,sp,128
    1fc2:	0409                	addi	s0,s0,2
    1fc4:	0000                	unimp
    1fc6:	0101                	addi	sp,sp,0
    1fc8:	0175                	addi	sp,sp,29
    1fca:	0000                	unimp
    1fcc:	00290003          	lb	zero,2(s2)
    1fd0:	0000                	unimp
    1fd2:	0101                	addi	sp,sp,0
    1fd4:	000d0efb          	0xd0efb
    1fd8:	0101                	addi	sp,sp,0
    1fda:	0101                	addi	sp,sp,0
    1fdc:	0000                	unimp
    1fde:	0100                	addi	s0,sp,128
    1fe0:	0000                	unimp
    1fe2:	7301                	lui	t1,0xfffe0
    1fe4:	6372                	ld	t1,280(sp)
    1fe6:	0000                	unimp
    1fe8:	6165                	addi	sp,sp,112
    1fea:	6c72                	ld	s8,280(sp)
    1fec:	5f79                	li	t5,-2
    1fee:	7270                	ld	a2,224(a2)
    1ff0:	6e69                	lui	t3,0x1a
    1ff2:	6b74                	ld	a3,208(a4)
    1ff4:	532e                	lw	t1,232(sp)
    1ff6:	0100                	addi	s0,sp,128
    1ff8:	0000                	unimp
    1ffa:	0000                	unimp
    1ffc:	0209                	addi	tp,tp,2
    1ffe:	49d8                	lw	a4,20(a1)
    2000:	0002                	c.slli64	zero
    2002:	0000                	unimp
    2004:	0000                	unimp
    2006:	03010903          	lb	s2,48(sp)
    200a:	0901                	addi	s2,s2,0
    200c:	0008                	0x8
    200e:	0301                	addi	t1,t1,0
    2010:	00040903          	lb	s2,0(s0)
    2014:	0301                	addi	t1,t1,0
    2016:	0901                	addi	s2,s2,0
    2018:	0008                	0x8
    201a:	0301                	addi	t1,t1,0
    201c:	00040903          	lb	s2,0(s0)
    2020:	0301                	addi	t1,t1,0
    2022:	0901                	addi	s2,s2,0
    2024:	0008                	0x8
    2026:	0301                	addi	t1,t1,0
    2028:	00040903          	lb	s2,0(s0)
    202c:	0301                	addi	t1,t1,0
    202e:	00040907          	vle8.v	v18,(s0),v0.t
    2032:	0301                	addi	t1,t1,0
    2034:	0901                	addi	s2,s2,0
    2036:	0008                	0x8
    2038:	0301                	addi	t1,t1,0
    203a:	0901                	addi	s2,s2,0
    203c:	0004                	0x4
    203e:	0301                	addi	t1,t1,0
    2040:	0901                	addi	s2,s2,0
    2042:	0004                	0x4
    2044:	0301                	addi	t1,t1,0
    2046:	0906                	slli	s2,s2,0x1
    2048:	0004                	0x4
    204a:	0301                	addi	t1,t1,0
    204c:	0901                	addi	s2,s2,0
    204e:	0008                	0x8
    2050:	0301                	addi	t1,t1,0
    2052:	0901                	addi	s2,s2,0
    2054:	0004                	0x4
    2056:	0301                	addi	t1,t1,0
    2058:	0901                	addi	s2,s2,0
    205a:	0004                	0x4
    205c:	0301                	addi	t1,t1,0
    205e:	0901                	addi	s2,s2,0
    2060:	0004                	0x4
    2062:	0301                	addi	t1,t1,0
    2064:	0911                	addi	s2,s2,4
    2066:	0004                	0x4
    2068:	0301                	addi	t1,t1,0
    206a:	00040903          	lb	s2,0(s0)
    206e:	0301                	addi	t1,t1,0
    2070:	00040903          	lb	s2,0(s0)
    2074:	0301                	addi	t1,t1,0
    2076:	0901                	addi	s2,s2,0
    2078:	0004                	0x4
    207a:	0301                	addi	t1,t1,0
    207c:	00040903          	lb	s2,0(s0)
    2080:	0301                	addi	t1,t1,0
    2082:	00040903          	lb	s2,0(s0)
    2086:	0301                	addi	t1,t1,0
    2088:	0901                	addi	s2,s2,0
    208a:	0004                	0x4
    208c:	0301                	addi	t1,t1,0
    208e:	0901                	addi	s2,s2,0
    2090:	0004                	0x4
    2092:	0301                	addi	t1,t1,0
    2094:	0904                	addi	s1,sp,144
    2096:	0004                	0x4
    2098:	0301                	addi	t1,t1,0
    209a:	0901                	addi	s2,s2,0
    209c:	0004                	0x4
    209e:	0301                	addi	t1,t1,0
    20a0:	0901                	addi	s2,s2,0
    20a2:	0004                	0x4
    20a4:	0301                	addi	t1,t1,0
    20a6:	0901                	addi	s2,s2,0
    20a8:	0004                	0x4
    20aa:	0301                	addi	t1,t1,0
    20ac:	00040903          	lb	s2,0(s0)
    20b0:	0301                	addi	t1,t1,0
    20b2:	0901                	addi	s2,s2,0
    20b4:	0004                	0x4
    20b6:	0301                	addi	t1,t1,0
    20b8:	00040903          	lb	s2,0(s0)
    20bc:	0301                	addi	t1,t1,0
    20be:	0901                	addi	s2,s2,0
    20c0:	0004                	0x4
    20c2:	0301                	addi	t1,t1,0
    20c4:	0901                	addi	s2,s2,0
    20c6:	0004                	0x4
    20c8:	0301                	addi	t1,t1,0
    20ca:	0901                	addi	s2,s2,0
    20cc:	0004                	0x4
    20ce:	0301                	addi	t1,t1,0
    20d0:	0901                	addi	s2,s2,0
    20d2:	0004                	0x4
    20d4:	0301                	addi	t1,t1,0
    20d6:	0901                	addi	s2,s2,0
    20d8:	0004                	0x4
    20da:	0301                	addi	t1,t1,0
    20dc:	0902                	c.slli64	s2
    20de:	0004                	0x4
    20e0:	0301                	addi	t1,t1,0
    20e2:	0904                	addi	s1,sp,144
    20e4:	0004                	0x4
    20e6:	0301                	addi	t1,t1,0
    20e8:	00040903          	lb	s2,0(s0)
    20ec:	0301                	addi	t1,t1,0
    20ee:	0901                	addi	s2,s2,0
    20f0:	0004                	0x4
    20f2:	0301                	addi	t1,t1,0
    20f4:	0901                	addi	s2,s2,0
    20f6:	0004                	0x4
    20f8:	0301                	addi	t1,t1,0
    20fa:	0901                	addi	s2,s2,0
    20fc:	0004                	0x4
    20fe:	0301                	addi	t1,t1,0
    2100:	0902                	c.slli64	s2
    2102:	0004                	0x4
    2104:	0301                	addi	t1,t1,0
    2106:	0905                	addi	s2,s2,1
    2108:	0004                	0x4
    210a:	0301                	addi	t1,t1,0
    210c:	0901                	addi	s2,s2,0
    210e:	0004                	0x4
    2110:	0301                	addi	t1,t1,0
    2112:	00040903          	lb	s2,0(s0)
    2116:	0301                	addi	t1,t1,0
    2118:	0901                	addi	s2,s2,0
    211a:	0004                	0x4
    211c:	0301                	addi	t1,t1,0
    211e:	0901                	addi	s2,s2,0
    2120:	0004                	0x4
    2122:	0301                	addi	t1,t1,0
    2124:	0901                	addi	s2,s2,0
    2126:	0004                	0x4
    2128:	0301                	addi	t1,t1,0
    212a:	0901                	addi	s2,s2,0
    212c:	0004                	0x4
    212e:	0301                	addi	t1,t1,0
    2130:	00040903          	lb	s2,0(s0)
    2134:	0301                	addi	t1,t1,0
    2136:	0901                	addi	s2,s2,0
    2138:	0004                	0x4
    213a:	0901                	addi	s2,s2,0
    213c:	0004                	0x4
    213e:	0100                	addi	s0,sp,128
    2140:	5901                	li	s2,-32
    2142:	0000                	unimp
    2144:	0300                	addi	s0,sp,384
    2146:	2300                	fld	fs0,0(a4)
    2148:	0000                	unimp
    214a:	0100                	addi	s0,sp,128
    214c:	fb01                	bnez	a4,205c <_start-0x1ffa4>
    214e:	0d0e                	slli	s10,s10,0x3
    2150:	0100                	addi	s0,sp,128
    2152:	0101                	addi	sp,sp,0
    2154:	0001                	nop
    2156:	0000                	unimp
    2158:	0001                	nop
    215a:	0100                	addi	s0,sp,128
    215c:	00637273          	csrrci	tp,0x6,6
    2160:	6d00                	ld	s0,24(a0)
    2162:	6d65                	lui	s10,0x19
    2164:	2e746573          	csrrsi	a0,0x2e7,8
    2168:	00010053          	fadd.s	ft0,ft2,ft0,rne
    216c:	0000                	unimp
    216e:	0900                	addi	s0,sp,144
    2170:	bc02                	fsd	ft0,56(sp)
    2172:	024a                	slli	tp,tp,0x12
    2174:	0000                	unimp
    2176:	0000                	unimp
    2178:	1400                	addi	s0,sp,544
    217a:	04090203          	lb	tp,64(s2)
    217e:	0100                	addi	s0,sp,128
    2180:	04090103          	lb	sp,64(s2)
    2184:	0100                	addi	s0,sp,128
    2186:	04090103          	lb	sp,64(s2)
    218a:	0100                	addi	s0,sp,128
    218c:	04090103          	lb	sp,64(s2)
    2190:	0100                	addi	s0,sp,128
    2192:	04090203          	lb	tp,64(s2)
    2196:	0100                	addi	s0,sp,128
    2198:	0409                	addi	s0,s0,2
    219a:	0000                	unimp
    219c:	0101                	addi	sp,sp,0

Disassembly of section .debug_str:

0000000000000000 <.debug_str>:
   0:	7270                	ld	a2,224(a2)
   2:	6e69                	lui	t3,0x1a
   4:	5f74                	lw	a3,124(a4)
   6:	656d                	lui	a0,0x1b
   8:	006d                	c.nop	27
   a:	655f 7362 0073      	0x737362655f
  10:	6176                	ld	sp,344(sp)
  12:	316c                	fld	fa1,224(a0)
  14:	7300                	ld	s0,32(a4)
  16:	6174                	ld	a3,192(a0)
  18:	7472                	ld	s0,312(sp)
  1a:	6600                	ld	s0,8(a2)
  1c:	646e756f          	jal	a0,e7662 <TEXT_ROM+0xc0662>
  20:	6100                	ld	s0,0(a0)
  22:	745f6d73          	csrrsi	s10,0x745,30
  26:	7365                	lui	t1,0xffff9
  28:	0074                	addi	a3,sp,12
  2a:	745f 7865 5f74      	0x5f747865745f
  30:	6f62                	ld	t5,24(sp)
  32:	6600746f          	jal	s0,7692 <_start-0x1a96e>
  36:	6e75                	lui	t3,0x1d
  38:	64615f63          	bge	sp,t1,696 <_start-0x2196a>
  3c:	7264                	ld	s1,224(a2)
  3e:	7500                	ld	s0,40(a0)
  40:	736e                	ld	t1,248(sp)
  42:	6769                	lui	a4,0x1a
  44:	656e                	ld	a0,216(sp)
  46:	2064                	fld	fs1,192(s0)
  48:	72616863          	bltu	sp,t1,778 <_start-0x21888>
  4c:	5f00                	lw	s0,56(a4)
  4e:	6465                	lui	s0,0x19
  50:	7461                	lui	s0,0xffff8
  52:	0061                	c.nop	24
  54:	7566                	ld	a0,120(sp)
  56:	636e                	ld	t1,216(sp)
  58:	6e5f 6d75 735f      	0x735f6d756e5f
  5e:	6d79                	lui	s10,0x1e
  60:	68730073          	0x68730073
  64:	2074726f          	jal	tp,47a6a <TEXT_ROM+0x20a6a>
  68:	6e75                	lui	t3,0x1d
  6a:	6e676973          	csrrsi	s2,0x6e6,14
  6e:	6465                	lui	s0,0x19
  70:	6920                	ld	s0,80(a0)
  72:	746e                	ld	s0,248(sp)
  74:	5f00                	lw	s0,56(a4)
  76:	7265                	lui	tp,0xffff9
  78:	7461646f          	jal	s0,167be <_start-0xb842>
  7c:	0061                	c.nop	24
  7e:	6176                	ld	sp,344(sp)
  80:	326c                	fld	fa1,224(a2)
  82:	4700                	lw	s0,8(a4)
  84:	554e                	lw	a0,240(sp)
  86:	4320                	lw	s0,64(a4)
  88:	3731                	addiw	a4,a4,-20
  8a:	3120                	fld	fs0,96(a0)
  8c:	2e30                	fld	fa2,88(a2)
  8e:	2e32                	fld	ft8,264(sp)
  90:	2030                	fld	fa2,64(s0)
  92:	6d2d                	lui	s10,0xb
  94:	646f6d63          	bltu	t5,t1,6ee <_start-0x21912>
  98:	6c65                	lui	s8,0x19
  9a:	6d3d                	lui	s10,0xf
  9c:	6465                	lui	s0,0x19
  9e:	6e61                	lui	t3,0x18
  a0:	2079                	0x2079
  a2:	6d2d                	lui	s10,0xb
  a4:	6261                	lui	tp,0x18
  a6:	3d69                	addiw	s10,s10,-6
  a8:	706c                	ld	a1,224(s0)
  aa:	3436                	fld	fs0,360(sp)
  ac:	2d20                	fld	fs0,88(a0)
  ae:	616d                	addi	sp,sp,240
  b0:	6372                	ld	t1,280(sp)
  b2:	3d68                	fld	fa0,248(a0)
  b4:	7672                	ld	a2,312(sp)
  b6:	3436                	fld	fs0,360(sp)
  b8:	6d69                	lui	s10,0x1a
  ba:	6661                	lui	a2,0x18
  bc:	2064                	fld	fs1,192(s0)
  be:	672d                	lui	a4,0xb
  c0:	2d20                	fld	fs0,88(a0)
  c2:	2d20304f          	fnmadd.h	ft0,ft0,fs2,ft5,rup
  c6:	6e66                	ld	t3,88(sp)
  c8:	49502d6f          	jal	s10,2d5c <_start-0x1f2a4>
  cc:	2045                	0x2045
  ce:	662d                	lui	a2,0xb
  d0:	6f6e                	ld	t5,216(sp)
  d2:	6f2d                	lui	t5,0xb
  d4:	696d                	lui	s2,0x1b
  d6:	2d74                	fld	fa3,216(a0)
  d8:	7266                	ld	tp,120(sp)
  da:	6d61                	lui	s10,0x18
  dc:	2d65                	addiw	s10,s10,25
  de:	6f70                	ld	a2,216(a4)
  e0:	6e69                	lui	t3,0x1a
  e2:	6574                	ld	a3,200(a0)
  e4:	0072                	c.slli	zero,0x1c
  e6:	725f 646f 7461      	0x7461646f725f
  ec:	0061                	c.nop	24
  ee:	7270                	ld	a2,224(a2)
  f0:	6e69                	lui	t3,0x1a
  f2:	5f74                	lw	a3,124(a4)
  f4:	7566                	ld	a0,120(sp)
  f6:	636e                	ld	t1,216(sp)
  f8:	6e5f 6d61 0065      	0x656d616e5f
  fe:	3a45                	addiw	s4,s4,-15
 100:	5c5c                	lw	a5,60(s0)
 102:	3164                	fld	fs1,224(a0)
 104:	72705f73          	csrrwi	t5,0x727,0
 108:	63656a6f          	jal	s4,5673e <TEXT_ROM+0x2f73e>
 10c:	7374                	ld	a3,224(a4)
 10e:	5c5c                	lw	a5,60(s0)
 110:	6972                	ld	s2,280(sp)
 112:	5f766373          	csrrsi	t1,shpmcounter23,12
 116:	7270                	ld	a2,224(a2)
 118:	6172676f          	jal	a4,26f2e <_ebss+0xd16>
 11c:	6d6d                	lui	s10,0x1b
 11e:	6e69                	lui	t3,0x1a
 120:	72705f67          	0x72705f67
 124:	6361                	lui	t1,0x18
 126:	6974                	ld	a3,208(a0)
 128:	662d6563          	bltu	s10,sp,792 <_start-0x2186e>
 12c:	642d726f          	jal	tp,d776e <TEXT_ROM+0xb076e>
 130:	73676e6f          	jal	t3,76866 <TEXT_ROM+0x4f866>
 134:	6168                	ld	a0,192(a0)
 136:	5c6e                	lw	s8,248(sp)
 138:	635c                	ld	a5,128(a4)
 13a:	6168                	ld	a0,192(a0)
 13c:	7470                	ld	a2,232(s0)
 13e:	7265                	lui	tp,0xffff9
 140:	365f 5c5c 616c      	0x616c5c5c365f
 146:	3662                	fld	fa2,56(sp)
 148:	332d                	addiw	t1,t1,-21
 14a:	5c5c                	lw	a5,60(s0)
 14c:	6562                	ld	a0,24(sp)
 14e:	6f6e                	ld	t5,216(sp)
 150:	6f6c0073          	0x6f6c0073
 154:	676e                	ld	a4,216(sp)
 156:	6c20                	ld	s0,88(s0)
 158:	20676e6f          	jal	t3,7635e <TEXT_ROM+0x4f35e>
 15c:	6e75                	lui	t3,0x1d
 15e:	6e676973          	csrrsi	s2,0x6e6,14
 162:	6465                	lui	s0,0x19
 164:	6920                	ld	s0,80(a0)
 166:	746e                	ld	s0,248(sp)
 168:	5f00                	lw	s0,56(a4)
 16a:	7465                	lui	s0,0xffff9
 16c:	7865                	lui	a6,0xffff9
 16e:	0074                	addi	a3,sp,12
 170:	6f6c                	ld	a1,216(a4)
 172:	676e                	ld	a4,216(sp)
 174:	6c20                	ld	s0,88(s0)
 176:	20676e6f          	jal	t3,7637c <TEXT_ROM+0x4f37c>
 17a:	6e69                	lui	t3,0x1a
 17c:	0074                	addi	a3,sp,12
 17e:	726f6873          	csrrsi	a6,0x726,30
 182:	2074                	fld	fa3,192(s0)
 184:	6e69                	lui	t3,0x1a
 186:	0074                	addi	a3,sp,12
 188:	61656c63          	bltu	a0,s6,7a0 <_start-0x21860>
 18c:	5f6e                	lw	t5,248(sp)
 18e:	7362                	ld	t1,56(sp)
 190:	645f0073          	0x645f0073
 194:	7461                	lui	s0,0xffff8
 196:	0061                	c.nop	24
 198:	7566                	ld	a0,120(sp)
 19a:	636e                	ld	t1,216(sp)
 19c:	735f 7274 6e69      	0x6e697274735f
 1a2:	655f0067          	jr	1621(t5) # b655 <_start-0x169ab>
 1a6:	6574                	ld	a3,200(a0)
 1a8:	7478                	ld	a4,232(s0)
 1aa:	625f 6f6f 0074      	0x746f6f625f
 1b0:	745f 7865 0074      	0x747865745f
 1b6:	657a6973          	csrrsi	s2,0x657,20
 1ba:	6b00                	ld	s0,16(a4)
 1bc:	7265                	lui	tp,0xffff9
 1be:	656e                	ld	a0,216(sp)
 1c0:	5f6c                	lw	a1,124(a4)
 1c2:	616d                	addi	sp,sp,240
 1c4:	6e69                	lui	t3,0x1a
 1c6:	7300                	ld	s0,32(a4)
 1c8:	6372                	ld	t1,280(sp)
 1ca:	72656b2f          	0x72656b2f
 1ce:	656e                	ld	a0,216(sp)
 1d0:	2e6c                	fld	fa1,216(a2)
 1d2:	69730063          	beq	t1,s7,852 <_start-0x217ae>
 1d6:	657a                	ld	a0,408(sp)
 1d8:	745f 6100 696c      	0x696c6100745f
 1de:	73006e67          	0x73006e67
 1e2:	6372                	ld	t1,280(sp)
 1e4:	6d656d2f          	0x6d656d2f
 1e8:	2e746573          	csrrsi	a0,0x2e7,8
 1ec:	656c0063          	beq	s8,s6,82c <_start-0x217d4>
 1f0:	7466                	ld	s0,120(sp)
 1f2:	5f00                	lw	s0,56(a4)
 1f4:	6d5f 6d65 6573      	0x65736d656d5f
 1fa:	0074                	addi	a3,sp,12
 1fc:	5f5f 656d 736d      	0x736d656d5f5f
 202:	7465                	lui	s0,0xffff9
 204:	315f 7962 6574      	0x65747962315f
 20a:	64610073          	0x64610073
 20e:	7264                	ld	s1,224(a2)
 210:	7365                	lui	t1,0xffff9
 212:	6f630073          	0x6f630073
 216:	6e75                	lui	t3,0x1d
 218:	0074                	addi	a3,sp,12
 21a:	7571                	lui	a0,0xffffc
 21c:	6c61                	lui	s8,0x18
 21e:	6669                	lui	a2,0x1a
 220:	6569                	lui	a0,0x1a
 222:	0072                	c.slli	zero,0x1c
 224:	5f5f 7562 6c69      	0x6c6975625f5f
 22a:	6974                	ld	a3,208(a0)
 22c:	5f6e                	lw	t5,248(sp)
 22e:	6176                	ld	sp,344(sp)
 230:	6c5f 7369 0074      	0x7473696c5f
 236:	6966                	ld	s2,88(sp)
 238:	6c65                	lui	s8,0x19
 23a:	5f64                	lw	s1,124(a4)
 23c:	74646977          	0x74646977
 240:	0068                	addi	a0,sp,12
 242:	65725f67          	0x65725f67
 246:	64726f63          	bltu	tp,t2,8a4 <_start-0x2175c>
 24a:	6c5f 6e65 5000      	0x50006e656c5f
 250:	4952                	lw	s2,20(sp)
 252:	544e                	lw	s0,240(sp)
 254:	54535f4b          	fnmsub.h	ft10,ft6,ft5,fa0,unknown
 258:	5441                	li	s0,-16
 25a:	5355                	li	t1,-11
 25c:	525f 4145 5944      	0x59444145525f
 262:	5f00                	lw	s0,56(a4)
 264:	625f 7361 0065      	0x657361625f
 26a:	796d                	lui	s2,0xffffb
 26c:	7270                	ld	a2,224(a2)
 26e:	6e69                	lui	t3,0x1a
 270:	6674                	ld	a3,200(a2)
 272:	7300                	ld	s0,32(a4)
 274:	6372                	ld	t1,280(sp)
 276:	6972702f          	0x6972702f
 27a:	746e                	ld	s0,248(sp)
 27c:	00632e6b          	0x632e6b
 280:	6d756e73          	csrrsi	t3,0x6d7,10
 284:	6700                	ld	s0,8(a4)
 286:	705f 6972 746e      	0x746e6972705f
 28c:	74735f6b          	0x74735f6b
 290:	7461                	lui	s0,0xffff8
 292:	7375                	lui	t1,0xffffd
 294:	6c00                	ld	s0,24(s0)
 296:	625f676f          	jal	a4,f70ba <TEXT_ROM+0xd00ba>
 29a:	6675                	lui	a2,0x1d
 29c:	6600                	ld	s0,8(a2)
 29e:	616c                	ld	a1,192(a0)
 2a0:	67007367          	0x67007367
 2a4:	725f 6365 726f      	0x726f6365725f
 2aa:	0064                	addi	s1,sp,12
 2ac:	7270                	ld	a2,224(a2)
 2ae:	6e69                	lui	t3,0x1a
 2b0:	5f74                	lw	a3,124(a4)
 2b2:	7562                	ld	a0,56(sp)
 2b4:	0066                	c.slli	zero,0x19
 2b6:	6572                	ld	a0,280(sp)
 2b8:	6570                	ld	a2,200(a0)
 2ba:	7461                	lui	s0,0xffff8
 2bc:	7000                	ld	s0,32(s0)
 2be:	6572                	ld	a0,280(sp)
 2c0:	69736963          	bltu	t1,s7,952 <_start-0x216ae>
 2c4:	64006e6f          	jal	t3,6904 <_start-0x1b6fc>
 2c8:	6769                	lui	a4,0x1a
 2ca:	7469                	lui	s0,0xffffa
 2cc:	79740073          	0x79740073
 2d0:	6570                	ld	a2,200(a0)
 2d2:	7000                	ld	s0,32(s0)
 2d4:	6972                	ld	s2,280(sp)
 2d6:	746e                	ld	s0,248(sp)
 2d8:	6373006b          	0x6373006b
 2dc:	6e61                	lui	t3,0x18
 2de:	6e5f 6d75 6562      	0x65626d756e5f
 2e4:	0072                	c.slli	zero,0x1c
 2e6:	5250                	lw	a2,36(a2)
 2e8:	4e49                	li	t3,18
 2ea:	4b54                	lw	a3,20(a4)
 2ec:	535f 4154 5554      	0x55544154535f
 2f2:	4f445f53          	0x4f445f53
 2f6:	73004e57          	vmsleu.vx	v28,v16,zero
 2fa:	6769                	lui	a4,0x1a
 2fc:	006e                	c.slli	zero,0x1b
 2fe:	5f5f 6572 006d      	0x6d65725f5f
 304:	6e69                	lui	t3,0x1a
 306:	7469                	lui	s0,0xffffa
 308:	705f 6972 746e      	0x746e6972705f
 30e:	6f645f6b          	0x6f645f6b
 312:	656e                	ld	a0,216(sp)
 314:	7300                	ld	s0,32(a4)
 316:	6372                	ld	t1,280(sp)
 318:	7274732f          	0x7274732f
 31c:	6e69                	lui	t3,0x1a
 31e:	00632e67          	0x632e67
 322:	6564                	ld	s1,200(a0)
 324:	6d007473          	csrrci	s0,0x6d0,0
 328:	6d65                	lui	s10,0x19
 32a:	00797063          	bgeu	s2,t2,32a <_start-0x21cd6>
 32e:	6c727473          	csrrci	s0,0x6c7,4
 332:	6e65                	lui	t3,0x19
 334:	7600                	ld	s0,40(a2)
 336:	6c61                	lui	s8,0x18
 338:	6575                	lui	a0,0x1d
 33a:	7300                	ld	s0,32(a4)
 33c:	7465                	lui	s0,0xffff9
 33e:	705f 6c6c 635f      	0x635f6c6c705f
 344:	7570                	ld	a2,232(a0)
 346:	5f78                	lw	a4,124(a4)
 348:	7861                	lui	a6,0xffff8
 34a:	0069                	c.nop	26
 34c:	5f746573          	csrrsi	a0,shpmcounter23,8
 350:	7061                	c.lui	zero,0xffff8
 352:	0062                	c.slli	zero,0x18
 354:	5f746573          	csrrsi	a0,shpmcounter23,8
 358:	6c70                	ld	a2,216(s0)
 35a:	5f6c                	lw	a1,124(a4)
 35c:	6570                	ld	a2,200(a0)
 35e:	6972                	ld	s2,280(sp)
 360:	6870                	ld	a2,208(s0)
 362:	0030                	addi	a2,sp,8
 364:	5f746573          	csrrsi	a0,shpmcounter23,8
 368:	6f6d                	lui	t5,0x1b
 36a:	7564                	ld	s1,232(a0)
 36c:	656c                	ld	a1,200(a0)
 36e:	7700                	ld	s0,40(a4)
 370:	6972                	ld	s2,280(sp)
 372:	6574                	ld	a3,200(a0)
 374:	73003233          	0x73003233
 378:	7465                	lui	s0,0xffff9
 37a:	6d5f 7562 0073      	0x7375626d5f
 380:	6572                	ld	a0,280(sp)
 382:	6461                	lui	s0,0x18
 384:	76003233          	0x76003233
 388:	7269                	lui	tp,0xffffa
 38a:	7574                	ld	a3,232(a0)
 38c:	6c61                	lui	s8,0x18
 38e:	615f 6464 5f72      	0x5f726464615f
 394:	0074                	addi	a3,sp,12
 396:	5f746573          	csrrsi	a0,shpmcounter23,8
 39a:	6d64                	ld	s1,216(a0)
 39c:	0061                	c.nop	24
 39e:	6c656473          	csrrsi	s0,0x6c6,10
 3a2:	7961                	lui	s2,0xffff8
 3a4:	7500                	ld	s0,40(a0)
 3a6:	745f3233          	0x745f3233
 3aa:	7500                	ld	s0,40(a0)
 3ac:	6e69                	lui	t3,0x1a
 3ae:	3374                	fld	fa3,224(a4)
 3b0:	5f32                	lw	t5,44(sp)
 3b2:	0074                	addi	a3,sp,12
 3b4:	2f637273          	csrrci	tp,0x2f6,6
 3b8:	2d737973          	csrrci	s2,0x2d7,6
 3bc:	636f6c63          	bltu	t5,s6,9f4 <_start-0x2160c>
 3c0:	00632e6b          	0x632e6b
 3c4:	5f746573          	csrrsi	a0,shpmcounter23,8
 3c8:	6861                	lui	a6,0x18
 3ca:	0062                	c.slli	zero,0x18
 3cc:	5f737973          	csrrci	s2,shpmcounter23,6
 3d0:	636f6c63          	bltu	t5,s6,a08 <_start-0x215f8>
 3d4:	6e695f6b          	0x6e695f6b
 3d8:	7469                	lui	s0,0xffffa
 3da:	7500                	ld	s0,40(a0)
 3dc:	7261                	lui	tp,0xffff8
 3de:	5f74                	lw	a3,124(a4)
 3e0:	6e69                	lui	t3,0x1a
 3e2:	7469                	lui	s0,0xffffa
 3e4:	7000                	ld	s0,32(s0)
 3e6:	6972                	ld	s2,280(sp)
 3e8:	746e                	ld	s0,248(sp)
 3ea:	685f 7865 7500      	0x75007865685f
 3f0:	7261                	lui	tp,0xffff8
 3f2:	5f74                	lw	a3,124(a4)
 3f4:	646e6573          	csrrsi	a0,0x646,28
 3f8:	735f 7274 6e69      	0x6e697274735f
 3fe:	70760067          	jr	1799(a2) # 1d707 <_start-0x48f9>
 402:	5f66                	lw	t5,120(sp)
 404:	5f727473          	csrrci	s0,shpmcounter23,4
 408:	6f74                	ld	a3,216(a4)
 40a:	6e5f 6d75 7300      	0x73006d756e5f
 410:	6372                	ld	t1,280(sp)
 412:	7379732f          	0x7379732f
 416:	752d                	lui	a0,0xfffeb
 418:	7261                	lui	tp,0xffff8
 41a:	2e74                	fld	fa3,216(a2)
 41c:	75700063          	beq	zero,s7,b5c <_start-0x214a4>
 420:	6374                	ld	a3,192(a4)
 422:	6168                	ld	a0,192(a0)
 424:	0072                	c.slli	zero,0x1c
 426:	3875                	addiw	a6,a6,-3
 428:	745f 7500 7261      	0x72617500745f
 42e:	5f74                	lw	a3,124(a4)
 430:	6572                	ld	a0,280(sp)
 432:	73007663          	bgeu	zero,a6,b5e <_start-0x214a2>
 436:	7379                	lui	t1,0xffffe
 438:	755f 7261 5f74      	0x5f747261755f
 43e:	7270                	ld	a2,224(a2)
 440:	6e69                	lui	t3,0x1a
 442:	6674                	ld	a3,200(a2)
 444:	6200                	ld	s0,0(a2)
 446:	7469                	lui	s0,0xffffa
 448:	61750073          	0x61750073
 44c:	7472                	ld	s0,312(sp)
 44e:	735f 6e65 0064      	0x646e65735f
 454:	7076                	0x7076
 456:	5f66                	lw	t5,120(sp)
 458:	756e                	ld	a0,248(sp)
 45a:	5f6d                	li	t5,-5
 45c:	6f74                	ld	a3,216(a4)
 45e:	735f 7274 7200      	0x72007274735f
 464:	6165                	addi	sp,sp,112
 466:	3864                	fld	fs1,240(s0)
 468:	7300                	ld	s0,32(a4)
 46a:	6372                	ld	t1,280(sp)
 46c:	6d73612f          	0x6d73612f
 470:	745f 7365 2e74      	0x2e747365745f
 476:	3a450053          	0x3a450053
 47a:	645c                	ld	a5,136(s0)
 47c:	7331                	lui	t1,0xfffec
 47e:	705f 6f72 656a      	0x656a6f72705f
 484:	5c737463          	bgeu	t1,t2,a4c <_start-0x215b4>
 488:	6972                	ld	s2,280(sp)
 48a:	5f766373          	csrrsi	t1,shpmcounter23,12
 48e:	7270                	ld	a2,224(a2)
 490:	6172676f          	jal	a4,272a6 <TEXT_ROM+0x2a6>
 494:	6d6d                	lui	s10,0x1b
 496:	6e69                	lui	t3,0x1a
 498:	72705f67          	0x72705f67
 49c:	6361                	lui	t1,0x18
 49e:	6974                	ld	a3,208(a0)
 4a0:	662d6563          	bltu	s10,sp,b0a <_start-0x214f6>
 4a4:	642d726f          	jal	tp,d7ae6 <TEXT_ROM+0xb0ae6>
 4a8:	73676e6f          	jal	t3,76bde <TEXT_ROM+0x4fbde>
 4ac:	6168                	ld	a0,192(a0)
 4ae:	5c6e                	lw	s8,248(sp)
 4b0:	70616863          	bltu	sp,t1,bc0 <_start-0x21440>
 4b4:	6574                	ld	a3,200(a0)
 4b6:	5f72                	lw	t5,60(sp)
 4b8:	5c36                	lw	s8,108(sp)
 4ba:	616c                	ld	a1,192(a0)
 4bc:	3662                	fld	fa2,56(sp)
 4be:	332d                	addiw	t1,t1,-21
 4c0:	625c                	ld	a5,128(a2)
 4c2:	6e65                	lui	t3,0x19
 4c4:	4700736f          	jal	t1,7934 <_start-0x1a6cc>
 4c8:	554e                	lw	a0,240(sp)
 4ca:	4120                	lw	s0,64(a0)
 4cc:	2e322053          	0x2e322053
 4d0:	73003533          	0x73003533
 4d4:	6372                	ld	t1,280(sp)
 4d6:	6f6f622f          	0x6f6f622f
 4da:	2e74                	fld	fa3,216(a2)
 4dc:	72730053          	0x72730053
 4e0:	61652f63          	0x61652f63
 4e4:	6c72                	ld	s8,280(sp)
 4e6:	5f79                	li	t5,-2
 4e8:	7270                	ld	a2,224(a2)
 4ea:	6e69                	lui	t3,0x1a
 4ec:	6b74                	ld	a3,208(a4)
 4ee:	532e                	lw	t1,232(sp)
 4f0:	7300                	ld	s0,32(a4)
 4f2:	6372                	ld	t1,280(sp)
 4f4:	6d656d2f          	0x6d656d2f
 4f8:	2e746573          	csrrsi	a0,0x2e7,8
 4fc:	          	fadd.s	ft0,ft0,ft0,rne

Disassembly of section .comment:

0000000000000000 <.comment>:
   0:	3a434347          	fmsub.d	ft6,ft6,ft4,ft7,rmm
   4:	2820                	fld	fs0,80(s0)
   6:	7558                	ld	a4,168(a0)
   8:	6e61                	lui	t3,0x18
   a:	6974                	ld	a3,208(a0)
   c:	2d65                	addiw	s10,s10,25
   e:	3039                	0x3039
  10:	2030                	fld	fa2,64(s0)
  12:	6c65                	lui	s8,0x19
  14:	2066                	fld	ft0,88(sp)
  16:	656e                	ld	a0,216(sp)
  18:	62696c77          	0x62696c77
  1c:	6720                	ld	s0,72(a4)
  1e:	54206363          	bltu	zero,sp,564 <_start-0x21a9c>
  22:	636c6f6f          	jal	t5,c6658 <TEXT_ROM+0x9f658>
  26:	6168                	ld	a0,192(a0)
  28:	6e69                	lui	t3,0x1a
  2a:	5620                	lw	s0,104(a2)
  2c:	2e32                	fld	ft8,264(sp)
  2e:	2e36                	fld	ft8,328(sp)
  30:	2031                	0x2031
  32:	2d42                	fld	fs10,16(sp)
  34:	3032                	fld	ft0,296(sp)
  36:	3232                	fld	ft4,296(sp)
  38:	3930                	fld	fa2,112(a0)
  3a:	3630                	fld	fa2,104(a2)
  3c:	2029                	0x2029
  3e:	3031                	0x3031
  40:	322e                	fld	ft4,232(sp)
  42:	302e                	fld	ft0,232(sp)
	...

Disassembly of section .riscv.attributes:

0000000000000000 <.riscv.attributes>:
   0:	3341                	addiw	t1,t1,-16
   2:	0000                	unimp
   4:	7200                	ld	s0,32(a2)
   6:	7369                	lui	t1,0xffffa
   8:	01007663          	bgeu	zero,a6,14 <_start-0x21fec>
   c:	0029                	c.nop	10
   e:	0000                	unimp
  10:	1004                	addi	s1,sp,32
  12:	7205                	lui	tp,0xfffe1
  14:	3676                	fld	fa2,376(sp)
  16:	6934                	ld	a3,80(a0)
  18:	7032                	0x7032
  1a:	5f30                	lw	a2,120(a4)
  1c:	326d                	addiw	tp,tp,-5
  1e:	3070                	fld	fa2,224(s0)
  20:	615f 7032 5f30      	0x5f307032615f
  26:	3266                	fld	ft4,120(sp)
  28:	3070                	fld	fa2,224(s0)
  2a:	645f 7032 0030      	0x307032645f
  30:	0108                	addi	a0,sp,128
  32:	0b0a                	slli	s6,s6,0x2

Disassembly of section .debug_frame:

0000000000000000 <.debug_frame>:
   0:	000c                	0xc
   2:	0000                	unimp
   4:	ffffffff          	0xffffffff
   8:	7c010003          	lb	zero,1984(sp)
   c:	0d01                	addi	s10,s10,0
   e:	0002                	c.slli64	zero
  10:	002c                	addi	a1,sp,8
  12:	0000                	unimp
  14:	0000                	unimp
  16:	0000                	unimp
  18:	2068                	fld	fa0,192(s0)
  1a:	0002                	c.slli64	zero
  1c:	0000                	unimp
  1e:	0000                	unimp
  20:	00fc                	addi	a5,sp,76
  22:	0000                	unimp
  24:	0000                	unimp
  26:	0000                	unimp
  28:	0e44                	addi	s1,sp,788
  2a:	4840                	lw	s0,20(s0)
  2c:	0281                	addi	t0,t0,0
  2e:	0488                	addi	a0,sp,576
  30:	0c44                	addi	s1,sp,532
  32:	0008                	0x8
  34:	e002                	sd	zero,0(sp)
  36:	44c1                	li	s1,16
  38:	0cc8                	addi	a0,sp,596
  3a:	4002                	0x4002
  3c:	0e44                	addi	s1,sp,788
  3e:	0000                	unimp
  40:	002c                	addi	a1,sp,8
  42:	0000                	unimp
  44:	0000                	unimp
  46:	0000                	unimp
  48:	2164                	fld	fs1,192(a0)
  4a:	0002                	c.slli64	zero
  4c:	0000                	unimp
  4e:	0000                	unimp
  50:	0110                	addi	a2,sp,128
  52:	0000                	unimp
  54:	0000                	unimp
  56:	0000                	unimp
  58:	0e44                	addi	s1,sp,788
  5a:	4820                	lw	s0,80(s0)
  5c:	0281                	addi	t0,t0,0
  5e:	0488                	addi	a0,sp,576
  60:	0c44                	addi	s1,sp,532
  62:	0008                	0x8
  64:	c100f403          	0xc100f403
  68:	c844                	sw	s1,20(s0)
  6a:	020c                	addi	a1,sp,256
  6c:	4420                	lw	s0,72(s0)
  6e:	000e                	c.slli	zero,0x3
  70:	002c                	addi	a1,sp,8
  72:	0000                	unimp
  74:	0000                	unimp
  76:	0000                	unimp
  78:	2274                	fld	fa3,192(a2)
  7a:	0002                	c.slli64	zero
  7c:	0000                	unimp
  7e:	0000                	unimp
  80:	0134                	addi	a3,sp,136
  82:	0000                	unimp
  84:	0000                	unimp
  86:	0000                	unimp
  88:	0e44                	addi	s1,sp,788
  8a:	4810                	lw	a2,16(s0)
  8c:	0281                	addi	t0,t0,0
  8e:	0488                	addi	a0,sp,576
  90:	0c44                	addi	s1,sp,532
  92:	0008                	0x8
  94:	c1011803          	lh	a6,-1008(sp)
  98:	c844                	sw	s1,20(s0)
  9a:	020c                	addi	a1,sp,256
  9c:	4410                	lw	a2,8(s0)
  9e:	000e                	c.slli	zero,0x3
  a0:	002c                	addi	a1,sp,8
  a2:	0000                	unimp
  a4:	0000                	unimp
  a6:	0000                	unimp
  a8:	23a8                	fld	fa0,64(a5)
  aa:	0002                	c.slli64	zero
  ac:	0000                	unimp
  ae:	0000                	unimp
  b0:	006c                	addi	a1,sp,12
  b2:	0000                	unimp
  b4:	0000                	unimp
  b6:	0000                	unimp
  b8:	0e44                	addi	s1,sp,788
  ba:	4830                	lw	a2,80(s0)
  bc:	0281                	addi	t0,t0,0
  be:	0488                	addi	a0,sp,576
  c0:	0c44                	addi	s1,sp,532
  c2:	0008                	0x8
  c4:	5002                	0x5002
  c6:	44c1                	li	s1,16
  c8:	0cc8                	addi	a0,sp,596
  ca:	3002                	fld	ft0,32(sp)
  cc:	0e44                	addi	s1,sp,788
  ce:	0000                	unimp
  d0:	0024                	addi	s1,sp,8
  d2:	0000                	unimp
  d4:	0000                	unimp
  d6:	0000                	unimp
  d8:	2414                	fld	fa3,8(s0)
  da:	0002                	c.slli64	zero
  dc:	0000                	unimp
  de:	0000                	unimp
  e0:	0064                	addi	s1,sp,12
  e2:	0000                	unimp
  e4:	0000                	unimp
  e6:	0000                	unimp
  e8:	0e44                	addi	s1,sp,788
  ea:	4810                	lw	a2,16(s0)
  ec:	0281                	addi	t0,t0,0
  ee:	0488                	addi	a0,sp,576
  f0:	0c44                	addi	s1,sp,532
  f2:	0008                	0x8
  f4:	0000                	unimp
  f6:	0000                	unimp
  f8:	000c                	0xc
  fa:	0000                	unimp
  fc:	ffffffff          	0xffffffff
 100:	7c010003          	lb	zero,1984(sp)
 104:	0d01                	addi	s10,s10,0
 106:	0002                	c.slli64	zero
 108:	002c                	addi	a1,sp,8
 10a:	0000                	unimp
 10c:	00f8                	addi	a4,sp,76
 10e:	0000                	unimp
 110:	2478                	fld	fa4,200(s0)
 112:	0002                	c.slli64	zero
 114:	0000                	unimp
 116:	0000                	unimp
 118:	0064                	addi	s1,sp,12
 11a:	0000                	unimp
 11c:	0000                	unimp
 11e:	0000                	unimp
 120:	0e44                	addi	s1,sp,788
 122:	4440                	lw	s0,12(s0)
 124:	0288                	addi	a0,sp,320
 126:	0c44                	addi	s1,sp,532
 128:	0008                	0x8
 12a:	5002                	0x5002
 12c:	0cc8                	addi	a0,sp,596
 12e:	4002                	0x4002
 130:	0e44                	addi	s1,sp,788
 132:	0000                	unimp
 134:	0000                	unimp
 136:	0000                	unimp
 138:	002c                	addi	a1,sp,8
 13a:	0000                	unimp
 13c:	00f8                	addi	a4,sp,76
 13e:	0000                	unimp
 140:	24dc                	fld	fa5,136(s1)
 142:	0002                	c.slli64	zero
 144:	0000                	unimp
 146:	0000                	unimp
 148:	018c                	addi	a1,sp,192
 14a:	0000                	unimp
 14c:	0000                	unimp
 14e:	0000                	unimp
 150:	0e44                	addi	s1,sp,788
 152:	4870                	lw	a2,84(s0)
 154:	0281                	addi	t0,t0,0
 156:	0488                	addi	a0,sp,576
 158:	0c44                	addi	s1,sp,532
 15a:	0008                	0x8
 15c:	c1017003          	0xc1017003
 160:	c844                	sw	s1,20(s0)
 162:	020c                	addi	a1,sp,256
 164:	4470                	lw	a2,76(s0)
 166:	000e                	c.slli	zero,0x3
 168:	002c                	addi	a1,sp,8
 16a:	0000                	unimp
 16c:	00f8                	addi	a4,sp,76
 16e:	0000                	unimp
 170:	2668                	fld	fa0,200(a2)
 172:	0002                	c.slli64	zero
 174:	0000                	unimp
 176:	0000                	unimp
 178:	004c                	addi	a1,sp,4
 17a:	0000                	unimp
 17c:	0000                	unimp
 17e:	0000                	unimp
 180:	0e44                	addi	s1,sp,788
 182:	4830                	lw	a2,80(s0)
 184:	0281                	addi	t0,t0,0
 186:	0488                	addi	a0,sp,576
 188:	0c44                	addi	s1,sp,532
 18a:	0008                	0x8
 18c:	c170                	sw	a2,68(a0)
 18e:	c844                	sw	s1,20(s0)
 190:	020c                	addi	a1,sp,256
 192:	4430                	lw	a2,72(s0)
 194:	000e                	c.slli	zero,0x3
 196:	0000                	unimp
 198:	000c                	0xc
 19a:	0000                	unimp
 19c:	ffffffff          	0xffffffff
 1a0:	7c010003          	lb	zero,1984(sp)
 1a4:	0d01                	addi	s10,s10,0
 1a6:	0002                	c.slli64	zero
 1a8:	002c                	addi	a1,sp,8
 1aa:	0000                	unimp
 1ac:	0198                	addi	a4,sp,192
 1ae:	0000                	unimp
 1b0:	26b4                	fld	fa3,72(a3)
 1b2:	0002                	c.slli64	zero
 1b4:	0000                	unimp
 1b6:	0000                	unimp
 1b8:	00a4                	addi	s1,sp,72
 1ba:	0000                	unimp
 1bc:	0000                	unimp
 1be:	0000                	unimp
 1c0:	0e44                	addi	s1,sp,788
 1c2:	4430                	lw	a2,72(s0)
 1c4:	0288                	addi	a0,sp,320
 1c6:	0c44                	addi	s1,sp,532
 1c8:	0008                	0x8
 1ca:	9002                	ebreak
 1cc:	0cc8                	addi	a0,sp,596
 1ce:	3002                	fld	ft0,32(sp)
 1d0:	0e44                	addi	s1,sp,788
 1d2:	0000                	unimp
 1d4:	0000                	unimp
 1d6:	0000                	unimp
 1d8:	002c                	addi	a1,sp,8
 1da:	0000                	unimp
 1dc:	0198                	addi	a4,sp,192
 1de:	0000                	unimp
 1e0:	2758                	fld	fa4,136(a4)
 1e2:	0002                	c.slli64	zero
 1e4:	0000                	unimp
 1e6:	0000                	unimp
 1e8:	0400                	addi	s0,sp,512
 1ea:	0000                	unimp
 1ec:	0000                	unimp
 1ee:	0000                	unimp
 1f0:	0e44                	addi	s1,sp,788
 1f2:	01e0                	addi	s0,sp,204
 1f4:	8844                	0x8844
 1f6:	4402                	lw	s0,0(sp)
 1f8:	080c                	addi	a1,sp,16
 1fa:	0300                	addi	s0,sp,384
 1fc:	03ec                	addi	a1,sp,460
 1fe:	0cc8                	addi	a0,sp,596
 200:	e002                	sd	zero,0(sp)
 202:	4401                	li	s0,0
 204:	000e                	c.slli	zero,0x3
 206:	0000                	unimp
 208:	002c                	addi	a1,sp,8
 20a:	0000                	unimp
 20c:	0198                	addi	a4,sp,192
 20e:	0000                	unimp
 210:	2b58                	fld	fa4,144(a4)
 212:	0002                	c.slli64	zero
 214:	0000                	unimp
 216:	0000                	unimp
 218:	07a8                	addi	a0,sp,968
 21a:	0000                	unimp
 21c:	0000                	unimp
 21e:	0000                	unimp
 220:	0e44                	addi	s1,sp,788
 222:	4870                	lw	a2,84(s0)
 224:	0281                	addi	t0,t0,0
 226:	0488                	addi	a0,sp,576
 228:	0c44                	addi	s1,sp,532
 22a:	0008                	0x8
 22c:	c1078c03          	lb	s8,-1008(a5) # 7f1c10 <TEXT_ROM+0x7cac10>
 230:	c844                	sw	s1,20(s0)
 232:	020c                	addi	a1,sp,256
 234:	4470                	lw	a2,76(s0)
 236:	000e                	c.slli	zero,0x3
 238:	002c                	addi	a1,sp,8
 23a:	0000                	unimp
 23c:	0198                	addi	a4,sp,192
 23e:	0000                	unimp
 240:	3300                	fld	fs0,32(a4)
 242:	0002                	c.slli64	zero
 244:	0000                	unimp
 246:	0000                	unimp
 248:	009c                	addi	a5,sp,64
 24a:	0000                	unimp
 24c:	0000                	unimp
 24e:	0000                	unimp
 250:	0e44                	addi	s1,sp,788
 252:	4820                	lw	s0,80(s0)
 254:	0281                	addi	t0,t0,0
 256:	0488                	addi	a0,sp,576
 258:	0c44                	addi	s1,sp,532
 25a:	0008                	0x8
 25c:	8002                	0x8002
 25e:	44c1                	li	s1,16
 260:	0cc8                	addi	a0,sp,596
 262:	2002                	fld	ft0,0(sp)
 264:	0e44                	addi	s1,sp,788
 266:	0000                	unimp
 268:	002c                	addi	a1,sp,8
 26a:	0000                	unimp
 26c:	0198                	addi	a4,sp,192
 26e:	0000                	unimp
 270:	339c                	fld	fa5,32(a5)
 272:	0002                	c.slli64	zero
 274:	0000                	unimp
 276:	0000                	unimp
 278:	0180                	addi	s0,sp,192
 27a:	0000                	unimp
 27c:	0000                	unimp
 27e:	0000                	unimp
 280:	0e44                	addi	s1,sp,788
 282:	4870                	lw	a2,84(s0)
 284:	1281                	addi	t0,t0,-32
 286:	1488                	addi	a0,sp,608
 288:	0c44                	addi	s1,sp,532
 28a:	4008                	lw	a0,0(s0)
 28c:	c1016403          	lwu	s0,-1008(sp)
 290:	c844                	sw	s1,20(s0)
 292:	020c                	addi	a1,sp,256
 294:	4470                	lw	a2,76(s0)
 296:	000e                	c.slli	zero,0x3
 298:	000c                	0xc
 29a:	0000                	unimp
 29c:	ffffffff          	0xffffffff
 2a0:	7c010003          	lb	zero,1984(sp)
 2a4:	0d01                	addi	s10,s10,0
 2a6:	0002                	c.slli64	zero
 2a8:	002c                	addi	a1,sp,8
 2aa:	0000                	unimp
 2ac:	0298                	addi	a4,sp,320
 2ae:	0000                	unimp
 2b0:	351c                	fld	fa5,40(a0)
 2b2:	0002                	c.slli64	zero
 2b4:	0000                	unimp
 2b6:	0000                	unimp
 2b8:	0050                	addi	a2,sp,4
 2ba:	0000                	unimp
 2bc:	0000                	unimp
 2be:	0000                	unimp
 2c0:	0e44                	addi	s1,sp,788
 2c2:	4430                	lw	a2,72(s0)
 2c4:	0288                	addi	a0,sp,320
 2c6:	0c44                	addi	s1,sp,532
 2c8:	0008                	0x8
 2ca:	c87c                	sw	a5,84(s0)
 2cc:	020c                	addi	a1,sp,256
 2ce:	4430                	lw	a2,72(s0)
 2d0:	000e                	c.slli	zero,0x3
 2d2:	0000                	unimp
 2d4:	0000                	unimp
 2d6:	0000                	unimp
 2d8:	002c                	addi	a1,sp,8
 2da:	0000                	unimp
 2dc:	0298                	addi	a4,sp,320
 2de:	0000                	unimp
 2e0:	356c                	fld	fa1,232(a0)
 2e2:	0002                	c.slli64	zero
 2e4:	0000                	unimp
 2e6:	0000                	unimp
 2e8:	0070                	addi	a2,sp,12
 2ea:	0000                	unimp
 2ec:	0000                	unimp
 2ee:	0000                	unimp
 2f0:	0e44                	addi	s1,sp,788
 2f2:	4440                	lw	s0,12(s0)
 2f4:	0288                	addi	a0,sp,320
 2f6:	0c44                	addi	s1,sp,532
 2f8:	0008                	0x8
 2fa:	5c02                	lw	s8,32(sp)
 2fc:	0cc8                	addi	a0,sp,596
 2fe:	4002                	0x4002
 300:	0e44                	addi	s1,sp,788
 302:	0000                	unimp
 304:	0000                	unimp
 306:	0000                	unimp
 308:	000c                	0xc
 30a:	0000                	unimp
 30c:	ffffffff          	0xffffffff
 310:	7c010003          	lb	zero,1984(sp)
 314:	0d01                	addi	s10,s10,0
 316:	0002                	c.slli64	zero
 318:	002c                	addi	a1,sp,8
 31a:	0000                	unimp
 31c:	0308                	addi	a0,sp,384
 31e:	0000                	unimp
 320:	35dc                	fld	fa5,168(a1)
 322:	0002                	c.slli64	zero
 324:	0000                	unimp
 326:	0000                	unimp
 328:	002c                	addi	a1,sp,8
 32a:	0000                	unimp
 32c:	0000                	unimp
 32e:	0000                	unimp
 330:	0e44                	addi	s1,sp,788
 332:	4420                	lw	s0,72(s0)
 334:	0288                	addi	a0,sp,320
 336:	0c44                	addi	s1,sp,532
 338:	0008                	0x8
 33a:	c858                	sw	a4,20(s0)
 33c:	020c                	addi	a1,sp,256
 33e:	4420                	lw	s0,72(s0)
 340:	000e                	c.slli	zero,0x3
 342:	0000                	unimp
 344:	0000                	unimp
 346:	0000                	unimp
 348:	002c                	addi	a1,sp,8
 34a:	0000                	unimp
 34c:	0308                	addi	a0,sp,384
 34e:	0000                	unimp
 350:	3608                	fld	fa0,40(a2)
 352:	0002                	c.slli64	zero
 354:	0000                	unimp
 356:	0000                	unimp
 358:	0034                	addi	a3,sp,8
 35a:	0000                	unimp
 35c:	0000                	unimp
 35e:	0000                	unimp
 360:	0e44                	addi	s1,sp,788
 362:	4420                	lw	s0,72(s0)
 364:	0288                	addi	a0,sp,320
 366:	0c44                	addi	s1,sp,532
 368:	0008                	0x8
 36a:	c860                	sw	s0,84(s0)
 36c:	020c                	addi	a1,sp,256
 36e:	4420                	lw	s0,72(s0)
 370:	000e                	c.slli	zero,0x3
 372:	0000                	unimp
 374:	0000                	unimp
 376:	0000                	unimp
 378:	002c                	addi	a1,sp,8
 37a:	0000                	unimp
 37c:	0308                	addi	a0,sp,384
 37e:	0000                	unimp
 380:	363c                	fld	fa5,104(a2)
 382:	0002                	c.slli64	zero
 384:	0000                	unimp
 386:	0000                	unimp
 388:	0044                	addi	s1,sp,4
 38a:	0000                	unimp
 38c:	0000                	unimp
 38e:	0000                	unimp
 390:	0e44                	addi	s1,sp,788
 392:	4420                	lw	s0,72(s0)
 394:	0288                	addi	a0,sp,320
 396:	0c44                	addi	s1,sp,532
 398:	0008                	0x8
 39a:	c870                	sw	a2,84(s0)
 39c:	020c                	addi	a1,sp,256
 39e:	4420                	lw	s0,72(s0)
 3a0:	000e                	c.slli	zero,0x3
 3a2:	0000                	unimp
 3a4:	0000                	unimp
 3a6:	0000                	unimp
 3a8:	002c                	addi	a1,sp,8
 3aa:	0000                	unimp
 3ac:	0308                	addi	a0,sp,384
 3ae:	0000                	unimp
 3b0:	3680                	fld	fs0,40(a3)
 3b2:	0002                	c.slli64	zero
 3b4:	0000                	unimp
 3b6:	0000                	unimp
 3b8:	0244                	addi	s1,sp,260
 3ba:	0000                	unimp
 3bc:	0000                	unimp
 3be:	0000                	unimp
 3c0:	0e44                	addi	s1,sp,788
 3c2:	4820                	lw	s0,80(s0)
 3c4:	0281                	addi	t0,t0,0
 3c6:	0488                	addi	a0,sp,576
 3c8:	0c44                	addi	s1,sp,532
 3ca:	0008                	0x8
 3cc:	c1022803          	lw	a6,-1008(tp) # fffffffffffe0c10 <TEXT_ROM+0xfffffffffffb9c10>
 3d0:	c844                	sw	s1,20(s0)
 3d2:	020c                	addi	a1,sp,256
 3d4:	4420                	lw	s0,72(s0)
 3d6:	000e                	c.slli	zero,0x3
 3d8:	002c                	addi	a1,sp,8
 3da:	0000                	unimp
 3dc:	0308                	addi	a0,sp,384
 3de:	0000                	unimp
 3e0:	38c4                	fld	fs1,176(s1)
 3e2:	0002                	c.slli64	zero
 3e4:	0000                	unimp
 3e6:	0000                	unimp
 3e8:	0174                	addi	a3,sp,140
 3ea:	0000                	unimp
 3ec:	0000                	unimp
 3ee:	0000                	unimp
 3f0:	0e44                	addi	s1,sp,788
 3f2:	4820                	lw	s0,80(s0)
 3f4:	0281                	addi	t0,t0,0
 3f6:	0488                	addi	a0,sp,576
 3f8:	0c44                	addi	s1,sp,532
 3fa:	0008                	0x8
 3fc:	c1015803          	lhu	a6,-1008(sp)
 400:	c844                	sw	s1,20(s0)
 402:	020c                	addi	a1,sp,256
 404:	4420                	lw	s0,72(s0)
 406:	000e                	c.slli	zero,0x3
 408:	002c                	addi	a1,sp,8
 40a:	0000                	unimp
 40c:	0308                	addi	a0,sp,384
 40e:	0000                	unimp
 410:	3a38                	fld	fa4,112(a2)
 412:	0002                	c.slli64	zero
 414:	0000                	unimp
 416:	0000                	unimp
 418:	0070                	addi	a2,sp,12
 41a:	0000                	unimp
 41c:	0000                	unimp
 41e:	0000                	unimp
 420:	0e44                	addi	s1,sp,788
 422:	4810                	lw	a2,16(s0)
 424:	0281                	addi	t0,t0,0
 426:	0488                	addi	a0,sp,576
 428:	0c44                	addi	s1,sp,532
 42a:	0008                	0x8
 42c:	5402                	lw	s0,32(sp)
 42e:	44c1                	li	s1,16
 430:	0cc8                	addi	a0,sp,596
 432:	1002                	c.slli	zero,0x20
 434:	0e44                	addi	s1,sp,788
 436:	0000                	unimp
 438:	002c                	addi	a1,sp,8
 43a:	0000                	unimp
 43c:	0308                	addi	a0,sp,384
 43e:	0000                	unimp
 440:	3aa8                	fld	fa0,112(a3)
 442:	0002                	c.slli64	zero
 444:	0000                	unimp
 446:	0000                	unimp
 448:	0070                	addi	a2,sp,12
 44a:	0000                	unimp
 44c:	0000                	unimp
 44e:	0000                	unimp
 450:	0e44                	addi	s1,sp,788
 452:	4810                	lw	a2,16(s0)
 454:	0281                	addi	t0,t0,0
 456:	0488                	addi	a0,sp,576
 458:	0c44                	addi	s1,sp,532
 45a:	0008                	0x8
 45c:	5402                	lw	s0,32(sp)
 45e:	44c1                	li	s1,16
 460:	0cc8                	addi	a0,sp,596
 462:	1002                	c.slli	zero,0x20
 464:	0e44                	addi	s1,sp,788
 466:	0000                	unimp
 468:	002c                	addi	a1,sp,8
 46a:	0000                	unimp
 46c:	0308                	addi	a0,sp,384
 46e:	0000                	unimp
 470:	3b18                	fld	fa4,48(a4)
 472:	0002                	c.slli64	zero
 474:	0000                	unimp
 476:	0000                	unimp
 478:	008c                	addi	a1,sp,64
 47a:	0000                	unimp
 47c:	0000                	unimp
 47e:	0000                	unimp
 480:	0e44                	addi	s1,sp,788
 482:	4810                	lw	a2,16(s0)
 484:	0281                	addi	t0,t0,0
 486:	0488                	addi	a0,sp,576
 488:	0c44                	addi	s1,sp,532
 48a:	0008                	0x8
 48c:	7002                	0x7002
 48e:	44c1                	li	s1,16
 490:	0cc8                	addi	a0,sp,596
 492:	1002                	c.slli	zero,0x20
 494:	0e44                	addi	s1,sp,788
 496:	0000                	unimp
 498:	002c                	addi	a1,sp,8
 49a:	0000                	unimp
 49c:	0308                	addi	a0,sp,384
 49e:	0000                	unimp
 4a0:	3ba4                	fld	fs1,112(a5)
 4a2:	0002                	c.slli64	zero
 4a4:	0000                	unimp
 4a6:	0000                	unimp
 4a8:	0064                	addi	s1,sp,12
 4aa:	0000                	unimp
 4ac:	0000                	unimp
 4ae:	0000                	unimp
 4b0:	0e44                	addi	s1,sp,788
 4b2:	4820                	lw	s0,80(s0)
 4b4:	0281                	addi	t0,t0,0
 4b6:	0488                	addi	a0,sp,576
 4b8:	0c44                	addi	s1,sp,532
 4ba:	0008                	0x8
 4bc:	4802                	lw	a6,0(sp)
 4be:	44c1                	li	s1,16
 4c0:	0cc8                	addi	a0,sp,596
 4c2:	2002                	fld	ft0,0(sp)
 4c4:	0e44                	addi	s1,sp,788
 4c6:	0000                	unimp
 4c8:	002c                	addi	a1,sp,8
 4ca:	0000                	unimp
 4cc:	0308                	addi	a0,sp,384
 4ce:	0000                	unimp
 4d0:	3c08                	fld	fa0,56(s0)
 4d2:	0002                	c.slli64	zero
 4d4:	0000                	unimp
 4d6:	0000                	unimp
 4d8:	0100                	addi	s0,sp,128
 4da:	0000                	unimp
 4dc:	0000                	unimp
 4de:	0000                	unimp
 4e0:	0e44                	addi	s1,sp,788
 4e2:	4830                	lw	a2,80(s0)
 4e4:	0281                	addi	t0,t0,0
 4e6:	0488                	addi	a0,sp,576
 4e8:	0c44                	addi	s1,sp,532
 4ea:	0008                	0x8
 4ec:	c100e403          	lwu	s0,-1008(ra) # 3c10 <_start-0x1e3f0>
 4f0:	c844                	sw	s1,20(s0)
 4f2:	020c                	addi	a1,sp,256
 4f4:	4430                	lw	a2,72(s0)
 4f6:	000e                	c.slli	zero,0x3
 4f8:	002c                	addi	a1,sp,8
 4fa:	0000                	unimp
 4fc:	0308                	addi	a0,sp,384
 4fe:	0000                	unimp
 500:	3d08                	fld	fa0,56(a0)
 502:	0002                	c.slli64	zero
 504:	0000                	unimp
 506:	0000                	unimp
 508:	0084                	addi	s1,sp,64
 50a:	0000                	unimp
 50c:	0000                	unimp
 50e:	0000                	unimp
 510:	0e44                	addi	s1,sp,788
 512:	4810                	lw	a2,16(s0)
 514:	0281                	addi	t0,t0,0
 516:	0488                	addi	a0,sp,576
 518:	0c44                	addi	s1,sp,532
 51a:	0008                	0x8
 51c:	6802                	ld	a6,0(sp)
 51e:	44c1                	li	s1,16
 520:	0cc8                	addi	a0,sp,596
 522:	1002                	c.slli	zero,0x20
 524:	0e44                	addi	s1,sp,788
 526:	0000                	unimp
 528:	000c                	0xc
 52a:	0000                	unimp
 52c:	ffffffff          	0xffffffff
 530:	7c010003          	lb	zero,1984(sp)
 534:	0d01                	addi	s10,s10,0
 536:	0002                	c.slli64	zero
 538:	002c                	addi	a1,sp,8
 53a:	0000                	unimp
 53c:	0528                	addi	a0,sp,648
 53e:	0000                	unimp
 540:	3d8c                	fld	fa1,56(a1)
 542:	0002                	c.slli64	zero
 544:	0000                	unimp
 546:	0000                	unimp
 548:	002c                	addi	a1,sp,8
 54a:	0000                	unimp
 54c:	0000                	unimp
 54e:	0000                	unimp
 550:	0e44                	addi	s1,sp,788
 552:	4420                	lw	s0,72(s0)
 554:	0288                	addi	a0,sp,320
 556:	0c44                	addi	s1,sp,532
 558:	0008                	0x8
 55a:	c858                	sw	a4,20(s0)
 55c:	020c                	addi	a1,sp,256
 55e:	4420                	lw	s0,72(s0)
 560:	000e                	c.slli	zero,0x3
 562:	0000                	unimp
 564:	0000                	unimp
 566:	0000                	unimp
 568:	002c                	addi	a1,sp,8
 56a:	0000                	unimp
 56c:	0528                	addi	a0,sp,648
 56e:	0000                	unimp
 570:	3db8                	fld	fa4,120(a1)
 572:	0002                	c.slli64	zero
 574:	0000                	unimp
 576:	0000                	unimp
 578:	002c                	addi	a1,sp,8
 57a:	0000                	unimp
 57c:	0000                	unimp
 57e:	0000                	unimp
 580:	0e44                	addi	s1,sp,788
 582:	4420                	lw	s0,72(s0)
 584:	0288                	addi	a0,sp,320
 586:	0c44                	addi	s1,sp,532
 588:	0008                	0x8
 58a:	c858                	sw	a4,20(s0)
 58c:	020c                	addi	a1,sp,256
 58e:	4420                	lw	s0,72(s0)
 590:	000e                	c.slli	zero,0x3
 592:	0000                	unimp
 594:	0000                	unimp
 596:	0000                	unimp
 598:	002c                	addi	a1,sp,8
 59a:	0000                	unimp
 59c:	0528                	addi	a0,sp,648
 59e:	0000                	unimp
 5a0:	3de4                	fld	fs1,248(a1)
 5a2:	0002                	c.slli64	zero
 5a4:	0000                	unimp
 5a6:	0000                	unimp
 5a8:	0034                	addi	a3,sp,8
 5aa:	0000                	unimp
 5ac:	0000                	unimp
 5ae:	0000                	unimp
 5b0:	0e44                	addi	s1,sp,788
 5b2:	4420                	lw	s0,72(s0)
 5b4:	0288                	addi	a0,sp,320
 5b6:	0c44                	addi	s1,sp,532
 5b8:	0008                	0x8
 5ba:	c860                	sw	s0,84(s0)
 5bc:	020c                	addi	a1,sp,256
 5be:	4420                	lw	s0,72(s0)
 5c0:	000e                	c.slli	zero,0x3
 5c2:	0000                	unimp
 5c4:	0000                	unimp
 5c6:	0000                	unimp
 5c8:	002c                	addi	a1,sp,8
 5ca:	0000                	unimp
 5cc:	0528                	addi	a0,sp,648
 5ce:	0000                	unimp
 5d0:	3e18                	fld	fa4,56(a2)
 5d2:	0002                	c.slli64	zero
 5d4:	0000                	unimp
 5d6:	0000                	unimp
 5d8:	024c                	addi	a1,sp,260
 5da:	0000                	unimp
 5dc:	0000                	unimp
 5de:	0000                	unimp
 5e0:	0e44                	addi	s1,sp,788
 5e2:	4820                	lw	s0,80(s0)
 5e4:	0281                	addi	t0,t0,0
 5e6:	0488                	addi	a0,sp,576
 5e8:	0c44                	addi	s1,sp,532
 5ea:	0008                	0x8
 5ec:	c1023003          	ld	zero,-1008(tp) # fffffffffffffc10 <TEXT_ROM+0xfffffffffffd8c10>
 5f0:	c844                	sw	s1,20(s0)
 5f2:	020c                	addi	a1,sp,256
 5f4:	4420                	lw	s0,72(s0)
 5f6:	000e                	c.slli	zero,0x3
 5f8:	002c                	addi	a1,sp,8
 5fa:	0000                	unimp
 5fc:	0528                	addi	a0,sp,648
 5fe:	0000                	unimp
 600:	4064                	lw	s1,68(s0)
 602:	0002                	c.slli64	zero
 604:	0000                	unimp
 606:	0000                	unimp
 608:	0070                	addi	a2,sp,12
 60a:	0000                	unimp
 60c:	0000                	unimp
 60e:	0000                	unimp
 610:	0e44                	addi	s1,sp,788
 612:	4830                	lw	a2,80(s0)
 614:	0281                	addi	t0,t0,0
 616:	0488                	addi	a0,sp,576
 618:	0c44                	addi	s1,sp,532
 61a:	0008                	0x8
 61c:	5402                	lw	s0,32(sp)
 61e:	44c1                	li	s1,16
 620:	0cc8                	addi	a0,sp,596
 622:	3002                	fld	ft0,32(sp)
 624:	0e44                	addi	s1,sp,788
 626:	0000                	unimp
 628:	002c                	addi	a1,sp,8
 62a:	0000                	unimp
 62c:	0528                	addi	a0,sp,648
 62e:	0000                	unimp
 630:	40d4                	lw	a3,4(s1)
 632:	0002                	c.slli64	zero
 634:	0000                	unimp
 636:	0000                	unimp
 638:	0040                	addi	s0,sp,4
 63a:	0000                	unimp
 63c:	0000                	unimp
 63e:	0000                	unimp
 640:	0e44                	addi	s1,sp,788
 642:	4820                	lw	s0,80(s0)
 644:	0281                	addi	t0,t0,0
 646:	0488                	addi	a0,sp,576
 648:	0c44                	addi	s1,sp,532
 64a:	0008                	0x8
 64c:	c164                	sw	s1,68(a0)
 64e:	c844                	sw	s1,20(s0)
 650:	020c                	addi	a1,sp,256
 652:	4420                	lw	s0,72(s0)
 654:	000e                	c.slli	zero,0x3
 656:	0000                	unimp
 658:	002c                	addi	a1,sp,8
 65a:	0000                	unimp
 65c:	0528                	addi	a0,sp,648
 65e:	0000                	unimp
 660:	4114                	lw	a3,0(a0)
 662:	0002                	c.slli64	zero
 664:	0000                	unimp
 666:	0000                	unimp
 668:	0060                	addi	s0,sp,12
 66a:	0000                	unimp
 66c:	0000                	unimp
 66e:	0000                	unimp
 670:	0e44                	addi	s1,sp,788
 672:	4820                	lw	s0,80(s0)
 674:	0281                	addi	t0,t0,0
 676:	0488                	addi	a0,sp,576
 678:	0c44                	addi	s1,sp,532
 67a:	0008                	0x8
 67c:	4402                	lw	s0,0(sp)
 67e:	44c1                	li	s1,16
 680:	0cc8                	addi	a0,sp,596
 682:	2002                	fld	ft0,0(sp)
 684:	0e44                	addi	s1,sp,788
 686:	0000                	unimp
 688:	002c                	addi	a1,sp,8
 68a:	0000                	unimp
 68c:	0528                	addi	a0,sp,648
 68e:	0000                	unimp
 690:	4174                	lw	a3,68(a0)
 692:	0002                	c.slli64	zero
 694:	0000                	unimp
 696:	0000                	unimp
 698:	0090                	addi	a2,sp,64
 69a:	0000                	unimp
 69c:	0000                	unimp
 69e:	0000                	unimp
 6a0:	0e44                	addi	s1,sp,788
 6a2:	4830                	lw	a2,80(s0)
 6a4:	0281                	addi	t0,t0,0
 6a6:	0488                	addi	a0,sp,576
 6a8:	0c44                	addi	s1,sp,532
 6aa:	0008                	0x8
 6ac:	7402                	ld	s0,32(sp)
 6ae:	44c1                	li	s1,16
 6b0:	0cc8                	addi	a0,sp,596
 6b2:	3002                	fld	ft0,32(sp)
 6b4:	0e44                	addi	s1,sp,788
 6b6:	0000                	unimp
 6b8:	002c                	addi	a1,sp,8
 6ba:	0000                	unimp
 6bc:	0528                	addi	a0,sp,648
 6be:	0000                	unimp
 6c0:	4204                	lw	s1,0(a2)
 6c2:	0002                	c.slli64	zero
 6c4:	0000                	unimp
 6c6:	0000                	unimp
 6c8:	00f0                	addi	a2,sp,76
 6ca:	0000                	unimp
 6cc:	0000                	unimp
 6ce:	0000                	unimp
 6d0:	0e44                	addi	s1,sp,788
 6d2:	4440                	lw	s0,12(s0)
 6d4:	0288                	addi	a0,sp,320
 6d6:	0c44                	addi	s1,sp,532
 6d8:	0008                	0x8
 6da:	dc02                	sw	zero,56(sp)
 6dc:	0cc8                	addi	a0,sp,596
 6de:	4002                	0x4002
 6e0:	0e44                	addi	s1,sp,788
 6e2:	0000                	unimp
 6e4:	0000                	unimp
 6e6:	0000                	unimp
 6e8:	002c                	addi	a1,sp,8
 6ea:	0000                	unimp
 6ec:	0528                	addi	a0,sp,648
 6ee:	0000                	unimp
 6f0:	42f4                	lw	a3,68(a3)
 6f2:	0002                	c.slli64	zero
 6f4:	0000                	unimp
 6f6:	0000                	unimp
 6f8:	01c8                	addi	a0,sp,196
 6fa:	0000                	unimp
 6fc:	0000                	unimp
 6fe:	0000                	unimp
 700:	0e44                	addi	s1,sp,788
 702:	4850                	lw	a2,20(s0)
 704:	0281                	addi	t0,t0,0
 706:	0488                	addi	a0,sp,576
 708:	0c44                	addi	s1,sp,532
 70a:	0008                	0x8
 70c:	c101ac03          	lw	s8,-1008(gp)
 710:	c844                	sw	s1,20(s0)
 712:	020c                	addi	a1,sp,256
 714:	4450                	lw	a2,12(s0)
 716:	000e                	c.slli	zero,0x3
 718:	002c                	addi	a1,sp,8
 71a:	0000                	unimp
 71c:	0528                	addi	a0,sp,648
 71e:	0000                	unimp
 720:	44bc                	lw	a5,72(s1)
 722:	0002                	c.slli64	zero
 724:	0000                	unimp
 726:	0000                	unimp
 728:	01d4                	addi	a3,sp,196
 72a:	0000                	unimp
 72c:	0000                	unimp
 72e:	0000                	unimp
 730:	0e44                	addi	s1,sp,788
 732:	4850                	lw	a2,20(s0)
 734:	0281                	addi	t0,t0,0
 736:	0488                	addi	a0,sp,576
 738:	0c44                	addi	s1,sp,532
 73a:	0008                	0x8
 73c:	c101b803          	ld	a6,-1008(gp)
 740:	c844                	sw	s1,20(s0)
 742:	020c                	addi	a1,sp,256
 744:	4450                	lw	a2,12(s0)
 746:	000e                	c.slli	zero,0x3
 748:	002c                	addi	a1,sp,8
 74a:	0000                	unimp
 74c:	0528                	addi	a0,sp,648
 74e:	0000                	unimp
 750:	4690                	lw	a2,8(a3)
 752:	0002                	c.slli64	zero
 754:	0000                	unimp
 756:	0000                	unimp
 758:	006c                	addi	a1,sp,12
 75a:	0000                	unimp
 75c:	0000                	unimp
 75e:	0000                	unimp
 760:	0e44                	addi	s1,sp,788
 762:	4870                	lw	a2,84(s0)
 764:	1281                	addi	t0,t0,-32
 766:	1488                	addi	a0,sp,608
 768:	0c44                	addi	s1,sp,532
 76a:	4008                	lw	a0,0(s0)
 76c:	5002                	0x5002
 76e:	44c1                	li	s1,16
 770:	0cc8                	addi	a0,sp,596
 772:	7002                	0x7002
 774:	0e44                	addi	s1,sp,788
 776:	0000                	unimp
 778:	002c                	addi	a1,sp,8
 77a:	0000                	unimp
 77c:	0528                	addi	a0,sp,648
 77e:	0000                	unimp
 780:	46fc                	lw	a5,76(a3)
 782:	0002                	c.slli64	zero
 784:	0000                	unimp
 786:	0000                	unimp
 788:	00d0                	addi	a2,sp,68
 78a:	0000                	unimp
 78c:	0000                	unimp
 78e:	0000                	unimp
 790:	0e44                	addi	s1,sp,788
 792:	4830                	lw	a2,80(s0)
 794:	0281                	addi	t0,t0,0
 796:	0488                	addi	a0,sp,576
 798:	0c44                	addi	s1,sp,532
 79a:	0008                	0x8
 79c:	b402                	fsd	ft0,40(sp)
 79e:	44c1                	li	s1,16
 7a0:	0cc8                	addi	a0,sp,596
 7a2:	3002                	fld	ft0,32(sp)
 7a4:	0e44                	addi	s1,sp,788
	...
