
benos_payload.elf:     file format elf64-littleriscv


Disassembly of section .text.boot:

0000000000020000 <_start>:
   20000:	0300006f          	j	20030 <reset>
   20004:	4765                	li	a4,25
   20006:	422e4e4f          	fnmadd.d	ft8,ft8,ft2,fs0,rmm
   2000a:	3054                	fld	fa3,160(s0)
   2000c:	5678                	lw	a4,108(a2)
   2000e:	1234                	addi	a3,sp,296
   20010:	9a70                	0x9a70
   20012:	0000                	unimp
   20014:	0030                	addi	a2,sp,8
   20016:	0000                	unimp
   20018:	30303033          	0x30303033
   2001c:	0000                	unimp
   2001e:	0002                	c.slli64	zero
   20020:	0000                	unimp
   20022:	0002                	c.slli64	zero
	...
   2002c:	2e34                	fld	fa3,88(a2)
   2002e:	0030                	addi	a2,sp,8

0000000000020030 <reset>:
   20030:	00001117          	auipc	sp,0x1
   20034:	fd010113          	addi	sp,sp,-48 # 21000 <stacks_start>
   20038:	000012b7          	lui	t0,0x1
   2003c:	00510133          	add	sp,sp,t0
   20040:	4a00006f          	j	204e0 <sbi_main>

Disassembly of section .text:

0000000000020044 <read_csr_num>:
   20044:	fd010113          	addi	sp,sp,-48
   20048:	02813423          	sd	s0,40(sp)
   2004c:	02913023          	sd	s1,32(sp)
   20050:	03010413          	addi	s0,sp,48
   20054:	00050793          	mv	a5,a0
   20058:	fcf42e23          	sw	a5,-36(s0)
   2005c:	fe043423          	sd	zero,-24(s0)
   20060:	fdc42783          	lw	a5,-36(s0)
   20064:	c607869b          	addiw	a3,a5,-928
   20068:	0006871b          	sext.w	a4,a3
   2006c:	01700793          	li	a5,23
   20070:	0ee7e463          	bltu	a5,a4,20158 <read_csr_num+0x114>
   20074:	02069793          	slli	a5,a3,0x20
   20078:	0207d793          	srli	a5,a5,0x20
   2007c:	00279713          	slli	a4,a5,0x2
   20080:	00000797          	auipc	a5,0x0
   20084:	53878793          	addi	a5,a5,1336 # 205b8 <sbi_main+0xd8>
   20088:	00f707b3          	add	a5,a4,a5
   2008c:	0007a783          	lw	a5,0(a5)
   20090:	0007871b          	sext.w	a4,a5
   20094:	00000797          	auipc	a5,0x0
   20098:	52478793          	addi	a5,a5,1316 # 205b8 <sbi_main+0xd8>
   2009c:	00f707b3          	add	a5,a4,a5
   200a0:	00078067          	jr	a5
   200a4:	3a0027f3          	csrr	a5,pmpcfg0
   200a8:	00078493          	mv	s1,a5
   200ac:	00048793          	mv	a5,s1
   200b0:	fef43423          	sd	a5,-24(s0)
   200b4:	0a80006f          	j	2015c <read_csr_num+0x118>
   200b8:	3b0027f3          	csrr	a5,pmpaddr0
   200bc:	00078493          	mv	s1,a5
   200c0:	00048793          	mv	a5,s1
   200c4:	fef43423          	sd	a5,-24(s0)
   200c8:	0940006f          	j	2015c <read_csr_num+0x118>
   200cc:	3b1027f3          	csrr	a5,pmpaddr1
   200d0:	00078493          	mv	s1,a5
   200d4:	00048793          	mv	a5,s1
   200d8:	fef43423          	sd	a5,-24(s0)
   200dc:	0800006f          	j	2015c <read_csr_num+0x118>
   200e0:	3b2027f3          	csrr	a5,pmpaddr2
   200e4:	00078493          	mv	s1,a5
   200e8:	00048793          	mv	a5,s1
   200ec:	fef43423          	sd	a5,-24(s0)
   200f0:	06c0006f          	j	2015c <read_csr_num+0x118>
   200f4:	3b3027f3          	csrr	a5,pmpaddr3
   200f8:	00078493          	mv	s1,a5
   200fc:	00048793          	mv	a5,s1
   20100:	fef43423          	sd	a5,-24(s0)
   20104:	0580006f          	j	2015c <read_csr_num+0x118>
   20108:	3b4027f3          	csrr	a5,pmpaddr4
   2010c:	00078493          	mv	s1,a5
   20110:	00048793          	mv	a5,s1
   20114:	fef43423          	sd	a5,-24(s0)
   20118:	0440006f          	j	2015c <read_csr_num+0x118>
   2011c:	3b5027f3          	csrr	a5,pmpaddr5
   20120:	00078493          	mv	s1,a5
   20124:	00048793          	mv	a5,s1
   20128:	fef43423          	sd	a5,-24(s0)
   2012c:	0300006f          	j	2015c <read_csr_num+0x118>
   20130:	3b6027f3          	csrr	a5,pmpaddr6
   20134:	00078493          	mv	s1,a5
   20138:	00048793          	mv	a5,s1
   2013c:	fef43423          	sd	a5,-24(s0)
   20140:	01c0006f          	j	2015c <read_csr_num+0x118>
   20144:	3b7027f3          	csrr	a5,pmpaddr7
   20148:	00078493          	mv	s1,a5
   2014c:	00048793          	mv	a5,s1
   20150:	fef43423          	sd	a5,-24(s0)
   20154:	0080006f          	j	2015c <read_csr_num+0x118>
   20158:	00000013          	nop
   2015c:	fe843783          	ld	a5,-24(s0)
   20160:	00078513          	mv	a0,a5
   20164:	02813403          	ld	s0,40(sp)
   20168:	02013483          	ld	s1,32(sp)
   2016c:	03010113          	addi	sp,sp,48
   20170:	00008067          	ret

0000000000020174 <write_csr_num>:
   20174:	f9010113          	addi	sp,sp,-112
   20178:	06813423          	sd	s0,104(sp)
   2017c:	07010413          	addi	s0,sp,112
   20180:	00050793          	mv	a5,a0
   20184:	f8b43823          	sd	a1,-112(s0)
   20188:	f8f42e23          	sw	a5,-100(s0)
   2018c:	f9c42783          	lw	a5,-100(s0)
   20190:	c607869b          	addiw	a3,a5,-928
   20194:	0006871b          	sext.w	a4,a3
   20198:	01700793          	li	a5,23
   2019c:	0ee7e463          	bltu	a5,a4,20284 <write_csr_num+0x110>
   201a0:	02069793          	slli	a5,a3,0x20
   201a4:	0207d793          	srli	a5,a5,0x20
   201a8:	00279713          	slli	a4,a5,0x2
   201ac:	00000797          	auipc	a5,0x0
   201b0:	46c78793          	addi	a5,a5,1132 # 20618 <sbi_main+0x138>
   201b4:	00f707b3          	add	a5,a4,a5
   201b8:	0007a783          	lw	a5,0(a5)
   201bc:	0007871b          	sext.w	a4,a5
   201c0:	00000797          	auipc	a5,0x0
   201c4:	45878793          	addi	a5,a5,1112 # 20618 <sbi_main+0x138>
   201c8:	00f707b3          	add	a5,a4,a5
   201cc:	00078067          	jr	a5
   201d0:	f9043783          	ld	a5,-112(s0)
   201d4:	faf43423          	sd	a5,-88(s0)
   201d8:	fa843783          	ld	a5,-88(s0)
   201dc:	3a079073          	csrw	pmpcfg0,a5
   201e0:	0a80006f          	j	20288 <write_csr_num+0x114>
   201e4:	f9043783          	ld	a5,-112(s0)
   201e8:	faf43823          	sd	a5,-80(s0)
   201ec:	fb043783          	ld	a5,-80(s0)
   201f0:	3b079073          	csrw	pmpaddr0,a5
   201f4:	0940006f          	j	20288 <write_csr_num+0x114>
   201f8:	f9043783          	ld	a5,-112(s0)
   201fc:	faf43c23          	sd	a5,-72(s0)
   20200:	fb843783          	ld	a5,-72(s0)
   20204:	3b179073          	csrw	pmpaddr1,a5
   20208:	0800006f          	j	20288 <write_csr_num+0x114>
   2020c:	f9043783          	ld	a5,-112(s0)
   20210:	fcf43023          	sd	a5,-64(s0)
   20214:	fc043783          	ld	a5,-64(s0)
   20218:	3b279073          	csrw	pmpaddr2,a5
   2021c:	06c0006f          	j	20288 <write_csr_num+0x114>
   20220:	f9043783          	ld	a5,-112(s0)
   20224:	fcf43423          	sd	a5,-56(s0)
   20228:	fc843783          	ld	a5,-56(s0)
   2022c:	3b379073          	csrw	pmpaddr3,a5
   20230:	0580006f          	j	20288 <write_csr_num+0x114>
   20234:	f9043783          	ld	a5,-112(s0)
   20238:	fcf43823          	sd	a5,-48(s0)
   2023c:	fd043783          	ld	a5,-48(s0)
   20240:	3b479073          	csrw	pmpaddr4,a5
   20244:	0440006f          	j	20288 <write_csr_num+0x114>
   20248:	f9043783          	ld	a5,-112(s0)
   2024c:	fcf43c23          	sd	a5,-40(s0)
   20250:	fd843783          	ld	a5,-40(s0)
   20254:	3b579073          	csrw	pmpaddr5,a5
   20258:	0300006f          	j	20288 <write_csr_num+0x114>
   2025c:	f9043783          	ld	a5,-112(s0)
   20260:	fef43023          	sd	a5,-32(s0)
   20264:	fe043783          	ld	a5,-32(s0)
   20268:	3b679073          	csrw	pmpaddr6,a5
   2026c:	01c0006f          	j	20288 <write_csr_num+0x114>
   20270:	f9043783          	ld	a5,-112(s0)
   20274:	fef43423          	sd	a5,-24(s0)
   20278:	fe843783          	ld	a5,-24(s0)
   2027c:	3b779073          	csrw	pmpaddr7,a5
   20280:	0080006f          	j	20288 <write_csr_num+0x114>
   20284:	00000013          	nop
   20288:	00000013          	nop
   2028c:	06813403          	ld	s0,104(sp)
   20290:	07010113          	addi	sp,sp,112
   20294:	00008067          	ret

0000000000020298 <log2roundup>:
   20298:	fd010113          	addi	sp,sp,-48
   2029c:	02813423          	sd	s0,40(sp)
   202a0:	03010413          	addi	s0,sp,48
   202a4:	fca43c23          	sd	a0,-40(s0)
   202a8:	fe043423          	sd	zero,-24(s0)
   202ac:	02c0006f          	j	202d8 <log2roundup+0x40>
   202b0:	fe843783          	ld	a5,-24(s0)
   202b4:	0007879b          	sext.w	a5,a5
   202b8:	00078713          	mv	a4,a5
   202bc:	00100793          	li	a5,1
   202c0:	00e797b3          	sll	a5,a5,a4
   202c4:	fd843703          	ld	a4,-40(s0)
   202c8:	02e7f063          	bgeu	a5,a4,202e8 <log2roundup+0x50>
   202cc:	fe843783          	ld	a5,-24(s0)
   202d0:	00178793          	addi	a5,a5,1
   202d4:	fef43423          	sd	a5,-24(s0)
   202d8:	fe843703          	ld	a4,-24(s0)
   202dc:	03f00793          	li	a5,63
   202e0:	fce7f8e3          	bgeu	a5,a4,202b0 <log2roundup+0x18>
   202e4:	0080006f          	j	202ec <log2roundup+0x54>
   202e8:	00000013          	nop
   202ec:	fe843783          	ld	a5,-24(s0)
   202f0:	00078513          	mv	a0,a5
   202f4:	02813403          	ld	s0,40(sp)
   202f8:	03010113          	addi	sp,sp,48
   202fc:	00008067          	ret

0000000000020300 <sbi_set_pmp>:
   20300:	fa010113          	addi	sp,sp,-96
   20304:	04113c23          	sd	ra,88(sp)
   20308:	04813823          	sd	s0,80(sp)
   2030c:	06010413          	addi	s0,sp,96
   20310:	00050793          	mv	a5,a0
   20314:	fab43823          	sd	a1,-80(s0)
   20318:	fac43423          	sd	a2,-88(s0)
   2031c:	fad43023          	sd	a3,-96(s0)
   20320:	faf42e23          	sw	a5,-68(s0)
   20324:	fbc42783          	lw	a5,-68(s0)
   20328:	0007871b          	sext.w	a4,a5
   2032c:	00800793          	li	a5,8
   20330:	00e7d663          	bge	a5,a4,2033c <sbi_set_pmp+0x3c>
   20334:	fff00793          	li	a5,-1
   20338:	1940006f          	j	204cc <sbi_set_pmp+0x1cc>
   2033c:	fa843503          	ld	a0,-88(s0)
   20340:	f59ff0ef          	jal	ra,20298 <log2roundup>
   20344:	00050793          	mv	a5,a0
   20348:	fef42223          	sw	a5,-28(s0)
   2034c:	fe442783          	lw	a5,-28(s0)
   20350:	0007871b          	sext.w	a4,a5
   20354:	00100793          	li	a5,1
   20358:	00e7c663          	blt	a5,a4,20364 <sbi_set_pmp+0x64>
   2035c:	fff00793          	li	a5,-1
   20360:	16c0006f          	j	204cc <sbi_set_pmp+0x1cc>
   20364:	fb043783          	ld	a5,-80(s0)
   20368:	0027d793          	srli	a5,a5,0x2
   2036c:	fef43423          	sd	a5,-24(s0)
   20370:	fbc42783          	lw	a5,-68(s0)
   20374:	4027d79b          	sraiw	a5,a5,0x2
   20378:	0007879b          	sext.w	a5,a5
   2037c:	3a07879b          	addiw	a5,a5,928
   20380:	0007879b          	sext.w	a5,a5
   20384:	ffe7f793          	andi	a5,a5,-2
   20388:	fef42023          	sw	a5,-32(s0)
   2038c:	fbc42783          	lw	a5,-68(s0)
   20390:	0037979b          	slliw	a5,a5,0x3
   20394:	0007879b          	sext.w	a5,a5
   20398:	0387f793          	andi	a5,a5,56
   2039c:	fcf42e23          	sw	a5,-36(s0)
   203a0:	fbc42783          	lw	a5,-68(s0)
   203a4:	3b07879b          	addiw	a5,a5,944
   203a8:	fcf42c23          	sw	a5,-40(s0)
   203ac:	fa043783          	ld	a5,-96(s0)
   203b0:	fe77f793          	andi	a5,a5,-25
   203b4:	faf43023          	sd	a5,-96(s0)
   203b8:	fe442783          	lw	a5,-28(s0)
   203bc:	0007871b          	sext.w	a4,a5
   203c0:	00200793          	li	a5,2
   203c4:	00f71663          	bne	a4,a5,203d0 <sbi_set_pmp+0xd0>
   203c8:	01000793          	li	a5,16
   203cc:	0080006f          	j	203d4 <sbi_set_pmp+0xd4>
   203d0:	01800793          	li	a5,24
   203d4:	fa043703          	ld	a4,-96(s0)
   203d8:	00f767b3          	or	a5,a4,a5
   203dc:	faf43023          	sd	a5,-96(s0)
   203e0:	fdc42783          	lw	a5,-36(s0)
   203e4:	0ff00713          	li	a4,255
   203e8:	00f717b3          	sll	a5,a4,a5
   203ec:	fff7c793          	not	a5,a5
   203f0:	fcf43823          	sd	a5,-48(s0)
   203f4:	fe042783          	lw	a5,-32(s0)
   203f8:	00078513          	mv	a0,a5
   203fc:	c49ff0ef          	jal	ra,20044 <read_csr_num>
   20400:	00050713          	mv	a4,a0
   20404:	fd043783          	ld	a5,-48(s0)
   20408:	00e7f7b3          	and	a5,a5,a4
   2040c:	fcf43423          	sd	a5,-56(s0)
   20410:	fdc42783          	lw	a5,-36(s0)
   20414:	fa043703          	ld	a4,-96(s0)
   20418:	00f71733          	sll	a4,a4,a5
   2041c:	fd043783          	ld	a5,-48(s0)
   20420:	fff7c793          	not	a5,a5
   20424:	00f777b3          	and	a5,a4,a5
   20428:	fc843703          	ld	a4,-56(s0)
   2042c:	00f767b3          	or	a5,a4,a5
   20430:	fcf43423          	sd	a5,-56(s0)
   20434:	fe442783          	lw	a5,-28(s0)
   20438:	0007871b          	sext.w	a4,a5
   2043c:	00200793          	li	a5,2
   20440:	06e7d463          	bge	a5,a4,204a8 <sbi_set_pmp+0x1a8>
   20444:	fe442783          	lw	a5,-28(s0)
   20448:	0007871b          	sext.w	a4,a5
   2044c:	04000793          	li	a5,64
   20450:	00f71863          	bne	a4,a5,20460 <sbi_set_pmp+0x160>
   20454:	fff00793          	li	a5,-1
   20458:	fef43423          	sd	a5,-24(s0)
   2045c:	04c0006f          	j	204a8 <sbi_set_pmp+0x1a8>
   20460:	fe442783          	lw	a5,-28(s0)
   20464:	ffe7879b          	addiw	a5,a5,-2
   20468:	0007879b          	sext.w	a5,a5
   2046c:	00078713          	mv	a4,a5
   20470:	00100793          	li	a5,1
   20474:	00e797b3          	sll	a5,a5,a4
   20478:	fff78793          	addi	a5,a5,-1
   2047c:	fcf43023          	sd	a5,-64(s0)
   20480:	fc043783          	ld	a5,-64(s0)
   20484:	fff7c793          	not	a5,a5
   20488:	fe843703          	ld	a4,-24(s0)
   2048c:	00f777b3          	and	a5,a4,a5
   20490:	fef43423          	sd	a5,-24(s0)
   20494:	fc043783          	ld	a5,-64(s0)
   20498:	0017d793          	srli	a5,a5,0x1
   2049c:	fe843703          	ld	a4,-24(s0)
   204a0:	00f767b3          	or	a5,a4,a5
   204a4:	fef43423          	sd	a5,-24(s0)
   204a8:	fd842783          	lw	a5,-40(s0)
   204ac:	fe843583          	ld	a1,-24(s0)
   204b0:	00078513          	mv	a0,a5
   204b4:	cc1ff0ef          	jal	ra,20174 <write_csr_num>
   204b8:	fe042783          	lw	a5,-32(s0)
   204bc:	fc843583          	ld	a1,-56(s0)
   204c0:	00078513          	mv	a0,a5
   204c4:	cb1ff0ef          	jal	ra,20174 <write_csr_num>
   204c8:	00000793          	li	a5,0
   204cc:	00078513          	mv	a0,a5
   204d0:	05813083          	ld	ra,88(sp)
   204d4:	05013403          	ld	s0,80(sp)
   204d8:	06010113          	addi	sp,sp,96
   204dc:	00008067          	ret

00000000000204e0 <sbi_main>:
   204e0:	fa010113          	addi	sp,sp,-96
   204e4:	04113c23          	sd	ra,88(sp)
   204e8:	04813823          	sd	s0,80(sp)
   204ec:	04913423          	sd	s1,72(sp)
   204f0:	06010413          	addi	s0,sp,96
   204f4:	00700693          	li	a3,7
   204f8:	fff00613          	li	a2,-1
   204fc:	00000593          	li	a1,0
   20500:	00000513          	li	a0,0
   20504:	dfdff0ef          	jal	ra,20300 <sbi_set_pmp>
   20508:	300027f3          	csrr	a5,mstatus
   2050c:	00078493          	mv	s1,a5
   20510:	00048793          	mv	a5,s1
   20514:	fcf43c23          	sd	a5,-40(s0)
   20518:	fd843703          	ld	a4,-40(s0)
   2051c:	ffffe7b7          	lui	a5,0xffffe
   20520:	7ff78793          	addi	a5,a5,2047 # ffffffffffffe7ff <_payload_end+0xfffffffffffd4d8f>
   20524:	00f77733          	and	a4,a4,a5
   20528:	000017b7          	lui	a5,0x1
   2052c:	80078793          	addi	a5,a5,-2048 # 800 <__bin_size-0x9270>
   20530:	00f767b3          	or	a5,a4,a5
   20534:	fcf43c23          	sd	a5,-40(s0)
   20538:	fd843783          	ld	a5,-40(s0)
   2053c:	f7f7f793          	andi	a5,a5,-129
   20540:	fcf43c23          	sd	a5,-40(s0)
   20544:	fd843783          	ld	a5,-40(s0)
   20548:	fcf43823          	sd	a5,-48(s0)
   2054c:	fd043783          	ld	a5,-48(s0)
   20550:	30079073          	csrw	mstatus,a5
   20554:	000227b7          	lui	a5,0x22
   20558:	fcf43423          	sd	a5,-56(s0)
   2055c:	fc843783          	ld	a5,-56(s0)
   20560:	34179073          	csrw	mepc,a5
   20564:	000207b7          	lui	a5,0x20
   20568:	fcf43023          	sd	a5,-64(s0)
   2056c:	fc043783          	ld	a5,-64(s0)
   20570:	30579073          	csrw	mtvec,a5
   20574:	000227b7          	lui	a5,0x22
   20578:	faf43c23          	sd	a5,-72(s0)
   2057c:	fb843783          	ld	a5,-72(s0)
   20580:	10579073          	csrw	stvec,a5
   20584:	fa043823          	sd	zero,-80(s0)
   20588:	fb043783          	ld	a5,-80(s0)
   2058c:	10479073          	csrw	sie,a5
   20590:	fa043423          	sd	zero,-88(s0)
   20594:	fa843783          	ld	a5,-88(s0)
   20598:	18079073          	csrw	satp,a5
   2059c:	30200073          	mret
   205a0:	00000013          	nop
   205a4:	05813083          	ld	ra,88(sp)
   205a8:	05013403          	ld	s0,80(sp)
   205ac:	04813483          	ld	s1,72(sp)
   205b0:	06010113          	addi	sp,sp,96
   205b4:	00008067          	ret

Disassembly of section .payload:

0000000000022000 <bss_begin>:
   22000:	00005297          	auipc	t0,0x5
   22004:	00028293          	mv	t0,t0
   22008:	00000317          	auipc	t1,0x0
   2200c:	06030313          	addi	t1,t1,96 # 22068 <bss_begin+0x68>
   22010:	00003397          	auipc	t2,0x3
   22014:	ac838393          	addi	t2,t2,-1336 # 24ad8 <bss_begin+0x2ad8>
   22018:	0002b783          	ld	a5,0(t0) # 27000 <bss_begin+0x5000>
   2201c:	00f33023          	sd	a5,0(t1)
   22020:	00830313          	addi	t1,t1,8
   22024:	00828293          	addi	t0,t0,8
   22028:	fe7368e3          	bltu	t1,t2,22018 <bss_begin+0x18>
   2202c:	10401073          	csrw	sie,zero
   22030:	1a9020ef          	jal	ra,249d8 <bss_begin+0x29d8>
   22034:	00000097          	auipc	ra,0x0
   22038:	01c080e7          	jalr	28(ra) # 22050 <bss_begin+0x50>
   2203c:	00003117          	auipc	sp,0x3
   22040:	fc410113          	addi	sp,sp,-60 # 25000 <bss_begin+0x3000>
   22044:	000012b7          	lui	t0,0x1
   22048:	00510133          	add	sp,sp,t0
   2204c:	3c80006f          	j	22414 <bss_begin+0x414>
   22050:	00008493          	mv	s1,ra
   22054:	00003517          	auipc	a0,0x3
   22058:	d6450513          	addi	a0,a0,-668 # 24db8 <bss_begin+0x2db8>
   2205c:	23d020ef          	jal	ra,24a98 <bss_begin+0x2a98>
   22060:	00048093          	mv	ra,s1
   22064:	00008067          	ret
	...
   24ad8:	303c                	fld	fa5,96(s0)
   24ada:	2578                	fld	fa4,200(a0)
   24adc:	786c                	ld	a1,240(s0)
   24ade:	203e                	fld	ft0,456(sp)
   24ae0:	7325                	lui	t1,0xfffe9
   24ae2:	000a                	c.slli	zero,0x2
   24ae4:	0000                	unimp
   24ae6:	0000                	unimp
   24ae8:	616c                	ld	a1,192(a0)
   24aea:	3362                	fld	ft6,56(sp)
   24aec:	352d                	addiw	a0,a0,-21
   24aee:	203a                	fld	ft0,392(sp)
   24af0:	706d6f63          	bltu	s10,t1,2520e <bss_begin+0x320e>
   24af4:	7261                	lui	tp,0xffff8
   24af6:	5f65                	li	t5,-7
   24af8:	6e61                	lui	t3,0x18
   24afa:	5f64                	lw	s1,124(a4)
   24afc:	6572                	ld	a0,280(sp)
   24afe:	7574                	ld	a3,232(a0)
   24b00:	6e72                	ld	t3,280(sp)
   24b02:	6f20                	ld	s0,88(a4)
   24b04:	00000a6b          	0xa6b
   24b08:	616c                	ld	a1,192(a0)
   24b0a:	3362                	fld	ft6,56(sp)
   24b0c:	372d                	addiw	a4,a4,-21
   24b0e:	203a                	fld	ft0,392(sp)
   24b10:	7262                	ld	tp,56(sp)
   24b12:	6e61                	lui	t3,0x18
   24b14:	74206863          	bltu	zero,sp,25264 <bss_begin+0x3264>
   24b18:	7365                	lui	t1,0xffff9
   24b1a:	2074                	fld	fa3,192(s0)
   24b1c:	000a6b6f          	jal	s6,cab1c <_payload_end+0xa10ac>
   24b20:	616c                	ld	a1,192(a0)
   24b22:	3562                	fld	fa0,56(sp)
   24b24:	352d                	addiw	a0,a0,-21
   24b26:	203a                	fld	ft0,392(sp)
   24b28:	616d                	addi	sp,sp,240
   24b2a:	5f6f7263          	bgeu	t5,s6,2510e <bss_begin+0x310e>
   24b2e:	6574                	ld	a3,200(a0)
   24b30:	315f7473          	csrrci	s0,0x315,30
   24b34:	6f20                	ld	s0,88(a4)
   24b36:	00000a6b          	0xa6b
   24b3a:	0000                	unimp
   24b3c:	0000                	unimp
   24b3e:	0000                	unimp
   24b40:	616c                	ld	a1,192(a0)
   24b42:	3562                	fld	fa0,56(sp)
   24b44:	352d                	addiw	a0,a0,-21
   24b46:	203a                	fld	ft0,392(sp)
   24b48:	616d                	addi	sp,sp,240
   24b4a:	5f6f7263          	bgeu	t5,s6,2512e <bss_begin+0x312e>
   24b4e:	6574                	ld	a3,200(a0)
   24b50:	325f7473          	csrrci	s0,mhpmevent5,30
   24b54:	6f20                	ld	s0,88(a4)
   24b56:	00000a6b          	0xa6b
   24b5a:	0000                	unimp
   24b5c:	0000                	unimp
   24b5e:	0000                	unimp
   24b60:	6542                	ld	a0,16(sp)
   24b62:	4f6e                	lw	t5,216(sp)
   24b64:	6d692053          	0x6d692053
   24b68:	6761                	lui	a4,0x18
   24b6a:	2065                	0x2065
   24b6c:	616c                	ld	a1,192(a0)
   24b6e:	6f79                	lui	t5,0x1e
   24b70:	7475                	lui	s0,0xffffd
   24b72:	0a3a                	slli	s4,s4,0xe
   24b74:	0000                	unimp
   24b76:	0000                	unimp
   24b78:	2020                	fld	fs0,64(s0)
   24b7a:	742e                	ld	s0,232(sp)
   24b7c:	7865                	lui	a6,0xffff9
   24b7e:	2e74                	fld	fa3,216(a2)
   24b80:	6f62                	ld	t5,24(sp)
   24b82:	203a746f          	jal	s0,cc584 <_payload_end+0xa2b14>
   24b86:	7830                	ld	a2,112(s0)
   24b88:	3025                	0x3025
   24b8a:	6c38                	ld	a4,88(s0)
   24b8c:	2078                	fld	fa4,192(s0)
   24b8e:	202d                	0x202d
   24b90:	7830                	ld	a2,112(s0)
   24b92:	3025                	0x3025
   24b94:	6c38                	ld	a4,88(s0)
   24b96:	2078                	fld	fa4,192(s0)
   24b98:	2528                	fld	fa0,72(a0)
   24b9a:	6c36                	ld	s8,328(sp)
   24b9c:	2064                	fld	fs1,192(s0)
   24b9e:	2942                	fld	fs2,16(sp)
   24ba0:	000a                	c.slli	zero,0x2
   24ba2:	0000                	unimp
   24ba4:	0000                	unimp
   24ba6:	0000                	unimp
   24ba8:	2020                	fld	fs0,64(s0)
   24baa:	2020                	fld	fs0,64(s0)
   24bac:	2020                	fld	fs0,64(s0)
   24bae:	2e20                	fld	fs0,88(a2)
   24bb0:	6574                	ld	a3,200(a0)
   24bb2:	7478                	ld	a4,232(s0)
   24bb4:	203a                	fld	ft0,392(sp)
   24bb6:	7830                	ld	a2,112(s0)
   24bb8:	3025                	0x3025
   24bba:	6c38                	ld	a4,88(s0)
   24bbc:	2078                	fld	fa4,192(s0)
   24bbe:	202d                	0x202d
   24bc0:	7830                	ld	a2,112(s0)
   24bc2:	3025                	0x3025
   24bc4:	6c38                	ld	a4,88(s0)
   24bc6:	2078                	fld	fa4,192(s0)
   24bc8:	2528                	fld	fa0,72(a0)
   24bca:	6c36                	ld	s8,328(sp)
   24bcc:	2064                	fld	fs1,192(s0)
   24bce:	2942                	fld	fs2,16(sp)
   24bd0:	000a                	c.slli	zero,0x2
   24bd2:	0000                	unimp
   24bd4:	0000                	unimp
   24bd6:	0000                	unimp
   24bd8:	2020                	fld	fs0,64(s0)
   24bda:	2020                	fld	fs0,64(s0)
   24bdc:	2e20                	fld	fs0,88(a2)
   24bde:	6f72                	ld	t5,280(sp)
   24be0:	6164                	ld	s1,192(a0)
   24be2:	6174                	ld	a3,192(a0)
   24be4:	203a                	fld	ft0,392(sp)
   24be6:	7830                	ld	a2,112(s0)
   24be8:	3025                	0x3025
   24bea:	6c38                	ld	a4,88(s0)
   24bec:	2078                	fld	fa4,192(s0)
   24bee:	202d                	0x202d
   24bf0:	7830                	ld	a2,112(s0)
   24bf2:	3025                	0x3025
   24bf4:	6c38                	ld	a4,88(s0)
   24bf6:	2078                	fld	fa4,192(s0)
   24bf8:	2528                	fld	fa0,72(a0)
   24bfa:	6c36                	ld	s8,328(sp)
   24bfc:	2064                	fld	fs1,192(s0)
   24bfe:	2942                	fld	fs2,16(sp)
   24c00:	000a                	c.slli	zero,0x2
   24c02:	0000                	unimp
   24c04:	0000                	unimp
   24c06:	0000                	unimp
   24c08:	2020                	fld	fs0,64(s0)
   24c0a:	2020                	fld	fs0,64(s0)
   24c0c:	2020                	fld	fs0,64(s0)
   24c0e:	2e20                	fld	fs0,88(a2)
   24c10:	6164                	ld	s1,192(a0)
   24c12:	6174                	ld	a3,192(a0)
   24c14:	203a                	fld	ft0,392(sp)
   24c16:	7830                	ld	a2,112(s0)
   24c18:	3025                	0x3025
   24c1a:	6c38                	ld	a4,88(s0)
   24c1c:	2078                	fld	fa4,192(s0)
   24c1e:	202d                	0x202d
   24c20:	7830                	ld	a2,112(s0)
   24c22:	3025                	0x3025
   24c24:	6c38                	ld	a4,88(s0)
   24c26:	2078                	fld	fa4,192(s0)
   24c28:	2528                	fld	fa0,72(a0)
   24c2a:	6c36                	ld	s8,328(sp)
   24c2c:	2064                	fld	fs1,192(s0)
   24c2e:	2942                	fld	fs2,16(sp)
   24c30:	000a                	c.slli	zero,0x2
   24c32:	0000                	unimp
   24c34:	0000                	unimp
   24c36:	0000                	unimp
   24c38:	2020                	fld	fs0,64(s0)
   24c3a:	2020                	fld	fs0,64(s0)
   24c3c:	2020                	fld	fs0,64(s0)
   24c3e:	2020                	fld	fs0,64(s0)
   24c40:	622e                	ld	tp,200(sp)
   24c42:	203a7373          	csrrci	t1,0x203,20
   24c46:	7830                	ld	a2,112(s0)
   24c48:	3025                	0x3025
   24c4a:	6c38                	ld	a4,88(s0)
   24c4c:	2078                	fld	fa4,192(s0)
   24c4e:	202d                	0x202d
   24c50:	7830                	ld	a2,112(s0)
   24c52:	3025                	0x3025
   24c54:	6c38                	ld	a4,88(s0)
   24c56:	2078                	fld	fa4,192(s0)
   24c58:	2528                	fld	fa0,72(a0)
   24c5a:	6c36                	ld	s8,328(sp)
   24c5c:	2064                	fld	fs1,192(s0)
   24c5e:	2942                	fld	fs2,16(sp)
   24c60:	000a                	c.slli	zero,0x2
   24c62:	0000                	unimp
   24c64:	0000                	unimp
   24c66:	0000                	unimp
   24c68:	636c6557          	0x636c6557
   24c6c:	20656d6f          	jal	s10,7ae72 <_payload_end+0x51402>
   24c70:	4952                	lw	s2,20(sp)
   24c72:	562d4353          	0x562d4353
   24c76:	0d21                	addi	s10,s10,8
   24c78:	000a                	c.slli	zero,0x2
   24c7a:	0000                	unimp
   24c7c:	0000                	unimp
   24c7e:	0000                	unimp
   24c80:	7270                	ld	a2,224(a2)
   24c82:	6e69                	lui	t3,0x1a
   24c84:	6b74                	ld	a3,208(a4)
   24c86:	6920                	ld	s0,80(a0)
   24c88:	696e                	ld	s2,216(sp)
   24c8a:	2074                	fld	fa3,192(s0)
   24c8c:	6f64                	ld	s1,216(a4)
   24c8e:	656e                	ld	a0,216(sp)
   24c90:	000a                	c.slli	zero,0x2
   24c92:	0000                	unimp
   24c94:	0000                	unimp
   24c96:	0000                	unimp
   24c98:	3130                	fld	fa2,96(a0)
   24c9a:	3332                	fld	ft6,296(sp)
   24c9c:	3534                	fld	fa3,104(a0)
   24c9e:	3736                	fld	fa4,360(sp)
   24ca0:	3938                	fld	fa4,112(a0)
   24ca2:	4241                	li	tp,16
   24ca4:	46454443          	fmadd.q	fs0,fa0,ft4,fs0,rmm
   24ca8:	4a494847          	fmsub.d	fa6,fs2,ft4,fs1,rmm
   24cac:	4e4d4c4b          	fnmsub.q	fs8,fs10,ft4,fs1,rmm
   24cb0:	5251504f          	fnmadd.d	ft0,ft2,ft5,fa0,unknown
   24cb4:	56555453          	0x56555453
   24cb8:	5a595857          	0x5a595857
   24cbc:	0000                	unimp
   24cbe:	0000                	unimp
   24cc0:	3130                	fld	fa2,96(a0)
   24cc2:	3332                	fld	ft6,296(sp)
   24cc4:	3534                	fld	fa3,104(a0)
   24cc6:	3736                	fld	fa4,360(sp)
   24cc8:	3938                	fld	fa4,112(a0)
   24cca:	6261                	lui	tp,0x18
   24ccc:	66656463          	bltu	a0,t1,25334 <bss_begin+0x3334>
   24cd0:	6a696867          	0x6a696867
   24cd4:	6e6d6c6b          	0x6e6d6c6b
   24cd8:	7271706f          	j	3cbfe <_payload_end+0x1318e>
   24cdc:	76757473          	csrrci	s0,0x767,10
   24ce0:	7a797877          	0x7a797877
   24ce4:	0000                	unimp
   24ce6:	0000                	unimp
   24ce8:	4e3c                	lw	a5,88(a2)
   24cea:	4c55                	li	s8,21
   24cec:	3e4c                	fld	fa1,184(a2)
   24cee:	0000                	unimp
   24cf0:	df44                	sw	s1,60(a4)
   24cf2:	df74ffff          	0xdf74ffff
   24cf6:	df74ffff          	0xdf74ffff
   24cfa:	df54ffff          	0xdf54ffff
   24cfe:	df74ffff          	0xdf74ffff
   24d02:	df74ffff          	0xdf74ffff
   24d06:	df74ffff          	0xdf74ffff
   24d0a:	df74ffff          	0xdf74ffff
   24d0e:	df74ffff          	0xdf74ffff
   24d12:	df74ffff          	0xdf74ffff
   24d16:	df74ffff          	0xdf74ffff
   24d1a:	df34ffff          	0xdf34ffff
   24d1e:	df74ffff          	0xdf74ffff
   24d22:	df24ffff          	0xdf24ffff
   24d26:	df74ffff          	0xdf74ffff
   24d2a:	df74ffff          	0xdf74ffff
   24d2e:	df64ffff          	0xdf64ffff
   24d32:	e3a0ffff          	0xe3a0ffff
   24d36:	e3c4ffff          	0xe3c4ffff
   24d3a:	e3c4ffff          	0xe3c4ffff
   24d3e:	e3c4ffff          	0xe3c4ffff
   24d42:	e3c4ffff          	0xe3c4ffff
   24d46:	e3c4ffff          	0xe3c4ffff
   24d4a:	e3c4ffff          	0xe3c4ffff
   24d4e:	e3c4ffff          	0xe3c4ffff
   24d52:	e3c4ffff          	0xe3c4ffff
   24d56:	e3c4ffff          	0xe3c4ffff
   24d5a:	e3c4ffff          	0xe3c4ffff
   24d5e:	e140ffff          	0xe140ffff
   24d62:	e3acffff          	0xe3acffff
   24d66:	e3c4ffff          	0xe3c4ffff
   24d6a:	e3c4ffff          	0xe3c4ffff
   24d6e:	e3c4ffff          	0xe3c4ffff
   24d72:	e3c4ffff          	0xe3c4ffff
   24d76:	e3acffff          	0xe3acffff
   24d7a:	e3c4ffff          	0xe3c4ffff
   24d7e:	e3c4ffff          	0xe3c4ffff
   24d82:	e3c4ffff          	0xe3c4ffff
   24d86:	e3c4ffff          	0xe3c4ffff
   24d8a:	e300ffff          	0xe300ffff
   24d8e:	e388ffff          	0xe388ffff
   24d92:	e330ffff          	0xe330ffff
   24d96:	e3c4ffff          	0xe3c4ffff
   24d9a:	e3c4ffff          	0xe3c4ffff
   24d9e:	e1d8ffff          	0xe1d8ffff
   24da2:	e3c4ffff          	0xe3c4ffff
   24da6:	e3b8ffff          	0xe3b8ffff
   24daa:	e3c4ffff          	0xe3c4ffff
   24dae:	e3c4ffff          	0xe3c4ffff
   24db2:	e394ffff          	0xe394ffff
   24db6:	6f42ffff          	0x6f42ffff
   24dba:	6e69746f          	jal	s0,bc4a0 <_payload_end+0x92a30>
   24dbe:	74612067          	0x74612067
   24dc2:	6120                	ld	s0,64(a0)
   24dc4:	000a6d73          	csrrsi	s10,ustatus,20
	...
   26000:	6108                	ld	a0,0(a0)
   26002:	0002                	c.slli64	zero
	...
   27000:	fc010113          	addi	sp,sp,-64
   27004:	02113c23          	sd	ra,56(sp)
   27008:	02813823          	sd	s0,48(sp)
   2700c:	04010413          	addi	s0,sp,64
   27010:	fca43423          	sd	a0,-56(s0) # ffffffffffffcfc8 <_payload_end+0xfffffffffffd3558>
   27014:	fe042623          	sw	zero,-20(s0)
   27018:	0300006f          	j	27048 <bss_begin+0x5048>
   2701c:	00003717          	auipc	a4,0x3
   27020:	8b470713          	addi	a4,a4,-1868 # 298d0 <bss_begin+0x78d0>
   27024:	fec42783          	lw	a5,-20(s0)
   27028:	00379793          	slli	a5,a5,0x3
   2702c:	00f707b3          	add	a5,a4,a5
   27030:	0007b783          	ld	a5,0(a5) # 22000 <bss_begin>
   27034:	fc843703          	ld	a4,-56(s0)
   27038:	02f70663          	beq	a4,a5,27064 <bss_begin+0x5064>
   2703c:	fec42783          	lw	a5,-20(s0)
   27040:	0017879b          	addiw	a5,a5,1
   27044:	fef42623          	sw	a5,-20(s0)
   27048:	fec42703          	lw	a4,-20(s0)
   2704c:	00003797          	auipc	a5,0x3
   27050:	8b478793          	addi	a5,a5,-1868 # 29900 <bss_begin+0x7900>
   27054:	0007b783          	ld	a5,0(a5)
   27058:	fcf762e3          	bltu	a4,a5,2701c <bss_begin+0x501c>
   2705c:	00000793          	li	a5,0
   27060:	0880006f          	j	270e8 <bss_begin+0x50e8>
   27064:	00000013          	nop
   27068:	00003797          	auipc	a5,0x3
   2706c:	88078793          	addi	a5,a5,-1920 # 298e8 <bss_begin+0x78e8>
   27070:	fef43023          	sd	a5,-32(s0)
   27074:	fec42783          	lw	a5,-20(s0)
   27078:	0007879b          	sext.w	a5,a5
   2707c:	00079863          	bnez	a5,2708c <bss_begin+0x508c>
   27080:	fe043783          	ld	a5,-32(s0)
   27084:	fcf43c23          	sd	a5,-40(s0)
   27088:	0480006f          	j	270d0 <bss_begin+0x50d0>
   2708c:	fe043783          	ld	a5,-32(s0)
   27090:	00178793          	addi	a5,a5,1
   27094:	fef43023          	sd	a5,-32(s0)
   27098:	fe043783          	ld	a5,-32(s0)
   2709c:	0007c783          	lbu	a5,0(a5)
   270a0:	00079863          	bnez	a5,270b0 <bss_begin+0x50b0>
   270a4:	fec42783          	lw	a5,-20(s0)
   270a8:	fff7879b          	addiw	a5,a5,-1
   270ac:	fef42623          	sw	a5,-20(s0)
   270b0:	fec42783          	lw	a5,-20(s0)
   270b4:	0007879b          	sext.w	a5,a5
   270b8:	fc079ae3          	bnez	a5,2708c <bss_begin+0x508c>
   270bc:	fe043783          	ld	a5,-32(s0)
   270c0:	00178793          	addi	a5,a5,1
   270c4:	fef43023          	sd	a5,-32(s0)
   270c8:	fe043783          	ld	a5,-32(s0)
   270cc:	fcf43c23          	sd	a5,-40(s0)
   270d0:	fd843603          	ld	a2,-40(s0)
   270d4:	fc843583          	ld	a1,-56(s0)
   270d8:	00003517          	auipc	a0,0x3
   270dc:	99850513          	addi	a0,a0,-1640 # 29a70 <_payload_end>
   270e0:	254010ef          	jal	ra,28334 <bss_begin+0x6334>
   270e4:	00000793          	li	a5,0
   270e8:	00078513          	mv	a0,a5
   270ec:	03813083          	ld	ra,56(sp)
   270f0:	03013403          	ld	s0,48(sp)
   270f4:	04010113          	addi	sp,sp,64
   270f8:	00008067          	ret
   270fc:	fe010113          	addi	sp,sp,-32
   27100:	00113c23          	sd	ra,24(sp)
   27104:	00813823          	sd	s0,16(sp)
   27108:	02010413          	addi	s0,sp,32
   2710c:	664020ef          	jal	ra,29770 <bss_begin+0x7770>
   27110:	694020ef          	jal	ra,297a4 <bss_begin+0x77a4>
   27114:	6d8020ef          	jal	ra,297ec <bss_begin+0x77ec>
   27118:	724020ef          	jal	ra,2983c <bss_begin+0x783c>
   2711c:	744020ef          	jal	ra,29860 <bss_begin+0x7860>
   27120:	02800613          	li	a2,40
   27124:	05500593          	li	a1,85
   27128:	00021537          	lui	a0,0x21
   2712c:	4d4000ef          	jal	ra,27600 <bss_begin+0x5600>
   27130:	00900593          	li	a1,9
   27134:	00a00513          	li	a0,10
   27138:	74c020ef          	jal	ra,29884 <bss_begin+0x7884>
   2713c:	fea43423          	sd	a0,-24(s0)
   27140:	fe843783          	ld	a5,-24(s0)
   27144:	00079863          	bnez	a5,27154 <bss_begin+0x5154>
   27148:	00003517          	auipc	a0,0x3
   2714c:	93850513          	addi	a0,a0,-1736 # 29a80 <_payload_end+0x10>
   27150:	7bd010ef          	jal	ra,2910c <bss_begin+0x710c>
   27154:	00a00593          	li	a1,10
   27158:	00900513          	li	a0,9
   2715c:	728020ef          	jal	ra,29884 <bss_begin+0x7884>
   27160:	fea43023          	sd	a0,-32(s0)
   27164:	fe043703          	ld	a4,-32(s0)
   27168:	fff00793          	li	a5,-1
   2716c:	00f71863          	bne	a4,a5,2717c <bss_begin+0x517c>
   27170:	00003517          	auipc	a0,0x3
   27174:	91050513          	addi	a0,a0,-1776 # 29a80 <_payload_end+0x10>
   27178:	795010ef          	jal	ra,2910c <bss_begin+0x710c>
   2717c:	00900593          	li	a1,9
   27180:	00000513          	li	a0,0
   27184:	718020ef          	jal	ra,2989c <bss_begin+0x789c>
   27188:	fea43423          	sd	a0,-24(s0)
   2718c:	00200593          	li	a1,2
   27190:	00500513          	li	a0,5
   27194:	708020ef          	jal	ra,2989c <bss_begin+0x789c>
   27198:	fea43023          	sd	a0,-32(s0)
   2719c:	718020ef          	jal	ra,298b4 <bss_begin+0x78b4>
   271a0:	00003517          	auipc	a0,0x3
   271a4:	90050513          	addi	a0,a0,-1792 # 29aa0 <_payload_end+0x30>
   271a8:	765010ef          	jal	ra,2910c <bss_begin+0x710c>
   271ac:	00500593          	li	a1,5
   271b0:	00500513          	li	a0,5
   271b4:	764020ef          	jal	ra,29918 <bss_begin+0x7918>
   271b8:	fea43423          	sd	a0,-24(s0)
   271bc:	fe843703          	ld	a4,-24(s0)
   271c0:	00a00793          	li	a5,10
   271c4:	00f71863          	bne	a4,a5,271d4 <bss_begin+0x51d4>
   271c8:	00003517          	auipc	a0,0x3
   271cc:	8f050513          	addi	a0,a0,-1808 # 29ab8 <_payload_end+0x48>
   271d0:	73d010ef          	jal	ra,2910c <bss_begin+0x710c>
   271d4:	00500593          	li	a1,5
   271d8:	00500513          	li	a0,5
   271dc:	764020ef          	jal	ra,29940 <bss_begin+0x7940>
   271e0:	fea43023          	sd	a0,-32(s0)
   271e4:	fe043783          	ld	a5,-32(s0)
   271e8:	00079863          	bnez	a5,271f8 <bss_begin+0x51f8>
   271ec:	00003517          	auipc	a0,0x3
   271f0:	8ec50513          	addi	a0,a0,-1812 # 29ad8 <_payload_end+0x68>
   271f4:	719010ef          	jal	ra,2910c <bss_begin+0x710c>
   271f8:	00000013          	nop
   271fc:	01813083          	ld	ra,24(sp)
   27200:	01013403          	ld	s0,16(sp)
   27204:	02010113          	addi	sp,sp,32
   27208:	00008067          	ret
   2720c:	ff010113          	addi	sp,sp,-16
   27210:	00113423          	sd	ra,8(sp)
   27214:	00813023          	sd	s0,0(sp)
   27218:	01010413          	addi	s0,sp,16
   2721c:	00003517          	auipc	a0,0x3
   27220:	8dc50513          	addi	a0,a0,-1828 # 29af8 <_payload_end+0x88>
   27224:	110010ef          	jal	ra,28334 <bss_begin+0x6334>
   27228:	00000597          	auipc	a1,0x0
   2722c:	d7058593          	addi	a1,a1,-656 # 26f98 <bss_begin+0x4f98>
   27230:	00000617          	auipc	a2,0x0
   27234:	dd060613          	addi	a2,a2,-560 # 27000 <bss_begin+0x5000>
   27238:	00000717          	auipc	a4,0x0
   2723c:	dc870713          	addi	a4,a4,-568 # 27000 <bss_begin+0x5000>
   27240:	00000797          	auipc	a5,0x0
   27244:	d5878793          	addi	a5,a5,-680 # 26f98 <bss_begin+0x4f98>
   27248:	40f707b3          	sub	a5,a4,a5
   2724c:	00078693          	mv	a3,a5
   27250:	00003517          	auipc	a0,0x3
   27254:	8c050513          	addi	a0,a0,-1856 # 29b10 <_payload_end+0xa0>
   27258:	0dc010ef          	jal	ra,28334 <bss_begin+0x6334>
   2725c:	00000597          	auipc	a1,0x0
   27260:	da458593          	addi	a1,a1,-604 # 27000 <bss_begin+0x5000>
   27264:	00003617          	auipc	a2,0x3
   27268:	80c60613          	addi	a2,a2,-2036 # 29a70 <_payload_end>
   2726c:	00003717          	auipc	a4,0x3
   27270:	80470713          	addi	a4,a4,-2044 # 29a70 <_payload_end>
   27274:	00000797          	auipc	a5,0x0
   27278:	d8c78793          	addi	a5,a5,-628 # 27000 <bss_begin+0x5000>
   2727c:	40f707b3          	sub	a5,a4,a5
   27280:	00078693          	mv	a3,a5
   27284:	00003517          	auipc	a0,0x3
   27288:	8bc50513          	addi	a0,a0,-1860 # 29b40 <_payload_end+0xd0>
   2728c:	0a8010ef          	jal	ra,28334 <bss_begin+0x6334>
   27290:	00002597          	auipc	a1,0x2
   27294:	7e058593          	addi	a1,a1,2016 # 29a70 <_payload_end>
   27298:	00003617          	auipc	a2,0x3
   2729c:	ac860613          	addi	a2,a2,-1336 # 29d60 <_payload_end+0x2f0>
   272a0:	00003717          	auipc	a4,0x3
   272a4:	ac070713          	addi	a4,a4,-1344 # 29d60 <_payload_end+0x2f0>
   272a8:	00002797          	auipc	a5,0x2
   272ac:	7c878793          	addi	a5,a5,1992 # 29a70 <_payload_end>
   272b0:	40f707b3          	sub	a5,a4,a5
   272b4:	00078693          	mv	a3,a5
   272b8:	00003517          	auipc	a0,0x3
   272bc:	8b850513          	addi	a0,a0,-1864 # 29b70 <_payload_end+0x100>
   272c0:	074010ef          	jal	ra,28334 <bss_begin+0x6334>
   272c4:	00003597          	auipc	a1,0x3
   272c8:	a9c58593          	addi	a1,a1,-1380 # 29d60 <_payload_end+0x2f0>
   272cc:	00004617          	auipc	a2,0x4
   272d0:	ccc60613          	addi	a2,a2,-820 # 2af98 <_payload_end+0x1528>
   272d4:	00004717          	auipc	a4,0x4
   272d8:	cc470713          	addi	a4,a4,-828 # 2af98 <_payload_end+0x1528>
   272dc:	00003797          	auipc	a5,0x3
   272e0:	a8478793          	addi	a5,a5,-1404 # 29d60 <_payload_end+0x2f0>
   272e4:	40f707b3          	sub	a5,a4,a5
   272e8:	00078693          	mv	a3,a5
   272ec:	00003517          	auipc	a0,0x3
   272f0:	8b450513          	addi	a0,a0,-1868 # 29ba0 <_payload_end+0x130>
   272f4:	040010ef          	jal	ra,28334 <bss_begin+0x6334>
   272f8:	00004597          	auipc	a1,0x4
   272fc:	ca858593          	addi	a1,a1,-856 # 2afa0 <_payload_end+0x1530>
   27300:	00004617          	auipc	a2,0x4
   27304:	eb060613          	addi	a2,a2,-336 # 2b1b0 <_payload_end+0x1740>
   27308:	00004717          	auipc	a4,0x4
   2730c:	ea870713          	addi	a4,a4,-344 # 2b1b0 <_payload_end+0x1740>
   27310:	00004797          	auipc	a5,0x4
   27314:	c9078793          	addi	a5,a5,-880 # 2afa0 <_payload_end+0x1530>
   27318:	40f707b3          	sub	a5,a4,a5
   2731c:	00078693          	mv	a3,a5
   27320:	00003517          	auipc	a0,0x3
   27324:	8b050513          	addi	a0,a0,-1872 # 29bd0 <_payload_end+0x160>
   27328:	00c010ef          	jal	ra,28334 <bss_begin+0x6334>
   2732c:	00000013          	nop
   27330:	00813083          	ld	ra,8(sp)
   27334:	00013403          	ld	s0,0(sp)
   27338:	01010113          	addi	sp,sp,16
   2733c:	00008067          	ret
   27340:	fd010113          	addi	sp,sp,-48
   27344:	02113423          	sd	ra,40(sp)
   27348:	02813023          	sd	s0,32(sp)
   2734c:	03010413          	addi	s0,sp,48
   27350:	00004797          	auipc	a5,0x4
   27354:	c5078793          	addi	a5,a5,-944 # 2afa0 <_payload_end+0x1530>
   27358:	fef43423          	sd	a5,-24(s0)
   2735c:	00004797          	auipc	a5,0x4
   27360:	e5478793          	addi	a5,a5,-428 # 2b1b0 <_payload_end+0x1740>
   27364:	fef43023          	sd	a5,-32(s0)
   27368:	fe043783          	ld	a5,-32(s0)
   2736c:	0007871b          	sext.w	a4,a5
   27370:	fe843783          	ld	a5,-24(s0)
   27374:	0007879b          	sext.w	a5,a5
   27378:	40f707bb          	subw	a5,a4,a5
   2737c:	fcf42e23          	sw	a5,-36(s0)
   27380:	fe843783          	ld	a5,-24(s0)
   27384:	fdc46703          	lwu	a4,-36(s0)
   27388:	00070613          	mv	a2,a4
   2738c:	00000593          	li	a1,0
   27390:	00078513          	mv	a0,a5
   27394:	26c000ef          	jal	ra,27600 <bss_begin+0x5600>
   27398:	00000013          	nop
   2739c:	02813083          	ld	ra,40(sp)
   273a0:	02013403          	ld	s0,32(sp)
   273a4:	03010113          	addi	sp,sp,48
   273a8:	00008067          	ret
   273ac:	ff010113          	addi	sp,sp,-16
   273b0:	00113423          	sd	ra,8(sp)
   273b4:	00813023          	sd	s0,0(sp)
   273b8:	01010413          	addi	s0,sp,16
   273bc:	f85ff0ef          	jal	ra,27340 <bss_begin+0x5340>
   273c0:	1f1010ef          	jal	ra,28db0 <bss_begin+0x6db0>
   273c4:	00003517          	auipc	a0,0x3
   273c8:	83c50513          	addi	a0,a0,-1988 # 29c00 <_payload_end+0x190>
   273cc:	541010ef          	jal	ra,2910c <bss_begin+0x710c>
   273d0:	6c9000ef          	jal	ra,28298 <bss_begin+0x6298>
   273d4:	00003517          	auipc	a0,0x3
   273d8:	84450513          	addi	a0,a0,-1980 # 29c18 <_payload_end+0x1a8>
   273dc:	759000ef          	jal	ra,28334 <bss_begin+0x6334>
   273e0:	d1dff0ef          	jal	ra,270fc <bss_begin+0x50fc>
   273e4:	008017b7          	lui	a5,0x801
   273e8:	88078513          	addi	a0,a5,-1920 # 800880 <_payload_end+0x7d6e10>
   273ec:	c15ff0ef          	jal	ra,27000 <bss_begin+0x5000>
   273f0:	008017b7          	lui	a5,0x801
   273f4:	86078513          	addi	a0,a5,-1952 # 800860 <_payload_end+0x7d6df0>
   273f8:	c09ff0ef          	jal	ra,27000 <bss_begin+0x5000>
   273fc:	008017b7          	lui	a5,0x801
   27400:	80078513          	addi	a0,a5,-2048 # 800800 <_payload_end+0x7d6d90>
   27404:	bfdff0ef          	jal	ra,27000 <bss_begin+0x5000>
   27408:	e05ff0ef          	jal	ra,2720c <bss_begin+0x520c>
   2740c:	0000006f          	j	2740c <bss_begin+0x540c>
   27410:	fc010113          	addi	sp,sp,-64
   27414:	02813c23          	sd	s0,56(sp)
   27418:	04010413          	addi	s0,sp,64
   2741c:	fca43c23          	sd	a0,-40(s0)
   27420:	00058793          	mv	a5,a1
   27424:	fcc43423          	sd	a2,-56(s0)
   27428:	fcf42a23          	sw	a5,-44(s0)
   2742c:	fd843783          	ld	a5,-40(s0)
   27430:	fef43423          	sd	a5,-24(s0)
   27434:	01c0006f          	j	27450 <bss_begin+0x5450>
   27438:	fe843783          	ld	a5,-24(s0)
   2743c:	00178713          	addi	a4,a5,1
   27440:	fee43423          	sd	a4,-24(s0)
   27444:	fd442703          	lw	a4,-44(s0)
   27448:	0ff77713          	andi	a4,a4,255
   2744c:	00e78023          	sb	a4,0(a5)
   27450:	fc843783          	ld	a5,-56(s0)
   27454:	fff78713          	addi	a4,a5,-1
   27458:	fce43423          	sd	a4,-56(s0)
   2745c:	fc079ee3          	bnez	a5,27438 <bss_begin+0x5438>
   27460:	fd843783          	ld	a5,-40(s0)
   27464:	00078513          	mv	a0,a5
   27468:	03813403          	ld	s0,56(sp)
   2746c:	04010113          	addi	sp,sp,64
   27470:	00008067          	ret
   27474:	f9010113          	addi	sp,sp,-112
   27478:	06113423          	sd	ra,104(sp)
   2747c:	06813023          	sd	s0,96(sp)
   27480:	07010413          	addi	s0,sp,112
   27484:	faa43423          	sd	a0,-88(s0)
   27488:	00058793          	mv	a5,a1
   2748c:	f8c43c23          	sd	a2,-104(s0)
   27490:	faf42223          	sw	a5,-92(s0)
   27494:	fa843783          	ld	a5,-88(s0)
   27498:	fef43423          	sd	a5,-24(s0)
   2749c:	01000793          	li	a5,16
   274a0:	fcf43423          	sd	a5,-56(s0)
   274a4:	f9843783          	ld	a5,-104(s0)
   274a8:	fef43023          	sd	a5,-32(s0)
   274ac:	fe843783          	ld	a5,-24(s0)
   274b0:	fcf43023          	sd	a5,-64(s0)
   274b4:	fc043823          	sd	zero,-48(s0)
   274b8:	fc042e23          	sw	zero,-36(s0)
   274bc:	0340006f          	j	274f0 <bss_begin+0x54f0>
   274c0:	fa442783          	lw	a5,-92(s0)
   274c4:	0ff7f793          	andi	a5,a5,255
   274c8:	fdc42703          	lw	a4,-36(s0)
   274cc:	0037171b          	slliw	a4,a4,0x3
   274d0:	0007071b          	sext.w	a4,a4
   274d4:	00e797b3          	sll	a5,a5,a4
   274d8:	fd043703          	ld	a4,-48(s0)
   274dc:	00f767b3          	or	a5,a4,a5
   274e0:	fcf43823          	sd	a5,-48(s0)
   274e4:	fdc42783          	lw	a5,-36(s0)
   274e8:	0017879b          	addiw	a5,a5,1
   274ec:	fcf42e23          	sw	a5,-36(s0)
   274f0:	fdc42783          	lw	a5,-36(s0)
   274f4:	0007871b          	sext.w	a4,a5
   274f8:	00700793          	li	a5,7
   274fc:	fce7d2e3          	bge	a5,a4,274c0 <bss_begin+0x54c0>
   27500:	fc843783          	ld	a5,-56(s0)
   27504:	fff78713          	addi	a4,a5,-1
   27508:	fc043783          	ld	a5,-64(s0)
   2750c:	00f777b3          	and	a5,a4,a5
   27510:	04078e63          	beqz	a5,2756c <bss_begin+0x556c>
   27514:	fc843783          	ld	a5,-56(s0)
   27518:	fff78793          	addi	a5,a5,-1
   2751c:	fc043703          	ld	a4,-64(s0)
   27520:	00f777b3          	and	a5,a4,a5
   27524:	faf43c23          	sd	a5,-72(s0)
   27528:	fc843703          	ld	a4,-56(s0)
   2752c:	fb843783          	ld	a5,-72(s0)
   27530:	40f707b3          	sub	a5,a4,a5
   27534:	faf43c23          	sd	a5,-72(s0)
   27538:	fa442783          	lw	a5,-92(s0)
   2753c:	fb843603          	ld	a2,-72(s0)
   27540:	00078593          	mv	a1,a5
   27544:	fe843503          	ld	a0,-24(s0)
   27548:	ec9ff0ef          	jal	ra,27410 <bss_begin+0x5410>
   2754c:	fe843703          	ld	a4,-24(s0)
   27550:	fb843783          	ld	a5,-72(s0)
   27554:	00f707b3          	add	a5,a4,a5
   27558:	fef43423          	sd	a5,-24(s0)
   2755c:	f9843703          	ld	a4,-104(s0)
   27560:	fb843783          	ld	a5,-72(s0)
   27564:	40f707b3          	sub	a5,a4,a5
   27568:	fef43023          	sd	a5,-32(s0)
   2756c:	fe043703          	ld	a4,-32(s0)
   27570:	fc843783          	ld	a5,-56(s0)
   27574:	06e7fa63          	bgeu	a5,a4,275e8 <bss_begin+0x55e8>
   27578:	fe043703          	ld	a4,-32(s0)
   2757c:	fc843783          	ld	a5,-56(s0)
   27580:	02f757b3          	divu	a5,a4,a5
   27584:	faf42a23          	sw	a5,-76(s0)
   27588:	fe043703          	ld	a4,-32(s0)
   2758c:	fc843783          	ld	a5,-56(s0)
   27590:	02f777b3          	remu	a5,a4,a5
   27594:	fef43023          	sd	a5,-32(s0)
   27598:	fb442783          	lw	a5,-76(s0)
   2759c:	0047979b          	slliw	a5,a5,0x4
   275a0:	0007879b          	sext.w	a5,a5
   275a4:	00078613          	mv	a2,a5
   275a8:	fd043583          	ld	a1,-48(s0)
   275ac:	fe843503          	ld	a0,-24(s0)
   275b0:	4a4020ef          	jal	ra,29a54 <bss_begin+0x7a54>
   275b4:	fe043783          	ld	a5,-32(s0)
   275b8:	02078863          	beqz	a5,275e8 <bss_begin+0x55e8>
   275bc:	fb442783          	lw	a5,-76(s0)
   275c0:	0047979b          	slliw	a5,a5,0x4
   275c4:	0007879b          	sext.w	a5,a5
   275c8:	00078713          	mv	a4,a5
   275cc:	fe843783          	ld	a5,-24(s0)
   275d0:	00e787b3          	add	a5,a5,a4
   275d4:	fa442703          	lw	a4,-92(s0)
   275d8:	fe043603          	ld	a2,-32(s0)
   275dc:	00070593          	mv	a1,a4
   275e0:	00078513          	mv	a0,a5
   275e4:	e2dff0ef          	jal	ra,27410 <bss_begin+0x5410>
   275e8:	fa843783          	ld	a5,-88(s0)
   275ec:	00078513          	mv	a0,a5
   275f0:	06813083          	ld	ra,104(sp)
   275f4:	06013403          	ld	s0,96(sp)
   275f8:	07010113          	addi	sp,sp,112
   275fc:	00008067          	ret
   27600:	fd010113          	addi	sp,sp,-48
   27604:	02113423          	sd	ra,40(sp)
   27608:	02813023          	sd	s0,32(sp)
   2760c:	03010413          	addi	s0,sp,48
   27610:	fea43423          	sd	a0,-24(s0)
   27614:	00058793          	mv	a5,a1
   27618:	fcc43c23          	sd	a2,-40(s0)
   2761c:	fef42223          	sw	a5,-28(s0)
   27620:	fe442783          	lw	a5,-28(s0)
   27624:	fd843603          	ld	a2,-40(s0)
   27628:	00078593          	mv	a1,a5
   2762c:	fe843503          	ld	a0,-24(s0)
   27630:	e45ff0ef          	jal	ra,27474 <bss_begin+0x5474>
   27634:	00050793          	mv	a5,a0
   27638:	00078513          	mv	a0,a5
   2763c:	02813083          	ld	ra,40(sp)
   27640:	02013403          	ld	s0,32(sp)
   27644:	03010113          	addi	sp,sp,48
   27648:	00008067          	ret
   2764c:	fd010113          	addi	sp,sp,-48
   27650:	02813423          	sd	s0,40(sp)
   27654:	03010413          	addi	s0,sp,48
   27658:	fca43c23          	sd	a0,-40(s0)
   2765c:	fcb43823          	sd	a1,-48(s0)
   27660:	fe042623          	sw	zero,-20(s0)
   27664:	0440006f          	j	276a8 <bss_begin+0x56a8>
   27668:	fec42703          	lw	a4,-20(s0)
   2766c:	00070793          	mv	a5,a4
   27670:	0027979b          	slliw	a5,a5,0x2
   27674:	00e787bb          	addw	a5,a5,a4
   27678:	0017979b          	slliw	a5,a5,0x1
   2767c:	fef42623          	sw	a5,-20(s0)
   27680:	fd843783          	ld	a5,-40(s0)
   27684:	00178713          	addi	a4,a5,1
   27688:	fce43c23          	sd	a4,-40(s0)
   2768c:	0007c783          	lbu	a5,0(a5)
   27690:	0007879b          	sext.w	a5,a5
   27694:	fd07879b          	addiw	a5,a5,-48
   27698:	0007879b          	sext.w	a5,a5
   2769c:	fec42703          	lw	a4,-20(s0)
   276a0:	00f707bb          	addw	a5,a4,a5
   276a4:	fef42623          	sw	a5,-20(s0)
   276a8:	fd843783          	ld	a5,-40(s0)
   276ac:	0007c783          	lbu	a5,0(a5)
   276b0:	00078713          	mv	a4,a5
   276b4:	02f00793          	li	a5,47
   276b8:	00e7fc63          	bgeu	a5,a4,276d0 <bss_begin+0x56d0>
   276bc:	fd843783          	ld	a5,-40(s0)
   276c0:	0007c783          	lbu	a5,0(a5)
   276c4:	00078713          	mv	a4,a5
   276c8:	03900793          	li	a5,57
   276cc:	f8e7fee3          	bgeu	a5,a4,27668 <bss_begin+0x5668>
   276d0:	fd043783          	ld	a5,-48(s0)
   276d4:	fec42703          	lw	a4,-20(s0)
   276d8:	00e7a023          	sw	a4,0(a5)
   276dc:	fd843783          	ld	a5,-40(s0)
   276e0:	00078513          	mv	a0,a5
   276e4:	02813403          	ld	s0,40(sp)
   276e8:	03010113          	addi	sp,sp,48
   276ec:	00008067          	ret
   276f0:	f2010113          	addi	sp,sp,-224
   276f4:	0c813c23          	sd	s0,216(sp)
   276f8:	0e010413          	addi	s0,sp,224
   276fc:	f2a43c23          	sd	a0,-200(s0)
   27700:	f2b43823          	sd	a1,-208(s0)
   27704:	00060593          	mv	a1,a2
   27708:	00068613          	mv	a2,a3
   2770c:	00070693          	mv	a3,a4
   27710:	00078713          	mv	a4,a5
   27714:	00058793          	mv	a5,a1
   27718:	f2f42623          	sw	a5,-212(s0)
   2771c:	00060793          	mv	a5,a2
   27720:	f2f42423          	sw	a5,-216(s0)
   27724:	00068793          	mv	a5,a3
   27728:	f2f42223          	sw	a5,-220(s0)
   2772c:	00070793          	mv	a5,a4
   27730:	f2f42023          	sw	a5,-224(s0)
   27734:	fe0407a3          	sb	zero,-17(s0)
   27738:	00002797          	auipc	a5,0x2
   2773c:	4f878793          	addi	a5,a5,1272 # 29c30 <_payload_end+0x1c0>
   27740:	fef43023          	sd	a5,-32(s0)
   27744:	f2042783          	lw	a5,-224(s0)
   27748:	0407f793          	andi	a5,a5,64
   2774c:	0007879b          	sext.w	a5,a5
   27750:	00078863          	beqz	a5,27760 <bss_begin+0x5760>
   27754:	00002797          	auipc	a5,0x2
   27758:	50478793          	addi	a5,a5,1284 # 29c58 <_payload_end+0x1e8>
   2775c:	fef43023          	sd	a5,-32(s0)
   27760:	f2042783          	lw	a5,-224(s0)
   27764:	0107f793          	andi	a5,a5,16
   27768:	0007879b          	sext.w	a5,a5
   2776c:	00078863          	beqz	a5,2777c <bss_begin+0x577c>
   27770:	f2042783          	lw	a5,-224(s0)
   27774:	ffe7f793          	andi	a5,a5,-2
   27778:	f2f42023          	sw	a5,-224(s0)
   2777c:	f2c42783          	lw	a5,-212(s0)
   27780:	0007871b          	sext.w	a4,a5
   27784:	00100793          	li	a5,1
   27788:	00e7da63          	bge	a5,a4,2779c <bss_begin+0x579c>
   2778c:	f2c42783          	lw	a5,-212(s0)
   27790:	0007871b          	sext.w	a4,a5
   27794:	02400793          	li	a5,36
   27798:	00e7d663          	bge	a5,a4,277a4 <bss_begin+0x57a4>
   2779c:	00000793          	li	a5,0
   277a0:	3400006f          	j	27ae0 <bss_begin+0x5ae0>
   277a4:	f2042783          	lw	a5,-224(s0)
   277a8:	0017f793          	andi	a5,a5,1
   277ac:	0007879b          	sext.w	a5,a5
   277b0:	00078663          	beqz	a5,277bc <bss_begin+0x57bc>
   277b4:	03000793          	li	a5,48
   277b8:	0080006f          	j	277c0 <bss_begin+0x57c0>
   277bc:	02000793          	li	a5,32
   277c0:	fcf40da3          	sb	a5,-37(s0)
   277c4:	f2042783          	lw	a5,-224(s0)
   277c8:	0027f793          	andi	a5,a5,2
   277cc:	0007879b          	sext.w	a5,a5
   277d0:	06078c63          	beqz	a5,27848 <bss_begin+0x5848>
   277d4:	f3043783          	ld	a5,-208(s0)
   277d8:	fcf43823          	sd	a5,-48(s0)
   277dc:	fd043783          	ld	a5,-48(s0)
   277e0:	0007de63          	bgez	a5,277fc <bss_begin+0x57fc>
   277e4:	02d00793          	li	a5,45
   277e8:	fef407a3          	sb	a5,-17(s0)
   277ec:	fd043783          	ld	a5,-48(s0)
   277f0:	40f007b3          	neg	a5,a5
   277f4:	f2f43823          	sd	a5,-208(s0)
   277f8:	0500006f          	j	27848 <bss_begin+0x5848>
   277fc:	f2042783          	lw	a5,-224(s0)
   27800:	0047f793          	andi	a5,a5,4
   27804:	0007879b          	sext.w	a5,a5
   27808:	00078e63          	beqz	a5,27824 <bss_begin+0x5824>
   2780c:	02b00793          	li	a5,43
   27810:	fef407a3          	sb	a5,-17(s0)
   27814:	f2842783          	lw	a5,-216(s0)
   27818:	fff7879b          	addiw	a5,a5,-1
   2781c:	f2f42423          	sw	a5,-216(s0)
   27820:	0280006f          	j	27848 <bss_begin+0x5848>
   27824:	f2042783          	lw	a5,-224(s0)
   27828:	0087f793          	andi	a5,a5,8
   2782c:	0007879b          	sext.w	a5,a5
   27830:	00078c63          	beqz	a5,27848 <bss_begin+0x5848>
   27834:	02000793          	li	a5,32
   27838:	fef407a3          	sb	a5,-17(s0)
   2783c:	f2842783          	lw	a5,-216(s0)
   27840:	fff7879b          	addiw	a5,a5,-1
   27844:	f2f42423          	sw	a5,-216(s0)
   27848:	f2042783          	lw	a5,-224(s0)
   2784c:	0207f793          	andi	a5,a5,32
   27850:	0007879b          	sext.w	a5,a5
   27854:	04078063          	beqz	a5,27894 <bss_begin+0x5894>
   27858:	f2c42783          	lw	a5,-212(s0)
   2785c:	0007871b          	sext.w	a4,a5
   27860:	01000793          	li	a5,16
   27864:	00f71a63          	bne	a4,a5,27878 <bss_begin+0x5878>
   27868:	f2842783          	lw	a5,-216(s0)
   2786c:	ffe7879b          	addiw	a5,a5,-2
   27870:	f2f42423          	sw	a5,-216(s0)
   27874:	0200006f          	j	27894 <bss_begin+0x5894>
   27878:	f2c42783          	lw	a5,-212(s0)
   2787c:	0007871b          	sext.w	a4,a5
   27880:	00800793          	li	a5,8
   27884:	00f71863          	bne	a4,a5,27894 <bss_begin+0x5894>
   27888:	f2842783          	lw	a5,-216(s0)
   2788c:	fff7879b          	addiw	a5,a5,-1
   27890:	f2f42423          	sw	a5,-216(s0)
   27894:	fc042e23          	sw	zero,-36(s0)
   27898:	f3043783          	ld	a5,-208(s0)
   2789c:	06079e63          	bnez	a5,27918 <bss_begin+0x5918>
   278a0:	fdc42783          	lw	a5,-36(s0)
   278a4:	0017871b          	addiw	a4,a5,1
   278a8:	fce42e23          	sw	a4,-36(s0)
   278ac:	ff040713          	addi	a4,s0,-16
   278b0:	00f707b3          	add	a5,a4,a5
   278b4:	03000713          	li	a4,48
   278b8:	f4e78c23          	sb	a4,-168(a5)
   278bc:	0640006f          	j	27920 <bss_begin+0x5920>
   278c0:	f2c42783          	lw	a5,-212(s0)
   278c4:	fcf42623          	sw	a5,-52(s0)
   278c8:	fcc46783          	lwu	a5,-52(s0)
   278cc:	f3043703          	ld	a4,-208(s0)
   278d0:	02f777b3          	remu	a5,a4,a5
   278d4:	fcf42423          	sw	a5,-56(s0)
   278d8:	fcc46783          	lwu	a5,-52(s0)
   278dc:	f3043703          	ld	a4,-208(s0)
   278e0:	02f757b3          	divu	a5,a4,a5
   278e4:	f2f43823          	sd	a5,-208(s0)
   278e8:	fc842783          	lw	a5,-56(s0)
   278ec:	02079793          	slli	a5,a5,0x20
   278f0:	0207d793          	srli	a5,a5,0x20
   278f4:	fe043703          	ld	a4,-32(s0)
   278f8:	00f70733          	add	a4,a4,a5
   278fc:	fdc42783          	lw	a5,-36(s0)
   27900:	0017869b          	addiw	a3,a5,1
   27904:	fcd42e23          	sw	a3,-36(s0)
   27908:	00074703          	lbu	a4,0(a4)
   2790c:	ff040693          	addi	a3,s0,-16
   27910:	00f687b3          	add	a5,a3,a5
   27914:	f4e78c23          	sb	a4,-168(a5)
   27918:	f3043783          	ld	a5,-208(s0)
   2791c:	fa0792e3          	bnez	a5,278c0 <bss_begin+0x58c0>
   27920:	fdc42703          	lw	a4,-36(s0)
   27924:	f2442783          	lw	a5,-220(s0)
   27928:	0007071b          	sext.w	a4,a4
   2792c:	0007879b          	sext.w	a5,a5
   27930:	00e7d663          	bge	a5,a4,2793c <bss_begin+0x593c>
   27934:	fdc42783          	lw	a5,-36(s0)
   27938:	f2f42223          	sw	a5,-220(s0)
   2793c:	f2842703          	lw	a4,-216(s0)
   27940:	f2442783          	lw	a5,-220(s0)
   27944:	40f707bb          	subw	a5,a4,a5
   27948:	f2f42423          	sw	a5,-216(s0)
   2794c:	f2042783          	lw	a5,-224(s0)
   27950:	0117f793          	andi	a5,a5,17
   27954:	0007879b          	sext.w	a5,a5
   27958:	02079663          	bnez	a5,27984 <bss_begin+0x5984>
   2795c:	0180006f          	j	27974 <bss_begin+0x5974>
   27960:	f3843783          	ld	a5,-200(s0)
   27964:	00178713          	addi	a4,a5,1
   27968:	f2e43c23          	sd	a4,-200(s0)
   2796c:	02000713          	li	a4,32
   27970:	00e78023          	sb	a4,0(a5)
   27974:	f2842783          	lw	a5,-216(s0)
   27978:	fff7871b          	addiw	a4,a5,-1
   2797c:	f2e42423          	sw	a4,-216(s0)
   27980:	fef040e3          	bgtz	a5,27960 <bss_begin+0x5960>
   27984:	fef44783          	lbu	a5,-17(s0)
   27988:	0ff7f793          	andi	a5,a5,255
   2798c:	00078c63          	beqz	a5,279a4 <bss_begin+0x59a4>
   27990:	f3843783          	ld	a5,-200(s0)
   27994:	00178713          	addi	a4,a5,1
   27998:	f2e43c23          	sd	a4,-200(s0)
   2799c:	fef44703          	lbu	a4,-17(s0)
   279a0:	00e78023          	sb	a4,0(a5)
   279a4:	f2042783          	lw	a5,-224(s0)
   279a8:	0207f793          	andi	a5,a5,32
   279ac:	0007879b          	sext.w	a5,a5
   279b0:	06078463          	beqz	a5,27a18 <bss_begin+0x5a18>
   279b4:	f2c42783          	lw	a5,-212(s0)
   279b8:	0007871b          	sext.w	a4,a5
   279bc:	00800793          	li	a5,8
   279c0:	00f71e63          	bne	a4,a5,279dc <bss_begin+0x59dc>
   279c4:	f3843783          	ld	a5,-200(s0)
   279c8:	00178713          	addi	a4,a5,1
   279cc:	f2e43c23          	sd	a4,-200(s0)
   279d0:	03000713          	li	a4,48
   279d4:	00e78023          	sb	a4,0(a5)
   279d8:	0400006f          	j	27a18 <bss_begin+0x5a18>
   279dc:	f2c42783          	lw	a5,-212(s0)
   279e0:	0007871b          	sext.w	a4,a5
   279e4:	01000793          	li	a5,16
   279e8:	02f71863          	bne	a4,a5,27a18 <bss_begin+0x5a18>
   279ec:	f3843783          	ld	a5,-200(s0)
   279f0:	00178713          	addi	a4,a5,1
   279f4:	f2e43c23          	sd	a4,-200(s0)
   279f8:	03000713          	li	a4,48
   279fc:	00e78023          	sb	a4,0(a5)
   27a00:	f3843783          	ld	a5,-200(s0)
   27a04:	00178713          	addi	a4,a5,1
   27a08:	f2e43c23          	sd	a4,-200(s0)
   27a0c:	fe043703          	ld	a4,-32(s0)
   27a10:	02174703          	lbu	a4,33(a4)
   27a14:	00e78023          	sb	a4,0(a5)
   27a18:	f2042783          	lw	a5,-224(s0)
   27a1c:	0107f793          	andi	a5,a5,16
   27a20:	0007879b          	sext.w	a5,a5
   27a24:	04079263          	bnez	a5,27a68 <bss_begin+0x5a68>
   27a28:	0180006f          	j	27a40 <bss_begin+0x5a40>
   27a2c:	f3843783          	ld	a5,-200(s0)
   27a30:	00178713          	addi	a4,a5,1
   27a34:	f2e43c23          	sd	a4,-200(s0)
   27a38:	fdb44703          	lbu	a4,-37(s0)
   27a3c:	00e78023          	sb	a4,0(a5)
   27a40:	f2842783          	lw	a5,-216(s0)
   27a44:	fff7871b          	addiw	a4,a5,-1
   27a48:	f2e42423          	sw	a4,-216(s0)
   27a4c:	fef040e3          	bgtz	a5,27a2c <bss_begin+0x5a2c>
   27a50:	0180006f          	j	27a68 <bss_begin+0x5a68>
   27a54:	f3843783          	ld	a5,-200(s0)
   27a58:	00178713          	addi	a4,a5,1
   27a5c:	f2e43c23          	sd	a4,-200(s0)
   27a60:	03000713          	li	a4,48
   27a64:	00e78023          	sb	a4,0(a5)
   27a68:	f2442783          	lw	a5,-220(s0)
   27a6c:	fff7871b          	addiw	a4,a5,-1
   27a70:	f2e42223          	sw	a4,-220(s0)
   27a74:	fdc42703          	lw	a4,-36(s0)
   27a78:	0007071b          	sext.w	a4,a4
   27a7c:	fcf74ce3          	blt	a4,a5,27a54 <bss_begin+0x5a54>
   27a80:	0240006f          	j	27aa4 <bss_begin+0x5aa4>
   27a84:	f3843783          	ld	a5,-200(s0)
   27a88:	00178713          	addi	a4,a5,1
   27a8c:	f2e43c23          	sd	a4,-200(s0)
   27a90:	fdc42703          	lw	a4,-36(s0)
   27a94:	ff040693          	addi	a3,s0,-16
   27a98:	00e68733          	add	a4,a3,a4
   27a9c:	f5874703          	lbu	a4,-168(a4)
   27aa0:	00e78023          	sb	a4,0(a5)
   27aa4:	fdc42783          	lw	a5,-36(s0)
   27aa8:	fff7871b          	addiw	a4,a5,-1
   27aac:	fce42e23          	sw	a4,-36(s0)
   27ab0:	fcf04ae3          	bgtz	a5,27a84 <bss_begin+0x5a84>
   27ab4:	0180006f          	j	27acc <bss_begin+0x5acc>
   27ab8:	f3843783          	ld	a5,-200(s0)
   27abc:	00178713          	addi	a4,a5,1
   27ac0:	f2e43c23          	sd	a4,-200(s0)
   27ac4:	02000713          	li	a4,32
   27ac8:	00e78023          	sb	a4,0(a5)
   27acc:	f2842783          	lw	a5,-216(s0)
   27ad0:	fff7871b          	addiw	a4,a5,-1
   27ad4:	f2e42423          	sw	a4,-216(s0)
   27ad8:	fef040e3          	bgtz	a5,27ab8 <bss_begin+0x5ab8>
   27adc:	f3843783          	ld	a5,-200(s0)
   27ae0:	00078513          	mv	a0,a5
   27ae4:	0d813403          	ld	s0,216(sp)
   27ae8:	0e010113          	addi	sp,sp,224
   27aec:	00008067          	ret
   27af0:	f9010113          	addi	sp,sp,-112
   27af4:	06113423          	sd	ra,104(sp)
   27af8:	06813023          	sd	s0,96(sp)
   27afc:	07010413          	addi	s0,sp,112
   27b00:	faa43423          	sd	a0,-88(s0)
   27b04:	00058793          	mv	a5,a1
   27b08:	f8c43c23          	sd	a2,-104(s0)
   27b0c:	f8d43823          	sd	a3,-112(s0)
   27b10:	faf42223          	sw	a5,-92(s0)
   27b14:	fa843783          	ld	a5,-88(s0)
   27b18:	fef43423          	sd	a5,-24(s0)
   27b1c:	7440006f          	j	28260 <bss_begin+0x6260>
   27b20:	f9843783          	ld	a5,-104(s0)
   27b24:	0007c783          	lbu	a5,0(a5)
   27b28:	00078713          	mv	a4,a5
   27b2c:	02500793          	li	a5,37
   27b30:	02f70063          	beq	a4,a5,27b50 <bss_begin+0x5b50>
   27b34:	fe843783          	ld	a5,-24(s0)
   27b38:	00178713          	addi	a4,a5,1
   27b3c:	fee43423          	sd	a4,-24(s0)
   27b40:	f9843703          	ld	a4,-104(s0)
   27b44:	00074703          	lbu	a4,0(a4)
   27b48:	00e78023          	sb	a4,0(a5)
   27b4c:	7080006f          	j	28254 <bss_begin+0x6254>
   27b50:	fe042223          	sw	zero,-28(s0)
   27b54:	f9843783          	ld	a5,-104(s0)
   27b58:	00178793          	addi	a5,a5,1
   27b5c:	f8f43c23          	sd	a5,-104(s0)
   27b60:	f9843783          	ld	a5,-104(s0)
   27b64:	0007c783          	lbu	a5,0(a5)
   27b68:	0007879b          	sext.w	a5,a5
   27b6c:	fe07869b          	addiw	a3,a5,-32
   27b70:	0006871b          	sext.w	a4,a3
   27b74:	01000793          	li	a5,16
   27b78:	08e7e263          	bltu	a5,a4,27bfc <bss_begin+0x5bfc>
   27b7c:	02069793          	slli	a5,a3,0x20
   27b80:	0207d793          	srli	a5,a5,0x20
   27b84:	00279713          	slli	a4,a5,0x2
   27b88:	00002797          	auipc	a5,0x2
   27b8c:	10078793          	addi	a5,a5,256 # 29c88 <_payload_end+0x218>
   27b90:	00f707b3          	add	a5,a4,a5
   27b94:	0007a783          	lw	a5,0(a5)
   27b98:	0007871b          	sext.w	a4,a5
   27b9c:	00002797          	auipc	a5,0x2
   27ba0:	0ec78793          	addi	a5,a5,236 # 29c88 <_payload_end+0x218>
   27ba4:	00f707b3          	add	a5,a4,a5
   27ba8:	00078067          	jr	a5
   27bac:	fe442783          	lw	a5,-28(s0)
   27bb0:	0107e793          	ori	a5,a5,16
   27bb4:	fef42223          	sw	a5,-28(s0)
   27bb8:	f9dff06f          	j	27b54 <bss_begin+0x5b54>
   27bbc:	fe442783          	lw	a5,-28(s0)
   27bc0:	0047e793          	ori	a5,a5,4
   27bc4:	fef42223          	sw	a5,-28(s0)
   27bc8:	f8dff06f          	j	27b54 <bss_begin+0x5b54>
   27bcc:	fe442783          	lw	a5,-28(s0)
   27bd0:	0087e793          	ori	a5,a5,8
   27bd4:	fef42223          	sw	a5,-28(s0)
   27bd8:	f7dff06f          	j	27b54 <bss_begin+0x5b54>
   27bdc:	fe442783          	lw	a5,-28(s0)
   27be0:	0207e793          	ori	a5,a5,32
   27be4:	fef42223          	sw	a5,-28(s0)
   27be8:	f6dff06f          	j	27b54 <bss_begin+0x5b54>
   27bec:	fe442783          	lw	a5,-28(s0)
   27bf0:	0017e793          	ori	a5,a5,1
   27bf4:	fef42223          	sw	a5,-28(s0)
   27bf8:	f5dff06f          	j	27b54 <bss_begin+0x5b54>
   27bfc:	fff00793          	li	a5,-1
   27c00:	faf42a23          	sw	a5,-76(s0)
   27c04:	f9843783          	ld	a5,-104(s0)
   27c08:	0007c783          	lbu	a5,0(a5)
   27c0c:	00078713          	mv	a4,a5
   27c10:	02f00793          	li	a5,47
   27c14:	02e7f863          	bgeu	a5,a4,27c44 <bss_begin+0x5c44>
   27c18:	f9843783          	ld	a5,-104(s0)
   27c1c:	0007c783          	lbu	a5,0(a5)
   27c20:	00078713          	mv	a4,a5
   27c24:	03900793          	li	a5,57
   27c28:	00e7ee63          	bltu	a5,a4,27c44 <bss_begin+0x5c44>
   27c2c:	fb440793          	addi	a5,s0,-76
   27c30:	00078593          	mv	a1,a5
   27c34:	f9843503          	ld	a0,-104(s0)
   27c38:	a15ff0ef          	jal	ra,2764c <bss_begin+0x564c>
   27c3c:	f8a43c23          	sd	a0,-104(s0)
   27c40:	0500006f          	j	27c90 <bss_begin+0x5c90>
   27c44:	f9843783          	ld	a5,-104(s0)
   27c48:	0007c783          	lbu	a5,0(a5)
   27c4c:	00078713          	mv	a4,a5
   27c50:	02a00793          	li	a5,42
   27c54:	02f71e63          	bne	a4,a5,27c90 <bss_begin+0x5c90>
   27c58:	f9043783          	ld	a5,-112(s0)
   27c5c:	00878713          	addi	a4,a5,8
   27c60:	f8e43823          	sd	a4,-112(s0)
   27c64:	0007a783          	lw	a5,0(a5)
   27c68:	faf42a23          	sw	a5,-76(s0)
   27c6c:	fb442783          	lw	a5,-76(s0)
   27c70:	0207d063          	bgez	a5,27c90 <bss_begin+0x5c90>
   27c74:	fb442783          	lw	a5,-76(s0)
   27c78:	40f007bb          	negw	a5,a5
   27c7c:	0007879b          	sext.w	a5,a5
   27c80:	faf42a23          	sw	a5,-76(s0)
   27c84:	fe442783          	lw	a5,-28(s0)
   27c88:	0107e793          	ori	a5,a5,16
   27c8c:	fef42223          	sw	a5,-28(s0)
   27c90:	fff00793          	li	a5,-1
   27c94:	faf42823          	sw	a5,-80(s0)
   27c98:	f9843783          	ld	a5,-104(s0)
   27c9c:	0007c783          	lbu	a5,0(a5)
   27ca0:	00078713          	mv	a4,a5
   27ca4:	02e00793          	li	a5,46
   27ca8:	08f71263          	bne	a4,a5,27d2c <bss_begin+0x5d2c>
   27cac:	f9843783          	ld	a5,-104(s0)
   27cb0:	00178793          	addi	a5,a5,1
   27cb4:	f8f43c23          	sd	a5,-104(s0)
   27cb8:	f9843783          	ld	a5,-104(s0)
   27cbc:	0007c783          	lbu	a5,0(a5)
   27cc0:	00078713          	mv	a4,a5
   27cc4:	02f00793          	li	a5,47
   27cc8:	02e7f863          	bgeu	a5,a4,27cf8 <bss_begin+0x5cf8>
   27ccc:	f9843783          	ld	a5,-104(s0)
   27cd0:	0007c783          	lbu	a5,0(a5)
   27cd4:	00078713          	mv	a4,a5
   27cd8:	03900793          	li	a5,57
   27cdc:	00e7ee63          	bltu	a5,a4,27cf8 <bss_begin+0x5cf8>
   27ce0:	fb040793          	addi	a5,s0,-80
   27ce4:	00078593          	mv	a1,a5
   27ce8:	f9843503          	ld	a0,-104(s0)
   27cec:	961ff0ef          	jal	ra,2764c <bss_begin+0x564c>
   27cf0:	f8a43c23          	sd	a0,-104(s0)
   27cf4:	02c0006f          	j	27d20 <bss_begin+0x5d20>
   27cf8:	f9843783          	ld	a5,-104(s0)
   27cfc:	0007c783          	lbu	a5,0(a5)
   27d00:	00078713          	mv	a4,a5
   27d04:	02a00793          	li	a5,42
   27d08:	00f71c63          	bne	a4,a5,27d20 <bss_begin+0x5d20>
   27d0c:	f9043783          	ld	a5,-112(s0)
   27d10:	00878713          	addi	a4,a5,8
   27d14:	f8e43823          	sd	a4,-112(s0)
   27d18:	0007a783          	lw	a5,0(a5)
   27d1c:	faf42823          	sw	a5,-80(s0)
   27d20:	fb042783          	lw	a5,-80(s0)
   27d24:	0007d463          	bgez	a5,27d2c <bss_begin+0x5d2c>
   27d28:	fa042823          	sw	zero,-80(s0)
   27d2c:	fff00793          	li	a5,-1
   27d30:	fef42023          	sw	a5,-32(s0)
   27d34:	f9843783          	ld	a5,-104(s0)
   27d38:	0007c783          	lbu	a5,0(a5)
   27d3c:	00078713          	mv	a4,a5
   27d40:	06800793          	li	a5,104
   27d44:	02f70663          	beq	a4,a5,27d70 <bss_begin+0x5d70>
   27d48:	f9843783          	ld	a5,-104(s0)
   27d4c:	0007c783          	lbu	a5,0(a5)
   27d50:	00078713          	mv	a4,a5
   27d54:	06c00793          	li	a5,108
   27d58:	00f70c63          	beq	a4,a5,27d70 <bss_begin+0x5d70>
   27d5c:	f9843783          	ld	a5,-104(s0)
   27d60:	0007c783          	lbu	a5,0(a5)
   27d64:	00078713          	mv	a4,a5
   27d68:	04c00793          	li	a5,76
   27d6c:	04f71a63          	bne	a4,a5,27dc0 <bss_begin+0x5dc0>
   27d70:	f9843783          	ld	a5,-104(s0)
   27d74:	0007c783          	lbu	a5,0(a5)
   27d78:	fef42023          	sw	a5,-32(s0)
   27d7c:	f9843783          	ld	a5,-104(s0)
   27d80:	00178793          	addi	a5,a5,1
   27d84:	f8f43c23          	sd	a5,-104(s0)
   27d88:	fe042783          	lw	a5,-32(s0)
   27d8c:	0007871b          	sext.w	a4,a5
   27d90:	06c00793          	li	a5,108
   27d94:	02f71663          	bne	a4,a5,27dc0 <bss_begin+0x5dc0>
   27d98:	f9843783          	ld	a5,-104(s0)
   27d9c:	0007c783          	lbu	a5,0(a5)
   27da0:	00078713          	mv	a4,a5
   27da4:	06c00793          	li	a5,108
   27da8:	00f71c63          	bne	a4,a5,27dc0 <bss_begin+0x5dc0>
   27dac:	04c00793          	li	a5,76
   27db0:	fef42023          	sw	a5,-32(s0)
   27db4:	f9843783          	ld	a5,-104(s0)
   27db8:	00178793          	addi	a5,a5,1
   27dbc:	f8f43c23          	sd	a5,-104(s0)
   27dc0:	f9843783          	ld	a5,-104(s0)
   27dc4:	0007c783          	lbu	a5,0(a5)
   27dc8:	0007879b          	sext.w	a5,a5
   27dcc:	fa87869b          	addiw	a3,a5,-88
   27dd0:	0006871b          	sext.w	a4,a3
   27dd4:	02000793          	li	a5,32
   27dd8:	2ae7ec63          	bltu	a5,a4,28090 <bss_begin+0x6090>
   27ddc:	02069793          	slli	a5,a3,0x20
   27de0:	0207d793          	srli	a5,a5,0x20
   27de4:	00279713          	slli	a4,a5,0x2
   27de8:	00002797          	auipc	a5,0x2
   27dec:	ee478793          	addi	a5,a5,-284 # 29ccc <_payload_end+0x25c>
   27df0:	00f707b3          	add	a5,a4,a5
   27df4:	0007a783          	lw	a5,0(a5)
   27df8:	0007871b          	sext.w	a4,a5
   27dfc:	00002797          	auipc	a5,0x2
   27e00:	ed078793          	addi	a5,a5,-304 # 29ccc <_payload_end+0x25c>
   27e04:	00f707b3          	add	a5,a4,a5
   27e08:	00078067          	jr	a5
   27e0c:	fe442783          	lw	a5,-28(s0)
   27e10:	0107f793          	andi	a5,a5,16
   27e14:	0007879b          	sext.w	a5,a5
   27e18:	02079a63          	bnez	a5,27e4c <bss_begin+0x5e4c>
   27e1c:	0180006f          	j	27e34 <bss_begin+0x5e34>
   27e20:	fe843783          	ld	a5,-24(s0)
   27e24:	00178713          	addi	a4,a5,1
   27e28:	fee43423          	sd	a4,-24(s0)
   27e2c:	02000713          	li	a4,32
   27e30:	00e78023          	sb	a4,0(a5)
   27e34:	fb442783          	lw	a5,-76(s0)
   27e38:	fff7879b          	addiw	a5,a5,-1
   27e3c:	0007879b          	sext.w	a5,a5
   27e40:	faf42a23          	sw	a5,-76(s0)
   27e44:	fb442783          	lw	a5,-76(s0)
   27e48:	fcf04ce3          	bgtz	a5,27e20 <bss_begin+0x5e20>
   27e4c:	f9043783          	ld	a5,-112(s0)
   27e50:	00878713          	addi	a4,a5,8
   27e54:	f8e43823          	sd	a4,-112(s0)
   27e58:	0007a683          	lw	a3,0(a5)
   27e5c:	fe843783          	ld	a5,-24(s0)
   27e60:	00178713          	addi	a4,a5,1
   27e64:	fee43423          	sd	a4,-24(s0)
   27e68:	0ff6f713          	andi	a4,a3,255
   27e6c:	00e78023          	sb	a4,0(a5)
   27e70:	0180006f          	j	27e88 <bss_begin+0x5e88>
   27e74:	fe843783          	ld	a5,-24(s0)
   27e78:	00178713          	addi	a4,a5,1
   27e7c:	fee43423          	sd	a4,-24(s0)
   27e80:	02000713          	li	a4,32
   27e84:	00e78023          	sb	a4,0(a5)
   27e88:	fb442783          	lw	a5,-76(s0)
   27e8c:	fff7879b          	addiw	a5,a5,-1
   27e90:	0007879b          	sext.w	a5,a5
   27e94:	faf42a23          	sw	a5,-76(s0)
   27e98:	fb442783          	lw	a5,-76(s0)
   27e9c:	fcf04ce3          	bgtz	a5,27e74 <bss_begin+0x5e74>
   27ea0:	3b40006f          	j	28254 <bss_begin+0x6254>
   27ea4:	f9043783          	ld	a5,-112(s0)
   27ea8:	00878713          	addi	a4,a5,8
   27eac:	f8e43823          	sd	a4,-112(s0)
   27eb0:	0007b783          	ld	a5,0(a5)
   27eb4:	fcf43c23          	sd	a5,-40(s0)
   27eb8:	fd843783          	ld	a5,-40(s0)
   27ebc:	00079863          	bnez	a5,27ecc <bss_begin+0x5ecc>
   27ec0:	00002797          	auipc	a5,0x2
   27ec4:	dc078793          	addi	a5,a5,-576 # 29c80 <_payload_end+0x210>
   27ec8:	fcf43c23          	sd	a5,-40(s0)
   27ecc:	fd843503          	ld	a0,-40(s0)
   27ed0:	5e4000ef          	jal	ra,284b4 <bss_begin+0x64b4>
   27ed4:	00050793          	mv	a5,a0
   27ed8:	fcf42823          	sw	a5,-48(s0)
   27edc:	fb042783          	lw	a5,-80(s0)
   27ee0:	0007d863          	bgez	a5,27ef0 <bss_begin+0x5ef0>
   27ee4:	fd042783          	lw	a5,-48(s0)
   27ee8:	faf42823          	sw	a5,-80(s0)
   27eec:	01c0006f          	j	27f08 <bss_begin+0x5f08>
   27ef0:	fb042703          	lw	a4,-80(s0)
   27ef4:	fd042783          	lw	a5,-48(s0)
   27ef8:	0007879b          	sext.w	a5,a5
   27efc:	00f75663          	bge	a4,a5,27f08 <bss_begin+0x5f08>
   27f00:	fb042783          	lw	a5,-80(s0)
   27f04:	fcf42823          	sw	a5,-48(s0)
   27f08:	fe442783          	lw	a5,-28(s0)
   27f0c:	0107f793          	andi	a5,a5,16
   27f10:	0007879b          	sext.w	a5,a5
   27f14:	02079c63          	bnez	a5,27f4c <bss_begin+0x5f4c>
   27f18:	0180006f          	j	27f30 <bss_begin+0x5f30>
   27f1c:	fe843783          	ld	a5,-24(s0)
   27f20:	00178713          	addi	a4,a5,1
   27f24:	fee43423          	sd	a4,-24(s0)
   27f28:	02000713          	li	a4,32
   27f2c:	00e78023          	sb	a4,0(a5)
   27f30:	fb442783          	lw	a5,-76(s0)
   27f34:	fff7871b          	addiw	a4,a5,-1
   27f38:	0007071b          	sext.w	a4,a4
   27f3c:	fae42a23          	sw	a4,-76(s0)
   27f40:	fd042703          	lw	a4,-48(s0)
   27f44:	0007071b          	sext.w	a4,a4
   27f48:	fcf74ae3          	blt	a4,a5,27f1c <bss_begin+0x5f1c>
   27f4c:	fc042a23          	sw	zero,-44(s0)
   27f50:	0300006f          	j	27f80 <bss_begin+0x5f80>
   27f54:	fd843703          	ld	a4,-40(s0)
   27f58:	00170793          	addi	a5,a4,1
   27f5c:	fcf43c23          	sd	a5,-40(s0)
   27f60:	fe843783          	ld	a5,-24(s0)
   27f64:	00178693          	addi	a3,a5,1
   27f68:	fed43423          	sd	a3,-24(s0)
   27f6c:	00074703          	lbu	a4,0(a4)
   27f70:	00e78023          	sb	a4,0(a5)
   27f74:	fd442783          	lw	a5,-44(s0)
   27f78:	0017879b          	addiw	a5,a5,1
   27f7c:	fcf42a23          	sw	a5,-44(s0)
   27f80:	fd442703          	lw	a4,-44(s0)
   27f84:	fd042783          	lw	a5,-48(s0)
   27f88:	0007071b          	sext.w	a4,a4
   27f8c:	0007879b          	sext.w	a5,a5
   27f90:	fcf742e3          	blt	a4,a5,27f54 <bss_begin+0x5f54>
   27f94:	0180006f          	j	27fac <bss_begin+0x5fac>
   27f98:	fe843783          	ld	a5,-24(s0)
   27f9c:	00178713          	addi	a4,a5,1
   27fa0:	fee43423          	sd	a4,-24(s0)
   27fa4:	02000713          	li	a4,32
   27fa8:	00e78023          	sb	a4,0(a5)
   27fac:	fb442783          	lw	a5,-76(s0)
   27fb0:	fff7871b          	addiw	a4,a5,-1
   27fb4:	0007071b          	sext.w	a4,a4
   27fb8:	fae42a23          	sw	a4,-76(s0)
   27fbc:	fd042703          	lw	a4,-48(s0)
   27fc0:	0007071b          	sext.w	a4,a4
   27fc4:	fcf74ae3          	blt	a4,a5,27f98 <bss_begin+0x5f98>
   27fc8:	28c0006f          	j	28254 <bss_begin+0x6254>
   27fcc:	f9043783          	ld	a5,-112(s0)
   27fd0:	00878713          	addi	a4,a5,8
   27fd4:	f8e43823          	sd	a4,-112(s0)
   27fd8:	0007b783          	ld	a5,0(a5)
   27fdc:	faf43c23          	sd	a5,-72(s0)
   27fe0:	fe843703          	ld	a4,-24(s0)
   27fe4:	fa843783          	ld	a5,-88(s0)
   27fe8:	40f707b3          	sub	a5,a4,a5
   27fec:	0ff7f713          	andi	a4,a5,255
   27ff0:	fb843783          	ld	a5,-72(s0)
   27ff4:	00e78023          	sb	a4,0(a5)
   27ff8:	25c0006f          	j	28254 <bss_begin+0x6254>
   27ffc:	fb442783          	lw	a5,-76(s0)
   28000:	00078713          	mv	a4,a5
   28004:	fff00793          	li	a5,-1
   28008:	00f71c63          	bne	a4,a5,28020 <bss_begin+0x6020>
   2800c:	01000793          	li	a5,16
   28010:	faf42a23          	sw	a5,-76(s0)
   28014:	fe442783          	lw	a5,-28(s0)
   28018:	0017e793          	ori	a5,a5,1
   2801c:	fef42223          	sw	a5,-28(s0)
   28020:	f9043783          	ld	a5,-112(s0)
   28024:	00878713          	addi	a4,a5,8
   28028:	f8e43823          	sd	a4,-112(s0)
   2802c:	0007b783          	ld	a5,0(a5)
   28030:	00078593          	mv	a1,a5
   28034:	fb442683          	lw	a3,-76(s0)
   28038:	fb042703          	lw	a4,-80(s0)
   2803c:	fe442783          	lw	a5,-28(s0)
   28040:	01000613          	li	a2,16
   28044:	fe843503          	ld	a0,-24(s0)
   28048:	ea8ff0ef          	jal	ra,276f0 <bss_begin+0x56f0>
   2804c:	fea43423          	sd	a0,-24(s0)
   28050:	2040006f          	j	28254 <bss_begin+0x6254>
   28054:	00800793          	li	a5,8
   28058:	fcf42223          	sw	a5,-60(s0)
   2805c:	0940006f          	j	280f0 <bss_begin+0x60f0>
   28060:	fe442783          	lw	a5,-28(s0)
   28064:	0407e793          	ori	a5,a5,64
   28068:	fef42223          	sw	a5,-28(s0)
   2806c:	01000793          	li	a5,16
   28070:	fcf42223          	sw	a5,-60(s0)
   28074:	07c0006f          	j	280f0 <bss_begin+0x60f0>
   28078:	fe442783          	lw	a5,-28(s0)
   2807c:	0027e793          	ori	a5,a5,2
   28080:	fef42223          	sw	a5,-28(s0)
   28084:	00a00793          	li	a5,10
   28088:	fcf42223          	sw	a5,-60(s0)
   2808c:	0640006f          	j	280f0 <bss_begin+0x60f0>
   28090:	f9843783          	ld	a5,-104(s0)
   28094:	0007c783          	lbu	a5,0(a5)
   28098:	00078713          	mv	a4,a5
   2809c:	02500793          	li	a5,37
   280a0:	00f70c63          	beq	a4,a5,280b8 <bss_begin+0x60b8>
   280a4:	fe843783          	ld	a5,-24(s0)
   280a8:	00178713          	addi	a4,a5,1
   280ac:	fee43423          	sd	a4,-24(s0)
   280b0:	02500713          	li	a4,37
   280b4:	00e78023          	sb	a4,0(a5)
   280b8:	f9843783          	ld	a5,-104(s0)
   280bc:	0007c783          	lbu	a5,0(a5)
   280c0:	02078063          	beqz	a5,280e0 <bss_begin+0x60e0>
   280c4:	fe843783          	ld	a5,-24(s0)
   280c8:	00178713          	addi	a4,a5,1
   280cc:	fee43423          	sd	a4,-24(s0)
   280d0:	f9843703          	ld	a4,-104(s0)
   280d4:	00074703          	lbu	a4,0(a4)
   280d8:	00e78023          	sb	a4,0(a5)
   280dc:	0100006f          	j	280ec <bss_begin+0x60ec>
   280e0:	f9843783          	ld	a5,-104(s0)
   280e4:	fff78793          	addi	a5,a5,-1
   280e8:	f8f43c23          	sd	a5,-104(s0)
   280ec:	00000013          	nop
   280f0:	fe042783          	lw	a5,-32(s0)
   280f4:	0007871b          	sext.w	a4,a5
   280f8:	04c00793          	li	a5,76
   280fc:	04f71263          	bne	a4,a5,28140 <bss_begin+0x6140>
   28100:	fe442783          	lw	a5,-28(s0)
   28104:	0027f793          	andi	a5,a5,2
   28108:	0007879b          	sext.w	a5,a5
   2810c:	00078e63          	beqz	a5,28128 <bss_begin+0x6128>
   28110:	f9043783          	ld	a5,-112(s0)
   28114:	00878713          	addi	a4,a5,8
   28118:	f8e43823          	sd	a4,-112(s0)
   2811c:	0007b783          	ld	a5,0(a5)
   28120:	fcf43423          	sd	a5,-56(s0)
   28124:	1100006f          	j	28234 <bss_begin+0x6234>
   28128:	f9043783          	ld	a5,-112(s0)
   2812c:	00878713          	addi	a4,a5,8
   28130:	f8e43823          	sd	a4,-112(s0)
   28134:	0007b783          	ld	a5,0(a5)
   28138:	fcf43423          	sd	a5,-56(s0)
   2813c:	0f80006f          	j	28234 <bss_begin+0x6234>
   28140:	fe042783          	lw	a5,-32(s0)
   28144:	0007871b          	sext.w	a4,a5
   28148:	06800793          	li	a5,104
   2814c:	04f71a63          	bne	a4,a5,281a0 <bss_begin+0x61a0>
   28150:	fe442783          	lw	a5,-28(s0)
   28154:	0027f793          	andi	a5,a5,2
   28158:	0007879b          	sext.w	a5,a5
   2815c:	02078263          	beqz	a5,28180 <bss_begin+0x6180>
   28160:	f9043783          	ld	a5,-112(s0)
   28164:	00878713          	addi	a4,a5,8
   28168:	f8e43823          	sd	a4,-112(s0)
   2816c:	0007a783          	lw	a5,0(a5)
   28170:	0107979b          	slliw	a5,a5,0x10
   28174:	4107d79b          	sraiw	a5,a5,0x10
   28178:	fcf43423          	sd	a5,-56(s0)
   2817c:	0b80006f          	j	28234 <bss_begin+0x6234>
   28180:	f9043783          	ld	a5,-112(s0)
   28184:	00878713          	addi	a4,a5,8
   28188:	f8e43823          	sd	a4,-112(s0)
   2818c:	0007a783          	lw	a5,0(a5)
   28190:	03079793          	slli	a5,a5,0x30
   28194:	0307d793          	srli	a5,a5,0x30
   28198:	fcf43423          	sd	a5,-56(s0)
   2819c:	0980006f          	j	28234 <bss_begin+0x6234>
   281a0:	fe042783          	lw	a5,-32(s0)
   281a4:	0007871b          	sext.w	a4,a5
   281a8:	06c00793          	li	a5,108
   281ac:	04f71263          	bne	a4,a5,281f0 <bss_begin+0x61f0>
   281b0:	fe442783          	lw	a5,-28(s0)
   281b4:	0027f793          	andi	a5,a5,2
   281b8:	0007879b          	sext.w	a5,a5
   281bc:	00078e63          	beqz	a5,281d8 <bss_begin+0x61d8>
   281c0:	f9043783          	ld	a5,-112(s0)
   281c4:	00878713          	addi	a4,a5,8
   281c8:	f8e43823          	sd	a4,-112(s0)
   281cc:	0007b783          	ld	a5,0(a5)
   281d0:	fcf43423          	sd	a5,-56(s0)
   281d4:	0600006f          	j	28234 <bss_begin+0x6234>
   281d8:	f9043783          	ld	a5,-112(s0)
   281dc:	00878713          	addi	a4,a5,8
   281e0:	f8e43823          	sd	a4,-112(s0)
   281e4:	0007b783          	ld	a5,0(a5)
   281e8:	fcf43423          	sd	a5,-56(s0)
   281ec:	0480006f          	j	28234 <bss_begin+0x6234>
   281f0:	fe442783          	lw	a5,-28(s0)
   281f4:	0027f793          	andi	a5,a5,2
   281f8:	0007879b          	sext.w	a5,a5
   281fc:	00078e63          	beqz	a5,28218 <bss_begin+0x6218>
   28200:	f9043783          	ld	a5,-112(s0)
   28204:	00878713          	addi	a4,a5,8
   28208:	f8e43823          	sd	a4,-112(s0)
   2820c:	0007a783          	lw	a5,0(a5)
   28210:	fcf43423          	sd	a5,-56(s0)
   28214:	0200006f          	j	28234 <bss_begin+0x6234>
   28218:	f9043783          	ld	a5,-112(s0)
   2821c:	00878713          	addi	a4,a5,8
   28220:	f8e43823          	sd	a4,-112(s0)
   28224:	0007a783          	lw	a5,0(a5)
   28228:	02079793          	slli	a5,a5,0x20
   2822c:	0207d793          	srli	a5,a5,0x20
   28230:	fcf43423          	sd	a5,-56(s0)
   28234:	fb442683          	lw	a3,-76(s0)
   28238:	fb042703          	lw	a4,-80(s0)
   2823c:	fe442783          	lw	a5,-28(s0)
   28240:	fc442603          	lw	a2,-60(s0)
   28244:	fc843583          	ld	a1,-56(s0)
   28248:	fe843503          	ld	a0,-24(s0)
   2824c:	ca4ff0ef          	jal	ra,276f0 <bss_begin+0x56f0>
   28250:	fea43423          	sd	a0,-24(s0)
   28254:	f9843783          	ld	a5,-104(s0)
   28258:	00178793          	addi	a5,a5,1
   2825c:	f8f43c23          	sd	a5,-104(s0)
   28260:	f9843783          	ld	a5,-104(s0)
   28264:	0007c783          	lbu	a5,0(a5)
   28268:	8a079ce3          	bnez	a5,27b20 <bss_begin+0x5b20>
   2826c:	fe843783          	ld	a5,-24(s0)
   28270:	00078023          	sb	zero,0(a5)
   28274:	fe843703          	ld	a4,-24(s0)
   28278:	fa843783          	ld	a5,-88(s0)
   2827c:	40f707b3          	sub	a5,a4,a5
   28280:	0007879b          	sext.w	a5,a5
   28284:	00078513          	mv	a0,a5
   28288:	06813083          	ld	ra,104(sp)
   2828c:	06013403          	ld	s0,96(sp)
   28290:	07010113          	addi	sp,sp,112
   28294:	00008067          	ret
   28298:	fe010113          	addi	sp,sp,-32
   2829c:	00113c23          	sd	ra,24(sp)
   282a0:	00813823          	sd	s0,16(sp)
   282a4:	02010413          	addi	s0,sp,32
   282a8:	00003797          	auipc	a5,0x3
   282ac:	ef878793          	addi	a5,a5,-264 # 2b1a0 <_payload_end+0x1730>
   282b0:	00100713          	li	a4,1
   282b4:	00e7a023          	sw	a4,0(a5)
   282b8:	fe043423          	sd	zero,-24(s0)
   282bc:	0300006f          	j	282ec <bss_begin+0x62ec>
   282c0:	00003717          	auipc	a4,0x3
   282c4:	de070713          	addi	a4,a4,-544 # 2b0a0 <_payload_end+0x1630>
   282c8:	fe843783          	ld	a5,-24(s0)
   282cc:	00f707b3          	add	a5,a4,a5
   282d0:	0007c783          	lbu	a5,0(a5)
   282d4:	0007879b          	sext.w	a5,a5
   282d8:	00078513          	mv	a0,a5
   282dc:	591000ef          	jal	ra,2906c <bss_begin+0x706c>
   282e0:	fe843783          	ld	a5,-24(s0)
   282e4:	00178793          	addi	a5,a5,1
   282e8:	fef43423          	sd	a5,-24(s0)
   282ec:	00003797          	auipc	a5,0x3
   282f0:	ebc78793          	addi	a5,a5,-324 # 2b1a8 <_payload_end+0x1738>
   282f4:	0007b783          	ld	a5,0(a5)
   282f8:	fe843703          	ld	a4,-24(s0)
   282fc:	fcf762e3          	bltu	a4,a5,282c0 <bss_begin+0x62c0>
   28300:	00003797          	auipc	a5,0x3
   28304:	c9878793          	addi	a5,a5,-872 # 2af98 <_payload_end+0x1528>
   28308:	00003717          	auipc	a4,0x3
   2830c:	d9870713          	addi	a4,a4,-616 # 2b0a0 <_payload_end+0x1630>
   28310:	00e7b023          	sd	a4,0(a5)
   28314:	00003797          	auipc	a5,0x3
   28318:	e9478793          	addi	a5,a5,-364 # 2b1a8 <_payload_end+0x1738>
   2831c:	0007b023          	sd	zero,0(a5)
   28320:	00000013          	nop
   28324:	01813083          	ld	ra,24(sp)
   28328:	01013403          	ld	s0,16(sp)
   2832c:	02010113          	addi	sp,sp,32
   28330:	00008067          	ret
   28334:	f9010113          	addi	sp,sp,-112
   28338:	02113423          	sd	ra,40(sp)
   2833c:	02813023          	sd	s0,32(sp)
   28340:	03010413          	addi	s0,sp,48
   28344:	fca43c23          	sd	a0,-40(s0)
   28348:	00b43423          	sd	a1,8(s0)
   2834c:	00c43823          	sd	a2,16(s0)
   28350:	00d43c23          	sd	a3,24(s0)
   28354:	02e43023          	sd	a4,32(s0)
   28358:	02f43423          	sd	a5,40(s0)
   2835c:	03043823          	sd	a6,48(s0)
   28360:	03143c23          	sd	a7,56(s0)
   28364:	04040793          	addi	a5,s0,64
   28368:	fcf43823          	sd	a5,-48(s0)
   2836c:	fd043783          	ld	a5,-48(s0)
   28370:	fc878793          	addi	a5,a5,-56
   28374:	fef43023          	sd	a5,-32(s0)
   28378:	fe043783          	ld	a5,-32(s0)
   2837c:	00078693          	mv	a3,a5
   28380:	fd843603          	ld	a2,-40(s0)
   28384:	10000593          	li	a1,256
   28388:	00003517          	auipc	a0,0x3
   2838c:	c1850513          	addi	a0,a0,-1000 # 2afa0 <_payload_end+0x1530>
   28390:	f60ff0ef          	jal	ra,27af0 <bss_begin+0x5af0>
   28394:	00050793          	mv	a5,a0
   28398:	fef42423          	sw	a5,-24(s0)
   2839c:	00003797          	auipc	a5,0x3
   283a0:	e0478793          	addi	a5,a5,-508 # 2b1a0 <_payload_end+0x1730>
   283a4:	0007a783          	lw	a5,0(a5)
   283a8:	06079663          	bnez	a5,28414 <bss_begin+0x6414>
   283ac:	00003797          	auipc	a5,0x3
   283b0:	bec78793          	addi	a5,a5,-1044 # 2af98 <_payload_end+0x1528>
   283b4:	0007b783          	ld	a5,0(a5)
   283b8:	fe842703          	lw	a4,-24(s0)
   283bc:	00070613          	mv	a2,a4
   283c0:	00003597          	auipc	a1,0x3
   283c4:	be058593          	addi	a1,a1,-1056 # 2afa0 <_payload_end+0x1530>
   283c8:	00078513          	mv	a0,a5
   283cc:	138000ef          	jal	ra,28504 <bss_begin+0x6504>
   283d0:	fe842703          	lw	a4,-24(s0)
   283d4:	00003797          	auipc	a5,0x3
   283d8:	ccc78793          	addi	a5,a5,-820 # 2b0a0 <_payload_end+0x1630>
   283dc:	00f70733          	add	a4,a4,a5
   283e0:	00003797          	auipc	a5,0x3
   283e4:	bb878793          	addi	a5,a5,-1096 # 2af98 <_payload_end+0x1528>
   283e8:	00e7b023          	sd	a4,0(a5)
   283ec:	fe842703          	lw	a4,-24(s0)
   283f0:	00003797          	auipc	a5,0x3
   283f4:	db878793          	addi	a5,a5,-584 # 2b1a8 <_payload_end+0x1738>
   283f8:	0007b783          	ld	a5,0(a5)
   283fc:	00f70733          	add	a4,a4,a5
   28400:	00003797          	auipc	a5,0x3
   28404:	da878793          	addi	a5,a5,-600 # 2b1a8 <_payload_end+0x1738>
   28408:	00e7b023          	sd	a4,0(a5)
   2840c:	00000793          	li	a5,0
   28410:	0900006f          	j	284a0 <bss_begin+0x64a0>
   28414:	fe042623          	sw	zero,-20(s0)
   28418:	0680006f          	j	28480 <bss_begin+0x6480>
   2841c:	00003717          	auipc	a4,0x3
   28420:	b8470713          	addi	a4,a4,-1148 # 2afa0 <_payload_end+0x1530>
   28424:	fec42783          	lw	a5,-20(s0)
   28428:	00f707b3          	add	a5,a4,a5
   2842c:	0007c783          	lbu	a5,0(a5)
   28430:	00078713          	mv	a4,a5
   28434:	00a00793          	li	a5,10
   28438:	00f71663          	bne	a4,a5,28444 <bss_begin+0x6444>
   2843c:	00d00513          	li	a0,13
   28440:	42d000ef          	jal	ra,2906c <bss_begin+0x706c>
   28444:	00003717          	auipc	a4,0x3
   28448:	b5c70713          	addi	a4,a4,-1188 # 2afa0 <_payload_end+0x1530>
   2844c:	fec42783          	lw	a5,-20(s0)
   28450:	00f707b3          	add	a5,a4,a5
   28454:	0007c783          	lbu	a5,0(a5)
   28458:	0007879b          	sext.w	a5,a5
   2845c:	00078513          	mv	a0,a5
   28460:	40d000ef          	jal	ra,2906c <bss_begin+0x706c>
   28464:	fec42783          	lw	a5,-20(s0)
   28468:	00078713          	mv	a4,a5
   2846c:	10000793          	li	a5,256
   28470:	02e7e463          	bltu	a5,a4,28498 <bss_begin+0x6498>
   28474:	fec42783          	lw	a5,-20(s0)
   28478:	0017879b          	addiw	a5,a5,1
   2847c:	fef42623          	sw	a5,-20(s0)
   28480:	fec42703          	lw	a4,-20(s0)
   28484:	fe842783          	lw	a5,-24(s0)
   28488:	0007071b          	sext.w	a4,a4
   2848c:	0007879b          	sext.w	a5,a5
   28490:	f8f746e3          	blt	a4,a5,2841c <bss_begin+0x641c>
   28494:	0080006f          	j	2849c <bss_begin+0x649c>
   28498:	00000013          	nop
   2849c:	fe842783          	lw	a5,-24(s0)
   284a0:	00078513          	mv	a0,a5
   284a4:	02813083          	ld	ra,40(sp)
   284a8:	02013403          	ld	s0,32(sp)
   284ac:	07010113          	addi	sp,sp,112
   284b0:	00008067          	ret
   284b4:	fd010113          	addi	sp,sp,-48
   284b8:	02813423          	sd	s0,40(sp)
   284bc:	03010413          	addi	s0,sp,48
   284c0:	fca43c23          	sd	a0,-40(s0)
   284c4:	fd843783          	ld	a5,-40(s0)
   284c8:	fef43423          	sd	a5,-24(s0)
   284cc:	0100006f          	j	284dc <bss_begin+0x64dc>
   284d0:	fe843783          	ld	a5,-24(s0)
   284d4:	00178793          	addi	a5,a5,1
   284d8:	fef43423          	sd	a5,-24(s0)
   284dc:	fe843783          	ld	a5,-24(s0)
   284e0:	0007c783          	lbu	a5,0(a5)
   284e4:	fe0796e3          	bnez	a5,284d0 <bss_begin+0x64d0>
   284e8:	fe843703          	ld	a4,-24(s0)
   284ec:	fd843783          	ld	a5,-40(s0)
   284f0:	40f707b3          	sub	a5,a4,a5
   284f4:	00078513          	mv	a0,a5
   284f8:	02813403          	ld	s0,40(sp)
   284fc:	03010113          	addi	sp,sp,48
   28500:	00008067          	ret
   28504:	fc010113          	addi	sp,sp,-64
   28508:	02813c23          	sd	s0,56(sp)
   2850c:	04010413          	addi	s0,sp,64
   28510:	fca43c23          	sd	a0,-40(s0)
   28514:	fcb43823          	sd	a1,-48(s0)
   28518:	fcc43423          	sd	a2,-56(s0)
   2851c:	fd843783          	ld	a5,-40(s0)
   28520:	fef43423          	sd	a5,-24(s0)
   28524:	fd043783          	ld	a5,-48(s0)
   28528:	fef43023          	sd	a5,-32(s0)
   2852c:	0240006f          	j	28550 <bss_begin+0x6550>
   28530:	fe043703          	ld	a4,-32(s0)
   28534:	00170793          	addi	a5,a4,1
   28538:	fef43023          	sd	a5,-32(s0)
   2853c:	fe843783          	ld	a5,-24(s0)
   28540:	00178693          	addi	a3,a5,1
   28544:	fed43423          	sd	a3,-24(s0)
   28548:	00074703          	lbu	a4,0(a4)
   2854c:	00e78023          	sb	a4,0(a5)
   28550:	fc843783          	ld	a5,-56(s0)
   28554:	fff78713          	addi	a4,a5,-1
   28558:	fce43423          	sd	a4,-56(s0)
   2855c:	fc079ae3          	bnez	a5,28530 <bss_begin+0x6530>
   28560:	fd843783          	ld	a5,-40(s0)
   28564:	00078513          	mv	a0,a5
   28568:	03813403          	ld	s0,56(sp)
   2856c:	04010113          	addi	sp,sp,64
   28570:	00008067          	ret
   28574:	fe010113          	addi	sp,sp,-32
   28578:	00813c23          	sd	s0,24(sp)
   2857c:	02010413          	addi	s0,sp,32
   28580:	fea43423          	sd	a0,-24(s0)
   28584:	fe843783          	ld	a5,-24(s0)
   28588:	0007a783          	lw	a5,0(a5)
   2858c:	0007879b          	sext.w	a5,a5
   28590:	00078513          	mv	a0,a5
   28594:	01813403          	ld	s0,24(sp)
   28598:	02010113          	addi	sp,sp,32
   2859c:	00008067          	ret
   285a0:	fe010113          	addi	sp,sp,-32
   285a4:	00813c23          	sd	s0,24(sp)
   285a8:	02010413          	addi	s0,sp,32
   285ac:	fea43423          	sd	a0,-24(s0)
   285b0:	00058793          	mv	a5,a1
   285b4:	fef42223          	sw	a5,-28(s0)
   285b8:	fe843783          	ld	a5,-24(s0)
   285bc:	fe442703          	lw	a4,-28(s0)
   285c0:	00e7a023          	sw	a4,0(a5)
   285c4:	00000013          	nop
   285c8:	01813403          	ld	s0,24(sp)
   285cc:	02010113          	addi	sp,sp,32
   285d0:	00008067          	ret
   285d4:	fe010113          	addi	sp,sp,-32
   285d8:	00813c23          	sd	s0,24(sp)
   285dc:	02010413          	addi	s0,sp,32
   285e0:	fea43423          	sd	a0,-24(s0)
   285e4:	fe843783          	ld	a5,-24(s0)
   285e8:	00a79793          	slli	a5,a5,0xa
   285ec:	fef43423          	sd	a5,-24(s0)
   285f0:	00000013          	nop
   285f4:	fe843783          	ld	a5,-24(s0)
   285f8:	fff78713          	addi	a4,a5,-1
   285fc:	fee43423          	sd	a4,-24(s0)
   28600:	fe079ae3          	bnez	a5,285f4 <bss_begin+0x65f4>
   28604:	00000013          	nop
   28608:	00000013          	nop
   2860c:	01813403          	ld	s0,24(sp)
   28610:	02010113          	addi	sp,sp,32
   28614:	00008067          	ret
   28618:	fe010113          	addi	sp,sp,-32
   2861c:	00113c23          	sd	ra,24(sp)
   28620:	00813823          	sd	s0,16(sp)
   28624:	02010413          	addi	s0,sp,32
   28628:	30100593          	li	a1,769
   2862c:	020027b7          	lui	a5,0x2002
   28630:	d0078513          	addi	a0,a5,-768 # 2001d00 <_payload_end+0x1fd8290>
   28634:	f6dff0ef          	jal	ra,285a0 <bss_begin+0x65a0>
   28638:	00100513          	li	a0,1
   2863c:	f99ff0ef          	jal	ra,285d4 <bss_begin+0x65d4>
   28640:	02001537          	lui	a0,0x2001
   28644:	f31ff0ef          	jal	ra,28574 <bss_begin+0x6574>
   28648:	00050793          	mv	a5,a0
   2864c:	fef42623          	sw	a5,-20(s0)
   28650:	fec42703          	lw	a4,-20(s0)
   28654:	f80007b7          	lui	a5,0xf8000
   28658:	fff78793          	addi	a5,a5,-1 # fffffffff7ffffff <_payload_end+0xfffffffff7fd658f>
   2865c:	00f777b3          	and	a5,a4,a5
   28660:	fef42623          	sw	a5,-20(s0)
   28664:	fec42783          	lw	a5,-20(s0)
   28668:	00078593          	mv	a1,a5
   2866c:	02001537          	lui	a0,0x2001
   28670:	f31ff0ef          	jal	ra,285a0 <bss_begin+0x65a0>
   28674:	02001537          	lui	a0,0x2001
   28678:	efdff0ef          	jal	ra,28574 <bss_begin+0x6574>
   2867c:	00050793          	mv	a5,a0
   28680:	fef42623          	sw	a5,-20(s0)
   28684:	fec42703          	lw	a4,-20(s0)
   28688:	400007b7          	lui	a5,0x40000
   2868c:	00f767b3          	or	a5,a4,a5
   28690:	fef42623          	sw	a5,-20(s0)
   28694:	fec42783          	lw	a5,-20(s0)
   28698:	00078593          	mv	a1,a5
   2869c:	02001537          	lui	a0,0x2001
   286a0:	f01ff0ef          	jal	ra,285a0 <bss_begin+0x65a0>
   286a4:	00500513          	li	a0,5
   286a8:	f2dff0ef          	jal	ra,285d4 <bss_begin+0x65d4>
   286ac:	02001537          	lui	a0,0x2001
   286b0:	ec5ff0ef          	jal	ra,28574 <bss_begin+0x6574>
   286b4:	00050793          	mv	a5,a0
   286b8:	fef42623          	sw	a5,-20(s0)
   286bc:	fec42703          	lw	a4,-20(s0)
   286c0:	fffc07b7          	lui	a5,0xfffc0
   286c4:	0fc78793          	addi	a5,a5,252 # fffffffffffc00fc <_payload_end+0xfffffffffff9668c>
   286c8:	00f777b3          	and	a5,a4,a5
   286cc:	fef42623          	sw	a5,-20(s0)
   286d0:	fec42703          	lw	a4,-20(s0)
   286d4:	000037b7          	lui	a5,0x3
   286d8:	90078793          	addi	a5,a5,-1792 # 2900 <__bin_size-0x7170>
   286dc:	00f767b3          	or	a5,a4,a5
   286e0:	fef42623          	sw	a5,-20(s0)
   286e4:	fec42783          	lw	a5,-20(s0)
   286e8:	00078593          	mv	a1,a5
   286ec:	02001537          	lui	a0,0x2001
   286f0:	eb1ff0ef          	jal	ra,285a0 <bss_begin+0x65a0>
   286f4:	02001537          	lui	a0,0x2001
   286f8:	e7dff0ef          	jal	ra,28574 <bss_begin+0x6574>
   286fc:	00050793          	mv	a5,a0
   28700:	fef42623          	sw	a5,-20(s0)
   28704:	fec42703          	lw	a4,-20(s0)
   28708:	200007b7          	lui	a5,0x20000
   2870c:	00f767b3          	or	a5,a4,a5
   28710:	fef42623          	sw	a5,-20(s0)
   28714:	fec42783          	lw	a5,-20(s0)
   28718:	00078593          	mv	a1,a5
   2871c:	02001537          	lui	a0,0x2001
   28720:	e81ff0ef          	jal	ra,285a0 <bss_begin+0x65a0>
   28724:	02001537          	lui	a0,0x2001
   28728:	e4dff0ef          	jal	ra,28574 <bss_begin+0x6574>
   2872c:	00050793          	mv	a5,a0
   28730:	fef42623          	sw	a5,-20(s0)
   28734:	fec42703          	lw	a4,-20(s0)
   28738:	800007b7          	lui	a5,0x80000
   2873c:	00f767b3          	or	a5,a4,a5
   28740:	fef42623          	sw	a5,-20(s0)
   28744:	fec42783          	lw	a5,-20(s0)
   28748:	00078593          	mv	a1,a5
   2874c:	02001537          	lui	a0,0x2001
   28750:	e51ff0ef          	jal	ra,285a0 <bss_begin+0x65a0>
   28754:	00000013          	nop
   28758:	02001537          	lui	a0,0x2001
   2875c:	e19ff0ef          	jal	ra,28574 <bss_begin+0x6574>
   28760:	00050793          	mv	a5,a0
   28764:	0007879b          	sext.w	a5,a5
   28768:	00078713          	mv	a4,a5
   2876c:	100007b7          	lui	a5,0x10000
   28770:	00f777b3          	and	a5,a4,a5
   28774:	0007879b          	sext.w	a5,a5
   28778:	fe0780e3          	beqz	a5,28758 <bss_begin+0x6758>
   2877c:	01400513          	li	a0,20
   28780:	e55ff0ef          	jal	ra,285d4 <bss_begin+0x65d4>
   28784:	02001537          	lui	a0,0x2001
   28788:	dedff0ef          	jal	ra,28574 <bss_begin+0x6574>
   2878c:	00050793          	mv	a5,a0
   28790:	fef42623          	sw	a5,-20(s0)
   28794:	fec42703          	lw	a4,-20(s0)
   28798:	080007b7          	lui	a5,0x8000
   2879c:	00f767b3          	or	a5,a4,a5
   287a0:	fef42623          	sw	a5,-20(s0)
   287a4:	fec42783          	lw	a5,-20(s0)
   287a8:	00078593          	mv	a1,a5
   287ac:	02001537          	lui	a0,0x2001
   287b0:	df1ff0ef          	jal	ra,285a0 <bss_begin+0x65a0>
   287b4:	02001537          	lui	a0,0x2001
   287b8:	dbdff0ef          	jal	ra,28574 <bss_begin+0x6574>
   287bc:	00050793          	mv	a5,a0
   287c0:	fef42623          	sw	a5,-20(s0)
   287c4:	fec42703          	lw	a4,-20(s0)
   287c8:	e00007b7          	lui	a5,0xe0000
   287cc:	fff78793          	addi	a5,a5,-1 # ffffffffdfffffff <_payload_end+0xffffffffdffd658f>
   287d0:	00f777b3          	and	a5,a4,a5
   287d4:	fef42623          	sw	a5,-20(s0)
   287d8:	fec42783          	lw	a5,-20(s0)
   287dc:	00078593          	mv	a1,a5
   287e0:	02001537          	lui	a0,0x2001
   287e4:	dbdff0ef          	jal	ra,285a0 <bss_begin+0x65a0>
   287e8:	00100513          	li	a0,1
   287ec:	de9ff0ef          	jal	ra,285d4 <bss_begin+0x65d4>
   287f0:	020027b7          	lui	a5,0x2002
   287f4:	d0078513          	addi	a0,a5,-768 # 2001d00 <_payload_end+0x1fd8290>
   287f8:	d7dff0ef          	jal	ra,28574 <bss_begin+0x6574>
   287fc:	00050793          	mv	a5,a0
   28800:	fef42623          	sw	a5,-20(s0)
   28804:	fec42703          	lw	a4,-20(s0)
   28808:	f90007b7          	lui	a5,0xf9000
   2880c:	cf078793          	addi	a5,a5,-784 # fffffffff8fffcf0 <_payload_end+0xfffffffff8fd6280>
   28810:	00f777b3          	and	a5,a4,a5
   28814:	fef42623          	sw	a5,-20(s0)
   28818:	fec42703          	lw	a4,-20(s0)
   2881c:	050007b7          	lui	a5,0x5000
   28820:	10078793          	addi	a5,a5,256 # 5000100 <_payload_end+0x4fd6690>
   28824:	00f767b3          	or	a5,a4,a5
   28828:	fef42623          	sw	a5,-20(s0)
   2882c:	fec42783          	lw	a5,-20(s0)
   28830:	00078593          	mv	a1,a5
   28834:	020027b7          	lui	a5,0x2002
   28838:	d0078513          	addi	a0,a5,-768 # 2001d00 <_payload_end+0x1fd8290>
   2883c:	d65ff0ef          	jal	ra,285a0 <bss_begin+0x65a0>
   28840:	00100513          	li	a0,1
   28844:	d91ff0ef          	jal	ra,285d4 <bss_begin+0x65d4>
   28848:	00000013          	nop
   2884c:	01813083          	ld	ra,24(sp)
   28850:	01013403          	ld	s0,16(sp)
   28854:	02010113          	addi	sp,sp,32
   28858:	00008067          	ret
   2885c:	fe010113          	addi	sp,sp,-32
   28860:	00113c23          	sd	ra,24(sp)
   28864:	00813823          	sd	s0,16(sp)
   28868:	02010413          	addi	s0,sp,32
   2886c:	020017b7          	lui	a5,0x2001
   28870:	02078513          	addi	a0,a5,32 # 2001020 <_payload_end+0x1fd75b0>
   28874:	d01ff0ef          	jal	ra,28574 <bss_begin+0x6574>
   28878:	00050793          	mv	a5,a0
   2887c:	0007879b          	sext.w	a5,a5
   28880:	0007879b          	sext.w	a5,a5
   28884:	1207cc63          	bltz	a5,289bc <bss_begin+0x69bc>
   28888:	020017b7          	lui	a5,0x2001
   2888c:	51078513          	addi	a0,a5,1296 # 2001510 <_payload_end+0x1fd7aa0>
   28890:	ce5ff0ef          	jal	ra,28574 <bss_begin+0x6574>
   28894:	00050793          	mv	a5,a0
   28898:	fef42623          	sw	a5,-20(s0)
   2889c:	fec42703          	lw	a4,-20(s0)
   288a0:	fd0007b7          	lui	a5,0xfd000
   288a4:	fff78793          	addi	a5,a5,-1 # fffffffffcffffff <_payload_end+0xfffffffffcfd658f>
   288a8:	00f777b3          	and	a5,a4,a5
   288ac:	fef42623          	sw	a5,-20(s0)
   288b0:	fec46703          	lwu	a4,-20(s0)
   288b4:	020017b7          	lui	a5,0x2001
   288b8:	51078593          	addi	a1,a5,1296 # 2001510 <_payload_end+0x1fd7aa0>
   288bc:	00070513          	mv	a0,a4
   288c0:	ce1ff0ef          	jal	ra,285a0 <bss_begin+0x65a0>
   288c4:	000067b7          	lui	a5,0x6
   288c8:	30078593          	addi	a1,a5,768 # 6300 <__bin_size-0x3770>
   288cc:	020017b7          	lui	a5,0x2001
   288d0:	02078513          	addi	a0,a5,32 # 2001020 <_payload_end+0x1fd75b0>
   288d4:	ccdff0ef          	jal	ra,285a0 <bss_begin+0x65a0>
   288d8:	020017b7          	lui	a5,0x2001
   288dc:	02078513          	addi	a0,a5,32 # 2001020 <_payload_end+0x1fd75b0>
   288e0:	c95ff0ef          	jal	ra,28574 <bss_begin+0x6574>
   288e4:	00050793          	mv	a5,a0
   288e8:	fef42623          	sw	a5,-20(s0)
   288ec:	fec42703          	lw	a4,-20(s0)
   288f0:	200007b7          	lui	a5,0x20000
   288f4:	00f767b3          	or	a5,a4,a5
   288f8:	fef42623          	sw	a5,-20(s0)
   288fc:	fec42783          	lw	a5,-20(s0)
   28900:	00078593          	mv	a1,a5
   28904:	020017b7          	lui	a5,0x2001
   28908:	02078513          	addi	a0,a5,32 # 2001020 <_payload_end+0x1fd75b0>
   2890c:	c95ff0ef          	jal	ra,285a0 <bss_begin+0x65a0>
   28910:	020017b7          	lui	a5,0x2001
   28914:	02078513          	addi	a0,a5,32 # 2001020 <_payload_end+0x1fd75b0>
   28918:	c5dff0ef          	jal	ra,28574 <bss_begin+0x6574>
   2891c:	00050793          	mv	a5,a0
   28920:	fef42623          	sw	a5,-20(s0)
   28924:	fec42703          	lw	a4,-20(s0)
   28928:	800007b7          	lui	a5,0x80000
   2892c:	00f767b3          	or	a5,a4,a5
   28930:	fef42623          	sw	a5,-20(s0)
   28934:	fec42783          	lw	a5,-20(s0)
   28938:	00078593          	mv	a1,a5
   2893c:	020017b7          	lui	a5,0x2001
   28940:	02078513          	addi	a0,a5,32 # 2001020 <_payload_end+0x1fd75b0>
   28944:	c5dff0ef          	jal	ra,285a0 <bss_begin+0x65a0>
   28948:	00000013          	nop
   2894c:	020017b7          	lui	a5,0x2001
   28950:	02078513          	addi	a0,a5,32 # 2001020 <_payload_end+0x1fd75b0>
   28954:	c21ff0ef          	jal	ra,28574 <bss_begin+0x6574>
   28958:	00050793          	mv	a5,a0
   2895c:	0007879b          	sext.w	a5,a5
   28960:	00078713          	mv	a4,a5
   28964:	100007b7          	lui	a5,0x10000
   28968:	00f777b3          	and	a5,a4,a5
   2896c:	0007879b          	sext.w	a5,a5
   28970:	fc078ee3          	beqz	a5,2894c <bss_begin+0x694c>
   28974:	01400513          	li	a0,20
   28978:	c5dff0ef          	jal	ra,285d4 <bss_begin+0x65d4>
   2897c:	020017b7          	lui	a5,0x2001
   28980:	02078513          	addi	a0,a5,32 # 2001020 <_payload_end+0x1fd75b0>
   28984:	bf1ff0ef          	jal	ra,28574 <bss_begin+0x6574>
   28988:	00050793          	mv	a5,a0
   2898c:	fef42623          	sw	a5,-20(s0)
   28990:	fec42703          	lw	a4,-20(s0)
   28994:	e00007b7          	lui	a5,0xe0000
   28998:	fff78793          	addi	a5,a5,-1 # ffffffffdfffffff <_payload_end+0xffffffffdffd658f>
   2899c:	00f777b3          	and	a5,a4,a5
   289a0:	fef42623          	sw	a5,-20(s0)
   289a4:	fec42783          	lw	a5,-20(s0)
   289a8:	00078593          	mv	a1,a5
   289ac:	020017b7          	lui	a5,0x2001
   289b0:	02078513          	addi	a0,a5,32 # 2001020 <_payload_end+0x1fd75b0>
   289b4:	bedff0ef          	jal	ra,285a0 <bss_begin+0x65a0>
   289b8:	0080006f          	j	289c0 <bss_begin+0x69c0>
   289bc:	00000013          	nop
   289c0:	01813083          	ld	ra,24(sp)
   289c4:	01013403          	ld	s0,16(sp)
   289c8:	02010113          	addi	sp,sp,32
   289cc:	00008067          	ret
   289d0:	ff010113          	addi	sp,sp,-16
   289d4:	00113423          	sd	ra,8(sp)
   289d8:	00813023          	sd	s0,0(sp)
   289dc:	01010413          	addi	s0,sp,16
   289e0:	00200593          	li	a1,2
   289e4:	020017b7          	lui	a5,0x2001
   289e8:	51078513          	addi	a0,a5,1296 # 2001510 <_payload_end+0x1fd7aa0>
   289ec:	bb5ff0ef          	jal	ra,285a0 <bss_begin+0x65a0>
   289f0:	020017b7          	lui	a5,0x2001
   289f4:	51078513          	addi	a0,a5,1296 # 2001510 <_payload_end+0x1fd7aa0>
   289f8:	b7dff0ef          	jal	ra,28574 <bss_begin+0x6574>
   289fc:	00050793          	mv	a5,a0
   28a00:	0007879b          	sext.w	a5,a5
   28a04:	00078713          	mv	a4,a5
   28a08:	030007b7          	lui	a5,0x3000
   28a0c:	00f767b3          	or	a5,a4,a5
   28a10:	0007879b          	sext.w	a5,a5
   28a14:	00078593          	mv	a1,a5
   28a18:	020017b7          	lui	a5,0x2001
   28a1c:	51078513          	addi	a0,a5,1296 # 2001510 <_payload_end+0x1fd7aa0>
   28a20:	b81ff0ef          	jal	ra,285a0 <bss_begin+0x65a0>
   28a24:	00100513          	li	a0,1
   28a28:	badff0ef          	jal	ra,285d4 <bss_begin+0x65d4>
   28a2c:	00000013          	nop
   28a30:	00813083          	ld	ra,8(sp)
   28a34:	00013403          	ld	s0,0(sp)
   28a38:	01010113          	addi	sp,sp,16
   28a3c:	00008067          	ret
   28a40:	ff010113          	addi	sp,sp,-16
   28a44:	00113423          	sd	ra,8(sp)
   28a48:	00813023          	sd	s0,0(sp)
   28a4c:	01010413          	addi	s0,sp,16
   28a50:	10200593          	li	a1,258
   28a54:	020017b7          	lui	a5,0x2001
   28a58:	52078513          	addi	a0,a5,1312 # 2001520 <_payload_end+0x1fd7ab0>
   28a5c:	b45ff0ef          	jal	ra,285a0 <bss_begin+0x65a0>
   28a60:	020017b7          	lui	a5,0x2001
   28a64:	52078513          	addi	a0,a5,1312 # 2001520 <_payload_end+0x1fd7ab0>
   28a68:	b0dff0ef          	jal	ra,28574 <bss_begin+0x6574>
   28a6c:	00050793          	mv	a5,a0
   28a70:	0007879b          	sext.w	a5,a5
   28a74:	00078713          	mv	a4,a5
   28a78:	030007b7          	lui	a5,0x3000
   28a7c:	00f767b3          	or	a5,a4,a5
   28a80:	0007879b          	sext.w	a5,a5
   28a84:	00078593          	mv	a1,a5
   28a88:	020017b7          	lui	a5,0x2001
   28a8c:	52078513          	addi	a0,a5,1312 # 2001520 <_payload_end+0x1fd7ab0>
   28a90:	b11ff0ef          	jal	ra,285a0 <bss_begin+0x65a0>
   28a94:	00100513          	li	a0,1
   28a98:	b3dff0ef          	jal	ra,285d4 <bss_begin+0x65d4>
   28a9c:	00000013          	nop
   28aa0:	00813083          	ld	ra,8(sp)
   28aa4:	00013403          	ld	s0,0(sp)
   28aa8:	01010113          	addi	sp,sp,16
   28aac:	00008067          	ret
   28ab0:	ff010113          	addi	sp,sp,-16
   28ab4:	00113423          	sd	ra,8(sp)
   28ab8:	00813023          	sd	s0,0(sp)
   28abc:	01010413          	addi	s0,sp,16
   28ac0:	020017b7          	lui	a5,0x2001
   28ac4:	70c78513          	addi	a0,a5,1804 # 200170c <_payload_end+0x1fd7c9c>
   28ac8:	aadff0ef          	jal	ra,28574 <bss_begin+0x6574>
   28acc:	00050793          	mv	a5,a0
   28ad0:	0007879b          	sext.w	a5,a5
   28ad4:	00078713          	mv	a4,a5
   28ad8:	000107b7          	lui	a5,0x10
   28adc:	00f767b3          	or	a5,a4,a5
   28ae0:	0007879b          	sext.w	a5,a5
   28ae4:	00078593          	mv	a1,a5
   28ae8:	020017b7          	lui	a5,0x2001
   28aec:	70c78513          	addi	a0,a5,1804 # 200170c <_payload_end+0x1fd7c9c>
   28af0:	ab1ff0ef          	jal	ra,285a0 <bss_begin+0x65a0>
   28af4:	01400513          	li	a0,20
   28af8:	addff0ef          	jal	ra,285d4 <bss_begin+0x65d4>
   28afc:	020017b7          	lui	a5,0x2001
   28b00:	70c78513          	addi	a0,a5,1804 # 200170c <_payload_end+0x1fd7c9c>
   28b04:	a71ff0ef          	jal	ra,28574 <bss_begin+0x6574>
   28b08:	00050793          	mv	a5,a0
   28b0c:	0007879b          	sext.w	a5,a5
   28b10:	0017e793          	ori	a5,a5,1
   28b14:	0007879b          	sext.w	a5,a5
   28b18:	00078593          	mv	a1,a5
   28b1c:	020017b7          	lui	a5,0x2001
   28b20:	70c78513          	addi	a0,a5,1804 # 200170c <_payload_end+0x1fd7c9c>
   28b24:	a7dff0ef          	jal	ra,285a0 <bss_begin+0x65a0>
   28b28:	00000013          	nop
   28b2c:	00813083          	ld	ra,8(sp)
   28b30:	00013403          	ld	s0,0(sp)
   28b34:	01010113          	addi	sp,sp,16
   28b38:	00008067          	ret
   28b3c:	fe010113          	addi	sp,sp,-32
   28b40:	00113c23          	sd	ra,24(sp)
   28b44:	00813823          	sd	s0,16(sp)
   28b48:	02010413          	addi	s0,sp,32
   28b4c:	020017b7          	lui	a5,0x2001
   28b50:	54078513          	addi	a0,a5,1344 # 2001540 <_payload_end+0x1fd7ad0>
   28b54:	a21ff0ef          	jal	ra,28574 <bss_begin+0x6574>
   28b58:	00050793          	mv	a5,a0
   28b5c:	fef42623          	sw	a5,-20(s0)
   28b60:	fec42703          	lw	a4,-20(s0)
   28b64:	400007b7          	lui	a5,0x40000
   28b68:	00f767b3          	or	a5,a4,a5
   28b6c:	fef42623          	sw	a5,-20(s0)
   28b70:	fec42783          	lw	a5,-20(s0)
   28b74:	00078593          	mv	a1,a5
   28b78:	020017b7          	lui	a5,0x2001
   28b7c:	54078513          	addi	a0,a5,1344 # 2001540 <_payload_end+0x1fd7ad0>
   28b80:	a21ff0ef          	jal	ra,285a0 <bss_begin+0x65a0>
   28b84:	00100513          	li	a0,1
   28b88:	a4dff0ef          	jal	ra,285d4 <bss_begin+0x65d4>
   28b8c:	00000013          	nop
   28b90:	01813083          	ld	ra,24(sp)
   28b94:	01013403          	ld	s0,16(sp)
   28b98:	02010113          	addi	sp,sp,32
   28b9c:	00008067          	ret
   28ba0:	fd010113          	addi	sp,sp,-48
   28ba4:	02113423          	sd	ra,40(sp)
   28ba8:	02813023          	sd	s0,32(sp)
   28bac:	03010413          	addi	s0,sp,48
   28bb0:	fca43c23          	sd	a0,-40(s0)
   28bb4:	fd843503          	ld	a0,-40(s0)
   28bb8:	9bdff0ef          	jal	ra,28574 <bss_begin+0x6574>
   28bbc:	00050793          	mv	a5,a0
   28bc0:	0007879b          	sext.w	a5,a5
   28bc4:	0007879b          	sext.w	a5,a5
   28bc8:	0c07c263          	bltz	a5,28c8c <bss_begin+0x6c8c>
   28bcc:	fd843503          	ld	a0,-40(s0)
   28bd0:	9a5ff0ef          	jal	ra,28574 <bss_begin+0x6574>
   28bd4:	00050793          	mv	a5,a0
   28bd8:	fef42623          	sw	a5,-20(s0)
   28bdc:	fec42703          	lw	a4,-20(s0)
   28be0:	c00007b7          	lui	a5,0xc0000
   28be4:	00f767b3          	or	a5,a4,a5
   28be8:	0007879b          	sext.w	a5,a5
   28bec:	00078593          	mv	a1,a5
   28bf0:	fd843503          	ld	a0,-40(s0)
   28bf4:	9adff0ef          	jal	ra,285a0 <bss_begin+0x65a0>
   28bf8:	fd843503          	ld	a0,-40(s0)
   28bfc:	979ff0ef          	jal	ra,28574 <bss_begin+0x6574>
   28c00:	00050793          	mv	a5,a0
   28c04:	fef42623          	sw	a5,-20(s0)
   28c08:	fec42703          	lw	a4,-20(s0)
   28c0c:	200007b7          	lui	a5,0x20000
   28c10:	00f767b3          	or	a5,a4,a5
   28c14:	fef42623          	sw	a5,-20(s0)
   28c18:	fec42783          	lw	a5,-20(s0)
   28c1c:	00078593          	mv	a1,a5
   28c20:	fd843503          	ld	a0,-40(s0)
   28c24:	97dff0ef          	jal	ra,285a0 <bss_begin+0x65a0>
   28c28:	00000013          	nop
   28c2c:	fd843503          	ld	a0,-40(s0)
   28c30:	945ff0ef          	jal	ra,28574 <bss_begin+0x6574>
   28c34:	00050793          	mv	a5,a0
   28c38:	0007879b          	sext.w	a5,a5
   28c3c:	00078713          	mv	a4,a5
   28c40:	100007b7          	lui	a5,0x10000
   28c44:	00f777b3          	and	a5,a4,a5
   28c48:	0007879b          	sext.w	a5,a5
   28c4c:	fe0780e3          	beqz	a5,28c2c <bss_begin+0x6c2c>
   28c50:	01400513          	li	a0,20
   28c54:	981ff0ef          	jal	ra,285d4 <bss_begin+0x65d4>
   28c58:	fd843503          	ld	a0,-40(s0)
   28c5c:	919ff0ef          	jal	ra,28574 <bss_begin+0x6574>
   28c60:	00050793          	mv	a5,a0
   28c64:	fef42623          	sw	a5,-20(s0)
   28c68:	fec42703          	lw	a4,-20(s0)
   28c6c:	e00007b7          	lui	a5,0xe0000
   28c70:	fff78793          	addi	a5,a5,-1 # ffffffffdfffffff <_payload_end+0xffffffffdffd658f>
   28c74:	00f777b3          	and	a5,a4,a5
   28c78:	fef42623          	sw	a5,-20(s0)
   28c7c:	fec42783          	lw	a5,-20(s0)
   28c80:	00078593          	mv	a1,a5
   28c84:	fd843503          	ld	a0,-40(s0)
   28c88:	919ff0ef          	jal	ra,285a0 <bss_begin+0x65a0>
   28c8c:	00000013          	nop
   28c90:	02813083          	ld	ra,40(sp)
   28c94:	02013403          	ld	s0,32(sp)
   28c98:	03010113          	addi	sp,sp,48
   28c9c:	00008067          	ret
   28ca0:	ff010113          	addi	sp,sp,-16
   28ca4:	00113423          	sd	ra,8(sp)
   28ca8:	00813023          	sd	s0,0(sp)
   28cac:	01010413          	addi	s0,sp,16
   28cb0:	969ff0ef          	jal	ra,28618 <bss_begin+0x6618>
   28cb4:	ba9ff0ef          	jal	ra,2885c <bss_begin+0x685c>
   28cb8:	d19ff0ef          	jal	ra,289d0 <bss_begin+0x69d0>
   28cbc:	d85ff0ef          	jal	ra,28a40 <bss_begin+0x6a40>
   28cc0:	df1ff0ef          	jal	ra,28ab0 <bss_begin+0x6ab0>
   28cc4:	e79ff0ef          	jal	ra,28b3c <bss_begin+0x6b3c>
   28cc8:	020017b7          	lui	a5,0x2001
   28ccc:	02078513          	addi	a0,a5,32 # 2001020 <_payload_end+0x1fd75b0>
   28cd0:	ed1ff0ef          	jal	ra,28ba0 <bss_begin+0x6ba0>
   28cd4:	020017b7          	lui	a5,0x2001
   28cd8:	04078513          	addi	a0,a5,64 # 2001040 <_payload_end+0x1fd75d0>
   28cdc:	ec5ff0ef          	jal	ra,28ba0 <bss_begin+0x6ba0>
   28ce0:	020017b7          	lui	a5,0x2001
   28ce4:	04878513          	addi	a0,a5,72 # 2001048 <_payload_end+0x1fd75d8>
   28ce8:	eb9ff0ef          	jal	ra,28ba0 <bss_begin+0x6ba0>
   28cec:	020017b7          	lui	a5,0x2001
   28cf0:	05878513          	addi	a0,a5,88 # 2001058 <_payload_end+0x1fd75e8>
   28cf4:	eadff0ef          	jal	ra,28ba0 <bss_begin+0x6ba0>
   28cf8:	020017b7          	lui	a5,0x2001
   28cfc:	07878513          	addi	a0,a5,120 # 2001078 <_payload_end+0x1fd7608>
   28d00:	ea1ff0ef          	jal	ra,28ba0 <bss_begin+0x6ba0>
   28d04:	020017b7          	lui	a5,0x2001
   28d08:	08078513          	addi	a0,a5,128 # 2001080 <_payload_end+0x1fd7610>
   28d0c:	e95ff0ef          	jal	ra,28ba0 <bss_begin+0x6ba0>
   28d10:	00000013          	nop
   28d14:	00813083          	ld	ra,8(sp)
   28d18:	00013403          	ld	s0,0(sp)
   28d1c:	01010113          	addi	sp,sp,16
   28d20:	00008067          	ret
   28d24:	fe010113          	addi	sp,sp,-32
   28d28:	00813c23          	sd	s0,24(sp)
   28d2c:	02010413          	addi	s0,sp,32
   28d30:	fea43423          	sd	a0,-24(s0)
   28d34:	fe843783          	ld	a5,-24(s0)
   28d38:	0007c783          	lbu	a5,0(a5)
   28d3c:	0ff7f793          	andi	a5,a5,255
   28d40:	00078513          	mv	a0,a5
   28d44:	01813403          	ld	s0,24(sp)
   28d48:	02010113          	addi	sp,sp,32
   28d4c:	00008067          	ret
   28d50:	fe010113          	addi	sp,sp,-32
   28d54:	00813c23          	sd	s0,24(sp)
   28d58:	02010413          	addi	s0,sp,32
   28d5c:	fea43423          	sd	a0,-24(s0)
   28d60:	fe843783          	ld	a5,-24(s0)
   28d64:	0007a783          	lw	a5,0(a5)
   28d68:	0007879b          	sext.w	a5,a5
   28d6c:	00078513          	mv	a0,a5
   28d70:	01813403          	ld	s0,24(sp)
   28d74:	02010113          	addi	sp,sp,32
   28d78:	00008067          	ret
   28d7c:	fe010113          	addi	sp,sp,-32
   28d80:	00813c23          	sd	s0,24(sp)
   28d84:	02010413          	addi	s0,sp,32
   28d88:	fea43423          	sd	a0,-24(s0)
   28d8c:	00058793          	mv	a5,a1
   28d90:	fef42223          	sw	a5,-28(s0)
   28d94:	fe843783          	ld	a5,-24(s0)
   28d98:	fe442703          	lw	a4,-28(s0)
   28d9c:	00e7a023          	sw	a4,0(a5)
   28da0:	00000013          	nop
   28da4:	01813403          	ld	s0,24(sp)
   28da8:	02010113          	addi	sp,sp,32
   28dac:	00008067          	ret
   28db0:	fe010113          	addi	sp,sp,-32
   28db4:	00113c23          	sd	ra,24(sp)
   28db8:	00813823          	sd	s0,16(sp)
   28dbc:	02010413          	addi	s0,sp,32
   28dc0:	020007b7          	lui	a5,0x2000
   28dc4:	0f078793          	addi	a5,a5,240 # 20000f0 <_payload_end+0x1fd6680>
   28dc8:	fef43423          	sd	a5,-24(s0)
   28dcc:	fe843503          	ld	a0,-24(s0)
   28dd0:	f81ff0ef          	jal	ra,28d50 <bss_begin+0x6d50>
   28dd4:	00050793          	mv	a5,a0
   28dd8:	fef42223          	sw	a5,-28(s0)
   28ddc:	fe442703          	lw	a4,-28(s0)
   28de0:	fffff7b7          	lui	a5,0xfffff
   28de4:	0ff78793          	addi	a5,a5,255 # fffffffffffff0ff <_payload_end+0xfffffffffffd568f>
   28de8:	00f777b3          	and	a5,a4,a5
   28dec:	fef42223          	sw	a5,-28(s0)
   28df0:	fe442783          	lw	a5,-28(s0)
   28df4:	3007e793          	ori	a5,a5,768
   28df8:	fef42223          	sw	a5,-28(s0)
   28dfc:	fe442783          	lw	a5,-28(s0)
   28e00:	00078593          	mv	a1,a5
   28e04:	fe843503          	ld	a0,-24(s0)
   28e08:	f75ff0ef          	jal	ra,28d7c <bss_begin+0x6d7c>
   28e0c:	fe843503          	ld	a0,-24(s0)
   28e10:	f41ff0ef          	jal	ra,28d50 <bss_begin+0x6d50>
   28e14:	00050793          	mv	a5,a0
   28e18:	fef42223          	sw	a5,-28(s0)
   28e1c:	fe442703          	lw	a4,-28(s0)
   28e20:	fff107b7          	lui	a5,0xfff10
   28e24:	fff78793          	addi	a5,a5,-1 # fffffffffff0ffff <_payload_end+0xffffffffffee658f>
   28e28:	00f777b3          	and	a5,a4,a5
   28e2c:	fef42223          	sw	a5,-28(s0)
   28e30:	fe442703          	lw	a4,-28(s0)
   28e34:	000307b7          	lui	a5,0x30
   28e38:	00f767b3          	or	a5,a4,a5
   28e3c:	fef42223          	sw	a5,-28(s0)
   28e40:	fe442783          	lw	a5,-28(s0)
   28e44:	00078593          	mv	a1,a5
   28e48:	fe843503          	ld	a0,-24(s0)
   28e4c:	f31ff0ef          	jal	ra,28d7c <bss_begin+0x6d7c>
   28e50:	020027b7          	lui	a5,0x2002
   28e54:	90c78793          	addi	a5,a5,-1780 # 200190c <_payload_end+0x1fd7e9c>
   28e58:	fef43423          	sd	a5,-24(s0)
   28e5c:	fe843503          	ld	a0,-24(s0)
   28e60:	ef1ff0ef          	jal	ra,28d50 <bss_begin+0x6d50>
   28e64:	00050793          	mv	a5,a0
   28e68:	fef42223          	sw	a5,-28(s0)
   28e6c:	fe442783          	lw	a5,-28(s0)
   28e70:	0017e793          	ori	a5,a5,1
   28e74:	fef42223          	sw	a5,-28(s0)
   28e78:	fe442783          	lw	a5,-28(s0)
   28e7c:	00078593          	mv	a1,a5
   28e80:	fe843503          	ld	a0,-24(s0)
   28e84:	ef9ff0ef          	jal	ra,28d7c <bss_begin+0x6d7c>
   28e88:	020027b7          	lui	a5,0x2002
   28e8c:	90c78793          	addi	a5,a5,-1780 # 200190c <_payload_end+0x1fd7e9c>
   28e90:	fef43423          	sd	a5,-24(s0)
   28e94:	fe843503          	ld	a0,-24(s0)
   28e98:	eb9ff0ef          	jal	ra,28d50 <bss_begin+0x6d50>
   28e9c:	00050793          	mv	a5,a0
   28ea0:	fef42223          	sw	a5,-28(s0)
   28ea4:	fe442703          	lw	a4,-28(s0)
   28ea8:	000107b7          	lui	a5,0x10
   28eac:	00f767b3          	or	a5,a4,a5
   28eb0:	fef42223          	sw	a5,-28(s0)
   28eb4:	fe442783          	lw	a5,-28(s0)
   28eb8:	00078593          	mv	a1,a5
   28ebc:	fe843503          	ld	a0,-24(s0)
   28ec0:	ebdff0ef          	jal	ra,28d7c <bss_begin+0x6d7c>
   28ec4:	025007b7          	lui	a5,0x2500
   28ec8:	fef43423          	sd	a5,-24(s0)
   28ecc:	fe843783          	ld	a5,-24(s0)
   28ed0:	00478793          	addi	a5,a5,4 # 2500004 <_payload_end+0x24d6594>
   28ed4:	00000593          	li	a1,0
   28ed8:	00078513          	mv	a0,a5
   28edc:	ea1ff0ef          	jal	ra,28d7c <bss_begin+0x6d7c>
   28ee0:	fe843783          	ld	a5,-24(s0)
   28ee4:	00878793          	addi	a5,a5,8
   28ee8:	0f700593          	li	a1,247
   28eec:	00078513          	mv	a0,a5
   28ef0:	e8dff0ef          	jal	ra,28d7c <bss_begin+0x6d7c>
   28ef4:	fe843783          	ld	a5,-24(s0)
   28ef8:	01078793          	addi	a5,a5,16
   28efc:	00000593          	li	a1,0
   28f00:	00078513          	mv	a0,a5
   28f04:	e79ff0ef          	jal	ra,28d7c <bss_begin+0x6d7c>
   28f08:	fe843783          	ld	a5,-24(s0)
   28f0c:	00c78793          	addi	a5,a5,12
   28f10:	00078513          	mv	a0,a5
   28f14:	e3dff0ef          	jal	ra,28d50 <bss_begin+0x6d50>
   28f18:	00050793          	mv	a5,a0
   28f1c:	fef42223          	sw	a5,-28(s0)
   28f20:	fe442783          	lw	a5,-28(s0)
   28f24:	0807e793          	ori	a5,a5,128
   28f28:	fef42223          	sw	a5,-28(s0)
   28f2c:	fe843783          	ld	a5,-24(s0)
   28f30:	00c78793          	addi	a5,a5,12
   28f34:	fe442703          	lw	a4,-28(s0)
   28f38:	00070593          	mv	a1,a4
   28f3c:	00078513          	mv	a0,a5
   28f40:	e3dff0ef          	jal	ra,28d7c <bss_begin+0x6d7c>
   28f44:	00d00593          	li	a1,13
   28f48:	fe843503          	ld	a0,-24(s0)
   28f4c:	e31ff0ef          	jal	ra,28d7c <bss_begin+0x6d7c>
   28f50:	fe843783          	ld	a5,-24(s0)
   28f54:	00478793          	addi	a5,a5,4
   28f58:	00000593          	li	a1,0
   28f5c:	00078513          	mv	a0,a5
   28f60:	e1dff0ef          	jal	ra,28d7c <bss_begin+0x6d7c>
   28f64:	fe843783          	ld	a5,-24(s0)
   28f68:	00c78793          	addi	a5,a5,12
   28f6c:	00078513          	mv	a0,a5
   28f70:	de1ff0ef          	jal	ra,28d50 <bss_begin+0x6d50>
   28f74:	00050793          	mv	a5,a0
   28f78:	fef42223          	sw	a5,-28(s0)
   28f7c:	fe442783          	lw	a5,-28(s0)
   28f80:	f7f7f793          	andi	a5,a5,-129
   28f84:	fef42223          	sw	a5,-28(s0)
   28f88:	fe843783          	ld	a5,-24(s0)
   28f8c:	00c78793          	addi	a5,a5,12
   28f90:	fe442703          	lw	a4,-28(s0)
   28f94:	00070593          	mv	a1,a4
   28f98:	00078513          	mv	a0,a5
   28f9c:	de1ff0ef          	jal	ra,28d7c <bss_begin+0x6d7c>
   28fa0:	fe843783          	ld	a5,-24(s0)
   28fa4:	00c78793          	addi	a5,a5,12
   28fa8:	00078513          	mv	a0,a5
   28fac:	da5ff0ef          	jal	ra,28d50 <bss_begin+0x6d50>
   28fb0:	00050793          	mv	a5,a0
   28fb4:	fef42223          	sw	a5,-28(s0)
   28fb8:	fe442783          	lw	a5,-28(s0)
   28fbc:	fe07f793          	andi	a5,a5,-32
   28fc0:	fef42223          	sw	a5,-28(s0)
   28fc4:	fe442783          	lw	a5,-28(s0)
   28fc8:	0037e793          	ori	a5,a5,3
   28fcc:	fef42223          	sw	a5,-28(s0)
   28fd0:	fe843783          	ld	a5,-24(s0)
   28fd4:	00c78793          	addi	a5,a5,12
   28fd8:	fe442703          	lw	a4,-28(s0)
   28fdc:	00070593          	mv	a1,a4
   28fe0:	00078513          	mv	a0,a5
   28fe4:	d99ff0ef          	jal	ra,28d7c <bss_begin+0x6d7c>
   28fe8:	00000013          	nop
   28fec:	01813083          	ld	ra,24(sp)
   28ff0:	01013403          	ld	s0,16(sp)
   28ff4:	02010113          	addi	sp,sp,32
   28ff8:	00008067          	ret
   28ffc:	fd010113          	addi	sp,sp,-48
   29000:	02113423          	sd	ra,40(sp)
   29004:	02813023          	sd	s0,32(sp)
   29008:	03010413          	addi	s0,sp,48
   2900c:	00050793          	mv	a5,a0
   29010:	fcf40fa3          	sb	a5,-33(s0)
   29014:	025007b7          	lui	a5,0x2500
   29018:	fef43423          	sd	a5,-24(s0)
   2901c:	00000013          	nop
   29020:	fe843783          	ld	a5,-24(s0)
   29024:	07c78793          	addi	a5,a5,124 # 250007c <_payload_end+0x24d660c>
   29028:	00078513          	mv	a0,a5
   2902c:	d25ff0ef          	jal	ra,28d50 <bss_begin+0x6d50>
   29030:	00050793          	mv	a5,a0
   29034:	0007879b          	sext.w	a5,a5
   29038:	0027f793          	andi	a5,a5,2
   2903c:	0007879b          	sext.w	a5,a5
   29040:	fe0780e3          	beqz	a5,29020 <bss_begin+0x7020>
   29044:	fdf44783          	lbu	a5,-33(s0)
   29048:	0007879b          	sext.w	a5,a5
   2904c:	00078593          	mv	a1,a5
   29050:	fe843503          	ld	a0,-24(s0)
   29054:	d29ff0ef          	jal	ra,28d7c <bss_begin+0x6d7c>
   29058:	00000013          	nop
   2905c:	02813083          	ld	ra,40(sp)
   29060:	02013403          	ld	s0,32(sp)
   29064:	03010113          	addi	sp,sp,48
   29068:	00008067          	ret
   2906c:	fe010113          	addi	sp,sp,-32
   29070:	00113c23          	sd	ra,24(sp)
   29074:	00813823          	sd	s0,16(sp)
   29078:	02010413          	addi	s0,sp,32
   2907c:	00050793          	mv	a5,a0
   29080:	fef42623          	sw	a5,-20(s0)
   29084:	fec42783          	lw	a5,-20(s0)
   29088:	0ff7f793          	andi	a5,a5,255
   2908c:	00078513          	mv	a0,a5
   29090:	f6dff0ef          	jal	ra,28ffc <bss_begin+0x6ffc>
   29094:	fec42783          	lw	a5,-20(s0)
   29098:	00078513          	mv	a0,a5
   2909c:	01813083          	ld	ra,24(sp)
   290a0:	01013403          	ld	s0,16(sp)
   290a4:	02010113          	addi	sp,sp,32
   290a8:	00008067          	ret
   290ac:	fe010113          	addi	sp,sp,-32
   290b0:	00113c23          	sd	ra,24(sp)
   290b4:	00813823          	sd	s0,16(sp)
   290b8:	02010413          	addi	s0,sp,32
   290bc:	025007b7          	lui	a5,0x2500
   290c0:	fef43423          	sd	a5,-24(s0)
   290c4:	00000013          	nop
   290c8:	fe843783          	ld	a5,-24(s0)
   290cc:	07c78793          	addi	a5,a5,124 # 250007c <_payload_end+0x24d660c>
   290d0:	00078513          	mv	a0,a5
   290d4:	c7dff0ef          	jal	ra,28d50 <bss_begin+0x6d50>
   290d8:	00050793          	mv	a5,a0
   290dc:	0007879b          	sext.w	a5,a5
   290e0:	0087f793          	andi	a5,a5,8
   290e4:	0007879b          	sext.w	a5,a5
   290e8:	fe0780e3          	beqz	a5,290c8 <bss_begin+0x70c8>
   290ec:	fe843503          	ld	a0,-24(s0)
   290f0:	c35ff0ef          	jal	ra,28d24 <bss_begin+0x6d24>
   290f4:	00050793          	mv	a5,a0
   290f8:	00078513          	mv	a0,a5
   290fc:	01813083          	ld	ra,24(sp)
   29100:	01013403          	ld	s0,16(sp)
   29104:	02010113          	addi	sp,sp,32
   29108:	00008067          	ret
   2910c:	fd010113          	addi	sp,sp,-48
   29110:	02113423          	sd	ra,40(sp)
   29114:	02813023          	sd	s0,32(sp)
   29118:	03010413          	addi	s0,sp,48
   2911c:	fca43c23          	sd	a0,-40(s0)
   29120:	fe042623          	sw	zero,-20(s0)
   29124:	04c0006f          	j	29170 <bss_begin+0x7170>
   29128:	fec42783          	lw	a5,-20(s0)
   2912c:	fd843703          	ld	a4,-40(s0)
   29130:	00f707b3          	add	a5,a4,a5
   29134:	0007c783          	lbu	a5,0(a5)
   29138:	00078713          	mv	a4,a5
   2913c:	00a00793          	li	a5,10
   29140:	00f71663          	bne	a4,a5,2914c <bss_begin+0x714c>
   29144:	00d00513          	li	a0,13
   29148:	eb5ff0ef          	jal	ra,28ffc <bss_begin+0x6ffc>
   2914c:	fec42783          	lw	a5,-20(s0)
   29150:	fd843703          	ld	a4,-40(s0)
   29154:	00f707b3          	add	a5,a4,a5
   29158:	0007c783          	lbu	a5,0(a5)
   2915c:	00078513          	mv	a0,a5
   29160:	e9dff0ef          	jal	ra,28ffc <bss_begin+0x6ffc>
   29164:	fec42783          	lw	a5,-20(s0)
   29168:	0017879b          	addiw	a5,a5,1
   2916c:	fef42623          	sw	a5,-20(s0)
   29170:	fec42783          	lw	a5,-20(s0)
   29174:	fd843703          	ld	a4,-40(s0)
   29178:	00f707b3          	add	a5,a4,a5
   2917c:	0007c783          	lbu	a5,0(a5)
   29180:	fa0794e3          	bnez	a5,29128 <bss_begin+0x7128>
   29184:	00000013          	nop
   29188:	00000013          	nop
   2918c:	02813083          	ld	ra,40(sp)
   29190:	02013403          	ld	s0,32(sp)
   29194:	03010113          	addi	sp,sp,48
   29198:	00008067          	ret
   2919c:	fc010113          	addi	sp,sp,-64
   291a0:	02813c23          	sd	s0,56(sp)
   291a4:	04010413          	addi	s0,sp,64
   291a8:	fca43423          	sd	a0,-56(s0)
   291ac:	fcb43023          	sd	a1,-64(s0)
   291b0:	fe042223          	sw	zero,-28(s0)
   291b4:	fc843783          	ld	a5,-56(s0)
   291b8:	fef43423          	sd	a5,-24(s0)
   291bc:	0900006f          	j	2924c <bss_begin+0x724c>
   291c0:	fe843783          	ld	a5,-24(s0)
   291c4:	0007c783          	lbu	a5,0(a5)
   291c8:	00078713          	mv	a4,a5
   291cc:	02f00793          	li	a5,47
   291d0:	02e7f063          	bgeu	a5,a4,291f0 <bss_begin+0x71f0>
   291d4:	fe843783          	ld	a5,-24(s0)
   291d8:	0007c783          	lbu	a5,0(a5)
   291dc:	00078713          	mv	a4,a5
   291e0:	03900793          	li	a5,57
   291e4:	00e7e663          	bltu	a5,a4,291f0 <bss_begin+0x71f0>
   291e8:	00100793          	li	a5,1
   291ec:	0080006f          	j	291f4 <bss_begin+0x71f4>
   291f0:	00000793          	li	a5,0
   291f4:	fef42023          	sw	a5,-32(s0)
   291f8:	fe042783          	lw	a5,-32(s0)
   291fc:	0007879b          	sext.w	a5,a5
   29200:	04078e63          	beqz	a5,2925c <bss_begin+0x725c>
   29204:	fe843783          	ld	a5,-24(s0)
   29208:	0007c783          	lbu	a5,0(a5)
   2920c:	0007879b          	sext.w	a5,a5
   29210:	fd07879b          	addiw	a5,a5,-48
   29214:	fcf42e23          	sw	a5,-36(s0)
   29218:	fe442703          	lw	a4,-28(s0)
   2921c:	00070793          	mv	a5,a4
   29220:	0027979b          	slliw	a5,a5,0x2
   29224:	00e787bb          	addw	a5,a5,a4
   29228:	0017979b          	slliw	a5,a5,0x1
   2922c:	fef42223          	sw	a5,-28(s0)
   29230:	fe442703          	lw	a4,-28(s0)
   29234:	fdc42783          	lw	a5,-36(s0)
   29238:	00f707bb          	addw	a5,a4,a5
   2923c:	fef42223          	sw	a5,-28(s0)
   29240:	fe843783          	ld	a5,-24(s0)
   29244:	00178793          	addi	a5,a5,1
   29248:	fef43423          	sd	a5,-24(s0)
   2924c:	fc843783          	ld	a5,-56(s0)
   29250:	0007c783          	lbu	a5,0(a5)
   29254:	f60796e3          	bnez	a5,291c0 <bss_begin+0x71c0>
   29258:	0080006f          	j	29260 <bss_begin+0x7260>
   2925c:	00000013          	nop
   29260:	fc043783          	ld	a5,-64(s0)
   29264:	fe442703          	lw	a4,-28(s0)
   29268:	00e7a023          	sw	a4,0(a5)
   2926c:	fe843703          	ld	a4,-24(s0)
   29270:	fc843783          	ld	a5,-56(s0)
   29274:	40f707b3          	sub	a5,a4,a5
   29278:	0007879b          	sext.w	a5,a5
   2927c:	00078513          	mv	a0,a5
   29280:	03813403          	ld	s0,56(sp)
   29284:	04010113          	addi	sp,sp,64
   29288:	00008067          	ret
   2928c:	fb010113          	addi	sp,sp,-80
   29290:	04113423          	sd	ra,72(sp)
   29294:	04813023          	sd	s0,64(sp)
   29298:	05010413          	addi	s0,sp,80
   2929c:	00050793          	mv	a5,a0
   292a0:	00068713          	mv	a4,a3
   292a4:	faf42e23          	sw	a5,-68(s0)
   292a8:	00058793          	mv	a5,a1
   292ac:	faf42c23          	sw	a5,-72(s0)
   292b0:	00060793          	mv	a5,a2
   292b4:	faf42a23          	sw	a5,-76(s0)
   292b8:	00070793          	mv	a5,a4
   292bc:	faf42823          	sw	a5,-80(s0)
   292c0:	fe042223          	sw	zero,-28(s0)
   292c4:	0280006f          	j	292ec <bss_begin+0x72ec>
   292c8:	fb042783          	lw	a5,-80(s0)
   292cc:	0ff7f713          	andi	a4,a5,255
   292d0:	fe442783          	lw	a5,-28(s0)
   292d4:	ff040693          	addi	a3,s0,-16
   292d8:	00f687b3          	add	a5,a3,a5
   292dc:	fce78823          	sb	a4,-48(a5)
   292e0:	fe442783          	lw	a5,-28(s0)
   292e4:	0017879b          	addiw	a5,a5,1
   292e8:	fef42223          	sw	a5,-28(s0)
   292ec:	fe442783          	lw	a5,-28(s0)
   292f0:	00078713          	mv	a4,a5
   292f4:	01f00793          	li	a5,31
   292f8:	fce7f8e3          	bgeu	a5,a4,292c8 <bss_begin+0x72c8>
   292fc:	00a00793          	li	a5,10
   29300:	fef42623          	sw	a5,-20(s0)
   29304:	fb842783          	lw	a5,-72(s0)
   29308:	0007879b          	sext.w	a5,a5
   2930c:	00078663          	beqz	a5,29318 <bss_begin+0x7318>
   29310:	01000793          	li	a5,16
   29314:	fef42623          	sw	a5,-20(s0)
   29318:	fe042423          	sw	zero,-24(s0)
   2931c:	fbc42703          	lw	a4,-68(s0)
   29320:	fec42783          	lw	a5,-20(s0)
   29324:	02f777bb          	remuw	a5,a4,a5
   29328:	0007879b          	sext.w	a5,a5
   2932c:	fef42023          	sw	a5,-32(s0)
   29330:	fe042783          	lw	a5,-32(s0)
   29334:	0007871b          	sext.w	a4,a5
   29338:	00900793          	li	a5,9
   2933c:	02e7d463          	bge	a5,a4,29364 <bss_begin+0x7364>
   29340:	fe042783          	lw	a5,-32(s0)
   29344:	0ff7f793          	andi	a5,a5,255
   29348:	0577879b          	addiw	a5,a5,87
   2934c:	0ff7f713          	andi	a4,a5,255
   29350:	fe842783          	lw	a5,-24(s0)
   29354:	ff040693          	addi	a3,s0,-16
   29358:	00f687b3          	add	a5,a3,a5
   2935c:	fce78823          	sb	a4,-48(a5)
   29360:	0240006f          	j	29384 <bss_begin+0x7384>
   29364:	fe042783          	lw	a5,-32(s0)
   29368:	0ff7f793          	andi	a5,a5,255
   2936c:	0307879b          	addiw	a5,a5,48
   29370:	0ff7f713          	andi	a4,a5,255
   29374:	fe842783          	lw	a5,-24(s0)
   29378:	ff040693          	addi	a3,s0,-16
   2937c:	00f687b3          	add	a5,a3,a5
   29380:	fce78823          	sb	a4,-48(a5)
   29384:	fbc42703          	lw	a4,-68(s0)
   29388:	fec42783          	lw	a5,-20(s0)
   2938c:	02f757bb          	divuw	a5,a4,a5
   29390:	faf42e23          	sw	a5,-68(s0)
   29394:	fe842783          	lw	a5,-24(s0)
   29398:	0017879b          	addiw	a5,a5,1
   2939c:	fef42423          	sw	a5,-24(s0)
   293a0:	fbc42783          	lw	a5,-68(s0)
   293a4:	0007879b          	sext.w	a5,a5
   293a8:	f6079ae3          	bnez	a5,2931c <bss_begin+0x731c>
   293ac:	fb442783          	lw	a5,-76(s0)
   293b0:	0007879b          	sext.w	a5,a5
   293b4:	02f05c63          	blez	a5,293ec <bss_begin+0x73ec>
   293b8:	fb442783          	lw	a5,-76(s0)
   293bc:	00078713          	mv	a4,a5
   293c0:	01f00793          	li	a5,31
   293c4:	00e7f663          	bgeu	a5,a4,293d0 <bss_begin+0x73d0>
   293c8:	01f00793          	li	a5,31
   293cc:	faf42a23          	sw	a5,-76(s0)
   293d0:	fe842703          	lw	a4,-24(s0)
   293d4:	fb442783          	lw	a5,-76(s0)
   293d8:	0007071b          	sext.w	a4,a4
   293dc:	0007879b          	sext.w	a5,a5
   293e0:	00f75663          	bge	a4,a5,293ec <bss_begin+0x73ec>
   293e4:	fb442783          	lw	a5,-76(s0)
   293e8:	fef42423          	sw	a5,-24(s0)
   293ec:	fe842783          	lw	a5,-24(s0)
   293f0:	ff040713          	addi	a4,s0,-16
   293f4:	00f707b3          	add	a5,a4,a5
   293f8:	fc078823          	sb	zero,-48(a5)
   293fc:	fe842783          	lw	a5,-24(s0)
   29400:	fff7879b          	addiw	a5,a5,-1
   29404:	fef42223          	sw	a5,-28(s0)
   29408:	0280006f          	j	29430 <bss_begin+0x7430>
   2940c:	fe442783          	lw	a5,-28(s0)
   29410:	ff040713          	addi	a4,s0,-16
   29414:	00f707b3          	add	a5,a4,a5
   29418:	fd07c783          	lbu	a5,-48(a5)
   2941c:	00078513          	mv	a0,a5
   29420:	bddff0ef          	jal	ra,28ffc <bss_begin+0x6ffc>
   29424:	fe442783          	lw	a5,-28(s0)
   29428:	fff7879b          	addiw	a5,a5,-1
   2942c:	fef42223          	sw	a5,-28(s0)
   29430:	fe442783          	lw	a5,-28(s0)
   29434:	0007879b          	sext.w	a5,a5
   29438:	fc07dae3          	bgez	a5,2940c <bss_begin+0x740c>
   2943c:	00000013          	nop
   29440:	00000013          	nop
   29444:	04813083          	ld	ra,72(sp)
   29448:	04013403          	ld	s0,64(sp)
   2944c:	05010113          	addi	sp,sp,80
   29450:	00008067          	ret
   29454:	fb010113          	addi	sp,sp,-80
   29458:	04113423          	sd	ra,72(sp)
   2945c:	04813023          	sd	s0,64(sp)
   29460:	05010413          	addi	s0,sp,80
   29464:	faa43c23          	sd	a0,-72(s0)
   29468:	fab43823          	sd	a1,-80(s0)
   2946c:	02000793          	li	a5,32
   29470:	fcf42a23          	sw	a5,-44(s0)
   29474:	fb843783          	ld	a5,-72(s0)
   29478:	fef43423          	sd	a5,-24(s0)
   2947c:	1880006f          	j	29604 <bss_begin+0x7604>
   29480:	fc042e23          	sw	zero,-36(s0)
   29484:	fc042223          	sw	zero,-60(s0)
   29488:	fe843783          	ld	a5,-24(s0)
   2948c:	0007c783          	lbu	a5,0(a5)
   29490:	fcf42823          	sw	a5,-48(s0)
   29494:	fe843783          	ld	a5,-24(s0)
   29498:	fef43023          	sd	a5,-32(s0)
   2949c:	fe843783          	ld	a5,-24(s0)
   294a0:	0007c783          	lbu	a5,0(a5)
   294a4:	00078713          	mv	a4,a5
   294a8:	02500793          	li	a5,37
   294ac:	06f71863          	bne	a4,a5,2951c <bss_begin+0x751c>
   294b0:	fe843783          	ld	a5,-24(s0)
   294b4:	fef43023          	sd	a5,-32(s0)
   294b8:	fe843783          	ld	a5,-24(s0)
   294bc:	00178793          	addi	a5,a5,1
   294c0:	fef43423          	sd	a5,-24(s0)
   294c4:	fe843783          	ld	a5,-24(s0)
   294c8:	0007c783          	lbu	a5,0(a5)
   294cc:	00078713          	mv	a4,a5
   294d0:	02f00793          	li	a5,47
   294d4:	02e7fe63          	bgeu	a5,a4,29510 <bss_begin+0x7510>
   294d8:	fe843783          	ld	a5,-24(s0)
   294dc:	0007c783          	lbu	a5,0(a5)
   294e0:	00078713          	mv	a4,a5
   294e4:	03900793          	li	a5,57
   294e8:	02e7e463          	bltu	a5,a4,29510 <bss_begin+0x7510>
   294ec:	fc440793          	addi	a5,s0,-60
   294f0:	00078593          	mv	a1,a5
   294f4:	fe843503          	ld	a0,-24(s0)
   294f8:	ca5ff0ef          	jal	ra,2919c <bss_begin+0x719c>
   294fc:	00050793          	mv	a5,a0
   29500:	00078713          	mv	a4,a5
   29504:	fe843783          	ld	a5,-24(s0)
   29508:	00e787b3          	add	a5,a5,a4
   2950c:	fef43423          	sd	a5,-24(s0)
   29510:	fe843783          	ld	a5,-24(s0)
   29514:	0007c783          	lbu	a5,0(a5)
   29518:	fcf42e23          	sw	a5,-36(s0)
   2951c:	fdc42783          	lw	a5,-36(s0)
   29520:	0007871b          	sext.w	a4,a5
   29524:	06400793          	li	a5,100
   29528:	00f70a63          	beq	a4,a5,2953c <bss_begin+0x753c>
   2952c:	fdc42783          	lw	a5,-36(s0)
   29530:	0007871b          	sext.w	a4,a5
   29534:	07800793          	li	a5,120
   29538:	04f71863          	bne	a4,a5,29588 <bss_begin+0x7588>
   2953c:	fb043783          	ld	a5,-80(s0)
   29540:	00878713          	addi	a4,a5,8
   29544:	fae43823          	sd	a4,-80(s0)
   29548:	0007a783          	lw	a5,0(a5)
   2954c:	fcf42423          	sw	a5,-56(s0)
   29550:	fc842503          	lw	a0,-56(s0)
   29554:	fdc42783          	lw	a5,-36(s0)
   29558:	0007871b          	sext.w	a4,a5
   2955c:	07800793          	li	a5,120
   29560:	40f707b3          	sub	a5,a4,a5
   29564:	0017b793          	seqz	a5,a5
   29568:	0ff7f793          	andi	a5,a5,255
   2956c:	0007879b          	sext.w	a5,a5
   29570:	fc442703          	lw	a4,-60(s0)
   29574:	fd442683          	lw	a3,-44(s0)
   29578:	00070613          	mv	a2,a4
   2957c:	00078593          	mv	a1,a5
   29580:	d0dff0ef          	jal	ra,2928c <bss_begin+0x728c>
   29584:	0740006f          	j	295f8 <bss_begin+0x75f8>
   29588:	fc042c23          	sw	zero,-40(s0)
   2958c:	0280006f          	j	295b4 <bss_begin+0x75b4>
   29590:	fd842783          	lw	a5,-40(s0)
   29594:	fe043703          	ld	a4,-32(s0)
   29598:	00f707b3          	add	a5,a4,a5
   2959c:	0007c783          	lbu	a5,0(a5)
   295a0:	00078513          	mv	a0,a5
   295a4:	a59ff0ef          	jal	ra,28ffc <bss_begin+0x6ffc>
   295a8:	fd842783          	lw	a5,-40(s0)
   295ac:	0017879b          	addiw	a5,a5,1
   295b0:	fcf42c23          	sw	a5,-40(s0)
   295b4:	fd842703          	lw	a4,-40(s0)
   295b8:	fe843683          	ld	a3,-24(s0)
   295bc:	fe043783          	ld	a5,-32(s0)
   295c0:	40f687b3          	sub	a5,a3,a5
   295c4:	fcf746e3          	blt	a4,a5,29590 <bss_begin+0x7590>
   295c8:	fdc42783          	lw	a5,-36(s0)
   295cc:	0007879b          	sext.w	a5,a5
   295d0:	00078863          	beqz	a5,295e0 <bss_begin+0x75e0>
   295d4:	fdc42783          	lw	a5,-36(s0)
   295d8:	0ff7f793          	andi	a5,a5,255
   295dc:	00c0006f          	j	295e8 <bss_begin+0x75e8>
   295e0:	fd042783          	lw	a5,-48(s0)
   295e4:	0ff7f793          	andi	a5,a5,255
   295e8:	fcf407a3          	sb	a5,-49(s0)
   295ec:	fcf44783          	lbu	a5,-49(s0)
   295f0:	00078513          	mv	a0,a5
   295f4:	a09ff0ef          	jal	ra,28ffc <bss_begin+0x6ffc>
   295f8:	fe843783          	ld	a5,-24(s0)
   295fc:	00178793          	addi	a5,a5,1
   29600:	fef43423          	sd	a5,-24(s0)
   29604:	fe843783          	ld	a5,-24(s0)
   29608:	0007c783          	lbu	a5,0(a5)
   2960c:	e6079ae3          	bnez	a5,29480 <bss_begin+0x7480>
   29610:	00000793          	li	a5,0
   29614:	00078513          	mv	a0,a5
   29618:	04813083          	ld	ra,72(sp)
   2961c:	04013403          	ld	s0,64(sp)
   29620:	05010113          	addi	sp,sp,80
   29624:	00008067          	ret
   29628:	f9010113          	addi	sp,sp,-112
   2962c:	02113423          	sd	ra,40(sp)
   29630:	02813023          	sd	s0,32(sp)
   29634:	03010413          	addi	s0,sp,48
   29638:	fca43c23          	sd	a0,-40(s0)
   2963c:	00b43423          	sd	a1,8(s0)
   29640:	00c43823          	sd	a2,16(s0)
   29644:	00d43c23          	sd	a3,24(s0)
   29648:	02e43023          	sd	a4,32(s0)
   2964c:	02f43423          	sd	a5,40(s0)
   29650:	03043823          	sd	a6,48(s0)
   29654:	03143c23          	sd	a7,56(s0)
   29658:	04040793          	addi	a5,s0,64
   2965c:	fcf43823          	sd	a5,-48(s0)
   29660:	fd043783          	ld	a5,-48(s0)
   29664:	fc878793          	addi	a5,a5,-56
   29668:	fef43423          	sd	a5,-24(s0)
   2966c:	fe843783          	ld	a5,-24(s0)
   29670:	00078593          	mv	a1,a5
   29674:	fd843503          	ld	a0,-40(s0)
   29678:	dddff0ef          	jal	ra,29454 <bss_begin+0x7454>
   2967c:	00000793          	li	a5,0
   29680:	00078513          	mv	a0,a5
   29684:	02813083          	ld	ra,40(sp)
   29688:	02013403          	ld	s0,32(sp)
   2968c:	07010113          	addi	sp,sp,112
   29690:	00008067          	ret
   29694:	fd010113          	addi	sp,sp,-48
   29698:	02113423          	sd	ra,40(sp)
   2969c:	02813023          	sd	s0,32(sp)
   296a0:	03010413          	addi	s0,sp,48
   296a4:	00050793          	mv	a5,a0
   296a8:	fcf42e23          	sw	a5,-36(s0)
   296ac:	03000513          	li	a0,48
   296b0:	94dff0ef          	jal	ra,28ffc <bss_begin+0x6ffc>
   296b4:	07800513          	li	a0,120
   296b8:	945ff0ef          	jal	ra,28ffc <bss_begin+0x6ffc>
   296bc:	00700793          	li	a5,7
   296c0:	fef42623          	sw	a5,-20(s0)
   296c4:	07c0006f          	j	29740 <bss_begin+0x7740>
   296c8:	fec42783          	lw	a5,-20(s0)
   296cc:	0027979b          	slliw	a5,a5,0x2
   296d0:	0007879b          	sext.w	a5,a5
   296d4:	00078713          	mv	a4,a5
   296d8:	fdc42783          	lw	a5,-36(s0)
   296dc:	00e7d7bb          	srlw	a5,a5,a4
   296e0:	0007879b          	sext.w	a5,a5
   296e4:	0007879b          	sext.w	a5,a5
   296e8:	00f7f793          	andi	a5,a5,15
   296ec:	fef42423          	sw	a5,-24(s0)
   296f0:	fe842783          	lw	a5,-24(s0)
   296f4:	0007871b          	sext.w	a4,a5
   296f8:	00900793          	li	a5,9
   296fc:	02e7c063          	blt	a5,a4,2971c <bss_begin+0x771c>
   29700:	fe842783          	lw	a5,-24(s0)
   29704:	0ff7f793          	andi	a5,a5,255
   29708:	0307879b          	addiw	a5,a5,48
   2970c:	0ff7f793          	andi	a5,a5,255
   29710:	00078513          	mv	a0,a5
   29714:	8e9ff0ef          	jal	ra,28ffc <bss_begin+0x6ffc>
   29718:	01c0006f          	j	29734 <bss_begin+0x7734>
   2971c:	fe842783          	lw	a5,-24(s0)
   29720:	0ff7f793          	andi	a5,a5,255
   29724:	0377879b          	addiw	a5,a5,55
   29728:	0ff7f793          	andi	a5,a5,255
   2972c:	00078513          	mv	a0,a5
   29730:	8cdff0ef          	jal	ra,28ffc <bss_begin+0x6ffc>
   29734:	fec42783          	lw	a5,-20(s0)
   29738:	fff7879b          	addiw	a5,a5,-1
   2973c:	fef42623          	sw	a5,-20(s0)
   29740:	fec42783          	lw	a5,-20(s0)
   29744:	0007879b          	sext.w	a5,a5
   29748:	f807d0e3          	bgez	a5,296c8 <bss_begin+0x76c8>
   2974c:	00000013          	nop
   29750:	00000013          	nop
   29754:	02813083          	ld	ra,40(sp)
   29758:	02013403          	ld	s0,32(sp)
   2975c:	03010113          	addi	sp,sp,48
   29760:	00008067          	ret
   29764:	0000                	unimp
   29766:	0000                	unimp
   29768:	abcd                	j	29d5a <_payload_end+0x2ea>
   2976a:	abcd                	j	29d5c <_payload_end+0x2ec>
   2976c:	5678                	lw	a4,108(a2)
   2976e:	1234                	addi	a3,sp,296
   29770:	000212b7          	lui	t0,0x21
   29774:	00028303          	lb	t1,0(t0) # 21000 <stacks_start>
   29778:	00428303          	lb	t1,4(t0)
   2977c:	ffc28303          	lb	t1,-4(t0)
   29780:	0002b303          	ld	t1,0(t0)
   29784:	00428303          	lb	t1,4(t0)
   29788:	00000297          	auipc	t0,0x0
   2978c:	fe028293          	addi	t0,t0,-32 # 29768 <bss_begin+0x7768>
   29790:	00000317          	auipc	t1,0x0
   29794:	fd830313          	addi	t1,t1,-40 # 29768 <bss_begin+0x7768>
   29798:	802002b7          	lui	t0,0x80200
   2979c:	40200337          	lui	t1,0x40200
   297a0:	00008067          	ret
   297a4:	c00002b7          	lui	t0,0xc0000
   297a8:	0452829b          	addiw	t0,t0,69
   297ac:	02129293          	slli	t0,t0,0x21
   297b0:	4012d593          	srai	a1,t0,0x1
   297b4:	0012d313          	srli	t1,t0,0x1
   297b8:	0250029b          	addiw	t0,zero,37
   297bc:	01f29293          	slli	t0,t0,0x1f
   297c0:	08a28293          	addi	t0,t0,138 # ffffffffc000008a <_payload_end+0xffffffffbffd661a>
   297c4:	4012d61b          	sraiw	a2,t0,0x1
   297c8:	0012d31b          	srliw	t1,t0,0x1
   297cc:	0012969b          	slliw	a3,t0,0x1
   297d0:	0490029b          	addiw	t0,zero,73
   297d4:	01e29293          	slli	t0,t0,0x1e
   297d8:	08a28293          	addi	t0,t0,138
   297dc:	4012d61b          	sraiw	a2,t0,0x1
   297e0:	0012d31b          	srliw	t1,t0,0x1
   297e4:	0012971b          	slliw	a4,t0,0x1
   297e8:	00008067          	ret
   297ec:	80028593          	addi	a1,t0,-2048
   297f0:	000012b7          	lui	t0,0x1
   297f4:	a012829b          	addiw	t0,t0,-1535
   297f8:	01529293          	slli	t0,t0,0x15
   297fc:	40000337          	lui	t1,0x40000
   29800:	70028593          	addi	a1,t0,1792 # 1700 <__bin_size-0x8370>
   29804:	80028593          	addi	a1,t0,-2048
   29808:	0802861b          	addiw	a2,t0,128
   2980c:	006286b3          	add	a3,t0,t1
   29810:	0062873b          	addw	a4,t0,t1
   29814:	000012b7          	lui	t0,0x1
   29818:	c012829b          	addiw	t0,t0,-1023
   2981c:	01529293          	slli	t0,t0,0x15
   29820:	00200337          	lui	t1,0x200
   29824:	40628533          	sub	a0,t0,t1
   29828:	406285bb          	subw	a1,t0,t1
   2982c:	00008067          	ret
   29830:	00b50533          	add	a0,a0,a1
   29834:	00000013          	nop
   29838:	00008067          	ret
   2983c:	ff810113          	addi	sp,sp,-8
   29840:	00113023          	sd	ra,0(sp)
   29844:	00100513          	li	a0,1
   29848:	00200593          	li	a1,2
   2984c:	fe5ff0ef          	jal	ra,29830 <bss_begin+0x7830>
   29850:	00000013          	nop
   29854:	00013083          	ld	ra,0(sp)
   29858:	00810113          	addi	sp,sp,8
   2985c:	00008067          	ret
   29860:	000202b7          	lui	t0,0x20
   29864:	00021337          	lui	t1,0x21
   29868:	02028393          	addi	t2,t0,32 # 20020 <_start+0x20>
   2986c:	0002be03          	ld	t3,0(t0)
   29870:	01c33023          	sd	t3,0(t1) # 21000 <stacks_start>
   29874:	00828293          	addi	t0,t0,8
   29878:	00830313          	addi	t1,t1,8
   2987c:	fe72c8e3          	blt	t0,t2,2986c <bss_begin+0x786c>
   29880:	00008067          	ret
   29884:	00b56663          	bltu	a0,a1,29890 <bss_begin+0x7890>
   29888:	00000793          	li	a5,0
   2988c:	0080006f          	j	29894 <bss_begin+0x7894>
   29890:	fff00793          	li	a5,-1
   29894:	00078513          	mv	a0,a5
   29898:	00008067          	ret
   2989c:	00050663          	beqz	a0,298a8 <bss_begin+0x78a8>
   298a0:	fff58793          	addi	a5,a1,-1
   298a4:	0080006f          	j	298ac <bss_begin+0x78ac>
   298a8:	00258793          	addi	a5,a1,2
   298ac:	00078513          	mv	a0,a5
   298b0:	00008067          	ret
   298b4:	ff010113          	addi	sp,sp,-16
   298b8:	00113423          	sd	ra,8(sp)
   298bc:	fe1ff0ef          	jal	ra,2989c <bss_begin+0x789c>
   298c0:	00813083          	ld	ra,8(sp)
   298c4:	01010113          	addi	sp,sp,16
   298c8:	00008067          	ret
   298cc:	00000013          	nop
   298d0:	0800                	addi	s0,sp,16
   298d2:	0080                	addi	s0,sp,64
   298d4:	0000                	unimp
   298d6:	0000                	unimp
   298d8:	0860                	addi	s0,sp,28
   298da:	0080                	addi	s0,sp,64
   298dc:	0000                	unimp
   298de:	0000                	unimp
   298e0:	0880                	addi	s0,sp,80
   298e2:	0080                	addi	s0,sp,64
   298e4:	0000                	unimp
   298e6:	0000                	unimp
   298e8:	7566                	ld	a0,120(sp)
   298ea:	636e                	ld	t1,216(sp)
   298ec:	615f 6600 6e75      	0x6e756600615f
   298f2:	00625f63          	bge	tp,t1,29910 <bss_begin+0x7910>
   298f6:	7566                	ld	a0,120(sp)
   298f8:	636e                	ld	t1,216(sp)
   298fa:	635f 0100 0000      	0x100635f
   29900:	00000003          	lb	zero,0(zero) # 0 <__bin_size-0x9a70>
   29904:	0000                	unimp
   29906:	0000                	unimp
   29908:	00b50533          	add	a0,a0,a1
   2990c:	00008067          	ret
   29910:	40b50533          	sub	a0,a0,a1
   29914:	00008067          	ret
   29918:	ff010113          	addi	sp,sp,-16
   2991c:	00113423          	sd	ra,8(sp)
   29920:	00050293          	mv	t0,a0
   29924:	00058313          	mv	t1,a1
   29928:	00028513          	mv	a0,t0
   2992c:	00030593          	mv	a1,t1
   29930:	fd9ff0ef          	jal	ra,29908 <bss_begin+0x7908>
   29934:	00813083          	ld	ra,8(sp)
   29938:	01010113          	addi	sp,sp,16
   2993c:	00008067          	ret
   29940:	ff010113          	addi	sp,sp,-16
   29944:	00113423          	sd	ra,8(sp)
   29948:	00050293          	mv	t0,a0
   2994c:	00058313          	mv	t1,a1
   29950:	00028513          	mv	a0,t0
   29954:	00030593          	mv	a1,t1
   29958:	fb9ff0ef          	jal	ra,29910 <bss_begin+0x7910>
   2995c:	00813083          	ld	ra,8(sp)
   29960:	01010113          	addi	sp,sp,16
   29964:	00008067          	ret
	...
   29970:	020002b7          	lui	t0,0x2000
   29974:	0f02829b          	addiw	t0,t0,240
   29978:	0002a303          	lw	t1,0(t0) # 2000000 <_payload_end+0x1fd6590>
   2997c:	fff0f3b7          	lui	t2,0xfff0f
   29980:	0ff3839b          	addiw	t2,t2,255
   29984:	00737333          	and	t1,t1,t2
   29988:	000303b7          	lui	t2,0x30
   2998c:	3003839b          	addiw	t2,t2,768
   29990:	00736333          	or	t1,t1,t2
   29994:	0062a023          	sw	t1,0(t0)
   29998:	020022b7          	lui	t0,0x2002
   2999c:	90c2829b          	addiw	t0,t0,-1780
   299a0:	0002a303          	lw	t1,0(t0) # 2002000 <_payload_end+0x1fd8590>
   299a4:	00136313          	ori	t1,t1,1
   299a8:	0062a023          	sw	t1,0(t0)
   299ac:	020022b7          	lui	t0,0x2002
   299b0:	90c2829b          	addiw	t0,t0,-1780
   299b4:	0002a303          	lw	t1,0(t0) # 2002000 <_payload_end+0x1fd8590>
   299b8:	000103b7          	lui	t2,0x10
   299bc:	00736333          	or	t1,t1,t2
   299c0:	0062a023          	sw	t1,0(t0)
   299c4:	025002b7          	lui	t0,0x2500
   299c8:	0002a223          	sw	zero,4(t0) # 2500004 <_payload_end+0x24d6594>
   299cc:	0f700313          	li	t1,247
   299d0:	0062a423          	sw	t1,8(t0)
   299d4:	0002a823          	sw	zero,16(t0)
   299d8:	00c2a303          	lw	t1,12(t0)
   299dc:	08036313          	ori	t1,t1,128
   299e0:	0062a623          	sw	t1,12(t0)
   299e4:	00d00393          	li	t2,13
   299e8:	0072a023          	sw	t2,0(t0)
   299ec:	00000393          	li	t2,0
   299f0:	0072a223          	sw	t2,4(t0)
   299f4:	08034313          	xori	t1,t1,128
   299f8:	0062a623          	sw	t1,12(t0)
   299fc:	00c2a303          	lw	t1,12(t0)
   29a00:	ff000393          	li	t2,-16
   29a04:	00737333          	and	t1,t1,t2
   29a08:	00300393          	li	t2,3
   29a0c:	00736333          	or	t1,t1,t2
   29a10:	0062a623          	sw	t1,12(t0)
   29a14:	00008067          	ret
   29a18:	025002b7          	lui	t0,0x2500
   29a1c:	07c2a303          	lw	t1,124(t0) # 250007c <_payload_end+0x24d660c>
   29a20:	00237313          	andi	t1,t1,2
   29a24:	fe030ce3          	beqz	t1,29a1c <bss_begin+0x7a1c>
   29a28:	00a28023          	sb	a0,0(t0)
   29a2c:	00008067          	ret
   29a30:	00008c13          	mv	s8,ra
   29a34:	00050793          	mv	a5,a0
   29a38:	0007c503          	lbu	a0,0(a5)
   29a3c:	00050863          	beqz	a0,29a4c <bss_begin+0x7a4c>
   29a40:	fd9ff0ef          	jal	ra,29a18 <bss_begin+0x7a18>
   29a44:	00178793          	addi	a5,a5,1
   29a48:	ff1ff06f          	j	29a38 <bss_begin+0x7a38>
   29a4c:	000c0093          	mv	ra,s8
   29a50:	00008067          	ret
   29a54:	00000293          	li	t0,0
   29a58:	00b53023          	sd	a1,0(a0) # 2001000 <_payload_end+0x1fd7590>
   29a5c:	00b53423          	sd	a1,8(a0)
   29a60:	01028293          	addi	t0,t0,16
   29a64:	fec2cae3          	blt	t0,a2,29a58 <bss_begin+0x7a58>
   29a68:	00008067          	ret
   29a6c:	0000                	unimp
	...
