	.file	"printk.c"
	.option nopic
	.attribute arch, "rv64i2p0_m2p0_a2p0_f2p0_d2p0"
	.attribute unaligned_access, 0
	.attribute stack_align, 16
	.text
.Ltext0:
	.cfi_sections	.debug_frame
	.local	print_buf
	.comm	print_buf,256,8
	.local	log_buf
	.comm	log_buf,256,8
	.local	g_printk_status
	.comm	g_printk_status,4,4
	.section	.sdata,"aw"
	.align	3
	.type	g_record, @object
	.size	g_record, 8
g_record:
	.dword	log_buf
	.local	g_record_len
	.comm	g_record_len,8,8
	.text
	.align	2
	.type	scan_number, @function
scan_number:
.LFB0:
	.file 1 "src/printk.c"
	.loc 1 43 1
	.cfi_startproc
	addi	sp,sp,-48
	.cfi_def_cfa_offset 48
	sd	s0,40(sp)
	.cfi_offset 8, -8
	addi	s0,sp,48
	.cfi_def_cfa 8, 0
	sd	a0,-40(s0)
	sd	a1,-48(s0)
	.loc 1 44 6
	sw	zero,-20(s0)
	.loc 1 46 8
	j	.L2
.L4:
	.loc 1 47 7
	lw	a4,-20(s0)
	mv	a5,a4
	slliw	a5,a5,2
	addw	a5,a5,a4
	slliw	a5,a5,1
	sw	a5,-20(s0)
	.loc 1 48 18
	ld	a5,-40(s0)
	addi	a4,a5,1
	sd	a4,-40(s0)
	.loc 1 48 10
	lbu	a5,0(a5)
	sext.w	a5,a5
	.loc 1 48 22
	addiw	a5,a5,-48
	sext.w	a5,a5
	.loc 1 48 7
	lw	a4,-20(s0)
	addw	a5,a4,a5
	sw	a5,-20(s0)
.L2:
	.loc 1 46 11
	ld	a5,-40(s0)
	lbu	a5,0(a5)
	.loc 1 46 8
	mv	a4,a5
	li	a5,47
	bleu	a4,a5,.L3
	.loc 1 46 31 discriminator 1
	ld	a5,-40(s0)
	lbu	a5,0(a5)
	.loc 1 46 27 discriminator 1
	mv	a4,a5
	li	a5,57
	bleu	a4,a5,.L4
.L3:
	.loc 1 51 10
	ld	a5,-48(s0)
	lw	a4,-20(s0)
	sw	a4,0(a5)
	.loc 1 52 9
	ld	a5,-40(s0)
	.loc 1 53 1
	mv	a0,a5
	ld	s0,40(sp)
	.cfi_restore 8
	.cfi_def_cfa 2, 48
	addi	sp,sp,48
	.cfi_def_cfa_offset 0
	jr	ra
	.cfi_endproc
.LFE0:
	.size	scan_number, .-scan_number
	.section	.rodata
	.align	3
.LC0:
	.string	"0123456789ABCDEFGHIJKLMNOPQRSTUVWXYZ"
	.align	3
.LC1:
	.string	"0123456789abcdefghijklmnopqrstuvwxyz"
	.text
	.align	2
	.type	number, @function
number:
.LFB1:
	.loc 1 57 1
	.cfi_startproc
	addi	sp,sp,-224
	.cfi_def_cfa_offset 224
	sd	s0,216(sp)
	.cfi_offset 8, -8
	addi	s0,sp,224
	.cfi_def_cfa 8, 0
	sd	a0,-200(s0)
	sd	a1,-208(s0)
	mv	a1,a2
	mv	a2,a3
	mv	a3,a4
	mv	a4,a5
	mv	a5,a1
	sw	a5,-212(s0)
	mv	a5,a2
	sw	a5,-216(s0)
	mv	a5,a3
	sw	a5,-220(s0)
	mv	a5,a4
	sw	a5,-224(s0)
	.loc 1 58 10
	sb	zero,-17(s0)
	.loc 1 61 14
	lla	a5,.LC0
	sd	a5,-32(s0)
	.loc 1 64 11
	lw	a5,-224(s0)
	andi	a5,a5,64
	sext.w	a5,a5
	.loc 1 64 5
	beq	a5,zero,.L7
	.loc 1 65 10
	lla	a5,.LC1
	sd	a5,-32(s0)
.L7:
	.loc 1 66 11
	lw	a5,-224(s0)
	andi	a5,a5,16
	sext.w	a5,a5
	.loc 1 66 5
	beq	a5,zero,.L8
	.loc 1 67 8
	lw	a5,-224(s0)
	andi	a5,a5,-2
	sw	a5,-224(s0)
.L8:
	.loc 1 68 5
	lw	a5,-212(s0)
	sext.w	a4,a5
	li	a5,1
	ble	a4,a5,.L9
	.loc 1 68 15 discriminator 1
	lw	a5,-212(s0)
	sext.w	a4,a5
	li	a5,36
	ble	a4,a5,.L10
.L9:
	.loc 1 69 10
	li	a5,0
	j	.L39
.L10:
	.loc 1 71 12
	lw	a5,-224(s0)
	andi	a5,a5,1
	sext.w	a5,a5
	.loc 1 71 4
	beq	a5,zero,.L12
	.loc 1 71 4 is_stmt 0 discriminator 1
	li	a5,48
	j	.L13
.L12:
	.loc 1 71 4 discriminator 2
	li	a5,32
.L13:
	.loc 1 71 4 discriminator 4
	sb	a5,-37(s0)
	.loc 1 73 11 is_stmt 1 discriminator 4
	lw	a5,-224(s0)
	andi	a5,a5,2
	sext.w	a5,a5
	.loc 1 73 5 discriminator 4
	beq	a5,zero,.L14
	.loc 1 74 8
	ld	a5,-208(s0)
	sd	a5,-48(s0)
	.loc 1 75 6
	ld	a5,-48(s0)
	bge	a5,zero,.L15
	.loc 1 76 9
	li	a5,45
	sb	a5,-17(s0)
	.loc 1 77 10
	ld	a5,-48(s0)
	neg	a5,a5
	.loc 1 77 8
	sd	a5,-208(s0)
	j	.L14
.L15:
	.loc 1 78 19
	lw	a5,-224(s0)
	andi	a5,a5,4
	sext.w	a5,a5
	.loc 1 78 13
	beq	a5,zero,.L16
	.loc 1 79 9
	li	a5,43
	sb	a5,-17(s0)
	.loc 1 80 8
	lw	a5,-216(s0)
	addiw	a5,a5,-1
	sw	a5,-216(s0)
	j	.L14
.L16:
	.loc 1 81 19
	lw	a5,-224(s0)
	andi	a5,a5,8
	sext.w	a5,a5
	.loc 1 81 13
	beq	a5,zero,.L14
	.loc 1 82 9
	li	a5,32
	sb	a5,-17(s0)
	.loc 1 83 8
	lw	a5,-216(s0)
	addiw	a5,a5,-1
	sw	a5,-216(s0)
.L14:
	.loc 1 87 11
	lw	a5,-224(s0)
	andi	a5,a5,32
	sext.w	a5,a5
	.loc 1 87 5
	beq	a5,zero,.L17
	.loc 1 88 6
	lw	a5,-212(s0)
	sext.w	a4,a5
	li	a5,16
	bne	a4,a5,.L18
	.loc 1 89 9
	lw	a5,-216(s0)
	addiw	a5,a5,-2
	sw	a5,-216(s0)
	j	.L17
.L18:
	.loc 1 90 11
	lw	a5,-212(s0)
	sext.w	a4,a5
	li	a5,8
	bne	a4,a5,.L17
	.loc 1 91 8
	lw	a5,-216(s0)
	addiw	a5,a5,-1
	sw	a5,-216(s0)
.L17:
	.loc 1 94 4
	sw	zero,-36(s0)
	.loc 1 95 5
	ld	a5,-208(s0)
	bne	a5,zero,.L21
	.loc 1 96 8
	lw	a5,-36(s0)
	addiw	a4,a5,1
	sw	a4,-36(s0)
	.loc 1 96 12
	addi	a4,s0,-16
	add	a5,a4,a5
	li	a4,48
	sb	a4,-168(a5)
	j	.L20
.L22:
.LBB2:
	.loc 1 99 38
	lw	a5,-212(s0)
	sw	a5,-52(s0)
	.loc 1 99 106
	lwu	a5,-52(s0)
	ld	a4,-208(s0)
	remu	a5,a4,a5
	.loc 1 99 81
	sw	a5,-56(s0)
	.loc 1 99 147
	lwu	a5,-52(s0)
	.loc 1 99 122
	ld	a4,-208(s0)
	divu	a5,a4,a5
	sd	a5,-208(s0)
	.loc 1 99 157
	lw	a5,-56(s0)
.LBE2:
	.loc 1 99 23
	slli	a5,a5,32
	srli	a5,a5,32
	.loc 1 99 21
	ld	a4,-32(s0)
	add	a4,a4,a5
	.loc 1 99 9
	lw	a5,-36(s0)
	addiw	a3,a5,1
	sw	a3,-36(s0)
	.loc 1 99 21
	lbu	a4,0(a4)
	.loc 1 99 13
	addi	a3,s0,-16
	add	a5,a3,a5
	sb	a4,-168(a5)
.L21:
	.loc 1 98 9
	ld	a5,-208(s0)
	bne	a5,zero,.L22
.L20:
	.loc 1 100 5
	lw	a4,-36(s0)
	lw	a5,-220(s0)
	sext.w	a4,a4
	sext.w	a5,a5
	ble	a4,a5,.L23
	.loc 1 101 13
	lw	a5,-36(s0)
	sw	a5,-220(s0)
.L23:
	.loc 1 102 7
	lw	a4,-216(s0)
	lw	a5,-220(s0)
	subw	a5,a4,a5
	sw	a5,-216(s0)
	.loc 1 103 12
	lw	a5,-224(s0)
	andi	a5,a5,17
	sext.w	a5,a5
	.loc 1 103 5
	bne	a5,zero,.L24
	.loc 1 104 9
	j	.L25
.L26:
	.loc 1 105 8
	ld	a5,-200(s0)
	addi	a4,a5,1
	sd	a4,-200(s0)
	.loc 1 105 11
	li	a4,32
	sb	a4,0(a5)
.L25:
	.loc 1 104 14
	lw	a5,-216(s0)
	addiw	a4,a5,-1
	sw	a4,-216(s0)
	.loc 1 104 9
	bgt	a5,zero,.L26
.L24:
	.loc 1 106 5
	lbu	a5,-17(s0)
	andi	a5,a5,0xff
	beq	a5,zero,.L27
	.loc 1 107 7
	ld	a5,-200(s0)
	addi	a4,a5,1
	sd	a4,-200(s0)
	.loc 1 107 10
	lbu	a4,-17(s0)
	sb	a4,0(a5)
.L27:
	.loc 1 109 11
	lw	a5,-224(s0)
	andi	a5,a5,32
	sext.w	a5,a5
	.loc 1 109 5
	beq	a5,zero,.L28
	.loc 1 110 6
	lw	a5,-212(s0)
	sext.w	a4,a5
	li	a5,8
	bne	a4,a5,.L29
	.loc 1 111 8
	ld	a5,-200(s0)
	addi	a4,a5,1
	sd	a4,-200(s0)
	.loc 1 111 11
	li	a4,48
	sb	a4,0(a5)
	j	.L28
.L29:
	.loc 1 112 11
	lw	a5,-212(s0)
	sext.w	a4,a5
	li	a5,16
	bne	a4,a5,.L28
	.loc 1 113 8
	ld	a5,-200(s0)
	addi	a4,a5,1
	sd	a4,-200(s0)
	.loc 1 113 11
	li	a4,48
	sb	a4,0(a5)
	.loc 1 114 8
	ld	a5,-200(s0)
	addi	a4,a5,1
	sd	a4,-200(s0)
	.loc 1 114 11
	ld	a4,-32(s0)
	lbu	a4,33(a4)
	sb	a4,0(a5)
.L28:
	.loc 1 118 13
	lw	a5,-224(s0)
	andi	a5,a5,16
	sext.w	a5,a5
	.loc 1 118 5
	bne	a5,zero,.L33
	.loc 1 119 9
	j	.L31
.L32:
	.loc 1 120 8
	ld	a5,-200(s0)
	addi	a4,a5,1
	sd	a4,-200(s0)
	.loc 1 120 11
	lbu	a4,-37(s0)
	sb	a4,0(a5)
.L31:
	.loc 1 119 14
	lw	a5,-216(s0)
	addiw	a4,a5,-1
	sw	a4,-216(s0)
	.loc 1 119 9
	bgt	a5,zero,.L32
	.loc 1 121 8
	j	.L33
.L34:
	.loc 1 122 7
	ld	a5,-200(s0)
	addi	a4,a5,1
	sd	a4,-200(s0)
	.loc 1 122 10
	li	a4,48
	sb	a4,0(a5)
.L33:
	.loc 1 121 22
	lw	a5,-220(s0)
	addiw	a4,a5,-1
	sw	a4,-220(s0)
	.loc 1 121 8
	lw	a4,-36(s0)
	sext.w	a4,a4
	blt	a4,a5,.L34
	.loc 1 123 8
	j	.L35
.L36:
	.loc 1 124 7
	ld	a5,-200(s0)
	addi	a4,a5,1
	sd	a4,-200(s0)
	.loc 1 124 15
	lw	a4,-36(s0)
	addi	a3,s0,-16
	add	a4,a3,a4
	lbu	a4,-168(a4)
	.loc 1 124 10
	sb	a4,0(a5)
.L35:
	.loc 1 123 10
	lw	a5,-36(s0)
	addiw	a4,a5,-1
	sw	a4,-36(s0)
	.loc 1 123 8
	bgt	a5,zero,.L36
	.loc 1 125 8
	j	.L37
.L38:
	.loc 1 126 7
	ld	a5,-200(s0)
	addi	a4,a5,1
	sd	a4,-200(s0)
	.loc 1 126 10
	li	a4,32
	sb	a4,0(a5)
.L37:
	.loc 1 125 13
	lw	a5,-216(s0)
	addiw	a4,a5,-1
	sw	a4,-216(s0)
	.loc 1 125 8
	bgt	a5,zero,.L38
	.loc 1 128 9
	ld	a5,-200(s0)
.L39:
	.loc 1 129 1 discriminator 1
	mv	a0,a5
	ld	s0,216(sp)
	.cfi_restore 8
	.cfi_def_cfa 2, 224
	addi	sp,sp,224
	.cfi_def_cfa_offset 0
	jr	ra
	.cfi_endproc
.LFE1:
	.size	number, .-number
	.section	.rodata
	.align	3
.LC2:
	.string	"<NULL>"
	.text
	.align	2
	.globl	myprintf
	.type	myprintf, @function
myprintf:
.LFB2:
	.loc 1 148 1
	.cfi_startproc
	addi	sp,sp,-112
	.cfi_def_cfa_offset 112
	sd	ra,104(sp)
	sd	s0,96(sp)
	.cfi_offset 1, -8
	.cfi_offset 8, -16
	addi	s0,sp,112
	.cfi_def_cfa 8, 0
	sd	a0,-88(s0)
	mv	a5,a1
	sd	a2,-104(s0)
	sd	a3,-112(s0)
	sw	a5,-92(s0)
	.loc 1 161 6
	ld	a5,-88(s0)
	sd	a5,-24(s0)
	.loc 1 163 2
	j	.L41
.L98:
	.loc 1 164 7
	ld	a5,-104(s0)
	lbu	a5,0(a5)
	.loc 1 164 6
	mv	a4,a5
	li	a5,37
	beq	a4,a5,.L42
	.loc 1 165 8
	ld	a5,-24(s0)
	addi	a4,a5,1
	sd	a4,-24(s0)
	.loc 1 165 13
	ld	a4,-104(s0)
	lbu	a4,0(a4)
	.loc 1 165 11
	sb	a4,0(a5)
	.loc 1 166 4
	j	.L43
.L42:
	.loc 1 170 9
	sw	zero,-28(s0)
.L44:
	.loc 1 172 3
	ld	a5,-104(s0)
	addi	a5,a5,1
	sd	a5,-104(s0)
	.loc 1 173 11
	ld	a5,-104(s0)
	lbu	a5,0(a5)
	sext.w	a5,a5
	addiw	a3,a5,-32
	sext.w	a4,a3
	li	a5,16
	bgtu	a4,a5,.L45
	slli	a5,a3,32
	srli	a5,a5,32
	slli	a4,a5,2
	lla	a5,.L47
	add	a5,a4,a5
	lw	a5,0(a5)
	sext.w	a4,a5
	lla	a5,.L47
	add	a5,a4,a5
	jr	a5
	.section	.rodata
	.align	2
	.align	2
.L47:
	.word	.L51-.L47
	.word	.L45-.L47
	.word	.L45-.L47
	.word	.L50-.L47
	.word	.L45-.L47
	.word	.L45-.L47
	.word	.L45-.L47
	.word	.L45-.L47
	.word	.L45-.L47
	.word	.L45-.L47
	.word	.L45-.L47
	.word	.L49-.L47
	.word	.L45-.L47
	.word	.L48-.L47
	.word	.L45-.L47
	.word	.L45-.L47
	.word	.L46-.L47
	.text
.L48:
	.loc 1 175 10
	lw	a5,-28(s0)
	ori	a5,a5,16
	sw	a5,-28(s0)
	.loc 1 176 4
	j	.L44
.L49:
	.loc 1 178 10
	lw	a5,-28(s0)
	ori	a5,a5,4
	sw	a5,-28(s0)
	.loc 1 179 4
	j	.L44
.L51:
	.loc 1 181 10
	lw	a5,-28(s0)
	ori	a5,a5,8
	sw	a5,-28(s0)
	.loc 1 182 4
	j	.L44
.L50:
	.loc 1 184 10
	lw	a5,-28(s0)
	ori	a5,a5,32
	sw	a5,-28(s0)
	.loc 1 185 4
	j	.L44
.L46:
	.loc 1 187 10
	lw	a5,-28(s0)
	ori	a5,a5,1
	sw	a5,-28(s0)
	.loc 1 188 4
	j	.L44
.L45:
	.loc 1 192 15
	li	a5,-1
	sw	a5,-76(s0)
	.loc 1 193 9
	ld	a5,-104(s0)
	lbu	a5,0(a5)
	.loc 1 193 6
	mv	a4,a5
	li	a5,47
	bleu	a4,a5,.L52
	.loc 1 193 26 discriminator 1
	ld	a5,-104(s0)
	lbu	a5,0(a5)
	.loc 1 193 22 discriminator 1
	mv	a4,a5
	li	a5,57
	bgtu	a4,a5,.L52
	.loc 1 194 10
	addi	a5,s0,-76
	mv	a1,a5
	ld	a0,-104(s0)
	call	scan_number
	sd	a0,-104(s0)
	.loc 1 194 8
	j	.L53
.L52:
	.loc 1 195 14
	ld	a5,-104(s0)
	lbu	a5,0(a5)
	.loc 1 195 13
	mv	a4,a5
	li	a5,42
	bne	a4,a5,.L53
	.loc 1 196 40
	ld	a5,-112(s0)
	addi	a4,a5,8
	sd	a4,-112(s0)
	lw	a5,0(a5)
	.loc 1 196 16
	sw	a5,-76(s0)
	.loc 1 197 20
	lw	a5,-76(s0)
	.loc 1 197 7
	bge	a5,zero,.L53
	.loc 1 198 19
	lw	a5,-76(s0)
	negw	a5,a5
	sext.w	a5,a5
	.loc 1 198 17
	sw	a5,-76(s0)
	.loc 1 199 11
	lw	a5,-28(s0)
	ori	a5,a5,16
	sw	a5,-28(s0)
.L53:
	.loc 1 204 13
	li	a5,-1
	sw	a5,-80(s0)
	.loc 1 205 7
	ld	a5,-104(s0)
	lbu	a5,0(a5)
	.loc 1 205 6
	mv	a4,a5
	li	a5,46
	bne	a4,a5,.L54
	.loc 1 206 4
	ld	a5,-104(s0)
	addi	a5,a5,1
	sd	a5,-104(s0)
	.loc 1 207 10
	ld	a5,-104(s0)
	lbu	a5,0(a5)
	.loc 1 207 7
	mv	a4,a5
	li	a5,47
	bleu	a4,a5,.L55
	.loc 1 207 27 discriminator 1
	ld	a5,-104(s0)
	lbu	a5,0(a5)
	.loc 1 207 23 discriminator 1
	mv	a4,a5
	li	a5,57
	bgtu	a4,a5,.L55
	.loc 1 208 11
	addi	a5,s0,-80
	mv	a1,a5
	ld	a0,-104(s0)
	call	scan_number
	sd	a0,-104(s0)
	.loc 1 208 9
	j	.L56
.L55:
	.loc 1 209 13
	ld	a5,-104(s0)
	lbu	a5,0(a5)
	.loc 1 209 12
	mv	a4,a5
	li	a5,42
	bne	a4,a5,.L56
	.loc 1 210 39
	ld	a5,-112(s0)
	addi	a4,a5,8
	sd	a4,-112(s0)
	lw	a5,0(a5)
	.loc 1 210 15
	sw	a5,-80(s0)
.L56:
	.loc 1 211 18
	lw	a5,-80(s0)
	.loc 1 211 7
	bge	a5,zero,.L54
	.loc 1 212 15
	sw	zero,-80(s0)
.L54:
	.loc 1 219 13
	li	a5,-1
	sw	a5,-32(s0)
	.loc 1 220 7
	ld	a5,-104(s0)
	lbu	a5,0(a5)
	.loc 1 220 6
	mv	a4,a5
	li	a5,104
	beq	a4,a5,.L57
	.loc 1 220 22 discriminator 1
	ld	a5,-104(s0)
	lbu	a5,0(a5)
	.loc 1 220 19 discriminator 1
	mv	a4,a5
	li	a5,108
	beq	a4,a5,.L57
	.loc 1 220 37 discriminator 2
	ld	a5,-104(s0)
	lbu	a5,0(a5)
	.loc 1 220 34 discriminator 2
	mv	a4,a5
	li	a5,76
	bne	a4,a5,.L58
.L57:
	.loc 1 221 16
	ld	a5,-104(s0)
	lbu	a5,0(a5)
	.loc 1 221 14
	sw	a5,-32(s0)
	.loc 1 222 4
	ld	a5,-104(s0)
	addi	a5,a5,1
	sd	a5,-104(s0)
	.loc 1 224 7
	lw	a5,-32(s0)
	sext.w	a4,a5
	li	a5,108
	bne	a4,a5,.L58
	.loc 1 224 28 discriminator 1
	ld	a5,-104(s0)
	lbu	a5,0(a5)
	.loc 1 224 25 discriminator 1
	mv	a4,a5
	li	a5,108
	bne	a4,a5,.L58
	.loc 1 225 15
	li	a5,76
	sw	a5,-32(s0)
	.loc 1 226 5
	ld	a5,-104(s0)
	addi	a5,a5,1
	sd	a5,-104(s0)
.L58:
	.loc 1 230 11
	ld	a5,-104(s0)
	lbu	a5,0(a5)
	sext.w	a5,a5
	addiw	a3,a5,-88
	sext.w	a4,a3
	li	a5,32
	bgtu	a4,a5,.L59
	slli	a5,a3,32
	srli	a5,a5,32
	slli	a4,a5,2
	lla	a5,.L61
	add	a5,a4,a5
	lw	a5,0(a5)
	sext.w	a4,a5
	lla	a5,.L61
	add	a5,a4,a5
	jr	a5
	.section	.rodata
	.align	2
	.align	2
.L61:
	.word	.L69-.L61
	.word	.L59-.L61
	.word	.L59-.L61
	.word	.L59-.L61
	.word	.L59-.L61
	.word	.L59-.L61
	.word	.L59-.L61
	.word	.L59-.L61
	.word	.L59-.L61
	.word	.L59-.L61
	.word	.L59-.L61
	.word	.L68-.L61
	.word	.L67-.L61
	.word	.L59-.L61
	.word	.L59-.L61
	.word	.L59-.L61
	.word	.L59-.L61
	.word	.L67-.L61
	.word	.L59-.L61
	.word	.L59-.L61
	.word	.L59-.L61
	.word	.L59-.L61
	.word	.L66-.L61
	.word	.L65-.L61
	.word	.L64-.L61
	.word	.L59-.L61
	.word	.L59-.L61
	.word	.L63-.L61
	.word	.L59-.L61
	.word	.L62-.L61
	.word	.L59-.L61
	.word	.L59-.L61
	.word	.L60-.L61
	.text
.L68:
	.loc 1 233 16
	lw	a5,-28(s0)
	andi	a5,a5,16
	sext.w	a5,a5
	.loc 1 233 7
	bne	a5,zero,.L70
	.loc 1 234 11
	j	.L71
.L72:
	.loc 1 235 10
	ld	a5,-24(s0)
	addi	a4,a5,1
	sd	a4,-24(s0)
	.loc 1 235 13
	li	a4,32
	sb	a4,0(a5)
.L71:
	.loc 1 234 12
	lw	a5,-76(s0)
	addiw	a5,a5,-1
	sext.w	a5,a5
	.loc 1 234 11
	sw	a5,-76(s0)
	.loc 1 234 12
	lw	a5,-76(s0)
	.loc 1 234 11
	bgt	a5,zero,.L72
.L70:
	.loc 1 236 50
	ld	a5,-112(s0)
	addi	a4,a5,8
	sd	a4,-112(s0)
	lw	a3,0(a5)
	.loc 1 236 8
	ld	a5,-24(s0)
	addi	a4,a5,1
	sd	a4,-24(s0)
	.loc 1 236 13
	andi	a4,a3,0xff
	.loc 1 236 11
	sb	a4,0(a5)
	.loc 1 237 10
	j	.L73
.L74:
	.loc 1 238 9
	ld	a5,-24(s0)
	addi	a4,a5,1
	sd	a4,-24(s0)
	.loc 1 238 12
	li	a4,32
	sb	a4,0(a5)
.L73:
	.loc 1 237 11
	lw	a5,-76(s0)
	addiw	a5,a5,-1
	sext.w	a5,a5
	.loc 1 237 10
	sw	a5,-76(s0)
	.loc 1 237 11
	lw	a5,-76(s0)
	.loc 1 237 10
	bgt	a5,zero,.L74
	.loc 1 240 4
	j	.L43
.L63:
	.loc 1 244 6
	ld	a5,-112(s0)
	addi	a4,a5,8
	sd	a4,-112(s0)
	ld	a5,0(a5)
	sd	a5,-40(s0)
	.loc 1 245 7
	ld	a5,-40(s0)
	bne	a5,zero,.L75
	.loc 1 246 7
	lla	a5,.LC2
	sd	a5,-40(s0)
.L75:
	.loc 1 247 10
	ld	a0,-40(s0)
	call	strlen
	mv	a5,a0
	.loc 1 247 8
	sw	a5,-48(s0)
	.loc 1 248 18
	lw	a5,-80(s0)
	.loc 1 248 7
	bge	a5,zero,.L76
	.loc 1 249 15
	lw	a5,-48(s0)
	sw	a5,-80(s0)
	j	.L77
.L76:
	.loc 1 250 17
	lw	a4,-80(s0)
	.loc 1 250 12
	lw	a5,-48(s0)
	sext.w	a5,a5
	ble	a5,a4,.L77
	.loc 1 251 9
	lw	a5,-80(s0)
	sw	a5,-48(s0)
.L77:
	.loc 1 253 16
	lw	a5,-28(s0)
	andi	a5,a5,16
	sext.w	a5,a5
	.loc 1 253 7
	bne	a5,zero,.L78
	.loc 1 254 11
	j	.L79
.L80:
	.loc 1 255 10
	ld	a5,-24(s0)
	addi	a4,a5,1
	sd	a4,-24(s0)
	.loc 1 255 13
	li	a4,32
	sb	a4,0(a5)
.L79:
	.loc 1 254 29
	lw	a5,-76(s0)
	addiw	a4,a5,-1
	sext.w	a4,a4
	sw	a4,-76(s0)
	.loc 1 254 11
	lw	a4,-48(s0)
	sext.w	a4,a4
	blt	a4,a5,.L80
.L78:
	.loc 1 256 11
	sw	zero,-44(s0)
	.loc 1 256 4
	j	.L81
.L82:
	.loc 1 257 16 discriminator 3
	ld	a4,-40(s0)
	addi	a5,a4,1
	sd	a5,-40(s0)
	.loc 1 257 9 discriminator 3
	ld	a5,-24(s0)
	addi	a3,a5,1
	sd	a3,-24(s0)
	.loc 1 257 14 discriminator 3
	lbu	a4,0(a4)
	.loc 1 257 12 discriminator 3
	sb	a4,0(a5)
	.loc 1 256 26 discriminator 3
	lw	a5,-44(s0)
	addiw	a5,a5,1
	sw	a5,-44(s0)
.L81:
	.loc 1 256 4 discriminator 1
	lw	a4,-44(s0)
	lw	a5,-48(s0)
	sext.w	a4,a4
	sext.w	a5,a5
	blt	a4,a5,.L82
	.loc 1 258 10
	j	.L83
.L84:
	.loc 1 259 9
	ld	a5,-24(s0)
	addi	a4,a5,1
	sd	a4,-24(s0)
	.loc 1 259 12
	li	a4,32
	sb	a4,0(a5)
.L83:
	.loc 1 258 28
	lw	a5,-76(s0)
	addiw	a4,a5,-1
	sext.w	a4,a4
	sw	a4,-76(s0)
	.loc 1 258 10
	lw	a4,-48(s0)
	sext.w	a4,a4
	blt	a4,a5,.L84
	.loc 1 260 4
	j	.L43
.L66:
	.loc 1 267 7
	ld	a5,-112(s0)
	addi	a4,a5,8
	sd	a4,-112(s0)
	ld	a5,0(a5)
	sd	a5,-72(s0)
	.loc 1 268 15
	ld	a4,-24(s0)
	ld	a5,-88(s0)
	sub	a5,a4,a5
	.loc 1 268 8
	andi	a4,a5,0xff
	ld	a5,-72(s0)
	sb	a4,0(a5)
	.loc 1 269 4
	j	.L43
.L64:
	.loc 1 275 20
	lw	a5,-76(s0)
	.loc 1 275 7
	mv	a4,a5
	li	a5,-1
	bne	a4,a5,.L85
	.loc 1 276 17
	li	a5,16
	sw	a5,-76(s0)
	.loc 1 277 11
	lw	a5,-28(s0)
	ori	a5,a5,1
	sw	a5,-28(s0)
.L85:
	.loc 1 280 42
	ld	a5,-112(s0)
	addi	a4,a5,8
	sd	a4,-112(s0)
	ld	a5,0(a5)
	.loc 1 279 10
	mv	a1,a5
	lw	a3,-76(s0)
	lw	a4,-80(s0)
	lw	a5,-28(s0)
	li	a2,16
	ld	a0,-24(s0)
	call	number
	sd	a0,-24(s0)
	.loc 1 282 4
	j	.L43
.L65:
	.loc 1 286 9
	li	a5,8
	sw	a5,-60(s0)
	.loc 1 287 4
	j	.L86
.L60:
	.loc 1 290 10
	lw	a5,-28(s0)
	ori	a5,a5,64
	sw	a5,-28(s0)
.L69:
	.loc 1 292 9
	li	a5,16
	sw	a5,-60(s0)
	.loc 1 293 4
	j	.L86
.L67:
	.loc 1 297 10
	lw	a5,-28(s0)
	ori	a5,a5,2
	sw	a5,-28(s0)
.L62:
	.loc 1 300 9
	li	a5,10
	sw	a5,-60(s0)
	.loc 1 301 4
	j	.L86
.L59:
	.loc 1 304 8
	ld	a5,-104(s0)
	lbu	a5,0(a5)
	.loc 1 304 7
	mv	a4,a5
	li	a5,37
	beq	a4,a5,.L87
	.loc 1 305 9
	ld	a5,-24(s0)
	addi	a4,a5,1
	sd	a4,-24(s0)
	.loc 1 305 12
	li	a4,37
	sb	a4,0(a5)
.L87:
	.loc 1 306 8
	ld	a5,-104(s0)
	lbu	a5,0(a5)
	.loc 1 306 7
	beq	a5,zero,.L88
	.loc 1 307 9
	ld	a5,-24(s0)
	addi	a4,a5,1
	sd	a4,-24(s0)
	.loc 1 307 14
	ld	a4,-104(s0)
	lbu	a4,0(a4)
	.loc 1 307 12
	sb	a4,0(a5)
	.loc 1 310 4
	j	.L100
.L88:
	.loc 1 309 5
	ld	a5,-104(s0)
	addi	a5,a5,-1
	sd	a5,-104(s0)
.L100:
	.loc 1 310 4
	nop
.L86:
	.loc 1 313 6
	lw	a5,-32(s0)
	sext.w	a4,a5
	li	a5,76
	bne	a4,a5,.L90
	.loc 1 314 14
	lw	a5,-28(s0)
	andi	a5,a5,2
	sext.w	a5,a5
	.loc 1 314 7
	beq	a5,zero,.L91
	.loc 1 315 33
	ld	a5,-112(s0)
	addi	a4,a5,8
	sd	a4,-112(s0)
	ld	a5,0(a5)
	.loc 1 315 9
	sd	a5,-56(s0)
	j	.L92
.L91:
	.loc 1 317 33
	ld	a5,-112(s0)
	addi	a4,a5,8
	sd	a4,-112(s0)
	ld	a5,0(a5)
	.loc 1 317 9
	sd	a5,-56(s0)
	j	.L92
.L90:
	.loc 1 318 13
	lw	a5,-32(s0)
	sext.w	a4,a5
	li	a5,104
	bne	a4,a5,.L93
	.loc 1 319 14
	lw	a5,-28(s0)
	andi	a5,a5,2
	sext.w	a5,a5
	.loc 1 319 7
	beq	a5,zero,.L94
	.loc 1 320 40
	ld	a5,-112(s0)
	addi	a4,a5,8
	sd	a4,-112(s0)
	lw	a5,0(a5)
	.loc 1 320 11
	slliw	a5,a5,16
	sraiw	a5,a5,16
	.loc 1 320 9
	sd	a5,-56(s0)
	j	.L92
.L94:
	.loc 1 322 49
	ld	a5,-112(s0)
	addi	a4,a5,8
	sd	a4,-112(s0)
	lw	a5,0(a5)
	.loc 1 322 11
	slli	a5,a5,48
	srli	a5,a5,48
	.loc 1 322 9
	sd	a5,-56(s0)
	j	.L92
.L93:
	.loc 1 323 13
	lw	a5,-32(s0)
	sext.w	a4,a5
	li	a5,108
	bne	a4,a5,.L95
	.loc 1 324 14
	lw	a5,-28(s0)
	andi	a5,a5,2
	sext.w	a5,a5
	.loc 1 324 7
	beq	a5,zero,.L96
	.loc 1 325 33
	ld	a5,-112(s0)
	addi	a4,a5,8
	sd	a4,-112(s0)
	ld	a5,0(a5)
	.loc 1 325 9
	sd	a5,-56(s0)
	j	.L92
.L96:
	.loc 1 327 9
	ld	a5,-112(s0)
	addi	a4,a5,8
	sd	a4,-112(s0)
	ld	a5,0(a5)
	sd	a5,-56(s0)
	j	.L92
.L95:
	.loc 1 329 14
	lw	a5,-28(s0)
	andi	a5,a5,2
	sext.w	a5,a5
	.loc 1 329 7
	beq	a5,zero,.L97
	.loc 1 330 11
	ld	a5,-112(s0)
	addi	a4,a5,8
	sd	a4,-112(s0)
	lw	a5,0(a5)
	.loc 1 330 9
	sd	a5,-56(s0)
	j	.L92
.L97:
	.loc 1 332 33
	ld	a5,-112(s0)
	addi	a4,a5,8
	sd	a4,-112(s0)
	lw	a5,0(a5)
	.loc 1 332 9
	slli	a5,a5,32
	srli	a5,a5,32
	sd	a5,-56(s0)
.L92:
	.loc 1 334 9
	lw	a3,-76(s0)
	lw	a4,-80(s0)
	lw	a5,-28(s0)
	lw	a2,-60(s0)
	ld	a1,-56(s0)
	ld	a0,-24(s0)
	call	number
	sd	a0,-24(s0)
.L43:
	.loc 1 163 18
	ld	a5,-104(s0)
	addi	a5,a5,1
	sd	a5,-104(s0)
.L41:
	.loc 1 163 9 discriminator 1
	ld	a5,-104(s0)
	lbu	a5,0(a5)
	.loc 1 163 2 discriminator 1
	bne	a5,zero,.L98
	.loc 1 337 7
	ld	a5,-24(s0)
	sb	zero,0(a5)
	.loc 1 338 13
	ld	a4,-24(s0)
	ld	a5,-88(s0)
	sub	a5,a4,a5
	sext.w	a5,a5
	.loc 1 339 1
	mv	a0,a5
	ld	ra,104(sp)
	.cfi_restore 1
	ld	s0,96(sp)
	.cfi_restore 8
	.cfi_def_cfa 2, 112
	addi	sp,sp,112
	.cfi_def_cfa_offset 0
	jr	ra
	.cfi_endproc
.LFE2:
	.size	myprintf, .-myprintf
	.align	2
	.globl	init_printk_done
	.type	init_printk_done, @function
init_printk_done:
.LFB3:
	.loc 1 342 1
	.cfi_startproc
	addi	sp,sp,-32
	.cfi_def_cfa_offset 32
	sd	ra,24(sp)
	sd	s0,16(sp)
	.cfi_offset 1, -8
	.cfi_offset 8, -16
	addi	s0,sp,32
	.cfi_def_cfa 8, 0
	.loc 1 345 18
	lla	a5,g_printk_status
	li	a4,1
	sw	a4,0(a5)
	.loc 1 347 9
	sd	zero,-24(s0)
	.loc 1 347 2
	j	.L102
.L103:
	.loc 1 348 18 discriminator 3
	lla	a4,log_buf
	ld	a5,-24(s0)
	add	a5,a4,a5
	lbu	a5,0(a5)
	.loc 1 348 3 discriminator 3
	sext.w	a5,a5
	mv	a0,a5
	call	putchar
	.loc 1 347 33 discriminator 3
	ld	a5,-24(s0)
	addi	a5,a5,1
	sd	a5,-24(s0)
.L102:
	.loc 1 347 16 discriminator 1
	lla	a5,g_record_len
	ld	a5,0(a5)
	.loc 1 347 2 discriminator 1
	ld	a4,-24(s0)
	bltu	a4,a5,.L103
	.loc 1 350 11
	lla	a5,g_record
	lla	a4,log_buf
	sd	a4,0(a5)
	.loc 1 351 15
	lla	a5,g_record_len
	sd	zero,0(a5)
	.loc 1 352 1
	nop
	ld	ra,24(sp)
	.cfi_restore 1
	ld	s0,16(sp)
	.cfi_restore 8
	.cfi_def_cfa 2, 32
	addi	sp,sp,32
	.cfi_def_cfa_offset 0
	jr	ra
	.cfi_endproc
.LFE3:
	.size	init_printk_done, .-init_printk_done
	.align	2
	.globl	printk
	.type	printk, @function
printk:
.LFB4:
	.loc 1 355 1
	.cfi_startproc
	addi	sp,sp,-112
	.cfi_def_cfa_offset 112
	sd	ra,40(sp)
	sd	s0,32(sp)
	.cfi_offset 1, -72
	.cfi_offset 8, -80
	addi	s0,sp,48
	.cfi_def_cfa 8, 64
	sd	a0,-40(s0)
	sd	a1,8(s0)
	sd	a2,16(s0)
	sd	a3,24(s0)
	sd	a4,32(s0)
	sd	a5,40(s0)
	sd	a6,48(s0)
	sd	a7,56(s0)
	.loc 1 360 2
	addi	a5,s0,64
	sd	a5,-48(s0)
	ld	a5,-48(s0)
	addi	a5,a5,-56
	sd	a5,-32(s0)
	.loc 1 361 8
	ld	a5,-32(s0)
	mv	a3,a5
	ld	a2,-40(s0)
	li	a1,256
	lla	a0,print_buf
	call	myprintf
	mv	a5,a0
	sw	a5,-24(s0)
	.loc 1 365 22
	lla	a5,g_printk_status
	lw	a5,0(a5)
	.loc 1 365 5
	bne	a5,zero,.L105
	.loc 1 366 3
	lla	a5,g_record
	ld	a5,0(a5)
	lw	a4,-24(s0)
	mv	a2,a4
	lla	a1,print_buf
	mv	a0,a5
	call	memcpy
	.loc 1 367 22
	lw	a4,-24(s0)
	lla	a5,log_buf
	add	a4,a4,a5
	.loc 1 367 12
	lla	a5,g_record
	sd	a4,0(a5)
	.loc 1 368 16
	lw	a4,-24(s0)
	lla	a5,g_record_len
	ld	a5,0(a5)
	add	a4,a4,a5
	lla	a5,g_record_len
	sd	a4,0(a5)
	.loc 1 370 10
	li	a5,0
	j	.L112
.L105:
	.loc 1 373 9
	sw	zero,-20(s0)
	.loc 1 373 2
	j	.L107
.L111:
	.loc 1 374 22
	lla	a4,print_buf
	lw	a5,-20(s0)
	add	a5,a4,a5
	lbu	a5,0(a5)
	.loc 1 374 12
	mv	a4,a5
	li	a5,10
	bne	a4,a5,.L108
	.loc 1 375 13
	li	a0,13
	call	putchar
.L108:
	.loc 1 376 20
	lla	a4,print_buf
	lw	a5,-20(s0)
	add	a5,a4,a5
	lbu	a5,0(a5)
	.loc 1 376 3
	sext.w	a5,a5
	mv	a0,a5
	call	putchar
	.loc 1 377 9
	lw	a5,-20(s0)
	.loc 1 377 6
	mv	a4,a5
	li	a5,256
	bgtu	a4,a5,.L113
	.loc 1 373 24 discriminator 2
	lw	a5,-20(s0)
	addiw	a5,a5,1
	sw	a5,-20(s0)
.L107:
	.loc 1 373 2 discriminator 1
	lw	a4,-20(s0)
	lw	a5,-24(s0)
	sext.w	a4,a4
	sext.w	a5,a5
	blt	a4,a5,.L111
	j	.L110
.L113:
	.loc 1 378 4
	nop
.L110:
	.loc 1 380 9
	lw	a5,-24(s0)
.L112:
	.loc 1 381 1 discriminator 1
	mv	a0,a5
	ld	ra,40(sp)
	.cfi_restore 1
	ld	s0,32(sp)
	.cfi_restore 8
	.cfi_def_cfa 2, 112
	addi	sp,sp,112
	.cfi_def_cfa_offset 0
	jr	ra
	.cfi_endproc
.LFE4:
	.size	printk, .-printk
.Letext0:
	.file 2 "include/stdarg.h"