	.file	"sys-uart.c"
	.option nopic
	.attribute arch, "rv64i2p0_m2p0_a2p0_f2p0_d2p0"
	.attribute unaligned_access, 0
	.attribute stack_align, 16
	.text
.Ltext0:
	.cfi_sections	.debug_frame
	.align	2
	.type	read8, @function
read8:
.LFB0:
	.file 1 "include/io.h"
	.loc 1 11 1
	.cfi_startproc
	addi	sp,sp,-32
	.cfi_def_cfa_offset 32
	sd	s0,24(sp)
	.cfi_offset 8, -8
	addi	s0,sp,32
	.cfi_def_cfa 8, 0
	sd	a0,-24(s0)
	.loc 1 12 12
	ld	a5,-24(s0)
	.loc 1 12 10
	lbu	a5,0(a5)
	andi	a5,a5,0xff
	.loc 1 13 1
	mv	a0,a5
	ld	s0,24(sp)
	.cfi_restore 8
	.cfi_def_cfa 2, 32
	addi	sp,sp,32
	.cfi_def_cfa_offset 0
	jr	ra
	.cfi_endproc
.LFE0:
	.size	read8, .-read8
	.align	2
	.type	read32, @function
read32:
.LFB2:
	.loc 1 21 1
	.cfi_startproc
	addi	sp,sp,-32
	.cfi_def_cfa_offset 32
	sd	s0,24(sp)
	.cfi_offset 8, -8
	addi	s0,sp,32
	.cfi_def_cfa 8, 0
	sd	a0,-24(s0)
	.loc 1 22 12
	ld	a5,-24(s0)
	.loc 1 22 10
	lw	a5,0(a5)
	sext.w	a5,a5
	.loc 1 23 1
	mv	a0,a5
	ld	s0,24(sp)
	.cfi_restore 8
	.cfi_def_cfa 2, 32
	addi	sp,sp,32
	.cfi_def_cfa_offset 0
	jr	ra
	.cfi_endproc
.LFE2:
	.size	read32, .-read32
	.align	2
	.type	write32, @function
write32:
.LFB6:
	.loc 1 41 1
	.cfi_startproc
	addi	sp,sp,-32
	.cfi_def_cfa_offset 32
	sd	s0,24(sp)
	.cfi_offset 8, -8
	addi	s0,sp,32
	.cfi_def_cfa 8, 0
	sd	a0,-24(s0)
	mv	a5,a1
	sw	a5,-28(s0)
	.loc 1 42 4
	ld	a5,-24(s0)
	.loc 1 42 30
	lw	a4,-28(s0)
	sw	a4,0(a5)
	.loc 1 43 1
	nop
	ld	s0,24(sp)
	.cfi_restore 8
	.cfi_def_cfa 2, 32
	addi	sp,sp,32
	.cfi_def_cfa_offset 0
	jr	ra
	.cfi_endproc
.LFE6:
	.size	write32, .-write32
	.align	2
	.globl	uart_init
	.type	uart_init, @function
uart_init:
.LFB14:
	.file 2 "src/sys-uart.c"
	.loc 2 32 1
	.cfi_startproc
	addi	sp,sp,-32
	.cfi_def_cfa_offset 32
	sd	ra,24(sp)
	sd	s0,16(sp)
	.cfi_offset 1, -8
	.cfi_offset 8, -16
	addi	s0,sp,32
	.cfi_def_cfa 8, 0
	.loc 2 49 14
	li	a5,33554432
	addi	a5,a5,240
	sd	a5,-24(s0)
	.loc 2 50 15
	ld	a0,-24(s0)
	call	read32
	mv	a5,a0
	sw	a5,-28(s0)
	.loc 2 51 13
	lw	a4,-28(s0)
	li	a5,-4096
	addi	a5,a5,255
	and	a5,a4,a5
	sw	a5,-28(s0)
	.loc 2 52 13
	lw	a5,-28(s0)
	ori	a5,a5,768
	sw	a5,-28(s0)
	.loc 2 53 9
	lw	a5,-28(s0)
	mv	a1,a5
	ld	a0,-24(s0)
	call	write32
	.loc 2 55 15
	ld	a0,-24(s0)
	call	read32
	mv	a5,a0
	sw	a5,-28(s0)
	.loc 2 56 13
	lw	a4,-28(s0)
	li	a5,-983040
	addi	a5,a5,-1
	and	a5,a4,a5
	sw	a5,-28(s0)
	.loc 2 57 13
	lw	a4,-28(s0)
	li	a5,196608
	or	a5,a4,a5
	sw	a5,-28(s0)
	.loc 2 58 9
	lw	a5,-28(s0)
	mv	a1,a5
	ld	a0,-24(s0)
	call	write32
	.loc 2 61 7
	li	a5,33562624
	addi	a5,a5,-1780
	sd	a5,-24(s0)
	.loc 2 62 8
	ld	a0,-24(s0)
	call	read32
	mv	a5,a0
	sw	a5,-28(s0)
	.loc 2 63 6
	lw	a5,-28(s0)
	ori	a5,a5,1
	sw	a5,-28(s0)
	.loc 2 64 2
	lw	a5,-28(s0)
	mv	a1,a5
	ld	a0,-24(s0)
	call	write32
	.loc 2 67 7
	li	a5,33562624
	addi	a5,a5,-1780
	sd	a5,-24(s0)
	.loc 2 68 8
	ld	a0,-24(s0)
	call	read32
	mv	a5,a0
	sw	a5,-28(s0)
	.loc 2 69 6
	lw	a4,-28(s0)
	li	a5,65536
	or	a5,a4,a5
	sw	a5,-28(s0)
	.loc 2 70 2
	lw	a5,-28(s0)
	mv	a1,a5
	ld	a0,-24(s0)
	call	write32
	.loc 2 73 7
	li	a5,38797312
	sd	a5,-24(s0)
	.loc 2 74 2
	ld	a5,-24(s0)
	addi	a5,a5,4
	li	a1,0
	mv	a0,a5
	call	write32
	.loc 2 75 2
	ld	a5,-24(s0)
	addi	a5,a5,8
	li	a1,241
	mv	a0,a5
	call	write32
	.loc 2 77 2
	ld	a5,-24(s0)
	addi	a5,a5,16
	li	a1,0
	mv	a0,a5
	call	write32
	.loc 2 78 8
	ld	a5,-24(s0)
	addi	a5,a5,12
	mv	a0,a5
	call	read32
	mv	a5,a0
	sw	a5,-28(s0)
	.loc 2 79 6
	lw	a5,-28(s0)
	ori	a5,a5,128
	sw	a5,-28(s0)
	.loc 2 80 2
	ld	a5,-24(s0)
	addi	a5,a5,12
	lw	a4,-28(s0)
	mv	a1,a4
	mv	a0,a5
	call	write32
	.loc 2 81 2
	li	a1,13
	ld	a0,-24(s0)
	call	write32
	.loc 2 82 2
	ld	a5,-24(s0)
	addi	a5,a5,4
	li	a1,0
	mv	a0,a5
	call	write32
	.loc 2 83 8
	ld	a5,-24(s0)
	addi	a5,a5,12
	mv	a0,a5
	call	read32
	mv	a5,a0
	sw	a5,-28(s0)
	.loc 2 84 6
	lw	a5,-28(s0)
	andi	a5,a5,-129
	sw	a5,-28(s0)
	.loc 2 85 2
	ld	a5,-24(s0)
	addi	a5,a5,12
	lw	a4,-28(s0)
	mv	a1,a4
	mv	a0,a5
	call	write32
	.loc 2 86 8
	ld	a5,-24(s0)
	addi	a5,a5,12
	mv	a0,a5
	call	read32
	mv	a5,a0
	sw	a5,-28(s0)
	.loc 2 87 6
	lw	a5,-28(s0)
	andi	a5,a5,-32
	sw	a5,-28(s0)
	.loc 2 88 6
	lw	a5,-28(s0)
	ori	a5,a5,3
	sw	a5,-28(s0)
	.loc 2 89 2
	ld	a5,-24(s0)
	addi	a5,a5,12
	lw	a4,-28(s0)
	mv	a1,a4
	mv	a0,a5
	call	write32
	.loc 2 90 1
	nop
	ld	ra,24(sp)
	.cfi_restore 1
	ld	s0,16(sp)
	.cfi_restore 8
	.cfi_def_cfa 2, 32
	addi	sp,sp,32
	.cfi_def_cfa_offset 0
	jr	ra
	.cfi_endproc
.LFE14:
	.size	uart_init, .-uart_init
	.align	2
	.globl	uart_send
	.type	uart_send, @function
uart_send:
.LFB15:
	.loc 2 93 1
	.cfi_startproc
	addi	sp,sp,-48
	.cfi_def_cfa_offset 48
	sd	ra,40(sp)
	sd	s0,32(sp)
	.cfi_offset 1, -8
	.cfi_offset 8, -16
	addi	s0,sp,48
	.cfi_def_cfa 8, 0
	mv	a5,a0
	sb	a5,-33(s0)
	.loc 2 94 17
	li	a5,38797312
	sd	a5,-24(s0)
	.loc 2 96 7
	nop
.L8:
	.loc 2 96 9 discriminator 1
	ld	a5,-24(s0)
	addi	a5,a5,124
	mv	a0,a5
	call	read32
	mv	a5,a0
	sext.w	a5,a5
	.loc 2 96 29 discriminator 1
	andi	a5,a5,2
	sext.w	a5,a5
	.loc 2 96 7 discriminator 1
	beq	a5,zero,.L8
	.loc 2 97 2
	lbu	a5,-33(s0)
	sext.w	a5,a5
	mv	a1,a5
	ld	a0,-24(s0)
	call	write32
	.loc 2 98 1
	nop
	ld	ra,40(sp)
	.cfi_restore 1
	ld	s0,32(sp)
	.cfi_restore 8
	.cfi_def_cfa 2, 48
	addi	sp,sp,48
	.cfi_def_cfa_offset 0
	jr	ra
	.cfi_endproc
.LFE15:
	.size	uart_send, .-uart_send
	.align	2
	.globl	putchar
	.type	putchar, @function
putchar:
.LFB16:
	.loc 2 101 1
	.cfi_startproc
	addi	sp,sp,-32
	.cfi_def_cfa_offset 32
	sd	ra,24(sp)
	sd	s0,16(sp)
	.cfi_offset 1, -8
	.cfi_offset 8, -16
	addi	s0,sp,32
	.cfi_def_cfa 8, 0
	mv	a5,a0
	sw	a5,-20(s0)
	.loc 2 102 2
	lw	a5,-20(s0)
	andi	a5,a5,0xff
	mv	a0,a5
	call	uart_send
	.loc 2 103 9
	lw	a5,-20(s0)
	.loc 2 104 1
	mv	a0,a5
	ld	ra,24(sp)
	.cfi_restore 1
	ld	s0,16(sp)
	.cfi_restore 8
	.cfi_def_cfa 2, 32
	addi	sp,sp,32
	.cfi_def_cfa_offset 0
	jr	ra
	.cfi_endproc
.LFE16:
	.size	putchar, .-putchar
	.align	2
	.globl	uart_recv
	.type	uart_recv, @function
uart_recv:
.LFB17:
	.loc 2 107 1
	.cfi_startproc
	addi	sp,sp,-32
	.cfi_def_cfa_offset 32
	sd	ra,24(sp)
	sd	s0,16(sp)
	.cfi_offset 1, -8
	.cfi_offset 8, -16
	addi	s0,sp,32
	.cfi_def_cfa 8, 0
	.loc 2 108 17
	li	a5,38797312
	sd	a5,-24(s0)
	.loc 2 110 7
	nop
.L12:
	.loc 2 110 9 discriminator 1
	ld	a5,-24(s0)
	addi	a5,a5,124
	mv	a0,a5
	call	read32
	mv	a5,a0
	sext.w	a5,a5
	.loc 2 110 29 discriminator 1
	andi	a5,a5,8
	sext.w	a5,a5
	.loc 2 110 7 discriminator 1
	beq	a5,zero,.L12
	.loc 2 111 9
	ld	a0,-24(s0)
	call	read8
	mv	a5,a0
	.loc 2 112 1
	mv	a0,a5
	ld	ra,24(sp)
	.cfi_restore 1
	ld	s0,16(sp)
	.cfi_restore 8
	.cfi_def_cfa 2, 32
	addi	sp,sp,32
	.cfi_def_cfa_offset 0
	jr	ra
	.cfi_endproc
.LFE17:
	.size	uart_recv, .-uart_recv
	.align	2
	.globl	uart_send_string
	.type	uart_send_string, @function
uart_send_string:
.LFB18:
	.loc 2 115 1
	.cfi_startproc
	addi	sp,sp,-48
	.cfi_def_cfa_offset 48
	sd	ra,40(sp)
	sd	s0,32(sp)
	.cfi_offset 1, -8
	.cfi_offset 8, -16
	addi	s0,sp,48
	.cfi_def_cfa 8, 0
	sd	a0,-40(s0)
	.loc 2 118 12
	sw	zero,-20(s0)
	.loc 2 118 5
	j	.L15
.L17:
	.loc 2 120 16
	lw	a5,-20(s0)
	ld	a4,-40(s0)
	add	a5,a4,a5
	lbu	a5,0(a5)
	.loc 2 120 12
	mv	a4,a5
	li	a5,10
	bne	a4,a5,.L16
	.loc 2 121 13
	li	a0,13
	call	uart_send
.L16:
	.loc 2 122 29 discriminator 2
	lw	a5,-20(s0)
	ld	a4,-40(s0)
	add	a5,a4,a5
	.loc 2 122 9 discriminator 2
	lbu	a5,0(a5)
	mv	a0,a5
	call	uart_send
	.loc 2 118 34 discriminator 2
	lw	a5,-20(s0)
	addiw	a5,a5,1
	sw	a5,-20(s0)
.L15:
	.loc 2 118 20 discriminator 1
	lw	a5,-20(s0)
	ld	a4,-40(s0)
	add	a5,a4,a5
	lbu	a5,0(a5)
	.loc 2 118 5 discriminator 1
	bne	a5,zero,.L17
	.loc 2 124 1
	nop
	nop
	ld	ra,40(sp)
	.cfi_restore 1
	ld	s0,32(sp)
	.cfi_restore 8
	.cfi_def_cfa 2, 48
	addi	sp,sp,48
	.cfi_def_cfa_offset 0
	jr	ra
	.cfi_endproc
.LFE18:
	.size	uart_send_string, .-uart_send_string
	.align	2
	.type	vpf_str_to_num, @function
vpf_str_to_num:
.LFB19:
	.loc 2 127 1
	.cfi_startproc
	addi	sp,sp,-64
	.cfi_def_cfa_offset 64
	sd	s0,56(sp)
	.cfi_offset 8, -8
	addi	s0,sp,64
	.cfi_def_cfa 8, 0
	sd	a0,-56(s0)
	sd	a1,-64(s0)
	.loc 2 131 6
	sw	zero,-28(s0)
	.loc 2 132 8
	ld	a5,-56(s0)
	sd	a5,-24(s0)
	.loc 2 132 2
	j	.L19
.L24:
	.loc 2 134 10
	ld	a5,-24(s0)
	lbu	a5,0(a5)
	.loc 2 134 20
	mv	a4,a5
	li	a5,47
	bleu	a4,a5,.L20
	.loc 2 134 23 discriminator 1
	ld	a5,-24(s0)
	lbu	a5,0(a5)
	.loc 2 134 20 discriminator 1
	mv	a4,a5
	li	a5,57
	bgtu	a4,a5,.L20
	.loc 2 134 20 is_stmt 0 discriminator 3
	li	a5,1
	j	.L21
.L20:
	.loc 2 134 20 discriminator 4
	li	a5,0
.L21:
	.loc 2 134 7 is_stmt 1 discriminator 6
	sw	a5,-32(s0)
	.loc 2 135 5 discriminator 6
	lw	a5,-32(s0)
	sext.w	a5,a5
	beq	a5,zero,.L26
	.loc 2 137 7 discriminator 2
	ld	a5,-24(s0)
	lbu	a5,0(a5)
	sext.w	a5,a5
	.loc 2 137 5 discriminator 2
	addiw	a5,a5,-48
	sw	a5,-36(s0)
	.loc 2 138 7 discriminator 2
	lw	a4,-28(s0)
	mv	a5,a4
	slliw	a5,a5,2
	addw	a5,a5,a4
	slliw	a5,a5,1
	sw	a5,-28(s0)
	.loc 2 139 7 discriminator 2
	lw	a4,-28(s0)
	lw	a5,-36(s0)
	addw	a5,a4,a5
	sw	a5,-28(s0)
	.loc 2 132 30 discriminator 2
	ld	a5,-24(s0)
	addi	a5,a5,1
	sd	a5,-24(s0)
.L19:
	.loc 2 132 15 discriminator 1
	ld	a5,-56(s0)
	lbu	a5,0(a5)
	.loc 2 132 2 discriminator 1
	bne	a5,zero,.L24
	j	.L23
.L26:
	.loc 2 136 4
	nop
.L23:
	.loc 2 141 7
	ld	a5,-64(s0)
	lw	a4,-28(s0)
	sw	a4,0(a5)
	.loc 2 142 18
	ld	a4,-24(s0)
	ld	a5,-56(s0)
	sub	a5,a4,a5
	.loc 2 142 10
	sext.w	a5,a5
	.loc 2 143 1
	mv	a0,a5
	ld	s0,56(sp)
	.cfi_restore 8
	.cfi_def_cfa 2, 64
	addi	sp,sp,64
	.cfi_def_cfa_offset 0
	jr	ra
	.cfi_endproc
.LFE19:
	.size	vpf_str_to_num, .-vpf_str_to_num
	.align	2
	.type	vpf_num_to_str, @function
vpf_num_to_str:
.LFB20:
	.loc 2 146 1
	.cfi_startproc
	addi	sp,sp,-80
	.cfi_def_cfa_offset 80
	sd	ra,72(sp)
	sd	s0,64(sp)
	.cfi_offset 1, -8
	.cfi_offset 8, -16
	addi	s0,sp,80
	.cfi_def_cfa 8, 0
	mv	a5,a0
	mv	a4,a3
	sw	a5,-68(s0)
	mv	a5,a1
	sw	a5,-72(s0)
	mv	a5,a2
	sw	a5,-76(s0)
	mv	a5,a4
	sw	a5,-80(s0)
	.loc 2 151 8
	sw	zero,-28(s0)
	.loc 2 151 2
	j	.L28
.L29:
	.loc 2 152 10 discriminator 3
	lw	a5,-80(s0)
	andi	a4,a5,0xff
	lw	a5,-28(s0)
	addi	a3,s0,-16
	add	a5,a3,a5
	sb	a4,-48(a5)
	.loc 2 151 31 discriminator 3
	lw	a5,-28(s0)
	addiw	a5,a5,1
	sw	a5,-28(s0)
.L28:
	.loc 2 151 15 discriminator 1
	lw	a5,-28(s0)
	.loc 2 151 2 discriminator 1
	mv	a4,a5
	li	a5,31
	bleu	a4,a5,.L29
	.loc 2 153 7
	li	a5,10
	sw	a5,-20(s0)
	.loc 2 154 4
	lw	a5,-72(s0)
	sext.w	a5,a5
	beq	a5,zero,.L30
	.loc 2 155 8
	li	a5,16
	sw	a5,-20(s0)
.L30:
	.loc 2 157 6
	sw	zero,-24(s0)
.L33:
	.loc 2 159 9
	lw	a4,-68(s0)
	lw	a5,-20(s0)
	remuw	a5,a4,a5
	sext.w	a5,a5
	.loc 2 159 5
	sw	a5,-32(s0)
	.loc 2 160 5
	lw	a5,-32(s0)
	sext.w	a4,a5
	li	a5,9
	ble	a4,a5,.L31
	.loc 2 161 22
	lw	a5,-32(s0)
	andi	a5,a5,0xff
	addiw	a5,a5,87
	andi	a4,a5,0xff
	.loc 2 161 13
	lw	a5,-24(s0)
	addi	a3,s0,-16
	add	a5,a3,a5
	sb	a4,-48(a5)
	j	.L32
.L31:
	.loc 2 163 17
	lw	a5,-32(s0)
	andi	a5,a5,0xff
	addiw	a5,a5,48
	andi	a4,a5,0xff
	.loc 2 163 13
	lw	a5,-24(s0)
	addi	a3,s0,-16
	add	a5,a3,a5
	sb	a4,-48(a5)
.L32:
	.loc 2 164 5
	lw	a4,-68(s0)
	lw	a5,-20(s0)
	divuw	a5,a4,a5
	sw	a5,-68(s0)
	.loc 2 165 6
	lw	a5,-24(s0)
	addiw	a5,a5,1
	sw	a5,-24(s0)
	.loc 2 166 2
	lw	a5,-68(s0)
	sext.w	a5,a5
	bne	a5,zero,.L33
	.loc 2 168 4
	lw	a5,-76(s0)
	sext.w	a5,a5
	ble	a5,zero,.L34
	.loc 2 170 9
	lw	a5,-76(s0)
	.loc 2 170 5
	mv	a4,a5
	li	a5,31
	bleu	a4,a5,.L35
	.loc 2 171 7
	li	a5,31
	sw	a5,-76(s0)
.L35:
	.loc 2 172 5
	lw	a4,-24(s0)
	lw	a5,-76(s0)
	sext.w	a4,a4
	sext.w	a5,a5
	bge	a4,a5,.L34
	.loc 2 173 8
	lw	a5,-76(s0)
	sw	a5,-24(s0)
.L34:
	.loc 2 175 11
	lw	a5,-24(s0)
	addi	a4,s0,-16
	add	a5,a4,a5
	sb	zero,-48(a5)
	.loc 2 177 8
	lw	a5,-24(s0)
	addiw	a5,a5,-1
	sw	a5,-28(s0)
	.loc 2 177 2
	j	.L36
.L37:
	.loc 2 178 3 discriminator 3
	lw	a5,-28(s0)
	addi	a4,s0,-16
	add	a5,a4,a5
	lbu	a5,-48(a5)
	mv	a0,a5
	call	uart_send
	.loc 2 177 28 discriminator 3
	lw	a5,-28(s0)
	addiw	a5,a5,-1
	sw	a5,-28(s0)
.L36:
	.loc 2 177 2 discriminator 1
	lw	a5,-28(s0)
	sext.w	a5,a5
	bge	a5,zero,.L37
	.loc 2 179 1
	nop
	nop
	ld	ra,72(sp)
	.cfi_restore 1
	ld	s0,64(sp)
	.cfi_restore 8
	.cfi_def_cfa 2, 80
	addi	sp,sp,80
	.cfi_def_cfa_offset 0
	jr	ra
	.cfi_endproc
.LFE20:
	.size	vpf_num_to_str, .-vpf_num_to_str
	.align	2
	.type	vpf, @function
vpf:
.LFB21:
	.loc 2 182 1
	.cfi_startproc
	addi	sp,sp,-80
	.cfi_def_cfa_offset 80
	sd	ra,72(sp)
	sd	s0,64(sp)
	.cfi_offset 1, -8
	.cfi_offset 8, -16
	addi	s0,sp,80
	.cfi_def_cfa 8, 0
	sd	a0,-72(s0)
	sd	a1,-80(s0)
	.loc 2 187 5
	li	a5,32
	sw	a5,-44(s0)
	.loc 2 188 8
	ld	a5,-72(s0)
	sd	a5,-24(s0)
	.loc 2 188 2
	j	.L39
.L49:
	.loc 2 190 5
	sw	zero,-36(s0)
	.loc 2 191 6
	sw	zero,-60(s0)
	.loc 2 192 7
	ld	a5,-24(s0)
	lbu	a5,0(a5)
	.loc 2 192 5
	sw	a5,-48(s0)
	.loc 2 193 5
	ld	a5,-24(s0)
	sd	a5,-32(s0)
	.loc 2 194 6
	ld	a5,-24(s0)
	lbu	a5,0(a5)
	.loc 2 194 5
	mv	a4,a5
	li	a5,37
	bne	a4,a5,.L40
	.loc 2 196 6
	ld	a5,-24(s0)
	sd	a5,-32(s0)
	.loc 2 197 5
	ld	a5,-24(s0)
	addi	a5,a5,1
	sd	a5,-24(s0)
	.loc 2 198 7
	ld	a5,-24(s0)
	lbu	a5,0(a5)
	.loc 2 198 6
	mv	a4,a5
	li	a5,47
	bleu	a4,a5,.L41
	.loc 2 198 20 discriminator 1
	ld	a5,-24(s0)
	lbu	a5,0(a5)
	.loc 2 198 17 discriminator 1
	mv	a4,a5
	li	a5,57
	bgtu	a4,a5,.L41
	.loc 2 199 10
	addi	a5,s0,-60
	mv	a1,a5
	ld	a0,-24(s0)
	call	vpf_str_to_num
	mv	a5,a0
	mv	a4,a5
	.loc 2 199 7
	ld	a5,-24(s0)
	add	a5,a5,a4
	sd	a5,-24(s0)
.L41:
	.loc 2 200 8
	ld	a5,-24(s0)
	lbu	a5,0(a5)
	.loc 2 200 6
	sw	a5,-36(s0)
.L40:
	.loc 2 202 5
	lw	a5,-36(s0)
	sext.w	a4,a5
	li	a5,100
	beq	a4,a5,.L42
	.loc 2 202 17 discriminator 1
	lw	a5,-36(s0)
	sext.w	a4,a5
	li	a5,120
	bne	a4,a5,.L43
.L42:
	.loc 2 204 8
	ld	a5,-80(s0)
	addi	a4,a5,8
	sd	a4,-80(s0)
	lw	a5,0(a5)
	sw	a5,-56(s0)
	.loc 2 205 4
	lw	a0,-56(s0)
	lw	a5,-36(s0)
	sext.w	a4,a5
	li	a5,120
	sub	a5,a4,a5
	seqz	a5,a5
	andi	a5,a5,0xff
	sext.w	a5,a5
	lw	a4,-60(s0)
	lw	a3,-44(s0)
	mv	a2,a4
	mv	a1,a5
	call	vpf_num_to_str
	j	.L44
.L43:
	.loc 2 209 10
	sw	zero,-40(s0)
	.loc 2 209 4
	j	.L45
.L46:
	.loc 2 210 16 discriminator 3
	lw	a5,-40(s0)
	ld	a4,-32(s0)
	add	a5,a4,a5
	.loc 2 210 5 discriminator 3
	lbu	a5,0(a5)
	mv	a0,a5
	call	uart_send
	.loc 2 209 29 discriminator 3
	lw	a5,-40(s0)
	addiw	a5,a5,1
	sw	a5,-40(s0)
.L45:
	.loc 2 209 17 discriminator 1
	lw	a4,-40(s0)
	.loc 2 209 22 discriminator 1
	ld	a3,-24(s0)
	ld	a5,-32(s0)
	sub	a5,a3,a5
	.loc 2 209 4 discriminator 1
	blt	a4,a5,.L46
	.loc 2 211 8
	lw	a5,-36(s0)
	sext.w	a5,a5
	beq	a5,zero,.L47
	.loc 2 211 8 is_stmt 0 discriminator 1
	lw	a5,-36(s0)
	andi	a5,a5,0xff
	j	.L48
.L47:
	.loc 2 211 8 discriminator 2
	lw	a5,-48(s0)
	andi	a5,a5,0xff
.L48:
	.loc 2 211 6 is_stmt 1 discriminator 4
	sb	a5,-49(s0)
	.loc 2 212 4 discriminator 4
	lbu	a5,-49(s0)
	mv	a0,a5
	call	uart_send
.L44:
	.loc 2 188 28 discriminator 2
	ld	a5,-24(s0)
	addi	a5,a5,1
	sd	a5,-24(s0)
.L39:
	.loc 2 188 15 discriminator 1
	ld	a5,-24(s0)
	lbu	a5,0(a5)
	.loc 2 188 2 discriminator 1
	bne	a5,zero,.L49
	.loc 2 215 9
	li	a5,0
	.loc 2 216 1
	mv	a0,a5
	ld	ra,72(sp)
	.cfi_restore 1
	ld	s0,64(sp)
	.cfi_restore 8
	.cfi_def_cfa 2, 80
	addi	sp,sp,80
	.cfi_def_cfa_offset 0
	jr	ra
	.cfi_endproc
.LFE21:
	.size	vpf, .-vpf
	.align	2
	.globl	sys_uart_printf
	.type	sys_uart_printf, @function
sys_uart_printf:
.LFB22:
	.loc 2 219 1
	.cfi_startproc
	addi	sp,sp,-112
	.cfi_def_cfa_offset 112
	sd	ra,40(sp)
	sd	s0,32(sp)
	.cfi_offset 1, -72
	.cfi_offset 8, -80
	addi	s0,sp,48
	.cfi_def_cfa 8, 64
	sd	a0,-40(s0)
	sd	a1,8(s0)
	sd	a2,16(s0)
	sd	a3,24(s0)
	sd	a4,32(s0)
	sd	a5,40(s0)
	sd	a6,48(s0)
	sd	a7,56(s0)
	.loc 2 223 2
	addi	a5,s0,64
	sd	a5,-48(s0)
	ld	a5,-48(s0)
	addi	a5,a5,-56
	sd	a5,-24(s0)
	.loc 2 224 2
	ld	a5,-24(s0)
	mv	a1,a5
	ld	a0,-40(s0)
	call	vpf
	.loc 2 227 9
	li	a5,0
	.loc 2 228 1
	mv	a0,a5
	ld	ra,40(sp)
	.cfi_restore 1
	ld	s0,32(sp)
	.cfi_restore 8
	.cfi_def_cfa 2, 112
	addi	sp,sp,112
	.cfi_def_cfa_offset 0
	jr	ra
	.cfi_endproc
.LFE22:
	.size	sys_uart_printf, .-sys_uart_printf
	.align	2
	.globl	print_hex
	.type	print_hex, @function
print_hex:
.LFB23:
	.loc 2 232 1
	.cfi_startproc
	addi	sp,sp,-48
	.cfi_def_cfa_offset 48
	sd	ra,40(sp)
	sd	s0,32(sp)
	.cfi_offset 1, -8
	.cfi_offset 8, -16
	addi	s0,sp,48
	.cfi_def_cfa 8, 0
	mv	a5,a0
	sw	a5,-36(s0)
	.loc 2 236 5
	li	a0,48
	call	uart_send
	.loc 2 237 5
	li	a0,120
	call	uart_send
	.loc 2 239 12
	li	a5,7
	sw	a5,-20(s0)
	.loc 2 239 5
	j	.L54
.L57:
	.loc 2 241 23
	lw	a5,-20(s0)
	slliw	a5,a5,2
	sext.w	a5,a5
	.loc 2 241 19
	mv	a4,a5
	lw	a5,-36(s0)
	srlw	a5,a5,a4
	sext.w	a5,a5
	.loc 2 241 28
	sext.w	a5,a5
	.loc 2 241 14
	andi	a5,a5,15
	sw	a5,-24(s0)
	.loc 2 242 12
	lw	a5,-24(s0)
	sext.w	a4,a5
	li	a5,9
	bgt	a4,a5,.L55
	.loc 2 243 13
	lw	a5,-24(s0)
	andi	a5,a5,0xff
	addiw	a5,a5,48
	andi	a5,a5,0xff
	mv	a0,a5
	call	uart_send
	j	.L56
.L55:
	.loc 2 245 13
	lw	a5,-24(s0)
	andi	a5,a5,0xff
	addiw	a5,a5,55
	andi	a5,a5,0xff
	mv	a0,a5
	call	uart_send
.L56:
	.loc 2 239 26 discriminator 2
	lw	a5,-20(s0)
	addiw	a5,a5,-1
	sw	a5,-20(s0)
.L54:
	.loc 2 239 5 discriminator 1
	lw	a5,-20(s0)
	sext.w	a5,a5
	bge	a5,zero,.L57
	.loc 2 247 1
	nop
	nop
	ld	ra,40(sp)
	.cfi_restore 1
	ld	s0,32(sp)
	.cfi_restore 8
	.cfi_def_cfa 2, 48
	addi	sp,sp,48
	.cfi_def_cfa_offset 0
	jr	ra
	.cfi_endproc
.LFE23:
	.size	print_hex, .-print_hex
.Letext0:
	.file 3 "include/types.h"
	.file 4 "include/stdarg.h"
	.file 5 "include/stdint.h"