	.file	"sys-clock.c"
	.option nopic
	.attribute arch, "rv64i2p0_m2p0_a2p0_f2p0_d2p0"
	.attribute unaligned_access, 0
	.attribute stack_align, 16
	.text
.Ltext0:
	.cfi_sections	.debug_frame
	.align	2
	.type	read32, @function
read32:
.LFB2:
	.file 1 "include/io.h"
	.loc 1 21 1
	.cfi_startproc
	addi	sp,sp,-32
	.cfi_def_cfa_offset 32
	sd	s0,24(sp)
	.cfi_offset 8, -8
	addi	s0,sp,32
	.cfi_def_cfa 8, 0
	sd	a0,-24(s0)
	.loc 1 22 12
	ld	a5,-24(s0)
	.loc 1 22 10
	lw	a5,0(a5)
	sext.w	a5,a5
	.loc 1 23 1
	mv	a0,a5
	ld	s0,24(sp)
	.cfi_restore 8
	.cfi_def_cfa 2, 32
	addi	sp,sp,32
	.cfi_def_cfa_offset 0
	jr	ra
	.cfi_endproc
.LFE2:
	.size	read32, .-read32
	.align	2
	.type	write32, @function
write32:
.LFB6:
	.loc 1 41 1
	.cfi_startproc
	addi	sp,sp,-32
	.cfi_def_cfa_offset 32
	sd	s0,24(sp)
	.cfi_offset 8, -8
	addi	s0,sp,32
	.cfi_def_cfa 8, 0
	sd	a0,-24(s0)
	mv	a5,a1
	sw	a5,-28(s0)
	.loc 1 42 4
	ld	a5,-24(s0)
	.loc 1 42 30
	lw	a4,-28(s0)
	sw	a4,0(a5)
	.loc 1 43 1
	nop
	ld	s0,24(sp)
	.cfi_restore 8
	.cfi_def_cfa 2, 32
	addi	sp,sp,32
	.cfi_def_cfa_offset 0
	jr	ra
	.cfi_endproc
.LFE6:
	.size	write32, .-write32
	.align	2
	.globl	sdelay
	.type	sdelay, @function
sdelay:
.LFB14:
	.file 2 "src/sys-clock.c"
	.loc 2 40 1
	.cfi_startproc
	addi	sp,sp,-32
	.cfi_def_cfa_offset 32
	sd	s0,24(sp)
	.cfi_offset 8, -8
	addi	s0,sp,32
	.cfi_def_cfa 8, 0
	sd	a0,-24(s0)
	.loc 2 48 5
	ld	a5,-24(s0)
	slli	a5,a5,10
	sd	a5,-24(s0)
	.loc 2 49 7
	nop
.L5:
	.loc 2 49 10 discriminator 1
	ld	a5,-24(s0)
	addi	a4,a5,-1
	sd	a4,-24(s0)
	.loc 2 49 7 discriminator 1
	bne	a5,zero,.L5
	.loc 2 53 1
	nop
	nop
	ld	s0,24(sp)
	.cfi_restore 8
	.cfi_def_cfa 2, 32
	addi	sp,sp,32
	.cfi_def_cfa_offset 0
	jr	ra
	.cfi_endproc
.LFE14:
	.size	sdelay, .-sdelay
	.align	2
	.type	set_pll_cpux_axi, @function
set_pll_cpux_axi:
.LFB15:
	.loc 2 56 1
	.cfi_startproc
	addi	sp,sp,-32
	.cfi_def_cfa_offset 32
	sd	ra,24(sp)
	sd	s0,16(sp)
	.cfi_offset 1, -8
	.cfi_offset 8, -16
	addi	s0,sp,32
	.cfi_def_cfa 8, 0
	.loc 2 60 2
	li	a1,769
	li	a5,33562624
	addi	a0,a5,-768
	call	write32
	.loc 2 61 2
	li	a0,1
	call	sdelay
	.loc 2 64 8
	li	a0,33558528
	call	read32
	mv	a5,a0
	sw	a5,-20(s0)
	.loc 2 65 6
	lw	a4,-20(s0)
	li	a5,-134217728
	addi	a5,a5,-1
	and	a5,a4,a5
	sw	a5,-20(s0)
	.loc 2 66 2
	lw	a5,-20(s0)
	mv	a1,a5
	li	a0,33558528
	call	write32
	.loc 2 69 8
	li	a0,33558528
	call	read32
	mv	a5,a0
	sw	a5,-20(s0)
	.loc 2 70 6
	lw	a4,-20(s0)
	li	a5,1073741824
	or	a5,a4,a5
	sw	a5,-20(s0)
	.loc 2 71 2
	lw	a5,-20(s0)
	mv	a1,a5
	li	a0,33558528
	call	write32
	.loc 2 72 2
	li	a0,5
	call	sdelay
	.loc 2 75 8
	li	a0,33558528
	call	read32
	mv	a5,a0
	sw	a5,-20(s0)
	.loc 2 76 6
	lw	a4,-20(s0)
	li	a5,-262144
	addi	a5,a5,252
	and	a5,a4,a5
	sw	a5,-20(s0)
	.loc 2 77 6
	lw	a4,-20(s0)
	li	a5,12288
	addi	a5,a5,-1792
	or	a5,a4,a5
	sw	a5,-20(s0)
	.loc 2 78 2
	lw	a5,-20(s0)
	mv	a1,a5
	li	a0,33558528
	call	write32
	.loc 2 81 8
	li	a0,33558528
	call	read32
	mv	a5,a0
	sw	a5,-20(s0)
	.loc 2 82 6
	lw	a4,-20(s0)
	li	a5,536870912
	or	a5,a4,a5
	sw	a5,-20(s0)
	.loc 2 83 2
	lw	a5,-20(s0)
	mv	a1,a5
	li	a0,33558528
	call	write32
	.loc 2 86 8
	li	a0,33558528
	call	read32
	mv	a5,a0
	sw	a5,-20(s0)
	.loc 2 87 6
	lw	a4,-20(s0)
	li	a5,-2147483648
	or	a5,a4,a5
	sw	a5,-20(s0)
	.loc 2 88 2
	lw	a5,-20(s0)
	mv	a1,a5
	li	a0,33558528
	call	write32
	.loc 2 91 7
	nop
.L7:
	.loc 2 91 10 discriminator 1
	li	a0,33558528
	call	read32
	mv	a5,a0
	sext.w	a5,a5
	.loc 2 91 41 discriminator 1
	mv	a4,a5
	li	a5,268435456
	and	a5,a4,a5
	sext.w	a5,a5
	.loc 2 91 7 discriminator 1
	beq	a5,zero,.L7
	.loc 2 92 2
	li	a0,20
	call	sdelay
	.loc 2 95 8
	li	a0,33558528
	call	read32
	mv	a5,a0
	sw	a5,-20(s0)
	.loc 2 96 6
	lw	a4,-20(s0)
	li	a5,134217728
	or	a5,a4,a5
	sw	a5,-20(s0)
	.loc 2 97 2
	lw	a5,-20(s0)
	mv	a1,a5
	li	a0,33558528
	call	write32
	.loc 2 100 8
	li	a0,33558528
	call	read32
	mv	a5,a0
	sw	a5,-20(s0)
	.loc 2 101 6
	lw	a4,-20(s0)
	li	a5,-536870912
	addi	a5,a5,-1
	and	a5,a4,a5
	sw	a5,-20(s0)
	.loc 2 102 2
	lw	a5,-20(s0)
	mv	a1,a5
	li	a0,33558528
	call	write32
	.loc 2 103 2
	li	a0,1
	call	sdelay
	.loc 2 106 8
	li	a5,33562624
	addi	a0,a5,-768
	call	read32
	mv	a5,a0
	sw	a5,-20(s0)
	.loc 2 107 6
	lw	a4,-20(s0)
	li	a5,-117440512
	addi	a5,a5,-784
	and	a5,a4,a5
	sw	a5,-20(s0)
	.loc 2 108 6
	lw	a4,-20(s0)
	li	a5,83886080
	addi	a5,a5,256
	or	a5,a4,a5
	sw	a5,-20(s0)
	.loc 2 109 2
	lw	a5,-20(s0)
	mv	a1,a5
	li	a5,33562624
	addi	a0,a5,-768
	call	write32
	.loc 2 110 2
	li	a0,1
	call	sdelay
	.loc 2 111 1
	nop
	ld	ra,24(sp)
	.cfi_restore 1
	ld	s0,16(sp)
	.cfi_restore 8
	.cfi_def_cfa 2, 32
	addi	sp,sp,32
	.cfi_def_cfa_offset 0
	jr	ra
	.cfi_endproc
.LFE15:
	.size	set_pll_cpux_axi, .-set_pll_cpux_axi
	.align	2
	.type	set_pll_periph0, @function
set_pll_periph0:
.LFB16:
	.loc 2 114 1
	.cfi_startproc
	addi	sp,sp,-32
	.cfi_def_cfa_offset 32
	sd	ra,24(sp)
	sd	s0,16(sp)
	.cfi_offset 1, -8
	.cfi_offset 8, -16
	addi	s0,sp,32
	.cfi_def_cfa 8, 0
	.loc 2 118 5
	li	a5,33558528
	addi	a0,a5,32
	call	read32
	mv	a5,a0
	sext.w	a5,a5
	sext.w	a5,a5
	.loc 2 118 4
	blt	a5,zero,.L12
	.loc 2 122 8
	li	a5,33558528
	addi	a0,a5,1296
	call	read32
	mv	a5,a0
	sw	a5,-20(s0)
	.loc 2 123 6
	lw	a4,-20(s0)
	li	a5,-50331648
	addi	a5,a5,-1
	and	a5,a4,a5
	sw	a5,-20(s0)
	.loc 2 124 2
	lwu	a4,-20(s0)
	li	a5,33558528
	addi	a1,a5,1296
	mv	a0,a4
	call	write32
	.loc 2 127 2
	li	a5,24576
	addi	a1,a5,768
	li	a5,33558528
	addi	a0,a5,32
	call	write32
	.loc 2 130 8
	li	a5,33558528
	addi	a0,a5,32
	call	read32
	mv	a5,a0
	sw	a5,-20(s0)
	.loc 2 131 6
	lw	a4,-20(s0)
	li	a5,536870912
	or	a5,a4,a5
	sw	a5,-20(s0)
	.loc 2 132 2
	lw	a5,-20(s0)
	mv	a1,a5
	li	a5,33558528
	addi	a0,a5,32
	call	write32
	.loc 2 135 8
	li	a5,33558528
	addi	a0,a5,32
	call	read32
	mv	a5,a0
	sw	a5,-20(s0)
	.loc 2 136 6
	lw	a4,-20(s0)
	li	a5,-2147483648
	or	a5,a4,a5
	sw	a5,-20(s0)
	.loc 2 137 2
	lw	a5,-20(s0)
	mv	a1,a5
	li	a5,33558528
	addi	a0,a5,32
	call	write32
	.loc 2 140 7
	nop
.L11:
	.loc 2 140 10 discriminator 1
	li	a5,33558528
	addi	a0,a5,32
	call	read32
	mv	a5,a0
	sext.w	a5,a5
	.loc 2 140 41 discriminator 1
	mv	a4,a5
	li	a5,268435456
	and	a5,a4,a5
	sext.w	a5,a5
	.loc 2 140 7 discriminator 1
	beq	a5,zero,.L11
	.loc 2 141 2
	li	a0,20
	call	sdelay
	.loc 2 144 8
	li	a5,33558528
	addi	a0,a5,32
	call	read32
	mv	a5,a0
	sw	a5,-20(s0)
	.loc 2 145 6
	lw	a4,-20(s0)
	li	a5,-536870912
	addi	a5,a5,-1
	and	a5,a4,a5
	sw	a5,-20(s0)
	.loc 2 146 2
	lw	a5,-20(s0)
	mv	a1,a5
	li	a5,33558528
	addi	a0,a5,32
	call	write32
	j	.L8
.L12:
	.loc 2 119 3
	nop
.L8:
	.loc 2 147 1
	ld	ra,24(sp)
	.cfi_restore 1
	ld	s0,16(sp)
	.cfi_restore 8
	.cfi_def_cfa 2, 32
	addi	sp,sp,32
	.cfi_def_cfa_offset 0
	jr	ra
	.cfi_endproc
.LFE16:
	.size	set_pll_periph0, .-set_pll_periph0
	.align	2
	.type	set_ahb, @function
set_ahb:
.LFB17:
	.loc 2 150 1
	.cfi_startproc
	addi	sp,sp,-16
	.cfi_def_cfa_offset 16
	sd	ra,8(sp)
	sd	s0,0(sp)
	.cfi_offset 1, -8
	.cfi_offset 8, -16
	addi	s0,sp,16
	.cfi_def_cfa 8, 0
	.loc 2 151 2
	li	a1,2
	li	a5,33558528
	addi	a0,a5,1296
	call	write32
	.loc 2 152 34
	li	a5,33558528
	addi	a0,a5,1296
	call	read32
	mv	a5,a0
	sext.w	a5,a5
	.loc 2 152 2
	mv	a4,a5
	li	a5,50331648
	or	a5,a4,a5
	sext.w	a5,a5
	mv	a1,a5
	li	a5,33558528
	addi	a0,a5,1296
	call	write32
	.loc 2 153 2
	li	a0,1
	call	sdelay
	.loc 2 154 1
	nop
	ld	ra,8(sp)
	.cfi_restore 1
	ld	s0,0(sp)
	.cfi_restore 8
	.cfi_def_cfa 2, 16
	addi	sp,sp,16
	.cfi_def_cfa_offset 0
	jr	ra
	.cfi_endproc
.LFE17:
	.size	set_ahb, .-set_ahb
	.align	2
	.type	set_apb, @function
set_apb:
.LFB18:
	.loc 2 157 1
	.cfi_startproc
	addi	sp,sp,-16
	.cfi_def_cfa_offset 16
	sd	ra,8(sp)
	sd	s0,0(sp)
	.cfi_offset 1, -8
	.cfi_offset 8, -16
	addi	s0,sp,16
	.cfi_def_cfa 8, 0
	.loc 2 158 2
	li	a1,258
	li	a5,33558528
	addi	a0,a5,1312
	call	write32
	.loc 2 159 49
	li	a5,33558528
	addi	a0,a5,1312
	call	read32
	mv	a5,a0
	sext.w	a5,a5
	.loc 2 159 2
	mv	a4,a5
	li	a5,50331648
	or	a5,a4,a5
	sext.w	a5,a5
	mv	a1,a5
	li	a5,33558528
	addi	a0,a5,1312
	call	write32
	.loc 2 160 2
	li	a0,1
	call	sdelay
	.loc 2 161 1
	nop
	ld	ra,8(sp)
	.cfi_restore 1
	ld	s0,0(sp)
	.cfi_restore 8
	.cfi_def_cfa 2, 16
	addi	sp,sp,16
	.cfi_def_cfa_offset 0
	jr	ra
	.cfi_endproc
.LFE18:
	.size	set_apb, .-set_apb
	.align	2
	.type	set_dma, @function
set_dma:
.LFB19:
	.loc 2 164 1
	.cfi_startproc
	addi	sp,sp,-16
	.cfi_def_cfa_offset 16
	sd	ra,8(sp)
	sd	s0,0(sp)
	.cfi_offset 1, -8
	.cfi_offset 8, -16
	addi	s0,sp,16
	.cfi_def_cfa 8, 0
	.loc 2 166 34
	li	a5,33558528
	addi	a0,a5,1804
	call	read32
	mv	a5,a0
	sext.w	a5,a5
	.loc 2 166 2
	mv	a4,a5
	li	a5,65536
	or	a5,a4,a5
	sext.w	a5,a5
	mv	a1,a5
	li	a5,33558528
	addi	a0,a5,1804
	call	write32
	.loc 2 167 2
	li	a0,20
	call	sdelay
	.loc 2 169 34
	li	a5,33558528
	addi	a0,a5,1804
	call	read32
	mv	a5,a0
	sext.w	a5,a5
	.loc 2 169 2
	ori	a5,a5,1
	sext.w	a5,a5
	mv	a1,a5
	li	a5,33558528
	addi	a0,a5,1804
	call	write32
	.loc 2 170 1
	nop
	ld	ra,8(sp)
	.cfi_restore 1
	ld	s0,0(sp)
	.cfi_restore 8
	.cfi_def_cfa 2, 16
	addi	sp,sp,16
	.cfi_def_cfa_offset 0
	jr	ra
	.cfi_endproc
.LFE19:
	.size	set_dma, .-set_dma
	.align	2
	.type	set_mbus, @function
set_mbus:
.LFB20:
	.loc 2 173 1
	.cfi_startproc
	addi	sp,sp,-32
	.cfi_def_cfa_offset 32
	sd	ra,24(sp)
	sd	s0,16(sp)
	.cfi_offset 1, -8
	.cfi_offset 8, -16
	addi	s0,sp,32
	.cfi_def_cfa 8, 0
	.loc 2 177 8
	li	a5,33558528
	addi	a0,a5,1344
	call	read32
	mv	a5,a0
	sw	a5,-20(s0)
	.loc 2 178 6
	lw	a4,-20(s0)
	li	a5,1073741824
	or	a5,a4,a5
	sw	a5,-20(s0)
	.loc 2 179 2
	lw	a5,-20(s0)
	mv	a1,a5
	li	a5,33558528
	addi	a0,a5,1344
	call	write32
	.loc 2 180 2
	li	a0,1
	call	sdelay
	.loc 2 181 1
	nop
	ld	ra,24(sp)
	.cfi_restore 1
	ld	s0,16(sp)
	.cfi_restore 8
	.cfi_def_cfa 2, 32
	addi	sp,sp,32
	.cfi_def_cfa_offset 0
	jr	ra
	.cfi_endproc
.LFE20:
	.size	set_mbus, .-set_mbus
	.align	2
	.type	set_module, @function
set_module:
.LFB21:
	.loc 2 184 1
	.cfi_startproc
	addi	sp,sp,-48
	.cfi_def_cfa_offset 48
	sd	ra,40(sp)
	sd	s0,32(sp)
	.cfi_offset 1, -8
	.cfi_offset 8, -16
	addi	s0,sp,48
	.cfi_def_cfa 8, 0
	sd	a0,-40(s0)
	.loc 2 187 7
	ld	a0,-40(s0)
	call	read32
	mv	a5,a0
	sext.w	a5,a5
	.loc 2 187 5
	sext.w	a5,a5
	.loc 2 187 4
	blt	a5,zero,.L20
	.loc 2 189 9
	ld	a0,-40(s0)
	call	read32
	mv	a5,a0
	sw	a5,-20(s0)
	.loc 2 190 3
	lw	a4,-20(s0)
	li	a5,-1073741824
	or	a5,a4,a5
	sext.w	a5,a5
	mv	a1,a5
	ld	a0,-40(s0)
	call	write32
	.loc 2 193 9
	ld	a0,-40(s0)
	call	read32
	mv	a5,a0
	sw	a5,-20(s0)
	.loc 2 194 7
	lw	a4,-20(s0)
	li	a5,536870912
	or	a5,a4,a5
	sw	a5,-20(s0)
	.loc 2 195 3
	lw	a5,-20(s0)
	mv	a1,a5
	ld	a0,-40(s0)
	call	write32
	.loc 2 198 8
	nop
.L19:
	.loc 2 198 11 discriminator 1
	ld	a0,-40(s0)
	call	read32
	mv	a5,a0
	sext.w	a5,a5
	.loc 2 198 24 discriminator 1
	mv	a4,a5
	li	a5,268435456
	and	a5,a4,a5
	sext.w	a5,a5
	.loc 2 198 8 discriminator 1
	beq	a5,zero,.L19
	.loc 2 199 3
	li	a0,20
	call	sdelay
	.loc 2 202 9
	ld	a0,-40(s0)
	call	read32
	mv	a5,a0
	sw	a5,-20(s0)
	.loc 2 203 7
	lw	a4,-20(s0)
	li	a5,-536870912
	addi	a5,a5,-1
	and	a5,a4,a5
	sw	a5,-20(s0)
	.loc 2 204 3
	lw	a5,-20(s0)
	mv	a1,a5
	ld	a0,-40(s0)
	call	write32
.L20:
	.loc 2 206 1
	nop
	ld	ra,40(sp)
	.cfi_restore 1
	ld	s0,32(sp)
	.cfi_restore 8
	.cfi_def_cfa 2, 48
	addi	sp,sp,48
	.cfi_def_cfa_offset 0
	jr	ra
	.cfi_endproc
.LFE21:
	.size	set_module, .-set_module
	.align	2
	.globl	sys_clock_init
	.type	sys_clock_init, @function
sys_clock_init:
.LFB22:
	.loc 2 209 1
	.cfi_startproc
	addi	sp,sp,-16
	.cfi_def_cfa_offset 16
	sd	ra,8(sp)
	sd	s0,0(sp)
	.cfi_offset 1, -8
	.cfi_offset 8, -16
	addi	s0,sp,16
	.cfi_def_cfa 8, 0
	.loc 2 210 2
	call	set_pll_cpux_axi
	.loc 2 211 2
	call	set_pll_periph0
	.loc 2 212 2
	call	set_ahb
	.loc 2 213 2
	call	set_apb
	.loc 2 214 2
	call	set_dma
	.loc 2 215 2
	call	set_mbus
	.loc 2 216 2
	li	a5,33558528
	addi	a0,a5,32
	call	set_module
	.loc 2 217 2
	li	a5,33558528
	addi	a0,a5,64
	call	set_module
	.loc 2 218 2
	li	a5,33558528
	addi	a0,a5,72
	call	set_module
	.loc 2 219 2
	li	a5,33558528
	addi	a0,a5,88
	call	set_module
	.loc 2 220 2
	li	a5,33558528
	addi	a0,a5,120
	call	set_module
	.loc 2 221 2
	li	a5,33558528
	addi	a0,a5,128
	call	set_module
	.loc 2 222 1
	nop
	ld	ra,8(sp)
	.cfi_restore 1
	ld	s0,0(sp)
	.cfi_restore 8
	.cfi_def_cfa 2, 16
	addi	sp,sp,16
	.cfi_def_cfa_offset 0
	jr	ra
	.cfi_endproc
.LFE22:
	.size	sys_clock_init, .-sys_clock_init
.Letext0:
	.file 3 "include/types.h"
	.file 4 "include/stdint.h"