
benos_payload.elf:     file format elf64-littleriscv


Disassembly of section .text.boot:

0000000000020000 <_start>:
   20000:	0300006f          	j	20030 <reset>
   20004:	4765                	li	a4,25
   20006:	422e4e4f          	fnmadd.d	ft8,ft8,ft2,fs0,rmm
   2000a:	3054                	fld	fa3,160(s0)
   2000c:	5678                	lw	a4,108(a2)
   2000e:	1234                	addi	a3,sp,296
   20010:	7008                	ld	a0,32(s0)
   20012:	0000                	unimp
   20014:	0030                	addi	a2,sp,8
   20016:	0000                	unimp
   20018:	30303033          	0x30303033
   2001c:	0000                	unimp
   2001e:	0002                	c.slli64	zero
   20020:	0000                	unimp
   20022:	0002                	c.slli64	zero
	...
   2002c:	2e34                	fld	fa3,88(a2)
   2002e:	0030                	addi	a2,sp,8

0000000000020030 <reset>:
   20030:	30401073          	csrw	mie,zero
   20034:	00002117          	auipc	sp,0x2
   20038:	fcc10113          	addi	sp,sp,-52 # 22000 <stacks_start>
   2003c:	000012b7          	lui	t0,0x1
   20040:	00510133          	add	sp,sp,t0
   20044:	34011073          	csrw	mscratch,sp
   20048:	4a40006f          	j	204ec <sbi_main>

Disassembly of section .text:

0000000000020050 <read_csr_num>:
   20050:	fd010113          	addi	sp,sp,-48
   20054:	02813423          	sd	s0,40(sp)
   20058:	02913023          	sd	s1,32(sp)
   2005c:	03010413          	addi	s0,sp,48
   20060:	00050793          	mv	a5,a0
   20064:	fcf42e23          	sw	a5,-36(s0)
   20068:	fe043423          	sd	zero,-24(s0)
   2006c:	fdc42783          	lw	a5,-36(s0)
   20070:	c607869b          	addiw	a3,a5,-928
   20074:	0006871b          	sext.w	a4,a3
   20078:	01700793          	li	a5,23
   2007c:	0ee7e463          	bltu	a5,a4,20164 <read_csr_num+0x114>
   20080:	02069793          	slli	a5,a3,0x20
   20084:	0207d793          	srli	a5,a5,0x20
   20088:	00279713          	slli	a4,a5,0x2
   2008c:	00001797          	auipc	a5,0x1
   20090:	1d478793          	addi	a5,a5,468 # 21260 <sbi_exception_vector+0x130>
   20094:	00f707b3          	add	a5,a4,a5
   20098:	0007a783          	lw	a5,0(a5)
   2009c:	0007871b          	sext.w	a4,a5
   200a0:	00001797          	auipc	a5,0x1
   200a4:	1c078793          	addi	a5,a5,448 # 21260 <sbi_exception_vector+0x130>
   200a8:	00f707b3          	add	a5,a4,a5
   200ac:	00078067          	jr	a5
   200b0:	3a0027f3          	csrr	a5,pmpcfg0
   200b4:	00078493          	mv	s1,a5
   200b8:	00048793          	mv	a5,s1
   200bc:	fef43423          	sd	a5,-24(s0)
   200c0:	0a80006f          	j	20168 <read_csr_num+0x118>
   200c4:	3b0027f3          	csrr	a5,pmpaddr0
   200c8:	00078493          	mv	s1,a5
   200cc:	00048793          	mv	a5,s1
   200d0:	fef43423          	sd	a5,-24(s0)
   200d4:	0940006f          	j	20168 <read_csr_num+0x118>
   200d8:	3b1027f3          	csrr	a5,pmpaddr1
   200dc:	00078493          	mv	s1,a5
   200e0:	00048793          	mv	a5,s1
   200e4:	fef43423          	sd	a5,-24(s0)
   200e8:	0800006f          	j	20168 <read_csr_num+0x118>
   200ec:	3b2027f3          	csrr	a5,pmpaddr2
   200f0:	00078493          	mv	s1,a5
   200f4:	00048793          	mv	a5,s1
   200f8:	fef43423          	sd	a5,-24(s0)
   200fc:	06c0006f          	j	20168 <read_csr_num+0x118>
   20100:	3b3027f3          	csrr	a5,pmpaddr3
   20104:	00078493          	mv	s1,a5
   20108:	00048793          	mv	a5,s1
   2010c:	fef43423          	sd	a5,-24(s0)
   20110:	0580006f          	j	20168 <read_csr_num+0x118>
   20114:	3b4027f3          	csrr	a5,pmpaddr4
   20118:	00078493          	mv	s1,a5
   2011c:	00048793          	mv	a5,s1
   20120:	fef43423          	sd	a5,-24(s0)
   20124:	0440006f          	j	20168 <read_csr_num+0x118>
   20128:	3b5027f3          	csrr	a5,pmpaddr5
   2012c:	00078493          	mv	s1,a5
   20130:	00048793          	mv	a5,s1
   20134:	fef43423          	sd	a5,-24(s0)
   20138:	0300006f          	j	20168 <read_csr_num+0x118>
   2013c:	3b6027f3          	csrr	a5,pmpaddr6
   20140:	00078493          	mv	s1,a5
   20144:	00048793          	mv	a5,s1
   20148:	fef43423          	sd	a5,-24(s0)
   2014c:	01c0006f          	j	20168 <read_csr_num+0x118>
   20150:	3b7027f3          	csrr	a5,pmpaddr7
   20154:	00078493          	mv	s1,a5
   20158:	00048793          	mv	a5,s1
   2015c:	fef43423          	sd	a5,-24(s0)
   20160:	0080006f          	j	20168 <read_csr_num+0x118>
   20164:	00000013          	nop
   20168:	fe843783          	ld	a5,-24(s0)
   2016c:	00078513          	mv	a0,a5
   20170:	02813403          	ld	s0,40(sp)
   20174:	02013483          	ld	s1,32(sp)
   20178:	03010113          	addi	sp,sp,48
   2017c:	00008067          	ret

0000000000020180 <write_csr_num>:
   20180:	f9010113          	addi	sp,sp,-112
   20184:	06813423          	sd	s0,104(sp)
   20188:	07010413          	addi	s0,sp,112
   2018c:	00050793          	mv	a5,a0
   20190:	f8b43823          	sd	a1,-112(s0)
   20194:	f8f42e23          	sw	a5,-100(s0)
   20198:	f9c42783          	lw	a5,-100(s0)
   2019c:	c607869b          	addiw	a3,a5,-928
   201a0:	0006871b          	sext.w	a4,a3
   201a4:	01700793          	li	a5,23
   201a8:	0ee7e463          	bltu	a5,a4,20290 <write_csr_num+0x110>
   201ac:	02069793          	slli	a5,a3,0x20
   201b0:	0207d793          	srli	a5,a5,0x20
   201b4:	00279713          	slli	a4,a5,0x2
   201b8:	00001797          	auipc	a5,0x1
   201bc:	10878793          	addi	a5,a5,264 # 212c0 <sbi_exception_vector+0x190>
   201c0:	00f707b3          	add	a5,a4,a5
   201c4:	0007a783          	lw	a5,0(a5)
   201c8:	0007871b          	sext.w	a4,a5
   201cc:	00001797          	auipc	a5,0x1
   201d0:	0f478793          	addi	a5,a5,244 # 212c0 <sbi_exception_vector+0x190>
   201d4:	00f707b3          	add	a5,a4,a5
   201d8:	00078067          	jr	a5
   201dc:	f9043783          	ld	a5,-112(s0)
   201e0:	faf43423          	sd	a5,-88(s0)
   201e4:	fa843783          	ld	a5,-88(s0)
   201e8:	3a079073          	csrw	pmpcfg0,a5
   201ec:	0a80006f          	j	20294 <write_csr_num+0x114>
   201f0:	f9043783          	ld	a5,-112(s0)
   201f4:	faf43823          	sd	a5,-80(s0)
   201f8:	fb043783          	ld	a5,-80(s0)
   201fc:	3b079073          	csrw	pmpaddr0,a5
   20200:	0940006f          	j	20294 <write_csr_num+0x114>
   20204:	f9043783          	ld	a5,-112(s0)
   20208:	faf43c23          	sd	a5,-72(s0)
   2020c:	fb843783          	ld	a5,-72(s0)
   20210:	3b179073          	csrw	pmpaddr1,a5
   20214:	0800006f          	j	20294 <write_csr_num+0x114>
   20218:	f9043783          	ld	a5,-112(s0)
   2021c:	fcf43023          	sd	a5,-64(s0)
   20220:	fc043783          	ld	a5,-64(s0)
   20224:	3b279073          	csrw	pmpaddr2,a5
   20228:	06c0006f          	j	20294 <write_csr_num+0x114>
   2022c:	f9043783          	ld	a5,-112(s0)
   20230:	fcf43423          	sd	a5,-56(s0)
   20234:	fc843783          	ld	a5,-56(s0)
   20238:	3b379073          	csrw	pmpaddr3,a5
   2023c:	0580006f          	j	20294 <write_csr_num+0x114>
   20240:	f9043783          	ld	a5,-112(s0)
   20244:	fcf43823          	sd	a5,-48(s0)
   20248:	fd043783          	ld	a5,-48(s0)
   2024c:	3b479073          	csrw	pmpaddr4,a5
   20250:	0440006f          	j	20294 <write_csr_num+0x114>
   20254:	f9043783          	ld	a5,-112(s0)
   20258:	fcf43c23          	sd	a5,-40(s0)
   2025c:	fd843783          	ld	a5,-40(s0)
   20260:	3b579073          	csrw	pmpaddr5,a5
   20264:	0300006f          	j	20294 <write_csr_num+0x114>
   20268:	f9043783          	ld	a5,-112(s0)
   2026c:	fef43023          	sd	a5,-32(s0)
   20270:	fe043783          	ld	a5,-32(s0)
   20274:	3b679073          	csrw	pmpaddr6,a5
   20278:	01c0006f          	j	20294 <write_csr_num+0x114>
   2027c:	f9043783          	ld	a5,-112(s0)
   20280:	fef43423          	sd	a5,-24(s0)
   20284:	fe843783          	ld	a5,-24(s0)
   20288:	3b779073          	csrw	pmpaddr7,a5
   2028c:	0080006f          	j	20294 <write_csr_num+0x114>
   20290:	00000013          	nop
   20294:	00000013          	nop
   20298:	06813403          	ld	s0,104(sp)
   2029c:	07010113          	addi	sp,sp,112
   202a0:	00008067          	ret

00000000000202a4 <log2roundup>:
   202a4:	fd010113          	addi	sp,sp,-48
   202a8:	02813423          	sd	s0,40(sp)
   202ac:	03010413          	addi	s0,sp,48
   202b0:	fca43c23          	sd	a0,-40(s0)
   202b4:	fe043423          	sd	zero,-24(s0)
   202b8:	02c0006f          	j	202e4 <log2roundup+0x40>
   202bc:	fe843783          	ld	a5,-24(s0)
   202c0:	0007879b          	sext.w	a5,a5
   202c4:	00078713          	mv	a4,a5
   202c8:	00100793          	li	a5,1
   202cc:	00e797b3          	sll	a5,a5,a4
   202d0:	fd843703          	ld	a4,-40(s0)
   202d4:	02e7f063          	bgeu	a5,a4,202f4 <log2roundup+0x50>
   202d8:	fe843783          	ld	a5,-24(s0)
   202dc:	00178793          	addi	a5,a5,1
   202e0:	fef43423          	sd	a5,-24(s0)
   202e4:	fe843703          	ld	a4,-24(s0)
   202e8:	03f00793          	li	a5,63
   202ec:	fce7f8e3          	bgeu	a5,a4,202bc <log2roundup+0x18>
   202f0:	0080006f          	j	202f8 <log2roundup+0x54>
   202f4:	00000013          	nop
   202f8:	fe843783          	ld	a5,-24(s0)
   202fc:	00078513          	mv	a0,a5
   20300:	02813403          	ld	s0,40(sp)
   20304:	03010113          	addi	sp,sp,48
   20308:	00008067          	ret

000000000002030c <sbi_set_pmp>:
   2030c:	fa010113          	addi	sp,sp,-96
   20310:	04113c23          	sd	ra,88(sp)
   20314:	04813823          	sd	s0,80(sp)
   20318:	06010413          	addi	s0,sp,96
   2031c:	00050793          	mv	a5,a0
   20320:	fab43823          	sd	a1,-80(s0)
   20324:	fac43423          	sd	a2,-88(s0)
   20328:	fad43023          	sd	a3,-96(s0)
   2032c:	faf42e23          	sw	a5,-68(s0)
   20330:	fbc42783          	lw	a5,-68(s0)
   20334:	0007871b          	sext.w	a4,a5
   20338:	00800793          	li	a5,8
   2033c:	00e7d663          	bge	a5,a4,20348 <sbi_set_pmp+0x3c>
   20340:	fff00793          	li	a5,-1
   20344:	1940006f          	j	204d8 <sbi_set_pmp+0x1cc>
   20348:	fa843503          	ld	a0,-88(s0)
   2034c:	f59ff0ef          	jal	ra,202a4 <log2roundup>
   20350:	00050793          	mv	a5,a0
   20354:	fef42223          	sw	a5,-28(s0)
   20358:	fe442783          	lw	a5,-28(s0)
   2035c:	0007871b          	sext.w	a4,a5
   20360:	00100793          	li	a5,1
   20364:	00e7c663          	blt	a5,a4,20370 <sbi_set_pmp+0x64>
   20368:	fff00793          	li	a5,-1
   2036c:	16c0006f          	j	204d8 <sbi_set_pmp+0x1cc>
   20370:	fb043783          	ld	a5,-80(s0)
   20374:	0027d793          	srli	a5,a5,0x2
   20378:	fef43423          	sd	a5,-24(s0)
   2037c:	fbc42783          	lw	a5,-68(s0)
   20380:	4027d79b          	sraiw	a5,a5,0x2
   20384:	0007879b          	sext.w	a5,a5
   20388:	3a07879b          	addiw	a5,a5,928
   2038c:	0007879b          	sext.w	a5,a5
   20390:	ffe7f793          	andi	a5,a5,-2
   20394:	fef42023          	sw	a5,-32(s0)
   20398:	fbc42783          	lw	a5,-68(s0)
   2039c:	0037979b          	slliw	a5,a5,0x3
   203a0:	0007879b          	sext.w	a5,a5
   203a4:	0387f793          	andi	a5,a5,56
   203a8:	fcf42e23          	sw	a5,-36(s0)
   203ac:	fbc42783          	lw	a5,-68(s0)
   203b0:	3b07879b          	addiw	a5,a5,944
   203b4:	fcf42c23          	sw	a5,-40(s0)
   203b8:	fa043783          	ld	a5,-96(s0)
   203bc:	fe77f793          	andi	a5,a5,-25
   203c0:	faf43023          	sd	a5,-96(s0)
   203c4:	fe442783          	lw	a5,-28(s0)
   203c8:	0007871b          	sext.w	a4,a5
   203cc:	00200793          	li	a5,2
   203d0:	00f71663          	bne	a4,a5,203dc <sbi_set_pmp+0xd0>
   203d4:	01000793          	li	a5,16
   203d8:	0080006f          	j	203e0 <sbi_set_pmp+0xd4>
   203dc:	01800793          	li	a5,24
   203e0:	fa043703          	ld	a4,-96(s0)
   203e4:	00f767b3          	or	a5,a4,a5
   203e8:	faf43023          	sd	a5,-96(s0)
   203ec:	fdc42783          	lw	a5,-36(s0)
   203f0:	0ff00713          	li	a4,255
   203f4:	00f717b3          	sll	a5,a4,a5
   203f8:	fff7c793          	not	a5,a5
   203fc:	fcf43823          	sd	a5,-48(s0)
   20400:	fe042783          	lw	a5,-32(s0)
   20404:	00078513          	mv	a0,a5
   20408:	c49ff0ef          	jal	ra,20050 <read_csr_num>
   2040c:	00050713          	mv	a4,a0
   20410:	fd043783          	ld	a5,-48(s0)
   20414:	00e7f7b3          	and	a5,a5,a4
   20418:	fcf43423          	sd	a5,-56(s0)
   2041c:	fdc42783          	lw	a5,-36(s0)
   20420:	fa043703          	ld	a4,-96(s0)
   20424:	00f71733          	sll	a4,a4,a5
   20428:	fd043783          	ld	a5,-48(s0)
   2042c:	fff7c793          	not	a5,a5
   20430:	00f777b3          	and	a5,a4,a5
   20434:	fc843703          	ld	a4,-56(s0)
   20438:	00f767b3          	or	a5,a4,a5
   2043c:	fcf43423          	sd	a5,-56(s0)
   20440:	fe442783          	lw	a5,-28(s0)
   20444:	0007871b          	sext.w	a4,a5
   20448:	00200793          	li	a5,2
   2044c:	06e7d463          	bge	a5,a4,204b4 <sbi_set_pmp+0x1a8>
   20450:	fe442783          	lw	a5,-28(s0)
   20454:	0007871b          	sext.w	a4,a5
   20458:	04000793          	li	a5,64
   2045c:	00f71863          	bne	a4,a5,2046c <sbi_set_pmp+0x160>
   20460:	fff00793          	li	a5,-1
   20464:	fef43423          	sd	a5,-24(s0)
   20468:	04c0006f          	j	204b4 <sbi_set_pmp+0x1a8>
   2046c:	fe442783          	lw	a5,-28(s0)
   20470:	ffe7879b          	addiw	a5,a5,-2
   20474:	0007879b          	sext.w	a5,a5
   20478:	00078713          	mv	a4,a5
   2047c:	00100793          	li	a5,1
   20480:	00e797b3          	sll	a5,a5,a4
   20484:	fff78793          	addi	a5,a5,-1
   20488:	fcf43023          	sd	a5,-64(s0)
   2048c:	fc043783          	ld	a5,-64(s0)
   20490:	fff7c793          	not	a5,a5
   20494:	fe843703          	ld	a4,-24(s0)
   20498:	00f777b3          	and	a5,a4,a5
   2049c:	fef43423          	sd	a5,-24(s0)
   204a0:	fc043783          	ld	a5,-64(s0)
   204a4:	0017d793          	srli	a5,a5,0x1
   204a8:	fe843703          	ld	a4,-24(s0)
   204ac:	00f767b3          	or	a5,a4,a5
   204b0:	fef43423          	sd	a5,-24(s0)
   204b4:	fd842783          	lw	a5,-40(s0)
   204b8:	fe843583          	ld	a1,-24(s0)
   204bc:	00078513          	mv	a0,a5
   204c0:	cc1ff0ef          	jal	ra,20180 <write_csr_num>
   204c4:	fe042783          	lw	a5,-32(s0)
   204c8:	fc843583          	ld	a1,-56(s0)
   204cc:	00078513          	mv	a0,a5
   204d0:	cb1ff0ef          	jal	ra,20180 <write_csr_num>
   204d4:	00000793          	li	a5,0
   204d8:	00078513          	mv	a0,a5
   204dc:	05813083          	ld	ra,88(sp)
   204e0:	05013403          	ld	s0,80(sp)
   204e4:	06010113          	addi	sp,sp,96
   204e8:	00008067          	ret

00000000000204ec <sbi_main>:
   204ec:	fb010113          	addi	sp,sp,-80
   204f0:	04113423          	sd	ra,72(sp)
   204f4:	04813023          	sd	s0,64(sp)
   204f8:	02913c23          	sd	s1,56(sp)
   204fc:	05010413          	addi	s0,sp,80
   20500:	27c000ef          	jal	ra,2077c <uart_init>
   20504:	1b0000ef          	jal	ra,206b4 <sbi_trap_init>
   20508:	00700693          	li	a3,7
   2050c:	fff00613          	li	a2,-1
   20510:	00000593          	li	a1,0
   20514:	00000513          	li	a0,0
   20518:	df5ff0ef          	jal	ra,2030c <sbi_set_pmp>
   2051c:	300027f3          	csrr	a5,mstatus
   20520:	00078493          	mv	s1,a5
   20524:	00048793          	mv	a5,s1
   20528:	fcf43c23          	sd	a5,-40(s0)
   2052c:	fd843703          	ld	a4,-40(s0)
   20530:	ffffe7b7          	lui	a5,0xffffe
   20534:	7ff78793          	addi	a5,a5,2047 # ffffffffffffe7ff <_payload_end+0xfffffffffffd77f7>
   20538:	00f77733          	and	a4,a4,a5
   2053c:	000017b7          	lui	a5,0x1
   20540:	80078793          	addi	a5,a5,-2048 # 800 <__bin_size-0x6808>
   20544:	00f767b3          	or	a5,a4,a5
   20548:	fcf43c23          	sd	a5,-40(s0)
   2054c:	fd843783          	ld	a5,-40(s0)
   20550:	f7f7f793          	andi	a5,a5,-129
   20554:	fcf43c23          	sd	a5,-40(s0)
   20558:	fd843783          	ld	a5,-40(s0)
   2055c:	fcf43823          	sd	a5,-48(s0)
   20560:	fd043783          	ld	a5,-48(s0)
   20564:	30079073          	csrw	mstatus,a5
   20568:	000237b7          	lui	a5,0x23
   2056c:	fcf43423          	sd	a5,-56(s0)
   20570:	fc843783          	ld	a5,-56(s0)
   20574:	34179073          	csrw	mepc,a5
   20578:	000237b7          	lui	a5,0x23
   2057c:	fcf43023          	sd	a5,-64(s0)
   20580:	fc043783          	ld	a5,-64(s0)
   20584:	10579073          	csrw	stvec,a5
   20588:	fa043c23          	sd	zero,-72(s0)
   2058c:	fb843783          	ld	a5,-72(s0)
   20590:	10479073          	csrw	sie,a5
   20594:	fa043823          	sd	zero,-80(s0)
   20598:	fb043783          	ld	a5,-80(s0)
   2059c:	18079073          	csrw	satp,a5
   205a0:	30200073          	mret
   205a4:	00000013          	nop
   205a8:	04813083          	ld	ra,72(sp)
   205ac:	04013403          	ld	s0,64(sp)
   205b0:	03813483          	ld	s1,56(sp)
   205b4:	05010113          	addi	sp,sp,80
   205b8:	00008067          	ret

00000000000205bc <sbi_ecall_handle>:
   205bc:	fd010113          	addi	sp,sp,-48
   205c0:	02113423          	sd	ra,40(sp)
   205c4:	02813023          	sd	s0,32(sp)
   205c8:	03010413          	addi	s0,sp,48
   205cc:	00050793          	mv	a5,a0
   205d0:	fcb43823          	sd	a1,-48(s0)
   205d4:	fcf42e23          	sw	a5,-36(s0)
   205d8:	fe042623          	sw	zero,-20(s0)
   205dc:	fdc42783          	lw	a5,-36(s0)
   205e0:	0007871b          	sext.w	a4,a5
   205e4:	00100793          	li	a5,1
   205e8:	02f71063          	bne	a4,a5,20608 <sbi_ecall_handle+0x4c>
   205ec:	fd043783          	ld	a5,-48(s0)
   205f0:	0507b783          	ld	a5,80(a5) # 23050 <bss_begin+0x50>
   205f4:	0007879b          	sext.w	a5,a5
   205f8:	00078513          	mv	a0,a5
   205fc:	43c000ef          	jal	ra,20a38 <putchar>
   20600:	fe042623          	sw	zero,-20(s0)
   20604:	00000013          	nop
   20608:	fec42783          	lw	a5,-20(s0)
   2060c:	0007879b          	sext.w	a5,a5
   20610:	00079c63          	bnez	a5,20628 <sbi_ecall_handle+0x6c>
   20614:	fd043783          	ld	a5,-48(s0)
   20618:	0007b783          	ld	a5,0(a5)
   2061c:	00478713          	addi	a4,a5,4
   20620:	fd043783          	ld	a5,-48(s0)
   20624:	00e7b023          	sd	a4,0(a5)
   20628:	fec42783          	lw	a5,-20(s0)
   2062c:	00078513          	mv	a0,a5
   20630:	02813083          	ld	ra,40(sp)
   20634:	02013403          	ld	s0,32(sp)
   20638:	03010113          	addi	sp,sp,48
   2063c:	00008067          	ret

0000000000020640 <sbi_trap_handler>:
   20640:	fc010113          	addi	sp,sp,-64
   20644:	02113c23          	sd	ra,56(sp)
   20648:	02813823          	sd	s0,48(sp)
   2064c:	02913423          	sd	s1,40(sp)
   20650:	04010413          	addi	s0,sp,64
   20654:	fca43423          	sd	a0,-56(s0)
   20658:	342027f3          	csrr	a5,mcause
   2065c:	00078493          	mv	s1,a5
   20660:	00048793          	mv	a5,s1
   20664:	fcf43c23          	sd	a5,-40(s0)
   20668:	fc843783          	ld	a5,-56(s0)
   2066c:	0887b783          	ld	a5,136(a5)
   20670:	fcf43823          	sd	a5,-48(s0)
   20674:	fd843703          	ld	a4,-40(s0)
   20678:	00900793          	li	a5,9
   2067c:	00f71e63          	bne	a4,a5,20698 <sbi_trap_handler+0x58>
   20680:	fd043783          	ld	a5,-48(s0)
   20684:	0007879b          	sext.w	a5,a5
   20688:	fc843583          	ld	a1,-56(s0)
   2068c:	00078513          	mv	a0,a5
   20690:	f2dff0ef          	jal	ra,205bc <sbi_ecall_handle>
   20694:	0080006f          	j	2069c <sbi_trap_handler+0x5c>
   20698:	00000013          	nop
   2069c:	00000013          	nop
   206a0:	03813083          	ld	ra,56(sp)
   206a4:	03013403          	ld	s0,48(sp)
   206a8:	02813483          	ld	s1,40(sp)
   206ac:	04010113          	addi	sp,sp,64
   206b0:	00008067          	ret

00000000000206b4 <sbi_trap_init>:
   206b4:	fe010113          	addi	sp,sp,-32
   206b8:	00813c23          	sd	s0,24(sp)
   206bc:	02010413          	addi	s0,sp,32
   206c0:	00001797          	auipc	a5,0x1
   206c4:	a7078793          	addi	a5,a5,-1424 # 21130 <sbi_exception_vector>
   206c8:	fef43423          	sd	a5,-24(s0)
   206cc:	fe843783          	ld	a5,-24(s0)
   206d0:	30579073          	csrw	mtvec,a5
   206d4:	fe043023          	sd	zero,-32(s0)
   206d8:	fe043783          	ld	a5,-32(s0)
   206dc:	30479073          	csrw	mie,a5
   206e0:	00000013          	nop
   206e4:	01813403          	ld	s0,24(sp)
   206e8:	02010113          	addi	sp,sp,32
   206ec:	00008067          	ret

00000000000206f0 <read8>:
   206f0:	fe010113          	addi	sp,sp,-32
   206f4:	00813c23          	sd	s0,24(sp)
   206f8:	02010413          	addi	s0,sp,32
   206fc:	fea43423          	sd	a0,-24(s0)
   20700:	fe843783          	ld	a5,-24(s0)
   20704:	0007c783          	lbu	a5,0(a5)
   20708:	0ff7f793          	andi	a5,a5,255
   2070c:	00078513          	mv	a0,a5
   20710:	01813403          	ld	s0,24(sp)
   20714:	02010113          	addi	sp,sp,32
   20718:	00008067          	ret

000000000002071c <read32>:
   2071c:	fe010113          	addi	sp,sp,-32
   20720:	00813c23          	sd	s0,24(sp)
   20724:	02010413          	addi	s0,sp,32
   20728:	fea43423          	sd	a0,-24(s0)
   2072c:	fe843783          	ld	a5,-24(s0)
   20730:	0007a783          	lw	a5,0(a5)
   20734:	0007879b          	sext.w	a5,a5
   20738:	00078513          	mv	a0,a5
   2073c:	01813403          	ld	s0,24(sp)
   20740:	02010113          	addi	sp,sp,32
   20744:	00008067          	ret

0000000000020748 <write32>:
   20748:	fe010113          	addi	sp,sp,-32
   2074c:	00813c23          	sd	s0,24(sp)
   20750:	02010413          	addi	s0,sp,32
   20754:	fea43423          	sd	a0,-24(s0)
   20758:	00058793          	mv	a5,a1
   2075c:	fef42223          	sw	a5,-28(s0)
   20760:	fe843783          	ld	a5,-24(s0)
   20764:	fe442703          	lw	a4,-28(s0)
   20768:	00e7a023          	sw	a4,0(a5)
   2076c:	00000013          	nop
   20770:	01813403          	ld	s0,24(sp)
   20774:	02010113          	addi	sp,sp,32
   20778:	00008067          	ret

000000000002077c <uart_init>:
   2077c:	fe010113          	addi	sp,sp,-32
   20780:	00113c23          	sd	ra,24(sp)
   20784:	00813823          	sd	s0,16(sp)
   20788:	02010413          	addi	s0,sp,32
   2078c:	020007b7          	lui	a5,0x2000
   20790:	0f078793          	addi	a5,a5,240 # 20000f0 <_payload_end+0x1fd90e8>
   20794:	fef43423          	sd	a5,-24(s0)
   20798:	fe843503          	ld	a0,-24(s0)
   2079c:	f81ff0ef          	jal	ra,2071c <read32>
   207a0:	00050793          	mv	a5,a0
   207a4:	fef42223          	sw	a5,-28(s0)
   207a8:	fe442703          	lw	a4,-28(s0)
   207ac:	fffff7b7          	lui	a5,0xfffff
   207b0:	0ff78793          	addi	a5,a5,255 # fffffffffffff0ff <_payload_end+0xfffffffffffd80f7>
   207b4:	00f777b3          	and	a5,a4,a5
   207b8:	fef42223          	sw	a5,-28(s0)
   207bc:	fe442783          	lw	a5,-28(s0)
   207c0:	3007e793          	ori	a5,a5,768
   207c4:	fef42223          	sw	a5,-28(s0)
   207c8:	fe442783          	lw	a5,-28(s0)
   207cc:	00078593          	mv	a1,a5
   207d0:	fe843503          	ld	a0,-24(s0)
   207d4:	f75ff0ef          	jal	ra,20748 <write32>
   207d8:	fe843503          	ld	a0,-24(s0)
   207dc:	f41ff0ef          	jal	ra,2071c <read32>
   207e0:	00050793          	mv	a5,a0
   207e4:	fef42223          	sw	a5,-28(s0)
   207e8:	fe442703          	lw	a4,-28(s0)
   207ec:	fff107b7          	lui	a5,0xfff10
   207f0:	fff78793          	addi	a5,a5,-1 # fffffffffff0ffff <_payload_end+0xffffffffffee8ff7>
   207f4:	00f777b3          	and	a5,a4,a5
   207f8:	fef42223          	sw	a5,-28(s0)
   207fc:	fe442703          	lw	a4,-28(s0)
   20800:	000307b7          	lui	a5,0x30
   20804:	00f767b3          	or	a5,a4,a5
   20808:	fef42223          	sw	a5,-28(s0)
   2080c:	fe442783          	lw	a5,-28(s0)
   20810:	00078593          	mv	a1,a5
   20814:	fe843503          	ld	a0,-24(s0)
   20818:	f31ff0ef          	jal	ra,20748 <write32>
   2081c:	020027b7          	lui	a5,0x2002
   20820:	90c78793          	addi	a5,a5,-1780 # 200190c <_payload_end+0x1fda904>
   20824:	fef43423          	sd	a5,-24(s0)
   20828:	fe843503          	ld	a0,-24(s0)
   2082c:	ef1ff0ef          	jal	ra,2071c <read32>
   20830:	00050793          	mv	a5,a0
   20834:	fef42223          	sw	a5,-28(s0)
   20838:	fe442783          	lw	a5,-28(s0)
   2083c:	0017e793          	ori	a5,a5,1
   20840:	fef42223          	sw	a5,-28(s0)
   20844:	fe442783          	lw	a5,-28(s0)
   20848:	00078593          	mv	a1,a5
   2084c:	fe843503          	ld	a0,-24(s0)
   20850:	ef9ff0ef          	jal	ra,20748 <write32>
   20854:	020027b7          	lui	a5,0x2002
   20858:	90c78793          	addi	a5,a5,-1780 # 200190c <_payload_end+0x1fda904>
   2085c:	fef43423          	sd	a5,-24(s0)
   20860:	fe843503          	ld	a0,-24(s0)
   20864:	eb9ff0ef          	jal	ra,2071c <read32>
   20868:	00050793          	mv	a5,a0
   2086c:	fef42223          	sw	a5,-28(s0)
   20870:	fe442703          	lw	a4,-28(s0)
   20874:	000107b7          	lui	a5,0x10
   20878:	00f767b3          	or	a5,a4,a5
   2087c:	fef42223          	sw	a5,-28(s0)
   20880:	fe442783          	lw	a5,-28(s0)
   20884:	00078593          	mv	a1,a5
   20888:	fe843503          	ld	a0,-24(s0)
   2088c:	ebdff0ef          	jal	ra,20748 <write32>
   20890:	025007b7          	lui	a5,0x2500
   20894:	fef43423          	sd	a5,-24(s0)
   20898:	fe843783          	ld	a5,-24(s0)
   2089c:	00478793          	addi	a5,a5,4 # 2500004 <_payload_end+0x24d8ffc>
   208a0:	00000593          	li	a1,0
   208a4:	00078513          	mv	a0,a5
   208a8:	ea1ff0ef          	jal	ra,20748 <write32>
   208ac:	fe843783          	ld	a5,-24(s0)
   208b0:	00878793          	addi	a5,a5,8
   208b4:	0f100593          	li	a1,241
   208b8:	00078513          	mv	a0,a5
   208bc:	e8dff0ef          	jal	ra,20748 <write32>
   208c0:	fe843783          	ld	a5,-24(s0)
   208c4:	01078793          	addi	a5,a5,16
   208c8:	00000593          	li	a1,0
   208cc:	00078513          	mv	a0,a5
   208d0:	e79ff0ef          	jal	ra,20748 <write32>
   208d4:	fe843783          	ld	a5,-24(s0)
   208d8:	00c78793          	addi	a5,a5,12
   208dc:	00078513          	mv	a0,a5
   208e0:	e3dff0ef          	jal	ra,2071c <read32>
   208e4:	00050793          	mv	a5,a0
   208e8:	fef42223          	sw	a5,-28(s0)
   208ec:	fe442783          	lw	a5,-28(s0)
   208f0:	0807e793          	ori	a5,a5,128
   208f4:	fef42223          	sw	a5,-28(s0)
   208f8:	fe843783          	ld	a5,-24(s0)
   208fc:	00c78793          	addi	a5,a5,12
   20900:	fe442703          	lw	a4,-28(s0)
   20904:	00070593          	mv	a1,a4
   20908:	00078513          	mv	a0,a5
   2090c:	e3dff0ef          	jal	ra,20748 <write32>
   20910:	00d00593          	li	a1,13
   20914:	fe843503          	ld	a0,-24(s0)
   20918:	e31ff0ef          	jal	ra,20748 <write32>
   2091c:	fe843783          	ld	a5,-24(s0)
   20920:	00478793          	addi	a5,a5,4
   20924:	00000593          	li	a1,0
   20928:	00078513          	mv	a0,a5
   2092c:	e1dff0ef          	jal	ra,20748 <write32>
   20930:	fe843783          	ld	a5,-24(s0)
   20934:	00c78793          	addi	a5,a5,12
   20938:	00078513          	mv	a0,a5
   2093c:	de1ff0ef          	jal	ra,2071c <read32>
   20940:	00050793          	mv	a5,a0
   20944:	fef42223          	sw	a5,-28(s0)
   20948:	fe442783          	lw	a5,-28(s0)
   2094c:	f7f7f793          	andi	a5,a5,-129
   20950:	fef42223          	sw	a5,-28(s0)
   20954:	fe843783          	ld	a5,-24(s0)
   20958:	00c78793          	addi	a5,a5,12
   2095c:	fe442703          	lw	a4,-28(s0)
   20960:	00070593          	mv	a1,a4
   20964:	00078513          	mv	a0,a5
   20968:	de1ff0ef          	jal	ra,20748 <write32>
   2096c:	fe843783          	ld	a5,-24(s0)
   20970:	00c78793          	addi	a5,a5,12
   20974:	00078513          	mv	a0,a5
   20978:	da5ff0ef          	jal	ra,2071c <read32>
   2097c:	00050793          	mv	a5,a0
   20980:	fef42223          	sw	a5,-28(s0)
   20984:	fe442783          	lw	a5,-28(s0)
   20988:	fe07f793          	andi	a5,a5,-32
   2098c:	fef42223          	sw	a5,-28(s0)
   20990:	fe442783          	lw	a5,-28(s0)
   20994:	0037e793          	ori	a5,a5,3
   20998:	fef42223          	sw	a5,-28(s0)
   2099c:	fe843783          	ld	a5,-24(s0)
   209a0:	00c78793          	addi	a5,a5,12
   209a4:	fe442703          	lw	a4,-28(s0)
   209a8:	00070593          	mv	a1,a4
   209ac:	00078513          	mv	a0,a5
   209b0:	d99ff0ef          	jal	ra,20748 <write32>
   209b4:	00000013          	nop
   209b8:	01813083          	ld	ra,24(sp)
   209bc:	01013403          	ld	s0,16(sp)
   209c0:	02010113          	addi	sp,sp,32
   209c4:	00008067          	ret

00000000000209c8 <uart_send>:
   209c8:	fd010113          	addi	sp,sp,-48
   209cc:	02113423          	sd	ra,40(sp)
   209d0:	02813023          	sd	s0,32(sp)
   209d4:	03010413          	addi	s0,sp,48
   209d8:	00050793          	mv	a5,a0
   209dc:	fcf40fa3          	sb	a5,-33(s0)
   209e0:	025007b7          	lui	a5,0x2500
   209e4:	fef43423          	sd	a5,-24(s0)
   209e8:	00000013          	nop
   209ec:	fe843783          	ld	a5,-24(s0)
   209f0:	07c78793          	addi	a5,a5,124 # 250007c <_payload_end+0x24d9074>
   209f4:	00078513          	mv	a0,a5
   209f8:	d25ff0ef          	jal	ra,2071c <read32>
   209fc:	00050793          	mv	a5,a0
   20a00:	0007879b          	sext.w	a5,a5
   20a04:	0027f793          	andi	a5,a5,2
   20a08:	0007879b          	sext.w	a5,a5
   20a0c:	fe0780e3          	beqz	a5,209ec <uart_send+0x24>
   20a10:	fdf44783          	lbu	a5,-33(s0)
   20a14:	0007879b          	sext.w	a5,a5
   20a18:	00078593          	mv	a1,a5
   20a1c:	fe843503          	ld	a0,-24(s0)
   20a20:	d29ff0ef          	jal	ra,20748 <write32>
   20a24:	00000013          	nop
   20a28:	02813083          	ld	ra,40(sp)
   20a2c:	02013403          	ld	s0,32(sp)
   20a30:	03010113          	addi	sp,sp,48
   20a34:	00008067          	ret

0000000000020a38 <putchar>:
   20a38:	fe010113          	addi	sp,sp,-32
   20a3c:	00113c23          	sd	ra,24(sp)
   20a40:	00813823          	sd	s0,16(sp)
   20a44:	02010413          	addi	s0,sp,32
   20a48:	00050793          	mv	a5,a0
   20a4c:	fef42623          	sw	a5,-20(s0)
   20a50:	fec42783          	lw	a5,-20(s0)
   20a54:	0ff7f793          	andi	a5,a5,255
   20a58:	00078513          	mv	a0,a5
   20a5c:	f6dff0ef          	jal	ra,209c8 <uart_send>
   20a60:	fec42783          	lw	a5,-20(s0)
   20a64:	00078513          	mv	a0,a5
   20a68:	01813083          	ld	ra,24(sp)
   20a6c:	01013403          	ld	s0,16(sp)
   20a70:	02010113          	addi	sp,sp,32
   20a74:	00008067          	ret

0000000000020a78 <uart_recv>:
   20a78:	fe010113          	addi	sp,sp,-32
   20a7c:	00113c23          	sd	ra,24(sp)
   20a80:	00813823          	sd	s0,16(sp)
   20a84:	02010413          	addi	s0,sp,32
   20a88:	025007b7          	lui	a5,0x2500
   20a8c:	fef43423          	sd	a5,-24(s0)
   20a90:	00000013          	nop
   20a94:	fe843783          	ld	a5,-24(s0)
   20a98:	07c78793          	addi	a5,a5,124 # 250007c <_payload_end+0x24d9074>
   20a9c:	00078513          	mv	a0,a5
   20aa0:	c7dff0ef          	jal	ra,2071c <read32>
   20aa4:	00050793          	mv	a5,a0
   20aa8:	0007879b          	sext.w	a5,a5
   20aac:	0087f793          	andi	a5,a5,8
   20ab0:	0007879b          	sext.w	a5,a5
   20ab4:	fe0780e3          	beqz	a5,20a94 <uart_recv+0x1c>
   20ab8:	fe843503          	ld	a0,-24(s0)
   20abc:	c35ff0ef          	jal	ra,206f0 <read8>
   20ac0:	00050793          	mv	a5,a0
   20ac4:	00078513          	mv	a0,a5
   20ac8:	01813083          	ld	ra,24(sp)
   20acc:	01013403          	ld	s0,16(sp)
   20ad0:	02010113          	addi	sp,sp,32
   20ad4:	00008067          	ret

0000000000020ad8 <uart_send_string>:
   20ad8:	fd010113          	addi	sp,sp,-48
   20adc:	02113423          	sd	ra,40(sp)
   20ae0:	02813023          	sd	s0,32(sp)
   20ae4:	03010413          	addi	s0,sp,48
   20ae8:	fca43c23          	sd	a0,-40(s0)
   20aec:	fe042623          	sw	zero,-20(s0)
   20af0:	04c0006f          	j	20b3c <uart_send_string+0x64>
   20af4:	fec42783          	lw	a5,-20(s0)
   20af8:	fd843703          	ld	a4,-40(s0)
   20afc:	00f707b3          	add	a5,a4,a5
   20b00:	0007c783          	lbu	a5,0(a5)
   20b04:	00078713          	mv	a4,a5
   20b08:	00a00793          	li	a5,10
   20b0c:	00f71663          	bne	a4,a5,20b18 <uart_send_string+0x40>
   20b10:	00d00513          	li	a0,13
   20b14:	eb5ff0ef          	jal	ra,209c8 <uart_send>
   20b18:	fec42783          	lw	a5,-20(s0)
   20b1c:	fd843703          	ld	a4,-40(s0)
   20b20:	00f707b3          	add	a5,a4,a5
   20b24:	0007c783          	lbu	a5,0(a5)
   20b28:	00078513          	mv	a0,a5
   20b2c:	e9dff0ef          	jal	ra,209c8 <uart_send>
   20b30:	fec42783          	lw	a5,-20(s0)
   20b34:	0017879b          	addiw	a5,a5,1
   20b38:	fef42623          	sw	a5,-20(s0)
   20b3c:	fec42783          	lw	a5,-20(s0)
   20b40:	fd843703          	ld	a4,-40(s0)
   20b44:	00f707b3          	add	a5,a4,a5
   20b48:	0007c783          	lbu	a5,0(a5)
   20b4c:	fa0794e3          	bnez	a5,20af4 <uart_send_string+0x1c>
   20b50:	00000013          	nop
   20b54:	00000013          	nop
   20b58:	02813083          	ld	ra,40(sp)
   20b5c:	02013403          	ld	s0,32(sp)
   20b60:	03010113          	addi	sp,sp,48
   20b64:	00008067          	ret

0000000000020b68 <vpf_str_to_num>:
   20b68:	fc010113          	addi	sp,sp,-64
   20b6c:	02813c23          	sd	s0,56(sp)
   20b70:	04010413          	addi	s0,sp,64
   20b74:	fca43423          	sd	a0,-56(s0)
   20b78:	fcb43023          	sd	a1,-64(s0)
   20b7c:	fe042223          	sw	zero,-28(s0)
   20b80:	fc843783          	ld	a5,-56(s0)
   20b84:	fef43423          	sd	a5,-24(s0)
   20b88:	0900006f          	j	20c18 <vpf_str_to_num+0xb0>
   20b8c:	fe843783          	ld	a5,-24(s0)
   20b90:	0007c783          	lbu	a5,0(a5)
   20b94:	00078713          	mv	a4,a5
   20b98:	02f00793          	li	a5,47
   20b9c:	02e7f063          	bgeu	a5,a4,20bbc <vpf_str_to_num+0x54>
   20ba0:	fe843783          	ld	a5,-24(s0)
   20ba4:	0007c783          	lbu	a5,0(a5)
   20ba8:	00078713          	mv	a4,a5
   20bac:	03900793          	li	a5,57
   20bb0:	00e7e663          	bltu	a5,a4,20bbc <vpf_str_to_num+0x54>
   20bb4:	00100793          	li	a5,1
   20bb8:	0080006f          	j	20bc0 <vpf_str_to_num+0x58>
   20bbc:	00000793          	li	a5,0
   20bc0:	fef42023          	sw	a5,-32(s0)
   20bc4:	fe042783          	lw	a5,-32(s0)
   20bc8:	0007879b          	sext.w	a5,a5
   20bcc:	04078e63          	beqz	a5,20c28 <vpf_str_to_num+0xc0>
   20bd0:	fe843783          	ld	a5,-24(s0)
   20bd4:	0007c783          	lbu	a5,0(a5)
   20bd8:	0007879b          	sext.w	a5,a5
   20bdc:	fd07879b          	addiw	a5,a5,-48
   20be0:	fcf42e23          	sw	a5,-36(s0)
   20be4:	fe442703          	lw	a4,-28(s0)
   20be8:	00070793          	mv	a5,a4
   20bec:	0027979b          	slliw	a5,a5,0x2
   20bf0:	00e787bb          	addw	a5,a5,a4
   20bf4:	0017979b          	slliw	a5,a5,0x1
   20bf8:	fef42223          	sw	a5,-28(s0)
   20bfc:	fe442703          	lw	a4,-28(s0)
   20c00:	fdc42783          	lw	a5,-36(s0)
   20c04:	00f707bb          	addw	a5,a4,a5
   20c08:	fef42223          	sw	a5,-28(s0)
   20c0c:	fe843783          	ld	a5,-24(s0)
   20c10:	00178793          	addi	a5,a5,1
   20c14:	fef43423          	sd	a5,-24(s0)
   20c18:	fc843783          	ld	a5,-56(s0)
   20c1c:	0007c783          	lbu	a5,0(a5)
   20c20:	f60796e3          	bnez	a5,20b8c <vpf_str_to_num+0x24>
   20c24:	0080006f          	j	20c2c <vpf_str_to_num+0xc4>
   20c28:	00000013          	nop
   20c2c:	fc043783          	ld	a5,-64(s0)
   20c30:	fe442703          	lw	a4,-28(s0)
   20c34:	00e7a023          	sw	a4,0(a5)
   20c38:	fe843703          	ld	a4,-24(s0)
   20c3c:	fc843783          	ld	a5,-56(s0)
   20c40:	40f707b3          	sub	a5,a4,a5
   20c44:	0007879b          	sext.w	a5,a5
   20c48:	00078513          	mv	a0,a5
   20c4c:	03813403          	ld	s0,56(sp)
   20c50:	04010113          	addi	sp,sp,64
   20c54:	00008067          	ret

0000000000020c58 <vpf_num_to_str>:
   20c58:	fb010113          	addi	sp,sp,-80
   20c5c:	04113423          	sd	ra,72(sp)
   20c60:	04813023          	sd	s0,64(sp)
   20c64:	05010413          	addi	s0,sp,80
   20c68:	00050793          	mv	a5,a0
   20c6c:	00068713          	mv	a4,a3
   20c70:	faf42e23          	sw	a5,-68(s0)
   20c74:	00058793          	mv	a5,a1
   20c78:	faf42c23          	sw	a5,-72(s0)
   20c7c:	00060793          	mv	a5,a2
   20c80:	faf42a23          	sw	a5,-76(s0)
   20c84:	00070793          	mv	a5,a4
   20c88:	faf42823          	sw	a5,-80(s0)
   20c8c:	fe042223          	sw	zero,-28(s0)
   20c90:	0280006f          	j	20cb8 <vpf_num_to_str+0x60>
   20c94:	fb042783          	lw	a5,-80(s0)
   20c98:	0ff7f713          	andi	a4,a5,255
   20c9c:	fe442783          	lw	a5,-28(s0)
   20ca0:	ff040693          	addi	a3,s0,-16
   20ca4:	00f687b3          	add	a5,a3,a5
   20ca8:	fce78823          	sb	a4,-48(a5)
   20cac:	fe442783          	lw	a5,-28(s0)
   20cb0:	0017879b          	addiw	a5,a5,1
   20cb4:	fef42223          	sw	a5,-28(s0)
   20cb8:	fe442783          	lw	a5,-28(s0)
   20cbc:	00078713          	mv	a4,a5
   20cc0:	01f00793          	li	a5,31
   20cc4:	fce7f8e3          	bgeu	a5,a4,20c94 <vpf_num_to_str+0x3c>
   20cc8:	00a00793          	li	a5,10
   20ccc:	fef42623          	sw	a5,-20(s0)
   20cd0:	fb842783          	lw	a5,-72(s0)
   20cd4:	0007879b          	sext.w	a5,a5
   20cd8:	00078663          	beqz	a5,20ce4 <vpf_num_to_str+0x8c>
   20cdc:	01000793          	li	a5,16
   20ce0:	fef42623          	sw	a5,-20(s0)
   20ce4:	fe042423          	sw	zero,-24(s0)
   20ce8:	fbc42703          	lw	a4,-68(s0)
   20cec:	fec42783          	lw	a5,-20(s0)
   20cf0:	02f777bb          	remuw	a5,a4,a5
   20cf4:	0007879b          	sext.w	a5,a5
   20cf8:	fef42023          	sw	a5,-32(s0)
   20cfc:	fe042783          	lw	a5,-32(s0)
   20d00:	0007871b          	sext.w	a4,a5
   20d04:	00900793          	li	a5,9
   20d08:	02e7d463          	bge	a5,a4,20d30 <vpf_num_to_str+0xd8>
   20d0c:	fe042783          	lw	a5,-32(s0)
   20d10:	0ff7f793          	andi	a5,a5,255
   20d14:	0577879b          	addiw	a5,a5,87
   20d18:	0ff7f713          	andi	a4,a5,255
   20d1c:	fe842783          	lw	a5,-24(s0)
   20d20:	ff040693          	addi	a3,s0,-16
   20d24:	00f687b3          	add	a5,a3,a5
   20d28:	fce78823          	sb	a4,-48(a5)
   20d2c:	0240006f          	j	20d50 <vpf_num_to_str+0xf8>
   20d30:	fe042783          	lw	a5,-32(s0)
   20d34:	0ff7f793          	andi	a5,a5,255
   20d38:	0307879b          	addiw	a5,a5,48
   20d3c:	0ff7f713          	andi	a4,a5,255
   20d40:	fe842783          	lw	a5,-24(s0)
   20d44:	ff040693          	addi	a3,s0,-16
   20d48:	00f687b3          	add	a5,a3,a5
   20d4c:	fce78823          	sb	a4,-48(a5)
   20d50:	fbc42703          	lw	a4,-68(s0)
   20d54:	fec42783          	lw	a5,-20(s0)
   20d58:	02f757bb          	divuw	a5,a4,a5
   20d5c:	faf42e23          	sw	a5,-68(s0)
   20d60:	fe842783          	lw	a5,-24(s0)
   20d64:	0017879b          	addiw	a5,a5,1
   20d68:	fef42423          	sw	a5,-24(s0)
   20d6c:	fbc42783          	lw	a5,-68(s0)
   20d70:	0007879b          	sext.w	a5,a5
   20d74:	f6079ae3          	bnez	a5,20ce8 <vpf_num_to_str+0x90>
   20d78:	fb442783          	lw	a5,-76(s0)
   20d7c:	0007879b          	sext.w	a5,a5
   20d80:	02f05c63          	blez	a5,20db8 <vpf_num_to_str+0x160>
   20d84:	fb442783          	lw	a5,-76(s0)
   20d88:	00078713          	mv	a4,a5
   20d8c:	01f00793          	li	a5,31
   20d90:	00e7f663          	bgeu	a5,a4,20d9c <vpf_num_to_str+0x144>
   20d94:	01f00793          	li	a5,31
   20d98:	faf42a23          	sw	a5,-76(s0)
   20d9c:	fe842703          	lw	a4,-24(s0)
   20da0:	fb442783          	lw	a5,-76(s0)
   20da4:	0007071b          	sext.w	a4,a4
   20da8:	0007879b          	sext.w	a5,a5
   20dac:	00f75663          	bge	a4,a5,20db8 <vpf_num_to_str+0x160>
   20db0:	fb442783          	lw	a5,-76(s0)
   20db4:	fef42423          	sw	a5,-24(s0)
   20db8:	fe842783          	lw	a5,-24(s0)
   20dbc:	ff040713          	addi	a4,s0,-16
   20dc0:	00f707b3          	add	a5,a4,a5
   20dc4:	fc078823          	sb	zero,-48(a5)
   20dc8:	fe842783          	lw	a5,-24(s0)
   20dcc:	fff7879b          	addiw	a5,a5,-1
   20dd0:	fef42223          	sw	a5,-28(s0)
   20dd4:	0280006f          	j	20dfc <vpf_num_to_str+0x1a4>
   20dd8:	fe442783          	lw	a5,-28(s0)
   20ddc:	ff040713          	addi	a4,s0,-16
   20de0:	00f707b3          	add	a5,a4,a5
   20de4:	fd07c783          	lbu	a5,-48(a5)
   20de8:	00078513          	mv	a0,a5
   20dec:	bddff0ef          	jal	ra,209c8 <uart_send>
   20df0:	fe442783          	lw	a5,-28(s0)
   20df4:	fff7879b          	addiw	a5,a5,-1
   20df8:	fef42223          	sw	a5,-28(s0)
   20dfc:	fe442783          	lw	a5,-28(s0)
   20e00:	0007879b          	sext.w	a5,a5
   20e04:	fc07dae3          	bgez	a5,20dd8 <vpf_num_to_str+0x180>
   20e08:	00000013          	nop
   20e0c:	00000013          	nop
   20e10:	04813083          	ld	ra,72(sp)
   20e14:	04013403          	ld	s0,64(sp)
   20e18:	05010113          	addi	sp,sp,80
   20e1c:	00008067          	ret

0000000000020e20 <vpf>:
   20e20:	fb010113          	addi	sp,sp,-80
   20e24:	04113423          	sd	ra,72(sp)
   20e28:	04813023          	sd	s0,64(sp)
   20e2c:	05010413          	addi	s0,sp,80
   20e30:	faa43c23          	sd	a0,-72(s0)
   20e34:	fab43823          	sd	a1,-80(s0)
   20e38:	02000793          	li	a5,32
   20e3c:	fcf42a23          	sw	a5,-44(s0)
   20e40:	fb843783          	ld	a5,-72(s0)
   20e44:	fef43423          	sd	a5,-24(s0)
   20e48:	1880006f          	j	20fd0 <vpf+0x1b0>
   20e4c:	fc042e23          	sw	zero,-36(s0)
   20e50:	fc042223          	sw	zero,-60(s0)
   20e54:	fe843783          	ld	a5,-24(s0)
   20e58:	0007c783          	lbu	a5,0(a5)
   20e5c:	fcf42823          	sw	a5,-48(s0)
   20e60:	fe843783          	ld	a5,-24(s0)
   20e64:	fef43023          	sd	a5,-32(s0)
   20e68:	fe843783          	ld	a5,-24(s0)
   20e6c:	0007c783          	lbu	a5,0(a5)
   20e70:	00078713          	mv	a4,a5
   20e74:	02500793          	li	a5,37
   20e78:	06f71863          	bne	a4,a5,20ee8 <vpf+0xc8>
   20e7c:	fe843783          	ld	a5,-24(s0)
   20e80:	fef43023          	sd	a5,-32(s0)
   20e84:	fe843783          	ld	a5,-24(s0)
   20e88:	00178793          	addi	a5,a5,1
   20e8c:	fef43423          	sd	a5,-24(s0)
   20e90:	fe843783          	ld	a5,-24(s0)
   20e94:	0007c783          	lbu	a5,0(a5)
   20e98:	00078713          	mv	a4,a5
   20e9c:	02f00793          	li	a5,47
   20ea0:	02e7fe63          	bgeu	a5,a4,20edc <vpf+0xbc>
   20ea4:	fe843783          	ld	a5,-24(s0)
   20ea8:	0007c783          	lbu	a5,0(a5)
   20eac:	00078713          	mv	a4,a5
   20eb0:	03900793          	li	a5,57
   20eb4:	02e7e463          	bltu	a5,a4,20edc <vpf+0xbc>
   20eb8:	fc440793          	addi	a5,s0,-60
   20ebc:	00078593          	mv	a1,a5
   20ec0:	fe843503          	ld	a0,-24(s0)
   20ec4:	ca5ff0ef          	jal	ra,20b68 <vpf_str_to_num>
   20ec8:	00050793          	mv	a5,a0
   20ecc:	00078713          	mv	a4,a5
   20ed0:	fe843783          	ld	a5,-24(s0)
   20ed4:	00e787b3          	add	a5,a5,a4
   20ed8:	fef43423          	sd	a5,-24(s0)
   20edc:	fe843783          	ld	a5,-24(s0)
   20ee0:	0007c783          	lbu	a5,0(a5)
   20ee4:	fcf42e23          	sw	a5,-36(s0)
   20ee8:	fdc42783          	lw	a5,-36(s0)
   20eec:	0007871b          	sext.w	a4,a5
   20ef0:	06400793          	li	a5,100
   20ef4:	00f70a63          	beq	a4,a5,20f08 <vpf+0xe8>
   20ef8:	fdc42783          	lw	a5,-36(s0)
   20efc:	0007871b          	sext.w	a4,a5
   20f00:	07800793          	li	a5,120
   20f04:	04f71863          	bne	a4,a5,20f54 <vpf+0x134>
   20f08:	fb043783          	ld	a5,-80(s0)
   20f0c:	00878713          	addi	a4,a5,8
   20f10:	fae43823          	sd	a4,-80(s0)
   20f14:	0007a783          	lw	a5,0(a5)
   20f18:	fcf42423          	sw	a5,-56(s0)
   20f1c:	fc842503          	lw	a0,-56(s0)
   20f20:	fdc42783          	lw	a5,-36(s0)
   20f24:	0007871b          	sext.w	a4,a5
   20f28:	07800793          	li	a5,120
   20f2c:	40f707b3          	sub	a5,a4,a5
   20f30:	0017b793          	seqz	a5,a5
   20f34:	0ff7f793          	andi	a5,a5,255
   20f38:	0007879b          	sext.w	a5,a5
   20f3c:	fc442703          	lw	a4,-60(s0)
   20f40:	fd442683          	lw	a3,-44(s0)
   20f44:	00070613          	mv	a2,a4
   20f48:	00078593          	mv	a1,a5
   20f4c:	d0dff0ef          	jal	ra,20c58 <vpf_num_to_str>
   20f50:	0740006f          	j	20fc4 <vpf+0x1a4>
   20f54:	fc042c23          	sw	zero,-40(s0)
   20f58:	0280006f          	j	20f80 <vpf+0x160>
   20f5c:	fd842783          	lw	a5,-40(s0)
   20f60:	fe043703          	ld	a4,-32(s0)
   20f64:	00f707b3          	add	a5,a4,a5
   20f68:	0007c783          	lbu	a5,0(a5)
   20f6c:	00078513          	mv	a0,a5
   20f70:	a59ff0ef          	jal	ra,209c8 <uart_send>
   20f74:	fd842783          	lw	a5,-40(s0)
   20f78:	0017879b          	addiw	a5,a5,1
   20f7c:	fcf42c23          	sw	a5,-40(s0)
   20f80:	fd842703          	lw	a4,-40(s0)
   20f84:	fe843683          	ld	a3,-24(s0)
   20f88:	fe043783          	ld	a5,-32(s0)
   20f8c:	40f687b3          	sub	a5,a3,a5
   20f90:	fcf746e3          	blt	a4,a5,20f5c <vpf+0x13c>
   20f94:	fdc42783          	lw	a5,-36(s0)
   20f98:	0007879b          	sext.w	a5,a5
   20f9c:	00078863          	beqz	a5,20fac <vpf+0x18c>
   20fa0:	fdc42783          	lw	a5,-36(s0)
   20fa4:	0ff7f793          	andi	a5,a5,255
   20fa8:	00c0006f          	j	20fb4 <vpf+0x194>
   20fac:	fd042783          	lw	a5,-48(s0)
   20fb0:	0ff7f793          	andi	a5,a5,255
   20fb4:	fcf407a3          	sb	a5,-49(s0)
   20fb8:	fcf44783          	lbu	a5,-49(s0)
   20fbc:	00078513          	mv	a0,a5
   20fc0:	a09ff0ef          	jal	ra,209c8 <uart_send>
   20fc4:	fe843783          	ld	a5,-24(s0)
   20fc8:	00178793          	addi	a5,a5,1
   20fcc:	fef43423          	sd	a5,-24(s0)
   20fd0:	fe843783          	ld	a5,-24(s0)
   20fd4:	0007c783          	lbu	a5,0(a5)
   20fd8:	e6079ae3          	bnez	a5,20e4c <vpf+0x2c>
   20fdc:	00000793          	li	a5,0
   20fe0:	00078513          	mv	a0,a5
   20fe4:	04813083          	ld	ra,72(sp)
   20fe8:	04013403          	ld	s0,64(sp)
   20fec:	05010113          	addi	sp,sp,80
   20ff0:	00008067          	ret

0000000000020ff4 <sys_uart_printf>:
   20ff4:	f9010113          	addi	sp,sp,-112
   20ff8:	02113423          	sd	ra,40(sp)
   20ffc:	02813023          	sd	s0,32(sp)
   21000:	03010413          	addi	s0,sp,48
   21004:	fca43c23          	sd	a0,-40(s0)
   21008:	00b43423          	sd	a1,8(s0)
   2100c:	00c43823          	sd	a2,16(s0)
   21010:	00d43c23          	sd	a3,24(s0)
   21014:	02e43023          	sd	a4,32(s0)
   21018:	02f43423          	sd	a5,40(s0)
   2101c:	03043823          	sd	a6,48(s0)
   21020:	03143c23          	sd	a7,56(s0)
   21024:	04040793          	addi	a5,s0,64
   21028:	fcf43823          	sd	a5,-48(s0)
   2102c:	fd043783          	ld	a5,-48(s0)
   21030:	fc878793          	addi	a5,a5,-56
   21034:	fef43423          	sd	a5,-24(s0)
   21038:	fe843783          	ld	a5,-24(s0)
   2103c:	00078593          	mv	a1,a5
   21040:	fd843503          	ld	a0,-40(s0)
   21044:	dddff0ef          	jal	ra,20e20 <vpf>
   21048:	00000793          	li	a5,0
   2104c:	00078513          	mv	a0,a5
   21050:	02813083          	ld	ra,40(sp)
   21054:	02013403          	ld	s0,32(sp)
   21058:	07010113          	addi	sp,sp,112
   2105c:	00008067          	ret

0000000000021060 <print_hex>:
   21060:	fd010113          	addi	sp,sp,-48
   21064:	02113423          	sd	ra,40(sp)
   21068:	02813023          	sd	s0,32(sp)
   2106c:	03010413          	addi	s0,sp,48
   21070:	00050793          	mv	a5,a0
   21074:	fcf42e23          	sw	a5,-36(s0)
   21078:	03000513          	li	a0,48
   2107c:	94dff0ef          	jal	ra,209c8 <uart_send>
   21080:	07800513          	li	a0,120
   21084:	945ff0ef          	jal	ra,209c8 <uart_send>
   21088:	00700793          	li	a5,7
   2108c:	fef42623          	sw	a5,-20(s0)
   21090:	07c0006f          	j	2110c <print_hex+0xac>
   21094:	fec42783          	lw	a5,-20(s0)
   21098:	0027979b          	slliw	a5,a5,0x2
   2109c:	0007879b          	sext.w	a5,a5
   210a0:	00078713          	mv	a4,a5
   210a4:	fdc42783          	lw	a5,-36(s0)
   210a8:	00e7d7bb          	srlw	a5,a5,a4
   210ac:	0007879b          	sext.w	a5,a5
   210b0:	0007879b          	sext.w	a5,a5
   210b4:	00f7f793          	andi	a5,a5,15
   210b8:	fef42423          	sw	a5,-24(s0)
   210bc:	fe842783          	lw	a5,-24(s0)
   210c0:	0007871b          	sext.w	a4,a5
   210c4:	00900793          	li	a5,9
   210c8:	02e7c063          	blt	a5,a4,210e8 <print_hex+0x88>
   210cc:	fe842783          	lw	a5,-24(s0)
   210d0:	0ff7f793          	andi	a5,a5,255
   210d4:	0307879b          	addiw	a5,a5,48
   210d8:	0ff7f793          	andi	a5,a5,255
   210dc:	00078513          	mv	a0,a5
   210e0:	8e9ff0ef          	jal	ra,209c8 <uart_send>
   210e4:	01c0006f          	j	21100 <print_hex+0xa0>
   210e8:	fe842783          	lw	a5,-24(s0)
   210ec:	0ff7f793          	andi	a5,a5,255
   210f0:	0377879b          	addiw	a5,a5,55
   210f4:	0ff7f793          	andi	a5,a5,255
   210f8:	00078513          	mv	a0,a5
   210fc:	8cdff0ef          	jal	ra,209c8 <uart_send>
   21100:	fec42783          	lw	a5,-20(s0)
   21104:	fff7879b          	addiw	a5,a5,-1
   21108:	fef42623          	sw	a5,-20(s0)
   2110c:	fec42783          	lw	a5,-20(s0)
   21110:	0007879b          	sext.w	a5,a5
   21114:	f807d0e3          	bgez	a5,21094 <print_hex+0x34>
   21118:	00000013          	nop
   2111c:	00000013          	nop
   21120:	02813083          	ld	ra,40(sp)
   21124:	02013403          	ld	s0,32(sp)
   21128:	03010113          	addi	sp,sp,48
   2112c:	00008067          	ret

0000000000021130 <sbi_exception_vector>:
   21130:	34011173          	csrrw	sp,mscratch,sp
   21134:	ef810113          	addi	sp,sp,-264
   21138:	00113423          	sd	ra,8(sp)
   2113c:	00313c23          	sd	gp,24(sp)
   21140:	02513423          	sd	t0,40(sp)
   21144:	02613823          	sd	t1,48(sp)
   21148:	02713c23          	sd	t2,56(sp)
   2114c:	04813023          	sd	s0,64(sp)
   21150:	04913423          	sd	s1,72(sp)
   21154:	04a13823          	sd	a0,80(sp)
   21158:	04b13c23          	sd	a1,88(sp)
   2115c:	06c13023          	sd	a2,96(sp)
   21160:	06d13423          	sd	a3,104(sp)
   21164:	06e13823          	sd	a4,112(sp)
   21168:	06f13c23          	sd	a5,120(sp)
   2116c:	09013023          	sd	a6,128(sp)
   21170:	09113423          	sd	a7,136(sp)
   21174:	09213823          	sd	s2,144(sp)
   21178:	09313c23          	sd	s3,152(sp)
   2117c:	0b413023          	sd	s4,160(sp)
   21180:	0b513423          	sd	s5,168(sp)
   21184:	0b613823          	sd	s6,176(sp)
   21188:	0b713c23          	sd	s7,184(sp)
   2118c:	0d813023          	sd	s8,192(sp)
   21190:	0d913423          	sd	s9,200(sp)
   21194:	0da13823          	sd	s10,208(sp)
   21198:	0db13c23          	sd	s11,216(sp)
   2119c:	0fc13023          	sd	t3,224(sp)
   211a0:	0fd13423          	sd	t4,232(sp)
   211a4:	0fe13823          	sd	t5,240(sp)
   211a8:	0ff13c23          	sd	t6,248(sp)
   211ac:	341022f3          	csrr	t0,mepc
   211b0:	00513023          	sd	t0,0(sp)
   211b4:	300022f3          	csrr	t0,mstatus
   211b8:	10513023          	sd	t0,256(sp)
   211bc:	10810293          	addi	t0,sp,264
   211c0:	340292f3          	csrrw	t0,mscratch,t0
   211c4:	00513823          	sd	t0,16(sp)
   211c8:	00010513          	mv	a0,sp
   211cc:	c74ff0ef          	jal	ra,20640 <sbi_trap_handler>
   211d0:	10013283          	ld	t0,256(sp)
   211d4:	30029073          	csrw	mstatus,t0
   211d8:	00013283          	ld	t0,0(sp)
   211dc:	34129073          	csrw	mepc,t0
   211e0:	00813083          	ld	ra,8(sp)
   211e4:	01813183          	ld	gp,24(sp)
   211e8:	02813283          	ld	t0,40(sp)
   211ec:	03013303          	ld	t1,48(sp)
   211f0:	03813383          	ld	t2,56(sp)
   211f4:	04013403          	ld	s0,64(sp)
   211f8:	04813483          	ld	s1,72(sp)
   211fc:	05013503          	ld	a0,80(sp)
   21200:	05813583          	ld	a1,88(sp)
   21204:	06013603          	ld	a2,96(sp)
   21208:	06813683          	ld	a3,104(sp)
   2120c:	07013703          	ld	a4,112(sp)
   21210:	07813783          	ld	a5,120(sp)
   21214:	08013803          	ld	a6,128(sp)
   21218:	08813883          	ld	a7,136(sp)
   2121c:	09013903          	ld	s2,144(sp)
   21220:	09813983          	ld	s3,152(sp)
   21224:	0a013a03          	ld	s4,160(sp)
   21228:	0a813a83          	ld	s5,168(sp)
   2122c:	0b013b03          	ld	s6,176(sp)
   21230:	0b813b83          	ld	s7,184(sp)
   21234:	0c013c03          	ld	s8,192(sp)
   21238:	0c813c83          	ld	s9,200(sp)
   2123c:	0d013d03          	ld	s10,208(sp)
   21240:	0d813d83          	ld	s11,216(sp)
   21244:	0e013e03          	ld	t3,224(sp)
   21248:	0e813e83          	ld	t4,232(sp)
   2124c:	0f013f03          	ld	t5,240(sp)
   21250:	0f813f83          	ld	t6,248(sp)
   21254:	01013103          	ld	sp,16(sp)
   21258:	30200073          	mret
   2125c:	0000                	unimp
	...

Disassembly of section .rodata:

0000000000021260 <.rodata>:
   21260:	ee50                	sd	a2,152(a2)
   21262:	ef04ffff          	0xef04ffff
   21266:	ef04ffff          	0xef04ffff
   2126a:	ef04ffff          	0xef04ffff
   2126e:	ef04ffff          	0xef04ffff
   21272:	ef04ffff          	0xef04ffff
   21276:	ef04ffff          	0xef04ffff
   2127a:	ef04ffff          	0xef04ffff
   2127e:	ef04ffff          	0xef04ffff
   21282:	ef04ffff          	0xef04ffff
   21286:	ef04ffff          	0xef04ffff
   2128a:	ef04ffff          	0xef04ffff
   2128e:	ef04ffff          	0xef04ffff
   21292:	ef04ffff          	0xef04ffff
   21296:	ef04ffff          	0xef04ffff
   2129a:	ef04ffff          	0xef04ffff
   2129e:	ee64ffff          	0xee64ffff
   212a2:	ee78ffff          	0xee78ffff
   212a6:	ee8cffff          	0xee8cffff
   212aa:	eea0ffff          	0xeea0ffff
   212ae:	eeb4ffff          	0xeeb4ffff
   212b2:	eec8ffff          	0xeec8ffff
   212b6:	eedcffff          	0xeedcffff
   212ba:	eef0ffff          	0xeef0ffff
   212be:	ef1cffff          	0xef1cffff
   212c2:	efd0ffff          	0xefd0ffff
   212c6:	efd0ffff          	0xefd0ffff
   212ca:	efd0ffff          	0xefd0ffff
   212ce:	efd0ffff          	0xefd0ffff
   212d2:	efd0ffff          	0xefd0ffff
   212d6:	efd0ffff          	0xefd0ffff
   212da:	efd0ffff          	0xefd0ffff
   212de:	efd0ffff          	0xefd0ffff
   212e2:	efd0ffff          	0xefd0ffff
   212e6:	efd0ffff          	0xefd0ffff
   212ea:	efd0ffff          	0xefd0ffff
   212ee:	efd0ffff          	0xefd0ffff
   212f2:	efd0ffff          	0xefd0ffff
   212f6:	efd0ffff          	0xefd0ffff
   212fa:	efd0ffff          	0xefd0ffff
   212fe:	ef30ffff          	0xef30ffff
   21302:	ef44ffff          	0xef44ffff
   21306:	ef58ffff          	0xef58ffff
   2130a:	ef6cffff          	0xef6cffff
   2130e:	ef80ffff          	0xef80ffff
   21312:	ef94ffff          	0xef94ffff
   21316:	efa8ffff          	0xefa8ffff
   2131a:	efbcffff          	0xefbcffff
   2131e:	          	0xffff

Disassembly of section .data:

0000000000022000 <stacks_start>:
	...

Disassembly of section .payload:

0000000000023000 <bss_begin>:
   23000:	10401073          	csrw	sie,zero
   23004:	454020ef          	jal	ra,25458 <bss_begin+0x2458>
   23008:	00000097          	auipc	ra,0x0
   2300c:	01c080e7          	jalr	28(ra) # 23024 <bss_begin+0x24>
   23010:	00003117          	auipc	sp,0x3
   23014:	ff010113          	addi	sp,sp,-16 # 26000 <bss_begin+0x3000>
   23018:	000012b7          	lui	t0,0x1
   2301c:	00510133          	add	sp,sp,t0
   23020:	0250006f          	j	23844 <bss_begin+0x844>
   23024:	00008493          	mv	s1,ra
   23028:	00003517          	auipc	a0,0x3
   2302c:	8b850513          	addi	a0,a0,-1864 # 258e0 <bss_begin+0x28e0>
   23030:	4e8020ef          	jal	ra,25518 <bss_begin+0x2518>
   23034:	00048093          	mv	ra,s1
   23038:	00008067          	ret
   2303c:	0000                	unimp
   2303e:	0000                	unimp
   23040:	fe010113          	addi	sp,sp,-32
   23044:	00813c23          	sd	s0,24(sp)
   23048:	02010413          	addi	s0,sp,32
   2304c:	00050793          	mv	a5,a0
   23050:	fef407a3          	sb	a5,-17(s0)
   23054:	fef44783          	lbu	a5,-17(s0)
   23058:	00078513          	mv	a0,a5
   2305c:	00000593          	li	a1,0
   23060:	00000613          	li	a2,0
   23064:	00100893          	li	a7,1
   23068:	00000073          	ecall
   2306c:	00000013          	nop
   23070:	01813403          	ld	s0,24(sp)
   23074:	02010113          	addi	sp,sp,32
   23078:	00008067          	ret
   2307c:	fd010113          	addi	sp,sp,-48
   23080:	02113423          	sd	ra,40(sp)
   23084:	02813023          	sd	s0,32(sp)
   23088:	03010413          	addi	s0,sp,48
   2308c:	fca43c23          	sd	a0,-40(s0)
   23090:	fe042623          	sw	zero,-20(s0)
   23094:	0280006f          	j	230bc <bss_begin+0xbc>
   23098:	fec42783          	lw	a5,-20(s0)
   2309c:	fd843703          	ld	a4,-40(s0)
   230a0:	00f707b3          	add	a5,a4,a5
   230a4:	0007c783          	lbu	a5,0(a5)
   230a8:	00078513          	mv	a0,a5
   230ac:	f95ff0ef          	jal	ra,23040 <bss_begin+0x40>
   230b0:	fec42783          	lw	a5,-20(s0)
   230b4:	0017879b          	addiw	a5,a5,1
   230b8:	fef42623          	sw	a5,-20(s0)
   230bc:	fec42783          	lw	a5,-20(s0)
   230c0:	fd843703          	ld	a4,-40(s0)
   230c4:	00f707b3          	add	a5,a4,a5
   230c8:	0007c783          	lbu	a5,0(a5)
   230cc:	fc0796e3          	bnez	a5,23098 <bss_begin+0x98>
   230d0:	00000013          	nop
   230d4:	00000013          	nop
   230d8:	02813083          	ld	ra,40(sp)
   230dc:	02013403          	ld	s0,32(sp)
   230e0:	03010113          	addi	sp,sp,48
   230e4:	00008067          	ret
   230e8:	fc010113          	addi	sp,sp,-64
   230ec:	02113c23          	sd	ra,56(sp)
   230f0:	02813823          	sd	s0,48(sp)
   230f4:	04010413          	addi	s0,sp,64
   230f8:	fca43423          	sd	a0,-56(s0)
   230fc:	fe042623          	sw	zero,-20(s0)
   23100:	0300006f          	j	23130 <bss_begin+0x130>
   23104:	00002717          	auipc	a4,0x2
   23108:	2b470713          	addi	a4,a4,692 # 253b8 <bss_begin+0x23b8>
   2310c:	fec42783          	lw	a5,-20(s0)
   23110:	00379793          	slli	a5,a5,0x3
   23114:	00f707b3          	add	a5,a4,a5
   23118:	0007b783          	ld	a5,0(a5)
   2311c:	fc843703          	ld	a4,-56(s0)
   23120:	02f70663          	beq	a4,a5,2314c <bss_begin+0x14c>
   23124:	fec42783          	lw	a5,-20(s0)
   23128:	0017879b          	addiw	a5,a5,1
   2312c:	fef42623          	sw	a5,-20(s0)
   23130:	fec42703          	lw	a4,-20(s0)
   23134:	00002797          	auipc	a5,0x2
   23138:	2b478793          	addi	a5,a5,692 # 253e8 <bss_begin+0x23e8>
   2313c:	0007b783          	ld	a5,0(a5)
   23140:	fcf762e3          	bltu	a4,a5,23104 <bss_begin+0x104>
   23144:	00000793          	li	a5,0
   23148:	0880006f          	j	231d0 <bss_begin+0x1d0>
   2314c:	00000013          	nop
   23150:	00002797          	auipc	a5,0x2
   23154:	28078793          	addi	a5,a5,640 # 253d0 <bss_begin+0x23d0>
   23158:	fef43023          	sd	a5,-32(s0)
   2315c:	fec42783          	lw	a5,-20(s0)
   23160:	0007879b          	sext.w	a5,a5
   23164:	00079863          	bnez	a5,23174 <bss_begin+0x174>
   23168:	fe043783          	ld	a5,-32(s0)
   2316c:	fcf43c23          	sd	a5,-40(s0)
   23170:	0480006f          	j	231b8 <bss_begin+0x1b8>
   23174:	fe043783          	ld	a5,-32(s0)
   23178:	00178793          	addi	a5,a5,1
   2317c:	fef43023          	sd	a5,-32(s0)
   23180:	fe043783          	ld	a5,-32(s0)
   23184:	0007c783          	lbu	a5,0(a5)
   23188:	00079863          	bnez	a5,23198 <bss_begin+0x198>
   2318c:	fec42783          	lw	a5,-20(s0)
   23190:	fff7879b          	addiw	a5,a5,-1
   23194:	fef42623          	sw	a5,-20(s0)
   23198:	fec42783          	lw	a5,-20(s0)
   2319c:	0007879b          	sext.w	a5,a5
   231a0:	fc079ae3          	bnez	a5,23174 <bss_begin+0x174>
   231a4:	fe043783          	ld	a5,-32(s0)
   231a8:	00178793          	addi	a5,a5,1
   231ac:	fef43023          	sd	a5,-32(s0)
   231b0:	fe043783          	ld	a5,-32(s0)
   231b4:	fcf43c23          	sd	a5,-40(s0)
   231b8:	fd843603          	ld	a2,-40(s0)
   231bc:	fc843583          	ld	a1,-56(s0)
   231c0:	00002517          	auipc	a0,0x2
   231c4:	39850513          	addi	a0,a0,920 # 25558 <bss_begin+0x2558>
   231c8:	698010ef          	jal	ra,24860 <bss_begin+0x1860>
   231cc:	00000793          	li	a5,0
   231d0:	00078513          	mv	a0,a5
   231d4:	03813083          	ld	ra,56(sp)
   231d8:	03013403          	ld	s0,48(sp)
   231dc:	04010113          	addi	sp,sp,64
   231e0:	00008067          	ret
   231e4:	fc010113          	addi	sp,sp,-64
   231e8:	02813c23          	sd	s0,56(sp)
   231ec:	04010413          	addi	s0,sp,64
   231f0:	fca43c23          	sd	a0,-40(s0)
   231f4:	fcb43823          	sd	a1,-48(s0)
   231f8:	fcc43423          	sd	a2,-56(s0)
   231fc:	fe043423          	sd	zero,-24(s0)
   23200:	fd843703          	ld	a4,-40(s0)
   23204:	fc843783          	ld	a5,-56(s0)
   23208:	00f707b3          	add	a5,a4,a5
   2320c:	fef43023          	sd	a5,-32(s0)
   23210:	fe043603          	ld	a2,-32(s0)
   23214:	fd043683          	ld	a3,-48(s0)
   23218:	fe843703          	ld	a4,-24(s0)
   2321c:	fd843783          	ld	a5,-40(s0)
   23220:	0007b703          	ld	a4,0(a5)
   23224:	00e6b023          	sd	a4,0(a3)
   23228:	00868693          	addi	a3,a3,8
   2322c:	00878793          	addi	a5,a5,8
   23230:	fec7c8e3          	blt	a5,a2,23220 <bss_begin+0x220>
   23234:	fcd43823          	sd	a3,-48(s0)
   23238:	fee43423          	sd	a4,-24(s0)
   2323c:	fcf43c23          	sd	a5,-40(s0)
   23240:	00000013          	nop
   23244:	03813403          	ld	s0,56(sp)
   23248:	04010113          	addi	sp,sp,64
   2324c:	00008067          	ret
   23250:	fc010113          	addi	sp,sp,-64
   23254:	02813c23          	sd	s0,56(sp)
   23258:	04010413          	addi	s0,sp,64
   2325c:	fca43c23          	sd	a0,-40(s0)
   23260:	fcb43823          	sd	a1,-48(s0)
   23264:	fcc43423          	sd	a2,-56(s0)
   23268:	fe043423          	sd	zero,-24(s0)
   2326c:	fd843703          	ld	a4,-40(s0)
   23270:	fc843783          	ld	a5,-56(s0)
   23274:	00f707b3          	add	a5,a4,a5
   23278:	fef43023          	sd	a5,-32(s0)
   2327c:	fe043603          	ld	a2,-32(s0)
   23280:	fd043683          	ld	a3,-48(s0)
   23284:	fe843703          	ld	a4,-24(s0)
   23288:	fd843783          	ld	a5,-40(s0)
   2328c:	0007b703          	ld	a4,0(a5)
   23290:	00e6b023          	sd	a4,0(a3)
   23294:	00868693          	addi	a3,a3,8
   23298:	00878793          	addi	a5,a5,8
   2329c:	fec7c8e3          	blt	a5,a2,2328c <bss_begin+0x28c>
   232a0:	fcd43823          	sd	a3,-48(s0)
   232a4:	fee43423          	sd	a4,-24(s0)
   232a8:	fcf43c23          	sd	a5,-40(s0)
   232ac:	00000013          	nop
   232b0:	03813403          	ld	s0,56(sp)
   232b4:	04010113          	addi	sp,sp,64
   232b8:	00008067          	ret
   232bc:	fd010113          	addi	sp,sp,-48
   232c0:	02813423          	sd	s0,40(sp)
   232c4:	03010413          	addi	s0,sp,48
   232c8:	fca43c23          	sd	a0,-40(s0)
   232cc:	fcb43823          	sd	a1,-48(s0)
   232d0:	fe043423          	sd	zero,-24(s0)
   232d4:	fd843683          	ld	a3,-40(s0)
   232d8:	fd043703          	ld	a4,-48(s0)
   232dc:	fe843783          	ld	a5,-24(s0)
   232e0:	00073783          	ld	a5,0(a4)
   232e4:	00d7e7b3          	or	a5,a5,a3
   232e8:	00f73023          	sd	a5,0(a4)
   232ec:	fce43823          	sd	a4,-48(s0)
   232f0:	fef43423          	sd	a5,-24(s0)
   232f4:	00000013          	nop
   232f8:	02813403          	ld	s0,40(sp)
   232fc:	03010113          	addi	sp,sp,48
   23300:	00008067          	ret
   23304:	fd010113          	addi	sp,sp,-48
   23308:	02813423          	sd	s0,40(sp)
   2330c:	03010413          	addi	s0,sp,48
   23310:	fca43c23          	sd	a0,-40(s0)
   23314:	fcb43823          	sd	a1,-48(s0)
   23318:	fe043423          	sd	zero,-24(s0)
   2331c:	fd843683          	ld	a3,-40(s0)
   23320:	fd043703          	ld	a4,-48(s0)
   23324:	fe843783          	ld	a5,-24(s0)
   23328:	00073783          	ld	a5,0(a4)
   2332c:	00d7f7b3          	and	a5,a5,a3
   23330:	00f73023          	sd	a5,0(a4)
   23334:	fce43823          	sd	a4,-48(s0)
   23338:	fef43423          	sd	a5,-24(s0)
   2333c:	00000013          	nop
   23340:	02813403          	ld	s0,40(sp)
   23344:	03010113          	addi	sp,sp,48
   23348:	00008067          	ret
   2334c:	fd010113          	addi	sp,sp,-48
   23350:	02813423          	sd	s0,40(sp)
   23354:	03010413          	addi	s0,sp,48
   23358:	fca43c23          	sd	a0,-40(s0)
   2335c:	fcb43823          	sd	a1,-48(s0)
   23360:	fe043423          	sd	zero,-24(s0)
   23364:	fd843683          	ld	a3,-40(s0)
   23368:	fd043703          	ld	a4,-48(s0)
   2336c:	fe843783          	ld	a5,-24(s0)
   23370:	00073783          	ld	a5,0(a4)
   23374:	00d787b3          	add	a5,a5,a3
   23378:	00f73023          	sd	a5,0(a4)
   2337c:	fce43823          	sd	a4,-48(s0)
   23380:	fef43423          	sd	a5,-24(s0)
   23384:	00000013          	nop
   23388:	02813403          	ld	s0,40(sp)
   2338c:	03010113          	addi	sp,sp,48
   23390:	00008067          	ret
   23394:	fe010113          	addi	sp,sp,-32
   23398:	00113c23          	sd	ra,24(sp)
   2339c:	00813823          	sd	s0,16(sp)
   233a0:	02010413          	addi	s0,sp,32
   233a4:	00f00793          	li	a5,15
   233a8:	fef43423          	sd	a5,-24(s0)
   233ac:	fe840793          	addi	a5,s0,-24
   233b0:	00078593          	mv	a1,a5
   233b4:	00200513          	li	a0,2
   233b8:	f4dff0ef          	jal	ra,23304 <bss_begin+0x304>
   233bc:	fe843783          	ld	a5,-24(s0)
   233c0:	00078593          	mv	a1,a5
   233c4:	00002517          	auipc	a0,0x2
   233c8:	1a450513          	addi	a0,a0,420 # 25568 <bss_begin+0x2568>
   233cc:	494010ef          	jal	ra,24860 <bss_begin+0x1860>
   233d0:	08000793          	li	a5,128
   233d4:	fef43423          	sd	a5,-24(s0)
   233d8:	fe840793          	addi	a5,s0,-24
   233dc:	00078593          	mv	a1,a5
   233e0:	00300513          	li	a0,3
   233e4:	ed9ff0ef          	jal	ra,232bc <bss_begin+0x2bc>
   233e8:	fe843783          	ld	a5,-24(s0)
   233ec:	00078593          	mv	a1,a5
   233f0:	00002517          	auipc	a0,0x2
   233f4:	19050513          	addi	a0,a0,400 # 25580 <bss_begin+0x2580>
   233f8:	468010ef          	jal	ra,24860 <bss_begin+0x1860>
   233fc:	00300793          	li	a5,3
   23400:	fef43423          	sd	a5,-24(s0)
   23404:	fe840793          	addi	a5,s0,-24
   23408:	00078593          	mv	a1,a5
   2340c:	00200513          	li	a0,2
   23410:	f3dff0ef          	jal	ra,2334c <bss_begin+0x34c>
   23414:	fe843783          	ld	a5,-24(s0)
   23418:	00078593          	mv	a1,a5
   2341c:	00002517          	auipc	a0,0x2
   23420:	17c50513          	addi	a0,a0,380 # 25598 <bss_begin+0x2598>
   23424:	43c010ef          	jal	ra,24860 <bss_begin+0x1860>
   23428:	00000013          	nop
   2342c:	01813083          	ld	ra,24(sp)
   23430:	01013403          	ld	s0,16(sp)
   23434:	02010113          	addi	sp,sp,32
   23438:	00008067          	ret
   2343c:	fe010113          	addi	sp,sp,-32
   23440:	00113c23          	sd	ra,24(sp)
   23444:	00813823          	sd	s0,16(sp)
   23448:	02010413          	addi	s0,sp,32
   2344c:	100027f3          	csrr	a5,sstatus
   23450:	00078093          	mv	ra,a5
   23454:	00008793          	mv	a5,ra
   23458:	fef43423          	sd	a5,-24(s0)
   2345c:	fe843583          	ld	a1,-24(s0)
   23460:	00002517          	auipc	a0,0x2
   23464:	15050513          	addi	a0,a0,336 # 255b0 <bss_begin+0x25b0>
   23468:	3f8010ef          	jal	ra,24860 <bss_begin+0x1860>
   2346c:	00000013          	nop
   23470:	01813083          	ld	ra,24(sp)
   23474:	01013403          	ld	s0,16(sp)
   23478:	02010113          	addi	sp,sp,32
   2347c:	00008067          	ret
   23480:	fe010113          	addi	sp,sp,-32
   23484:	00113c23          	sd	ra,24(sp)
   23488:	00813823          	sd	s0,16(sp)
   2348c:	02010413          	addi	s0,sp,32
   23490:	00050793          	mv	a5,a0
   23494:	fef42623          	sw	a5,-20(s0)
   23498:	fec42783          	lw	a5,-20(s0)
   2349c:	fff78793          	addi	a5,a5,-1
   234a0:	00078663          	beqz	a5,234ac <bss_begin+0x4ac>
   234a4:	00000793          	li	a5,0
   234a8:	0240006f          	j	234cc <bss_begin+0x4cc>
   234ac:	fec42783          	lw	a5,-20(s0)
   234b0:	00078613          	mv	a2,a5
   234b4:	00002597          	auipc	a1,0x2
   234b8:	2fc58593          	addi	a1,a1,764 # 257b0 <bss_begin+0x27b0>
   234bc:	00002517          	auipc	a0,0x2
   234c0:	10450513          	addi	a0,a0,260 # 255c0 <bss_begin+0x25c0>
   234c4:	39c010ef          	jal	ra,24860 <bss_begin+0x1860>
   234c8:	00100793          	li	a5,1
   234cc:	00078513          	mv	a0,a5
   234d0:	01813083          	ld	ra,24(sp)
   234d4:	01013403          	ld	s0,16(sp)
   234d8:	02010113          	addi	sp,sp,32
   234dc:	00008067          	ret
   234e0:	fe010113          	addi	sp,sp,-32
   234e4:	00113c23          	sd	ra,24(sp)
   234e8:	00813823          	sd	s0,16(sp)
   234ec:	02010413          	addi	s0,sp,32
   234f0:	02000613          	li	a2,32
   234f4:	0002a5b7          	lui	a1,0x2a
   234f8:	00020537          	lui	a0,0x20
   234fc:	ce9ff0ef          	jal	ra,231e4 <bss_begin+0x1e4>
   23500:	02000613          	li	a2,32
   23504:	0002a5b7          	lui	a1,0x2a
   23508:	00020537          	lui	a0,0x20
   2350c:	d45ff0ef          	jal	ra,23250 <bss_begin+0x250>
   23510:	03000613          	li	a2,48
   23514:	05500593          	li	a1,85
   23518:	0002a7b7          	lui	a5,0x2a
   2351c:	00278513          	addi	a0,a5,2 # 2a002 <_payload_end+0x2ffa>
   23520:	5d4000ef          	jal	ra,23af4 <bss_begin+0xaf4>
   23524:	e71ff0ef          	jal	ra,23394 <bss_begin+0x394>
   23528:	f15ff0ef          	jal	ra,2343c <bss_begin+0x43c>
   2352c:	00100793          	li	a5,1
   23530:	fef42623          	sw	a5,-20(s0)
   23534:	fec42783          	lw	a5,-20(s0)
   23538:	00078513          	mv	a0,a5
   2353c:	f45ff0ef          	jal	ra,23480 <bss_begin+0x480>
   23540:	00050793          	mv	a5,a0
   23544:	00078713          	mv	a4,a5
   23548:	00100793          	li	a5,1
   2354c:	00f71863          	bne	a4,a5,2355c <bss_begin+0x55c>
   23550:	00002517          	auipc	a0,0x2
   23554:	08050513          	addi	a0,a0,128 # 255d0 <bss_begin+0x25d0>
   23558:	308010ef          	jal	ra,24860 <bss_begin+0x1860>
   2355c:	fe042423          	sw	zero,-24(s0)
   23560:	fe842783          	lw	a5,-24(s0)
   23564:	00078513          	mv	a0,a5
   23568:	f19ff0ef          	jal	ra,23480 <bss_begin+0x480>
   2356c:	00050793          	mv	a5,a0
   23570:	00079863          	bnez	a5,23580 <bss_begin+0x580>
   23574:	00002517          	auipc	a0,0x2
   23578:	07450513          	addi	a0,a0,116 # 255e8 <bss_begin+0x25e8>
   2357c:	2e4010ef          	jal	ra,24860 <bss_begin+0x1860>
   23580:	00000013          	nop
   23584:	01813083          	ld	ra,24(sp)
   23588:	01013403          	ld	s0,16(sp)
   2358c:	02010113          	addi	sp,sp,32
   23590:	00008067          	ret
   23594:	fe010113          	addi	sp,sp,-32
   23598:	00113c23          	sd	ra,24(sp)
   2359c:	00813823          	sd	s0,16(sp)
   235a0:	02010413          	addi	s0,sp,32
   235a4:	4b5010ef          	jal	ra,25258 <bss_begin+0x2258>
   235a8:	4e5010ef          	jal	ra,2528c <bss_begin+0x228c>
   235ac:	529010ef          	jal	ra,252d4 <bss_begin+0x22d4>
   235b0:	575010ef          	jal	ra,25324 <bss_begin+0x2324>
   235b4:	595010ef          	jal	ra,25348 <bss_begin+0x2348>
   235b8:	02800613          	li	a2,40
   235bc:	05500593          	li	a1,85
   235c0:	0002a537          	lui	a0,0x2a
   235c4:	530000ef          	jal	ra,23af4 <bss_begin+0xaf4>
   235c8:	00900593          	li	a1,9
   235cc:	00a00513          	li	a0,10
   235d0:	59d010ef          	jal	ra,2536c <bss_begin+0x236c>
   235d4:	fea43423          	sd	a0,-24(s0)
   235d8:	fe843783          	ld	a5,-24(s0)
   235dc:	00079863          	bnez	a5,235ec <bss_begin+0x5ec>
   235e0:	00002517          	auipc	a0,0x2
   235e4:	02050513          	addi	a0,a0,32 # 25600 <bss_begin+0x2600>
   235e8:	278010ef          	jal	ra,24860 <bss_begin+0x1860>
   235ec:	00a00593          	li	a1,10
   235f0:	00900513          	li	a0,9
   235f4:	579010ef          	jal	ra,2536c <bss_begin+0x236c>
   235f8:	fea43023          	sd	a0,-32(s0)
   235fc:	fe043703          	ld	a4,-32(s0)
   23600:	fff00793          	li	a5,-1
   23604:	00f71863          	bne	a4,a5,23614 <bss_begin+0x614>
   23608:	00002517          	auipc	a0,0x2
   2360c:	ff850513          	addi	a0,a0,-8 # 25600 <bss_begin+0x2600>
   23610:	250010ef          	jal	ra,24860 <bss_begin+0x1860>
   23614:	00900593          	li	a1,9
   23618:	00000513          	li	a0,0
   2361c:	569010ef          	jal	ra,25384 <bss_begin+0x2384>
   23620:	fea43423          	sd	a0,-24(s0)
   23624:	00200593          	li	a1,2
   23628:	00500513          	li	a0,5
   2362c:	559010ef          	jal	ra,25384 <bss_begin+0x2384>
   23630:	fea43023          	sd	a0,-32(s0)
   23634:	569010ef          	jal	ra,2539c <bss_begin+0x239c>
   23638:	00002517          	auipc	a0,0x2
   2363c:	fe850513          	addi	a0,a0,-24 # 25620 <bss_begin+0x2620>
   23640:	220010ef          	jal	ra,24860 <bss_begin+0x1860>
   23644:	00500593          	li	a1,5
   23648:	00500513          	li	a0,5
   2364c:	5b5010ef          	jal	ra,25400 <bss_begin+0x2400>
   23650:	fea43423          	sd	a0,-24(s0)
   23654:	fe843703          	ld	a4,-24(s0)
   23658:	00a00793          	li	a5,10
   2365c:	00f71863          	bne	a4,a5,2366c <bss_begin+0x66c>
   23660:	00002517          	auipc	a0,0x2
   23664:	fd850513          	addi	a0,a0,-40 # 25638 <bss_begin+0x2638>
   23668:	1f8010ef          	jal	ra,24860 <bss_begin+0x1860>
   2366c:	00500593          	li	a1,5
   23670:	00500513          	li	a0,5
   23674:	5b5010ef          	jal	ra,25428 <bss_begin+0x2428>
   23678:	fea43023          	sd	a0,-32(s0)
   2367c:	fe043783          	ld	a5,-32(s0)
   23680:	00079863          	bnez	a5,23690 <bss_begin+0x690>
   23684:	00002517          	auipc	a0,0x2
   23688:	fd450513          	addi	a0,a0,-44 # 25658 <bss_begin+0x2658>
   2368c:	1d4010ef          	jal	ra,24860 <bss_begin+0x1860>
   23690:	00000013          	nop
   23694:	01813083          	ld	ra,24(sp)
   23698:	01013403          	ld	s0,16(sp)
   2369c:	02010113          	addi	sp,sp,32
   236a0:	00008067          	ret
   236a4:	ff010113          	addi	sp,sp,-16
   236a8:	00113423          	sd	ra,8(sp)
   236ac:	00813023          	sd	s0,0(sp)
   236b0:	01010413          	addi	s0,sp,16
   236b4:	00002517          	auipc	a0,0x2
   236b8:	fc450513          	addi	a0,a0,-60 # 25678 <bss_begin+0x2678>
   236bc:	1a4010ef          	jal	ra,24860 <bss_begin+0x1860>
   236c0:	00000597          	auipc	a1,0x0
   236c4:	94058593          	addi	a1,a1,-1728 # 23000 <bss_begin>
   236c8:	00000617          	auipc	a2,0x0
   236cc:	97460613          	addi	a2,a2,-1676 # 2303c <bss_begin+0x3c>
   236d0:	00000717          	auipc	a4,0x0
   236d4:	96c70713          	addi	a4,a4,-1684 # 2303c <bss_begin+0x3c>
   236d8:	00000797          	auipc	a5,0x0
   236dc:	92878793          	addi	a5,a5,-1752 # 23000 <bss_begin>
   236e0:	40f707b3          	sub	a5,a4,a5
   236e4:	00078693          	mv	a3,a5
   236e8:	00002517          	auipc	a0,0x2
   236ec:	fa850513          	addi	a0,a0,-88 # 25690 <bss_begin+0x2690>
   236f0:	170010ef          	jal	ra,24860 <bss_begin+0x1860>
   236f4:	00000597          	auipc	a1,0x0
   236f8:	94858593          	addi	a1,a1,-1720 # 2303c <bss_begin+0x3c>
   236fc:	00002617          	auipc	a2,0x2
   23700:	e5860613          	addi	a2,a2,-424 # 25554 <bss_begin+0x2554>
   23704:	00002717          	auipc	a4,0x2
   23708:	e5070713          	addi	a4,a4,-432 # 25554 <bss_begin+0x2554>
   2370c:	00000797          	auipc	a5,0x0
   23710:	93078793          	addi	a5,a5,-1744 # 2303c <bss_begin+0x3c>
   23714:	40f707b3          	sub	a5,a4,a5
   23718:	00078693          	mv	a3,a5
   2371c:	00002517          	auipc	a0,0x2
   23720:	fa450513          	addi	a0,a0,-92 # 256c0 <bss_begin+0x26c0>
   23724:	13c010ef          	jal	ra,24860 <bss_begin+0x1860>
   23728:	00002597          	auipc	a1,0x2
   2372c:	e2c58593          	addi	a1,a1,-468 # 25554 <bss_begin+0x2554>
   23730:	00002617          	auipc	a2,0x2
   23734:	1c360613          	addi	a2,a2,451 # 258f3 <bss_begin+0x28f3>
   23738:	00002717          	auipc	a4,0x2
   2373c:	1bb70713          	addi	a4,a4,443 # 258f3 <bss_begin+0x28f3>
   23740:	00002797          	auipc	a5,0x2
   23744:	e1478793          	addi	a5,a5,-492 # 25554 <bss_begin+0x2554>
   23748:	40f707b3          	sub	a5,a4,a5
   2374c:	00078693          	mv	a3,a5
   23750:	00002517          	auipc	a0,0x2
   23754:	fa050513          	addi	a0,a0,-96 # 256f0 <bss_begin+0x26f0>
   23758:	108010ef          	jal	ra,24860 <bss_begin+0x1860>
   2375c:	00002597          	auipc	a1,0x2
   23760:	19758593          	addi	a1,a1,407 # 258f3 <bss_begin+0x28f3>
   23764:	00004617          	auipc	a2,0x4
   23768:	89c60613          	addi	a2,a2,-1892 # 27000 <bss_begin+0x4000>
   2376c:	00004717          	auipc	a4,0x4
   23770:	89470713          	addi	a4,a4,-1900 # 27000 <bss_begin+0x4000>
   23774:	00002797          	auipc	a5,0x2
   23778:	17f78793          	addi	a5,a5,383 # 258f3 <bss_begin+0x28f3>
   2377c:	40f707b3          	sub	a5,a4,a5
   23780:	00078693          	mv	a3,a5
   23784:	00002517          	auipc	a0,0x2
   23788:	f9c50513          	addi	a0,a0,-100 # 25720 <bss_begin+0x2720>
   2378c:	0d4010ef          	jal	ra,24860 <bss_begin+0x1860>
   23790:	00004597          	auipc	a1,0x4
   23794:	87858593          	addi	a1,a1,-1928 # 27008 <_payload_end>
   23798:	00004617          	auipc	a2,0x4
   2379c:	a8060613          	addi	a2,a2,-1408 # 27218 <_payload_end+0x210>
   237a0:	00004717          	auipc	a4,0x4
   237a4:	a7870713          	addi	a4,a4,-1416 # 27218 <_payload_end+0x210>
   237a8:	00004797          	auipc	a5,0x4
   237ac:	86078793          	addi	a5,a5,-1952 # 27008 <_payload_end>
   237b0:	40f707b3          	sub	a5,a4,a5
   237b4:	00078693          	mv	a3,a5
   237b8:	00002517          	auipc	a0,0x2
   237bc:	f9850513          	addi	a0,a0,-104 # 25750 <bss_begin+0x2750>
   237c0:	0a0010ef          	jal	ra,24860 <bss_begin+0x1860>
   237c4:	00000013          	nop
   237c8:	00813083          	ld	ra,8(sp)
   237cc:	00013403          	ld	s0,0(sp)
   237d0:	01010113          	addi	sp,sp,16
   237d4:	00008067          	ret
   237d8:	fd010113          	addi	sp,sp,-48
   237dc:	02113423          	sd	ra,40(sp)
   237e0:	02813023          	sd	s0,32(sp)
   237e4:	03010413          	addi	s0,sp,48
   237e8:	00004797          	auipc	a5,0x4
   237ec:	82078793          	addi	a5,a5,-2016 # 27008 <_payload_end>
   237f0:	fef43423          	sd	a5,-24(s0)
   237f4:	00004797          	auipc	a5,0x4
   237f8:	a2478793          	addi	a5,a5,-1500 # 27218 <_payload_end+0x210>
   237fc:	fef43023          	sd	a5,-32(s0)
   23800:	fe043783          	ld	a5,-32(s0)
   23804:	0007871b          	sext.w	a4,a5
   23808:	fe843783          	ld	a5,-24(s0)
   2380c:	0007879b          	sext.w	a5,a5
   23810:	40f707bb          	subw	a5,a4,a5
   23814:	fcf42e23          	sw	a5,-36(s0)
   23818:	fe843783          	ld	a5,-24(s0)
   2381c:	fdc46703          	lwu	a4,-36(s0)
   23820:	00070613          	mv	a2,a4
   23824:	00000593          	li	a1,0
   23828:	00078513          	mv	a0,a5
   2382c:	2c8000ef          	jal	ra,23af4 <bss_begin+0xaf4>
   23830:	00000013          	nop
   23834:	02813083          	ld	ra,40(sp)
   23838:	02013403          	ld	s0,32(sp)
   2383c:	03010113          	addi	sp,sp,48
   23840:	00008067          	ret
   23844:	ff010113          	addi	sp,sp,-16
   23848:	00113423          	sd	ra,8(sp)
   2384c:	00813023          	sd	s0,0(sp)
   23850:	01010413          	addi	s0,sp,16
   23854:	f85ff0ef          	jal	ra,237d8 <bss_begin+0x7d8>
   23858:	00002517          	auipc	a0,0x2
   2385c:	f2850513          	addi	a0,a0,-216 # 25780 <bss_begin+0x2780>
   23860:	81dff0ef          	jal	ra,2307c <bss_begin+0x7c>
   23864:	765000ef          	jal	ra,247c8 <bss_begin+0x17c8>
   23868:	00002517          	auipc	a0,0x2
   2386c:	f3050513          	addi	a0,a0,-208 # 25798 <bss_begin+0x2798>
   23870:	7f1000ef          	jal	ra,24860 <bss_begin+0x1860>
   23874:	d21ff0ef          	jal	ra,23594 <bss_begin+0x594>
   23878:	c69ff0ef          	jal	ra,234e0 <bss_begin+0x4e0>
   2387c:	008017b7          	lui	a5,0x801
   23880:	88078513          	addi	a0,a5,-1920 # 800880 <_payload_end+0x7d9878>
   23884:	865ff0ef          	jal	ra,230e8 <bss_begin+0xe8>
   23888:	008017b7          	lui	a5,0x801
   2388c:	86078513          	addi	a0,a5,-1952 # 800860 <_payload_end+0x7d9858>
   23890:	859ff0ef          	jal	ra,230e8 <bss_begin+0xe8>
   23894:	008017b7          	lui	a5,0x801
   23898:	80078513          	addi	a0,a5,-2048 # 800800 <_payload_end+0x7d97f8>
   2389c:	84dff0ef          	jal	ra,230e8 <bss_begin+0xe8>
   238a0:	e05ff0ef          	jal	ra,236a4 <bss_begin+0x6a4>
   238a4:	0000006f          	j	238a4 <bss_begin+0x8a4>
   238a8:	fc010113          	addi	sp,sp,-64
   238ac:	02813c23          	sd	s0,56(sp)
   238b0:	04010413          	addi	s0,sp,64
   238b4:	fca43c23          	sd	a0,-40(s0)
   238b8:	fcb43823          	sd	a1,-48(s0)
   238bc:	00060793          	mv	a5,a2
   238c0:	fcf42623          	sw	a5,-52(s0)
   238c4:	fe042623          	sw	zero,-20(s0)
   238c8:	fd043603          	ld	a2,-48(s0)
   238cc:	fd843683          	ld	a3,-40(s0)
   238d0:	fcc42703          	lw	a4,-52(s0)
   238d4:	fec42783          	lw	a5,-20(s0)
   238d8:	00c6b023          	sd	a2,0(a3)
   238dc:	00c6b423          	sd	a2,8(a3)
   238e0:	01078793          	addi	a5,a5,16
   238e4:	fee7cae3          	blt	a5,a4,238d8 <bss_begin+0x8d8>
   238e8:	fcd43c23          	sd	a3,-40(s0)
   238ec:	fce42623          	sw	a4,-52(s0)
   238f0:	fef42623          	sw	a5,-20(s0)
   238f4:	00000013          	nop
   238f8:	03813403          	ld	s0,56(sp)
   238fc:	04010113          	addi	sp,sp,64
   23900:	00008067          	ret
   23904:	fc010113          	addi	sp,sp,-64
   23908:	02813c23          	sd	s0,56(sp)
   2390c:	04010413          	addi	s0,sp,64
   23910:	fca43c23          	sd	a0,-40(s0)
   23914:	00058793          	mv	a5,a1
   23918:	fcc43423          	sd	a2,-56(s0)
   2391c:	fcf42a23          	sw	a5,-44(s0)
   23920:	fd843783          	ld	a5,-40(s0)
   23924:	fef43423          	sd	a5,-24(s0)
   23928:	01c0006f          	j	23944 <bss_begin+0x944>
   2392c:	fe843783          	ld	a5,-24(s0)
   23930:	00178713          	addi	a4,a5,1
   23934:	fee43423          	sd	a4,-24(s0)
   23938:	fd442703          	lw	a4,-44(s0)
   2393c:	0ff77713          	andi	a4,a4,255
   23940:	00e78023          	sb	a4,0(a5)
   23944:	fc843783          	ld	a5,-56(s0)
   23948:	fff78713          	addi	a4,a5,-1
   2394c:	fce43423          	sd	a4,-56(s0)
   23950:	fc079ee3          	bnez	a5,2392c <bss_begin+0x92c>
   23954:	fd843783          	ld	a5,-40(s0)
   23958:	00078513          	mv	a0,a5
   2395c:	03813403          	ld	s0,56(sp)
   23960:	04010113          	addi	sp,sp,64
   23964:	00008067          	ret
   23968:	f9010113          	addi	sp,sp,-112
   2396c:	06113423          	sd	ra,104(sp)
   23970:	06813023          	sd	s0,96(sp)
   23974:	07010413          	addi	s0,sp,112
   23978:	faa43423          	sd	a0,-88(s0)
   2397c:	00058793          	mv	a5,a1
   23980:	f8c43c23          	sd	a2,-104(s0)
   23984:	faf42223          	sw	a5,-92(s0)
   23988:	fa843783          	ld	a5,-88(s0)
   2398c:	fef43423          	sd	a5,-24(s0)
   23990:	01000793          	li	a5,16
   23994:	fcf43423          	sd	a5,-56(s0)
   23998:	f9843783          	ld	a5,-104(s0)
   2399c:	fef43023          	sd	a5,-32(s0)
   239a0:	fe843783          	ld	a5,-24(s0)
   239a4:	fcf43023          	sd	a5,-64(s0)
   239a8:	fc043823          	sd	zero,-48(s0)
   239ac:	fc042e23          	sw	zero,-36(s0)
   239b0:	0340006f          	j	239e4 <bss_begin+0x9e4>
   239b4:	fa442783          	lw	a5,-92(s0)
   239b8:	0ff7f793          	andi	a5,a5,255
   239bc:	fdc42703          	lw	a4,-36(s0)
   239c0:	0037171b          	slliw	a4,a4,0x3
   239c4:	0007071b          	sext.w	a4,a4
   239c8:	00e797b3          	sll	a5,a5,a4
   239cc:	fd043703          	ld	a4,-48(s0)
   239d0:	00f767b3          	or	a5,a4,a5
   239d4:	fcf43823          	sd	a5,-48(s0)
   239d8:	fdc42783          	lw	a5,-36(s0)
   239dc:	0017879b          	addiw	a5,a5,1
   239e0:	fcf42e23          	sw	a5,-36(s0)
   239e4:	fdc42783          	lw	a5,-36(s0)
   239e8:	0007871b          	sext.w	a4,a5
   239ec:	00700793          	li	a5,7
   239f0:	fce7d2e3          	bge	a5,a4,239b4 <bss_begin+0x9b4>
   239f4:	fc843783          	ld	a5,-56(s0)
   239f8:	fff78713          	addi	a4,a5,-1
   239fc:	fc043783          	ld	a5,-64(s0)
   23a00:	00f777b3          	and	a5,a4,a5
   23a04:	04078e63          	beqz	a5,23a60 <bss_begin+0xa60>
   23a08:	fc843783          	ld	a5,-56(s0)
   23a0c:	fff78793          	addi	a5,a5,-1
   23a10:	fc043703          	ld	a4,-64(s0)
   23a14:	00f777b3          	and	a5,a4,a5
   23a18:	faf43c23          	sd	a5,-72(s0)
   23a1c:	fc843703          	ld	a4,-56(s0)
   23a20:	fb843783          	ld	a5,-72(s0)
   23a24:	40f707b3          	sub	a5,a4,a5
   23a28:	faf43c23          	sd	a5,-72(s0)
   23a2c:	fa442783          	lw	a5,-92(s0)
   23a30:	fb843603          	ld	a2,-72(s0)
   23a34:	00078593          	mv	a1,a5
   23a38:	fe843503          	ld	a0,-24(s0)
   23a3c:	ec9ff0ef          	jal	ra,23904 <bss_begin+0x904>
   23a40:	fe843703          	ld	a4,-24(s0)
   23a44:	fb843783          	ld	a5,-72(s0)
   23a48:	00f707b3          	add	a5,a4,a5
   23a4c:	fef43423          	sd	a5,-24(s0)
   23a50:	f9843703          	ld	a4,-104(s0)
   23a54:	fb843783          	ld	a5,-72(s0)
   23a58:	40f707b3          	sub	a5,a4,a5
   23a5c:	fef43023          	sd	a5,-32(s0)
   23a60:	fe043703          	ld	a4,-32(s0)
   23a64:	fc843783          	ld	a5,-56(s0)
   23a68:	06e7fa63          	bgeu	a5,a4,23adc <bss_begin+0xadc>
   23a6c:	fe043703          	ld	a4,-32(s0)
   23a70:	fc843783          	ld	a5,-56(s0)
   23a74:	02f757b3          	divu	a5,a4,a5
   23a78:	faf42a23          	sw	a5,-76(s0)
   23a7c:	fe043703          	ld	a4,-32(s0)
   23a80:	fc843783          	ld	a5,-56(s0)
   23a84:	02f777b3          	remu	a5,a4,a5
   23a88:	fef43023          	sd	a5,-32(s0)
   23a8c:	fb442783          	lw	a5,-76(s0)
   23a90:	0047979b          	slliw	a5,a5,0x4
   23a94:	0007879b          	sext.w	a5,a5
   23a98:	00078613          	mv	a2,a5
   23a9c:	fd043583          	ld	a1,-48(s0)
   23aa0:	fe843503          	ld	a0,-24(s0)
   23aa4:	e05ff0ef          	jal	ra,238a8 <bss_begin+0x8a8>
   23aa8:	fe043783          	ld	a5,-32(s0)
   23aac:	02078863          	beqz	a5,23adc <bss_begin+0xadc>
   23ab0:	fb442783          	lw	a5,-76(s0)
   23ab4:	0047979b          	slliw	a5,a5,0x4
   23ab8:	0007879b          	sext.w	a5,a5
   23abc:	00078713          	mv	a4,a5
   23ac0:	fe843783          	ld	a5,-24(s0)
   23ac4:	00e787b3          	add	a5,a5,a4
   23ac8:	fa442703          	lw	a4,-92(s0)
   23acc:	fe043603          	ld	a2,-32(s0)
   23ad0:	00070593          	mv	a1,a4
   23ad4:	00078513          	mv	a0,a5
   23ad8:	e2dff0ef          	jal	ra,23904 <bss_begin+0x904>
   23adc:	fa843783          	ld	a5,-88(s0)
   23ae0:	00078513          	mv	a0,a5
   23ae4:	06813083          	ld	ra,104(sp)
   23ae8:	06013403          	ld	s0,96(sp)
   23aec:	07010113          	addi	sp,sp,112
   23af0:	00008067          	ret
   23af4:	fd010113          	addi	sp,sp,-48
   23af8:	02113423          	sd	ra,40(sp)
   23afc:	02813023          	sd	s0,32(sp)
   23b00:	03010413          	addi	s0,sp,48
   23b04:	fea43423          	sd	a0,-24(s0)
   23b08:	00058793          	mv	a5,a1
   23b0c:	fcc43c23          	sd	a2,-40(s0)
   23b10:	fef42223          	sw	a5,-28(s0)
   23b14:	fe442783          	lw	a5,-28(s0)
   23b18:	fd843603          	ld	a2,-40(s0)
   23b1c:	00078593          	mv	a1,a5
   23b20:	fe843503          	ld	a0,-24(s0)
   23b24:	e45ff0ef          	jal	ra,23968 <bss_begin+0x968>
   23b28:	00050793          	mv	a5,a0
   23b2c:	00078513          	mv	a0,a5
   23b30:	02813083          	ld	ra,40(sp)
   23b34:	02013403          	ld	s0,32(sp)
   23b38:	03010113          	addi	sp,sp,48
   23b3c:	00008067          	ret
   23b40:	fe010113          	addi	sp,sp,-32
   23b44:	00813c23          	sd	s0,24(sp)
   23b48:	02010413          	addi	s0,sp,32
   23b4c:	00050793          	mv	a5,a0
   23b50:	fef407a3          	sb	a5,-17(s0)
   23b54:	fef44783          	lbu	a5,-17(s0)
   23b58:	00078513          	mv	a0,a5
   23b5c:	00000593          	li	a1,0
   23b60:	00000613          	li	a2,0
   23b64:	00100893          	li	a7,1
   23b68:	00000073          	ecall
   23b6c:	00000013          	nop
   23b70:	01813403          	ld	s0,24(sp)
   23b74:	02010113          	addi	sp,sp,32
   23b78:	00008067          	ret
   23b7c:	fd010113          	addi	sp,sp,-48
   23b80:	02813423          	sd	s0,40(sp)
   23b84:	03010413          	addi	s0,sp,48
   23b88:	fca43c23          	sd	a0,-40(s0)
   23b8c:	fcb43823          	sd	a1,-48(s0)
   23b90:	fe042623          	sw	zero,-20(s0)
   23b94:	0440006f          	j	23bd8 <bss_begin+0xbd8>
   23b98:	fec42703          	lw	a4,-20(s0)
   23b9c:	00070793          	mv	a5,a4
   23ba0:	0027979b          	slliw	a5,a5,0x2
   23ba4:	00e787bb          	addw	a5,a5,a4
   23ba8:	0017979b          	slliw	a5,a5,0x1
   23bac:	fef42623          	sw	a5,-20(s0)
   23bb0:	fd843783          	ld	a5,-40(s0)
   23bb4:	00178713          	addi	a4,a5,1
   23bb8:	fce43c23          	sd	a4,-40(s0)
   23bbc:	0007c783          	lbu	a5,0(a5)
   23bc0:	0007879b          	sext.w	a5,a5
   23bc4:	fd07879b          	addiw	a5,a5,-48
   23bc8:	0007879b          	sext.w	a5,a5
   23bcc:	fec42703          	lw	a4,-20(s0)
   23bd0:	00f707bb          	addw	a5,a4,a5
   23bd4:	fef42623          	sw	a5,-20(s0)
   23bd8:	fd843783          	ld	a5,-40(s0)
   23bdc:	0007c783          	lbu	a5,0(a5)
   23be0:	00078713          	mv	a4,a5
   23be4:	02f00793          	li	a5,47
   23be8:	00e7fc63          	bgeu	a5,a4,23c00 <bss_begin+0xc00>
   23bec:	fd843783          	ld	a5,-40(s0)
   23bf0:	0007c783          	lbu	a5,0(a5)
   23bf4:	00078713          	mv	a4,a5
   23bf8:	03900793          	li	a5,57
   23bfc:	f8e7fee3          	bgeu	a5,a4,23b98 <bss_begin+0xb98>
   23c00:	fd043783          	ld	a5,-48(s0)
   23c04:	fec42703          	lw	a4,-20(s0)
   23c08:	00e7a023          	sw	a4,0(a5)
   23c0c:	fd843783          	ld	a5,-40(s0)
   23c10:	00078513          	mv	a0,a5
   23c14:	02813403          	ld	s0,40(sp)
   23c18:	03010113          	addi	sp,sp,48
   23c1c:	00008067          	ret
   23c20:	f2010113          	addi	sp,sp,-224
   23c24:	0c813c23          	sd	s0,216(sp)
   23c28:	0e010413          	addi	s0,sp,224
   23c2c:	f2a43c23          	sd	a0,-200(s0)
   23c30:	f2b43823          	sd	a1,-208(s0)
   23c34:	00060593          	mv	a1,a2
   23c38:	00068613          	mv	a2,a3
   23c3c:	00070693          	mv	a3,a4
   23c40:	00078713          	mv	a4,a5
   23c44:	00058793          	mv	a5,a1
   23c48:	f2f42623          	sw	a5,-212(s0)
   23c4c:	00060793          	mv	a5,a2
   23c50:	f2f42423          	sw	a5,-216(s0)
   23c54:	00068793          	mv	a5,a3
   23c58:	f2f42223          	sw	a5,-220(s0)
   23c5c:	00070793          	mv	a5,a4
   23c60:	f2f42023          	sw	a5,-224(s0)
   23c64:	fe0407a3          	sb	zero,-17(s0)
   23c68:	00002797          	auipc	a5,0x2
   23c6c:	b5878793          	addi	a5,a5,-1192 # 257c0 <bss_begin+0x27c0>
   23c70:	fef43023          	sd	a5,-32(s0)
   23c74:	f2042783          	lw	a5,-224(s0)
   23c78:	0407f793          	andi	a5,a5,64
   23c7c:	0007879b          	sext.w	a5,a5
   23c80:	00078863          	beqz	a5,23c90 <bss_begin+0xc90>
   23c84:	00002797          	auipc	a5,0x2
   23c88:	b6478793          	addi	a5,a5,-1180 # 257e8 <bss_begin+0x27e8>
   23c8c:	fef43023          	sd	a5,-32(s0)
   23c90:	f2042783          	lw	a5,-224(s0)
   23c94:	0107f793          	andi	a5,a5,16
   23c98:	0007879b          	sext.w	a5,a5
   23c9c:	00078863          	beqz	a5,23cac <bss_begin+0xcac>
   23ca0:	f2042783          	lw	a5,-224(s0)
   23ca4:	ffe7f793          	andi	a5,a5,-2
   23ca8:	f2f42023          	sw	a5,-224(s0)
   23cac:	f2c42783          	lw	a5,-212(s0)
   23cb0:	0007871b          	sext.w	a4,a5
   23cb4:	00100793          	li	a5,1
   23cb8:	00e7da63          	bge	a5,a4,23ccc <bss_begin+0xccc>
   23cbc:	f2c42783          	lw	a5,-212(s0)
   23cc0:	0007871b          	sext.w	a4,a5
   23cc4:	02400793          	li	a5,36
   23cc8:	00e7d663          	bge	a5,a4,23cd4 <bss_begin+0xcd4>
   23ccc:	00000793          	li	a5,0
   23cd0:	3400006f          	j	24010 <bss_begin+0x1010>
   23cd4:	f2042783          	lw	a5,-224(s0)
   23cd8:	0017f793          	andi	a5,a5,1
   23cdc:	0007879b          	sext.w	a5,a5
   23ce0:	00078663          	beqz	a5,23cec <bss_begin+0xcec>
   23ce4:	03000793          	li	a5,48
   23ce8:	0080006f          	j	23cf0 <bss_begin+0xcf0>
   23cec:	02000793          	li	a5,32
   23cf0:	fcf40da3          	sb	a5,-37(s0)
   23cf4:	f2042783          	lw	a5,-224(s0)
   23cf8:	0027f793          	andi	a5,a5,2
   23cfc:	0007879b          	sext.w	a5,a5
   23d00:	06078c63          	beqz	a5,23d78 <bss_begin+0xd78>
   23d04:	f3043783          	ld	a5,-208(s0)
   23d08:	fcf43823          	sd	a5,-48(s0)
   23d0c:	fd043783          	ld	a5,-48(s0)
   23d10:	0007de63          	bgez	a5,23d2c <bss_begin+0xd2c>
   23d14:	02d00793          	li	a5,45
   23d18:	fef407a3          	sb	a5,-17(s0)
   23d1c:	fd043783          	ld	a5,-48(s0)
   23d20:	40f007b3          	neg	a5,a5
   23d24:	f2f43823          	sd	a5,-208(s0)
   23d28:	0500006f          	j	23d78 <bss_begin+0xd78>
   23d2c:	f2042783          	lw	a5,-224(s0)
   23d30:	0047f793          	andi	a5,a5,4
   23d34:	0007879b          	sext.w	a5,a5
   23d38:	00078e63          	beqz	a5,23d54 <bss_begin+0xd54>
   23d3c:	02b00793          	li	a5,43
   23d40:	fef407a3          	sb	a5,-17(s0)
   23d44:	f2842783          	lw	a5,-216(s0)
   23d48:	fff7879b          	addiw	a5,a5,-1
   23d4c:	f2f42423          	sw	a5,-216(s0)
   23d50:	0280006f          	j	23d78 <bss_begin+0xd78>
   23d54:	f2042783          	lw	a5,-224(s0)
   23d58:	0087f793          	andi	a5,a5,8
   23d5c:	0007879b          	sext.w	a5,a5
   23d60:	00078c63          	beqz	a5,23d78 <bss_begin+0xd78>
   23d64:	02000793          	li	a5,32
   23d68:	fef407a3          	sb	a5,-17(s0)
   23d6c:	f2842783          	lw	a5,-216(s0)
   23d70:	fff7879b          	addiw	a5,a5,-1
   23d74:	f2f42423          	sw	a5,-216(s0)
   23d78:	f2042783          	lw	a5,-224(s0)
   23d7c:	0207f793          	andi	a5,a5,32
   23d80:	0007879b          	sext.w	a5,a5
   23d84:	04078063          	beqz	a5,23dc4 <bss_begin+0xdc4>
   23d88:	f2c42783          	lw	a5,-212(s0)
   23d8c:	0007871b          	sext.w	a4,a5
   23d90:	01000793          	li	a5,16
   23d94:	00f71a63          	bne	a4,a5,23da8 <bss_begin+0xda8>
   23d98:	f2842783          	lw	a5,-216(s0)
   23d9c:	ffe7879b          	addiw	a5,a5,-2
   23da0:	f2f42423          	sw	a5,-216(s0)
   23da4:	0200006f          	j	23dc4 <bss_begin+0xdc4>
   23da8:	f2c42783          	lw	a5,-212(s0)
   23dac:	0007871b          	sext.w	a4,a5
   23db0:	00800793          	li	a5,8
   23db4:	00f71863          	bne	a4,a5,23dc4 <bss_begin+0xdc4>
   23db8:	f2842783          	lw	a5,-216(s0)
   23dbc:	fff7879b          	addiw	a5,a5,-1
   23dc0:	f2f42423          	sw	a5,-216(s0)
   23dc4:	fc042e23          	sw	zero,-36(s0)
   23dc8:	f3043783          	ld	a5,-208(s0)
   23dcc:	06079e63          	bnez	a5,23e48 <bss_begin+0xe48>
   23dd0:	fdc42783          	lw	a5,-36(s0)
   23dd4:	0017871b          	addiw	a4,a5,1
   23dd8:	fce42e23          	sw	a4,-36(s0)
   23ddc:	ff040713          	addi	a4,s0,-16
   23de0:	00f707b3          	add	a5,a4,a5
   23de4:	03000713          	li	a4,48
   23de8:	f4e78c23          	sb	a4,-168(a5)
   23dec:	0640006f          	j	23e50 <bss_begin+0xe50>
   23df0:	f2c42783          	lw	a5,-212(s0)
   23df4:	fcf42623          	sw	a5,-52(s0)
   23df8:	fcc46783          	lwu	a5,-52(s0)
   23dfc:	f3043703          	ld	a4,-208(s0)
   23e00:	02f777b3          	remu	a5,a4,a5
   23e04:	fcf42423          	sw	a5,-56(s0)
   23e08:	fcc46783          	lwu	a5,-52(s0)
   23e0c:	f3043703          	ld	a4,-208(s0)
   23e10:	02f757b3          	divu	a5,a4,a5
   23e14:	f2f43823          	sd	a5,-208(s0)
   23e18:	fc842783          	lw	a5,-56(s0)
   23e1c:	02079793          	slli	a5,a5,0x20
   23e20:	0207d793          	srli	a5,a5,0x20
   23e24:	fe043703          	ld	a4,-32(s0)
   23e28:	00f70733          	add	a4,a4,a5
   23e2c:	fdc42783          	lw	a5,-36(s0)
   23e30:	0017869b          	addiw	a3,a5,1
   23e34:	fcd42e23          	sw	a3,-36(s0)
   23e38:	00074703          	lbu	a4,0(a4)
   23e3c:	ff040693          	addi	a3,s0,-16
   23e40:	00f687b3          	add	a5,a3,a5
   23e44:	f4e78c23          	sb	a4,-168(a5)
   23e48:	f3043783          	ld	a5,-208(s0)
   23e4c:	fa0792e3          	bnez	a5,23df0 <bss_begin+0xdf0>
   23e50:	fdc42703          	lw	a4,-36(s0)
   23e54:	f2442783          	lw	a5,-220(s0)
   23e58:	0007071b          	sext.w	a4,a4
   23e5c:	0007879b          	sext.w	a5,a5
   23e60:	00e7d663          	bge	a5,a4,23e6c <bss_begin+0xe6c>
   23e64:	fdc42783          	lw	a5,-36(s0)
   23e68:	f2f42223          	sw	a5,-220(s0)
   23e6c:	f2842703          	lw	a4,-216(s0)
   23e70:	f2442783          	lw	a5,-220(s0)
   23e74:	40f707bb          	subw	a5,a4,a5
   23e78:	f2f42423          	sw	a5,-216(s0)
   23e7c:	f2042783          	lw	a5,-224(s0)
   23e80:	0117f793          	andi	a5,a5,17
   23e84:	0007879b          	sext.w	a5,a5
   23e88:	02079663          	bnez	a5,23eb4 <bss_begin+0xeb4>
   23e8c:	0180006f          	j	23ea4 <bss_begin+0xea4>
   23e90:	f3843783          	ld	a5,-200(s0)
   23e94:	00178713          	addi	a4,a5,1
   23e98:	f2e43c23          	sd	a4,-200(s0)
   23e9c:	02000713          	li	a4,32
   23ea0:	00e78023          	sb	a4,0(a5)
   23ea4:	f2842783          	lw	a5,-216(s0)
   23ea8:	fff7871b          	addiw	a4,a5,-1
   23eac:	f2e42423          	sw	a4,-216(s0)
   23eb0:	fef040e3          	bgtz	a5,23e90 <bss_begin+0xe90>
   23eb4:	fef44783          	lbu	a5,-17(s0)
   23eb8:	0ff7f793          	andi	a5,a5,255
   23ebc:	00078c63          	beqz	a5,23ed4 <bss_begin+0xed4>
   23ec0:	f3843783          	ld	a5,-200(s0)
   23ec4:	00178713          	addi	a4,a5,1
   23ec8:	f2e43c23          	sd	a4,-200(s0)
   23ecc:	fef44703          	lbu	a4,-17(s0)
   23ed0:	00e78023          	sb	a4,0(a5)
   23ed4:	f2042783          	lw	a5,-224(s0)
   23ed8:	0207f793          	andi	a5,a5,32
   23edc:	0007879b          	sext.w	a5,a5
   23ee0:	06078463          	beqz	a5,23f48 <bss_begin+0xf48>
   23ee4:	f2c42783          	lw	a5,-212(s0)
   23ee8:	0007871b          	sext.w	a4,a5
   23eec:	00800793          	li	a5,8
   23ef0:	00f71e63          	bne	a4,a5,23f0c <bss_begin+0xf0c>
   23ef4:	f3843783          	ld	a5,-200(s0)
   23ef8:	00178713          	addi	a4,a5,1
   23efc:	f2e43c23          	sd	a4,-200(s0)
   23f00:	03000713          	li	a4,48
   23f04:	00e78023          	sb	a4,0(a5)
   23f08:	0400006f          	j	23f48 <bss_begin+0xf48>
   23f0c:	f2c42783          	lw	a5,-212(s0)
   23f10:	0007871b          	sext.w	a4,a5
   23f14:	01000793          	li	a5,16
   23f18:	02f71863          	bne	a4,a5,23f48 <bss_begin+0xf48>
   23f1c:	f3843783          	ld	a5,-200(s0)
   23f20:	00178713          	addi	a4,a5,1
   23f24:	f2e43c23          	sd	a4,-200(s0)
   23f28:	03000713          	li	a4,48
   23f2c:	00e78023          	sb	a4,0(a5)
   23f30:	f3843783          	ld	a5,-200(s0)
   23f34:	00178713          	addi	a4,a5,1
   23f38:	f2e43c23          	sd	a4,-200(s0)
   23f3c:	fe043703          	ld	a4,-32(s0)
   23f40:	02174703          	lbu	a4,33(a4)
   23f44:	00e78023          	sb	a4,0(a5)
   23f48:	f2042783          	lw	a5,-224(s0)
   23f4c:	0107f793          	andi	a5,a5,16
   23f50:	0007879b          	sext.w	a5,a5
   23f54:	04079263          	bnez	a5,23f98 <bss_begin+0xf98>
   23f58:	0180006f          	j	23f70 <bss_begin+0xf70>
   23f5c:	f3843783          	ld	a5,-200(s0)
   23f60:	00178713          	addi	a4,a5,1
   23f64:	f2e43c23          	sd	a4,-200(s0)
   23f68:	fdb44703          	lbu	a4,-37(s0)
   23f6c:	00e78023          	sb	a4,0(a5)
   23f70:	f2842783          	lw	a5,-216(s0)
   23f74:	fff7871b          	addiw	a4,a5,-1
   23f78:	f2e42423          	sw	a4,-216(s0)
   23f7c:	fef040e3          	bgtz	a5,23f5c <bss_begin+0xf5c>
   23f80:	0180006f          	j	23f98 <bss_begin+0xf98>
   23f84:	f3843783          	ld	a5,-200(s0)
   23f88:	00178713          	addi	a4,a5,1
   23f8c:	f2e43c23          	sd	a4,-200(s0)
   23f90:	03000713          	li	a4,48
   23f94:	00e78023          	sb	a4,0(a5)
   23f98:	f2442783          	lw	a5,-220(s0)
   23f9c:	fff7871b          	addiw	a4,a5,-1
   23fa0:	f2e42223          	sw	a4,-220(s0)
   23fa4:	fdc42703          	lw	a4,-36(s0)
   23fa8:	0007071b          	sext.w	a4,a4
   23fac:	fcf74ce3          	blt	a4,a5,23f84 <bss_begin+0xf84>
   23fb0:	0240006f          	j	23fd4 <bss_begin+0xfd4>
   23fb4:	f3843783          	ld	a5,-200(s0)
   23fb8:	00178713          	addi	a4,a5,1
   23fbc:	f2e43c23          	sd	a4,-200(s0)
   23fc0:	fdc42703          	lw	a4,-36(s0)
   23fc4:	ff040693          	addi	a3,s0,-16
   23fc8:	00e68733          	add	a4,a3,a4
   23fcc:	f5874703          	lbu	a4,-168(a4)
   23fd0:	00e78023          	sb	a4,0(a5)
   23fd4:	fdc42783          	lw	a5,-36(s0)
   23fd8:	fff7871b          	addiw	a4,a5,-1
   23fdc:	fce42e23          	sw	a4,-36(s0)
   23fe0:	fcf04ae3          	bgtz	a5,23fb4 <bss_begin+0xfb4>
   23fe4:	0180006f          	j	23ffc <bss_begin+0xffc>
   23fe8:	f3843783          	ld	a5,-200(s0)
   23fec:	00178713          	addi	a4,a5,1
   23ff0:	f2e43c23          	sd	a4,-200(s0)
   23ff4:	02000713          	li	a4,32
   23ff8:	00e78023          	sb	a4,0(a5)
   23ffc:	f2842783          	lw	a5,-216(s0)
   24000:	fff7871b          	addiw	a4,a5,-1
   24004:	f2e42423          	sw	a4,-216(s0)
   24008:	fef040e3          	bgtz	a5,23fe8 <bss_begin+0xfe8>
   2400c:	f3843783          	ld	a5,-200(s0)
   24010:	00078513          	mv	a0,a5
   24014:	0d813403          	ld	s0,216(sp)
   24018:	0e010113          	addi	sp,sp,224
   2401c:	00008067          	ret
   24020:	f9010113          	addi	sp,sp,-112
   24024:	06113423          	sd	ra,104(sp)
   24028:	06813023          	sd	s0,96(sp)
   2402c:	07010413          	addi	s0,sp,112
   24030:	faa43423          	sd	a0,-88(s0)
   24034:	00058793          	mv	a5,a1
   24038:	f8c43c23          	sd	a2,-104(s0)
   2403c:	f8d43823          	sd	a3,-112(s0)
   24040:	faf42223          	sw	a5,-92(s0)
   24044:	fa843783          	ld	a5,-88(s0)
   24048:	fef43423          	sd	a5,-24(s0)
   2404c:	7440006f          	j	24790 <bss_begin+0x1790>
   24050:	f9843783          	ld	a5,-104(s0)
   24054:	0007c783          	lbu	a5,0(a5)
   24058:	00078713          	mv	a4,a5
   2405c:	02500793          	li	a5,37
   24060:	02f70063          	beq	a4,a5,24080 <bss_begin+0x1080>
   24064:	fe843783          	ld	a5,-24(s0)
   24068:	00178713          	addi	a4,a5,1
   2406c:	fee43423          	sd	a4,-24(s0)
   24070:	f9843703          	ld	a4,-104(s0)
   24074:	00074703          	lbu	a4,0(a4)
   24078:	00e78023          	sb	a4,0(a5)
   2407c:	7080006f          	j	24784 <bss_begin+0x1784>
   24080:	fe042223          	sw	zero,-28(s0)
   24084:	f9843783          	ld	a5,-104(s0)
   24088:	00178793          	addi	a5,a5,1
   2408c:	f8f43c23          	sd	a5,-104(s0)
   24090:	f9843783          	ld	a5,-104(s0)
   24094:	0007c783          	lbu	a5,0(a5)
   24098:	0007879b          	sext.w	a5,a5
   2409c:	fe07869b          	addiw	a3,a5,-32
   240a0:	0006871b          	sext.w	a4,a3
   240a4:	01000793          	li	a5,16
   240a8:	08e7e263          	bltu	a5,a4,2412c <bss_begin+0x112c>
   240ac:	02069793          	slli	a5,a3,0x20
   240b0:	0207d793          	srli	a5,a5,0x20
   240b4:	00279713          	slli	a4,a5,0x2
   240b8:	00001797          	auipc	a5,0x1
   240bc:	76078793          	addi	a5,a5,1888 # 25818 <bss_begin+0x2818>
   240c0:	00f707b3          	add	a5,a4,a5
   240c4:	0007a783          	lw	a5,0(a5)
   240c8:	0007871b          	sext.w	a4,a5
   240cc:	00001797          	auipc	a5,0x1
   240d0:	74c78793          	addi	a5,a5,1868 # 25818 <bss_begin+0x2818>
   240d4:	00f707b3          	add	a5,a4,a5
   240d8:	00078067          	jr	a5
   240dc:	fe442783          	lw	a5,-28(s0)
   240e0:	0107e793          	ori	a5,a5,16
   240e4:	fef42223          	sw	a5,-28(s0)
   240e8:	f9dff06f          	j	24084 <bss_begin+0x1084>
   240ec:	fe442783          	lw	a5,-28(s0)
   240f0:	0047e793          	ori	a5,a5,4
   240f4:	fef42223          	sw	a5,-28(s0)
   240f8:	f8dff06f          	j	24084 <bss_begin+0x1084>
   240fc:	fe442783          	lw	a5,-28(s0)
   24100:	0087e793          	ori	a5,a5,8
   24104:	fef42223          	sw	a5,-28(s0)
   24108:	f7dff06f          	j	24084 <bss_begin+0x1084>
   2410c:	fe442783          	lw	a5,-28(s0)
   24110:	0207e793          	ori	a5,a5,32
   24114:	fef42223          	sw	a5,-28(s0)
   24118:	f6dff06f          	j	24084 <bss_begin+0x1084>
   2411c:	fe442783          	lw	a5,-28(s0)
   24120:	0017e793          	ori	a5,a5,1
   24124:	fef42223          	sw	a5,-28(s0)
   24128:	f5dff06f          	j	24084 <bss_begin+0x1084>
   2412c:	fff00793          	li	a5,-1
   24130:	faf42a23          	sw	a5,-76(s0)
   24134:	f9843783          	ld	a5,-104(s0)
   24138:	0007c783          	lbu	a5,0(a5)
   2413c:	00078713          	mv	a4,a5
   24140:	02f00793          	li	a5,47
   24144:	02e7f863          	bgeu	a5,a4,24174 <bss_begin+0x1174>
   24148:	f9843783          	ld	a5,-104(s0)
   2414c:	0007c783          	lbu	a5,0(a5)
   24150:	00078713          	mv	a4,a5
   24154:	03900793          	li	a5,57
   24158:	00e7ee63          	bltu	a5,a4,24174 <bss_begin+0x1174>
   2415c:	fb440793          	addi	a5,s0,-76
   24160:	00078593          	mv	a1,a5
   24164:	f9843503          	ld	a0,-104(s0)
   24168:	a15ff0ef          	jal	ra,23b7c <bss_begin+0xb7c>
   2416c:	f8a43c23          	sd	a0,-104(s0)
   24170:	0500006f          	j	241c0 <bss_begin+0x11c0>
   24174:	f9843783          	ld	a5,-104(s0)
   24178:	0007c783          	lbu	a5,0(a5)
   2417c:	00078713          	mv	a4,a5
   24180:	02a00793          	li	a5,42
   24184:	02f71e63          	bne	a4,a5,241c0 <bss_begin+0x11c0>
   24188:	f9043783          	ld	a5,-112(s0)
   2418c:	00878713          	addi	a4,a5,8
   24190:	f8e43823          	sd	a4,-112(s0)
   24194:	0007a783          	lw	a5,0(a5)
   24198:	faf42a23          	sw	a5,-76(s0)
   2419c:	fb442783          	lw	a5,-76(s0)
   241a0:	0207d063          	bgez	a5,241c0 <bss_begin+0x11c0>
   241a4:	fb442783          	lw	a5,-76(s0)
   241a8:	40f007bb          	negw	a5,a5
   241ac:	0007879b          	sext.w	a5,a5
   241b0:	faf42a23          	sw	a5,-76(s0)
   241b4:	fe442783          	lw	a5,-28(s0)
   241b8:	0107e793          	ori	a5,a5,16
   241bc:	fef42223          	sw	a5,-28(s0)
   241c0:	fff00793          	li	a5,-1
   241c4:	faf42823          	sw	a5,-80(s0)
   241c8:	f9843783          	ld	a5,-104(s0)
   241cc:	0007c783          	lbu	a5,0(a5)
   241d0:	00078713          	mv	a4,a5
   241d4:	02e00793          	li	a5,46
   241d8:	08f71263          	bne	a4,a5,2425c <bss_begin+0x125c>
   241dc:	f9843783          	ld	a5,-104(s0)
   241e0:	00178793          	addi	a5,a5,1
   241e4:	f8f43c23          	sd	a5,-104(s0)
   241e8:	f9843783          	ld	a5,-104(s0)
   241ec:	0007c783          	lbu	a5,0(a5)
   241f0:	00078713          	mv	a4,a5
   241f4:	02f00793          	li	a5,47
   241f8:	02e7f863          	bgeu	a5,a4,24228 <bss_begin+0x1228>
   241fc:	f9843783          	ld	a5,-104(s0)
   24200:	0007c783          	lbu	a5,0(a5)
   24204:	00078713          	mv	a4,a5
   24208:	03900793          	li	a5,57
   2420c:	00e7ee63          	bltu	a5,a4,24228 <bss_begin+0x1228>
   24210:	fb040793          	addi	a5,s0,-80
   24214:	00078593          	mv	a1,a5
   24218:	f9843503          	ld	a0,-104(s0)
   2421c:	961ff0ef          	jal	ra,23b7c <bss_begin+0xb7c>
   24220:	f8a43c23          	sd	a0,-104(s0)
   24224:	02c0006f          	j	24250 <bss_begin+0x1250>
   24228:	f9843783          	ld	a5,-104(s0)
   2422c:	0007c783          	lbu	a5,0(a5)
   24230:	00078713          	mv	a4,a5
   24234:	02a00793          	li	a5,42
   24238:	00f71c63          	bne	a4,a5,24250 <bss_begin+0x1250>
   2423c:	f9043783          	ld	a5,-112(s0)
   24240:	00878713          	addi	a4,a5,8
   24244:	f8e43823          	sd	a4,-112(s0)
   24248:	0007a783          	lw	a5,0(a5)
   2424c:	faf42823          	sw	a5,-80(s0)
   24250:	fb042783          	lw	a5,-80(s0)
   24254:	0007d463          	bgez	a5,2425c <bss_begin+0x125c>
   24258:	fa042823          	sw	zero,-80(s0)
   2425c:	fff00793          	li	a5,-1
   24260:	fef42023          	sw	a5,-32(s0)
   24264:	f9843783          	ld	a5,-104(s0)
   24268:	0007c783          	lbu	a5,0(a5)
   2426c:	00078713          	mv	a4,a5
   24270:	06800793          	li	a5,104
   24274:	02f70663          	beq	a4,a5,242a0 <bss_begin+0x12a0>
   24278:	f9843783          	ld	a5,-104(s0)
   2427c:	0007c783          	lbu	a5,0(a5)
   24280:	00078713          	mv	a4,a5
   24284:	06c00793          	li	a5,108
   24288:	00f70c63          	beq	a4,a5,242a0 <bss_begin+0x12a0>
   2428c:	f9843783          	ld	a5,-104(s0)
   24290:	0007c783          	lbu	a5,0(a5)
   24294:	00078713          	mv	a4,a5
   24298:	04c00793          	li	a5,76
   2429c:	04f71a63          	bne	a4,a5,242f0 <bss_begin+0x12f0>
   242a0:	f9843783          	ld	a5,-104(s0)
   242a4:	0007c783          	lbu	a5,0(a5)
   242a8:	fef42023          	sw	a5,-32(s0)
   242ac:	f9843783          	ld	a5,-104(s0)
   242b0:	00178793          	addi	a5,a5,1
   242b4:	f8f43c23          	sd	a5,-104(s0)
   242b8:	fe042783          	lw	a5,-32(s0)
   242bc:	0007871b          	sext.w	a4,a5
   242c0:	06c00793          	li	a5,108
   242c4:	02f71663          	bne	a4,a5,242f0 <bss_begin+0x12f0>
   242c8:	f9843783          	ld	a5,-104(s0)
   242cc:	0007c783          	lbu	a5,0(a5)
   242d0:	00078713          	mv	a4,a5
   242d4:	06c00793          	li	a5,108
   242d8:	00f71c63          	bne	a4,a5,242f0 <bss_begin+0x12f0>
   242dc:	04c00793          	li	a5,76
   242e0:	fef42023          	sw	a5,-32(s0)
   242e4:	f9843783          	ld	a5,-104(s0)
   242e8:	00178793          	addi	a5,a5,1
   242ec:	f8f43c23          	sd	a5,-104(s0)
   242f0:	f9843783          	ld	a5,-104(s0)
   242f4:	0007c783          	lbu	a5,0(a5)
   242f8:	0007879b          	sext.w	a5,a5
   242fc:	fa87869b          	addiw	a3,a5,-88
   24300:	0006871b          	sext.w	a4,a3
   24304:	02000793          	li	a5,32
   24308:	2ae7ec63          	bltu	a5,a4,245c0 <bss_begin+0x15c0>
   2430c:	02069793          	slli	a5,a3,0x20
   24310:	0207d793          	srli	a5,a5,0x20
   24314:	00279713          	slli	a4,a5,0x2
   24318:	00001797          	auipc	a5,0x1
   2431c:	54478793          	addi	a5,a5,1348 # 2585c <bss_begin+0x285c>
   24320:	00f707b3          	add	a5,a4,a5
   24324:	0007a783          	lw	a5,0(a5)
   24328:	0007871b          	sext.w	a4,a5
   2432c:	00001797          	auipc	a5,0x1
   24330:	53078793          	addi	a5,a5,1328 # 2585c <bss_begin+0x285c>
   24334:	00f707b3          	add	a5,a4,a5
   24338:	00078067          	jr	a5
   2433c:	fe442783          	lw	a5,-28(s0)
   24340:	0107f793          	andi	a5,a5,16
   24344:	0007879b          	sext.w	a5,a5
   24348:	02079a63          	bnez	a5,2437c <bss_begin+0x137c>
   2434c:	0180006f          	j	24364 <bss_begin+0x1364>
   24350:	fe843783          	ld	a5,-24(s0)
   24354:	00178713          	addi	a4,a5,1
   24358:	fee43423          	sd	a4,-24(s0)
   2435c:	02000713          	li	a4,32
   24360:	00e78023          	sb	a4,0(a5)
   24364:	fb442783          	lw	a5,-76(s0)
   24368:	fff7879b          	addiw	a5,a5,-1
   2436c:	0007879b          	sext.w	a5,a5
   24370:	faf42a23          	sw	a5,-76(s0)
   24374:	fb442783          	lw	a5,-76(s0)
   24378:	fcf04ce3          	bgtz	a5,24350 <bss_begin+0x1350>
   2437c:	f9043783          	ld	a5,-112(s0)
   24380:	00878713          	addi	a4,a5,8
   24384:	f8e43823          	sd	a4,-112(s0)
   24388:	0007a683          	lw	a3,0(a5)
   2438c:	fe843783          	ld	a5,-24(s0)
   24390:	00178713          	addi	a4,a5,1
   24394:	fee43423          	sd	a4,-24(s0)
   24398:	0ff6f713          	andi	a4,a3,255
   2439c:	00e78023          	sb	a4,0(a5)
   243a0:	0180006f          	j	243b8 <bss_begin+0x13b8>
   243a4:	fe843783          	ld	a5,-24(s0)
   243a8:	00178713          	addi	a4,a5,1
   243ac:	fee43423          	sd	a4,-24(s0)
   243b0:	02000713          	li	a4,32
   243b4:	00e78023          	sb	a4,0(a5)
   243b8:	fb442783          	lw	a5,-76(s0)
   243bc:	fff7879b          	addiw	a5,a5,-1
   243c0:	0007879b          	sext.w	a5,a5
   243c4:	faf42a23          	sw	a5,-76(s0)
   243c8:	fb442783          	lw	a5,-76(s0)
   243cc:	fcf04ce3          	bgtz	a5,243a4 <bss_begin+0x13a4>
   243d0:	3b40006f          	j	24784 <bss_begin+0x1784>
   243d4:	f9043783          	ld	a5,-112(s0)
   243d8:	00878713          	addi	a4,a5,8
   243dc:	f8e43823          	sd	a4,-112(s0)
   243e0:	0007b783          	ld	a5,0(a5)
   243e4:	fcf43c23          	sd	a5,-40(s0)
   243e8:	fd843783          	ld	a5,-40(s0)
   243ec:	00079863          	bnez	a5,243fc <bss_begin+0x13fc>
   243f0:	00001797          	auipc	a5,0x1
   243f4:	42078793          	addi	a5,a5,1056 # 25810 <bss_begin+0x2810>
   243f8:	fcf43c23          	sd	a5,-40(s0)
   243fc:	fd843503          	ld	a0,-40(s0)
   24400:	5dc000ef          	jal	ra,249dc <bss_begin+0x19dc>
   24404:	00050793          	mv	a5,a0
   24408:	fcf42823          	sw	a5,-48(s0)
   2440c:	fb042783          	lw	a5,-80(s0)
   24410:	0007d863          	bgez	a5,24420 <bss_begin+0x1420>
   24414:	fd042783          	lw	a5,-48(s0)
   24418:	faf42823          	sw	a5,-80(s0)
   2441c:	01c0006f          	j	24438 <bss_begin+0x1438>
   24420:	fb042703          	lw	a4,-80(s0)
   24424:	fd042783          	lw	a5,-48(s0)
   24428:	0007879b          	sext.w	a5,a5
   2442c:	00f75663          	bge	a4,a5,24438 <bss_begin+0x1438>
   24430:	fb042783          	lw	a5,-80(s0)
   24434:	fcf42823          	sw	a5,-48(s0)
   24438:	fe442783          	lw	a5,-28(s0)
   2443c:	0107f793          	andi	a5,a5,16
   24440:	0007879b          	sext.w	a5,a5
   24444:	02079c63          	bnez	a5,2447c <bss_begin+0x147c>
   24448:	0180006f          	j	24460 <bss_begin+0x1460>
   2444c:	fe843783          	ld	a5,-24(s0)
   24450:	00178713          	addi	a4,a5,1
   24454:	fee43423          	sd	a4,-24(s0)
   24458:	02000713          	li	a4,32
   2445c:	00e78023          	sb	a4,0(a5)
   24460:	fb442783          	lw	a5,-76(s0)
   24464:	fff7871b          	addiw	a4,a5,-1
   24468:	0007071b          	sext.w	a4,a4
   2446c:	fae42a23          	sw	a4,-76(s0)
   24470:	fd042703          	lw	a4,-48(s0)
   24474:	0007071b          	sext.w	a4,a4
   24478:	fcf74ae3          	blt	a4,a5,2444c <bss_begin+0x144c>
   2447c:	fc042a23          	sw	zero,-44(s0)
   24480:	0300006f          	j	244b0 <bss_begin+0x14b0>
   24484:	fd843703          	ld	a4,-40(s0)
   24488:	00170793          	addi	a5,a4,1
   2448c:	fcf43c23          	sd	a5,-40(s0)
   24490:	fe843783          	ld	a5,-24(s0)
   24494:	00178693          	addi	a3,a5,1
   24498:	fed43423          	sd	a3,-24(s0)
   2449c:	00074703          	lbu	a4,0(a4)
   244a0:	00e78023          	sb	a4,0(a5)
   244a4:	fd442783          	lw	a5,-44(s0)
   244a8:	0017879b          	addiw	a5,a5,1
   244ac:	fcf42a23          	sw	a5,-44(s0)
   244b0:	fd442703          	lw	a4,-44(s0)
   244b4:	fd042783          	lw	a5,-48(s0)
   244b8:	0007071b          	sext.w	a4,a4
   244bc:	0007879b          	sext.w	a5,a5
   244c0:	fcf742e3          	blt	a4,a5,24484 <bss_begin+0x1484>
   244c4:	0180006f          	j	244dc <bss_begin+0x14dc>
   244c8:	fe843783          	ld	a5,-24(s0)
   244cc:	00178713          	addi	a4,a5,1
   244d0:	fee43423          	sd	a4,-24(s0)
   244d4:	02000713          	li	a4,32
   244d8:	00e78023          	sb	a4,0(a5)
   244dc:	fb442783          	lw	a5,-76(s0)
   244e0:	fff7871b          	addiw	a4,a5,-1
   244e4:	0007071b          	sext.w	a4,a4
   244e8:	fae42a23          	sw	a4,-76(s0)
   244ec:	fd042703          	lw	a4,-48(s0)
   244f0:	0007071b          	sext.w	a4,a4
   244f4:	fcf74ae3          	blt	a4,a5,244c8 <bss_begin+0x14c8>
   244f8:	28c0006f          	j	24784 <bss_begin+0x1784>
   244fc:	f9043783          	ld	a5,-112(s0)
   24500:	00878713          	addi	a4,a5,8
   24504:	f8e43823          	sd	a4,-112(s0)
   24508:	0007b783          	ld	a5,0(a5)
   2450c:	faf43c23          	sd	a5,-72(s0)
   24510:	fe843703          	ld	a4,-24(s0)
   24514:	fa843783          	ld	a5,-88(s0)
   24518:	40f707b3          	sub	a5,a4,a5
   2451c:	0ff7f713          	andi	a4,a5,255
   24520:	fb843783          	ld	a5,-72(s0)
   24524:	00e78023          	sb	a4,0(a5)
   24528:	25c0006f          	j	24784 <bss_begin+0x1784>
   2452c:	fb442783          	lw	a5,-76(s0)
   24530:	00078713          	mv	a4,a5
   24534:	fff00793          	li	a5,-1
   24538:	00f71c63          	bne	a4,a5,24550 <bss_begin+0x1550>
   2453c:	01000793          	li	a5,16
   24540:	faf42a23          	sw	a5,-76(s0)
   24544:	fe442783          	lw	a5,-28(s0)
   24548:	0017e793          	ori	a5,a5,1
   2454c:	fef42223          	sw	a5,-28(s0)
   24550:	f9043783          	ld	a5,-112(s0)
   24554:	00878713          	addi	a4,a5,8
   24558:	f8e43823          	sd	a4,-112(s0)
   2455c:	0007b783          	ld	a5,0(a5)
   24560:	00078593          	mv	a1,a5
   24564:	fb442683          	lw	a3,-76(s0)
   24568:	fb042703          	lw	a4,-80(s0)
   2456c:	fe442783          	lw	a5,-28(s0)
   24570:	01000613          	li	a2,16
   24574:	fe843503          	ld	a0,-24(s0)
   24578:	ea8ff0ef          	jal	ra,23c20 <bss_begin+0xc20>
   2457c:	fea43423          	sd	a0,-24(s0)
   24580:	2040006f          	j	24784 <bss_begin+0x1784>
   24584:	00800793          	li	a5,8
   24588:	fcf42223          	sw	a5,-60(s0)
   2458c:	0940006f          	j	24620 <bss_begin+0x1620>
   24590:	fe442783          	lw	a5,-28(s0)
   24594:	0407e793          	ori	a5,a5,64
   24598:	fef42223          	sw	a5,-28(s0)
   2459c:	01000793          	li	a5,16
   245a0:	fcf42223          	sw	a5,-60(s0)
   245a4:	07c0006f          	j	24620 <bss_begin+0x1620>
   245a8:	fe442783          	lw	a5,-28(s0)
   245ac:	0027e793          	ori	a5,a5,2
   245b0:	fef42223          	sw	a5,-28(s0)
   245b4:	00a00793          	li	a5,10
   245b8:	fcf42223          	sw	a5,-60(s0)
   245bc:	0640006f          	j	24620 <bss_begin+0x1620>
   245c0:	f9843783          	ld	a5,-104(s0)
   245c4:	0007c783          	lbu	a5,0(a5)
   245c8:	00078713          	mv	a4,a5
   245cc:	02500793          	li	a5,37
   245d0:	00f70c63          	beq	a4,a5,245e8 <bss_begin+0x15e8>
   245d4:	fe843783          	ld	a5,-24(s0)
   245d8:	00178713          	addi	a4,a5,1
   245dc:	fee43423          	sd	a4,-24(s0)
   245e0:	02500713          	li	a4,37
   245e4:	00e78023          	sb	a4,0(a5)
   245e8:	f9843783          	ld	a5,-104(s0)
   245ec:	0007c783          	lbu	a5,0(a5)
   245f0:	02078063          	beqz	a5,24610 <bss_begin+0x1610>
   245f4:	fe843783          	ld	a5,-24(s0)
   245f8:	00178713          	addi	a4,a5,1
   245fc:	fee43423          	sd	a4,-24(s0)
   24600:	f9843703          	ld	a4,-104(s0)
   24604:	00074703          	lbu	a4,0(a4)
   24608:	00e78023          	sb	a4,0(a5)
   2460c:	0100006f          	j	2461c <bss_begin+0x161c>
   24610:	f9843783          	ld	a5,-104(s0)
   24614:	fff78793          	addi	a5,a5,-1
   24618:	f8f43c23          	sd	a5,-104(s0)
   2461c:	00000013          	nop
   24620:	fe042783          	lw	a5,-32(s0)
   24624:	0007871b          	sext.w	a4,a5
   24628:	04c00793          	li	a5,76
   2462c:	04f71263          	bne	a4,a5,24670 <bss_begin+0x1670>
   24630:	fe442783          	lw	a5,-28(s0)
   24634:	0027f793          	andi	a5,a5,2
   24638:	0007879b          	sext.w	a5,a5
   2463c:	00078e63          	beqz	a5,24658 <bss_begin+0x1658>
   24640:	f9043783          	ld	a5,-112(s0)
   24644:	00878713          	addi	a4,a5,8
   24648:	f8e43823          	sd	a4,-112(s0)
   2464c:	0007b783          	ld	a5,0(a5)
   24650:	fcf43423          	sd	a5,-56(s0)
   24654:	1100006f          	j	24764 <bss_begin+0x1764>
   24658:	f9043783          	ld	a5,-112(s0)
   2465c:	00878713          	addi	a4,a5,8
   24660:	f8e43823          	sd	a4,-112(s0)
   24664:	0007b783          	ld	a5,0(a5)
   24668:	fcf43423          	sd	a5,-56(s0)
   2466c:	0f80006f          	j	24764 <bss_begin+0x1764>
   24670:	fe042783          	lw	a5,-32(s0)
   24674:	0007871b          	sext.w	a4,a5
   24678:	06800793          	li	a5,104
   2467c:	04f71a63          	bne	a4,a5,246d0 <bss_begin+0x16d0>
   24680:	fe442783          	lw	a5,-28(s0)
   24684:	0027f793          	andi	a5,a5,2
   24688:	0007879b          	sext.w	a5,a5
   2468c:	02078263          	beqz	a5,246b0 <bss_begin+0x16b0>
   24690:	f9043783          	ld	a5,-112(s0)
   24694:	00878713          	addi	a4,a5,8
   24698:	f8e43823          	sd	a4,-112(s0)
   2469c:	0007a783          	lw	a5,0(a5)
   246a0:	0107979b          	slliw	a5,a5,0x10
   246a4:	4107d79b          	sraiw	a5,a5,0x10
   246a8:	fcf43423          	sd	a5,-56(s0)
   246ac:	0b80006f          	j	24764 <bss_begin+0x1764>
   246b0:	f9043783          	ld	a5,-112(s0)
   246b4:	00878713          	addi	a4,a5,8
   246b8:	f8e43823          	sd	a4,-112(s0)
   246bc:	0007a783          	lw	a5,0(a5)
   246c0:	03079793          	slli	a5,a5,0x30
   246c4:	0307d793          	srli	a5,a5,0x30
   246c8:	fcf43423          	sd	a5,-56(s0)
   246cc:	0980006f          	j	24764 <bss_begin+0x1764>
   246d0:	fe042783          	lw	a5,-32(s0)
   246d4:	0007871b          	sext.w	a4,a5
   246d8:	06c00793          	li	a5,108
   246dc:	04f71263          	bne	a4,a5,24720 <bss_begin+0x1720>
   246e0:	fe442783          	lw	a5,-28(s0)
   246e4:	0027f793          	andi	a5,a5,2
   246e8:	0007879b          	sext.w	a5,a5
   246ec:	00078e63          	beqz	a5,24708 <bss_begin+0x1708>
   246f0:	f9043783          	ld	a5,-112(s0)
   246f4:	00878713          	addi	a4,a5,8
   246f8:	f8e43823          	sd	a4,-112(s0)
   246fc:	0007b783          	ld	a5,0(a5)
   24700:	fcf43423          	sd	a5,-56(s0)
   24704:	0600006f          	j	24764 <bss_begin+0x1764>
   24708:	f9043783          	ld	a5,-112(s0)
   2470c:	00878713          	addi	a4,a5,8
   24710:	f8e43823          	sd	a4,-112(s0)
   24714:	0007b783          	ld	a5,0(a5)
   24718:	fcf43423          	sd	a5,-56(s0)
   2471c:	0480006f          	j	24764 <bss_begin+0x1764>
   24720:	fe442783          	lw	a5,-28(s0)
   24724:	0027f793          	andi	a5,a5,2
   24728:	0007879b          	sext.w	a5,a5
   2472c:	00078e63          	beqz	a5,24748 <bss_begin+0x1748>
   24730:	f9043783          	ld	a5,-112(s0)
   24734:	00878713          	addi	a4,a5,8
   24738:	f8e43823          	sd	a4,-112(s0)
   2473c:	0007a783          	lw	a5,0(a5)
   24740:	fcf43423          	sd	a5,-56(s0)
   24744:	0200006f          	j	24764 <bss_begin+0x1764>
   24748:	f9043783          	ld	a5,-112(s0)
   2474c:	00878713          	addi	a4,a5,8
   24750:	f8e43823          	sd	a4,-112(s0)
   24754:	0007a783          	lw	a5,0(a5)
   24758:	02079793          	slli	a5,a5,0x20
   2475c:	0207d793          	srli	a5,a5,0x20
   24760:	fcf43423          	sd	a5,-56(s0)
   24764:	fb442683          	lw	a3,-76(s0)
   24768:	fb042703          	lw	a4,-80(s0)
   2476c:	fe442783          	lw	a5,-28(s0)
   24770:	fc442603          	lw	a2,-60(s0)
   24774:	fc843583          	ld	a1,-56(s0)
   24778:	fe843503          	ld	a0,-24(s0)
   2477c:	ca4ff0ef          	jal	ra,23c20 <bss_begin+0xc20>
   24780:	fea43423          	sd	a0,-24(s0)
   24784:	f9843783          	ld	a5,-104(s0)
   24788:	00178793          	addi	a5,a5,1
   2478c:	f8f43c23          	sd	a5,-104(s0)
   24790:	f9843783          	ld	a5,-104(s0)
   24794:	0007c783          	lbu	a5,0(a5)
   24798:	8a079ce3          	bnez	a5,24050 <bss_begin+0x1050>
   2479c:	fe843783          	ld	a5,-24(s0)
   247a0:	00078023          	sb	zero,0(a5)
   247a4:	fe843703          	ld	a4,-24(s0)
   247a8:	fa843783          	ld	a5,-88(s0)
   247ac:	40f707b3          	sub	a5,a4,a5
   247b0:	0007879b          	sext.w	a5,a5
   247b4:	00078513          	mv	a0,a5
   247b8:	06813083          	ld	ra,104(sp)
   247bc:	06013403          	ld	s0,96(sp)
   247c0:	07010113          	addi	sp,sp,112
   247c4:	00008067          	ret
   247c8:	fe010113          	addi	sp,sp,-32
   247cc:	00113c23          	sd	ra,24(sp)
   247d0:	00813823          	sd	s0,16(sp)
   247d4:	02010413          	addi	s0,sp,32
   247d8:	00003797          	auipc	a5,0x3
   247dc:	a3078793          	addi	a5,a5,-1488 # 27208 <_payload_end+0x200>
   247e0:	00100713          	li	a4,1
   247e4:	00e7a023          	sw	a4,0(a5)
   247e8:	fe043423          	sd	zero,-24(s0)
   247ec:	02c0006f          	j	24818 <bss_begin+0x1818>
   247f0:	00003717          	auipc	a4,0x3
   247f4:	91870713          	addi	a4,a4,-1768 # 27108 <_payload_end+0x100>
   247f8:	fe843783          	ld	a5,-24(s0)
   247fc:	00f707b3          	add	a5,a4,a5
   24800:	0007c783          	lbu	a5,0(a5)
   24804:	00078513          	mv	a0,a5
   24808:	b38ff0ef          	jal	ra,23b40 <bss_begin+0xb40>
   2480c:	fe843783          	ld	a5,-24(s0)
   24810:	00178793          	addi	a5,a5,1
   24814:	fef43423          	sd	a5,-24(s0)
   24818:	00003797          	auipc	a5,0x3
   2481c:	9f878793          	addi	a5,a5,-1544 # 27210 <_payload_end+0x208>
   24820:	0007b783          	ld	a5,0(a5)
   24824:	fe843703          	ld	a4,-24(s0)
   24828:	fcf764e3          	bltu	a4,a5,247f0 <bss_begin+0x17f0>
   2482c:	00002797          	auipc	a5,0x2
   24830:	7d478793          	addi	a5,a5,2004 # 27000 <bss_begin+0x4000>
   24834:	00003717          	auipc	a4,0x3
   24838:	8d470713          	addi	a4,a4,-1836 # 27108 <_payload_end+0x100>
   2483c:	00e7b023          	sd	a4,0(a5)
   24840:	00003797          	auipc	a5,0x3
   24844:	9d078793          	addi	a5,a5,-1584 # 27210 <_payload_end+0x208>
   24848:	0007b023          	sd	zero,0(a5)
   2484c:	00000013          	nop
   24850:	01813083          	ld	ra,24(sp)
   24854:	01013403          	ld	s0,16(sp)
   24858:	02010113          	addi	sp,sp,32
   2485c:	00008067          	ret
   24860:	f9010113          	addi	sp,sp,-112
   24864:	02113423          	sd	ra,40(sp)
   24868:	02813023          	sd	s0,32(sp)
   2486c:	03010413          	addi	s0,sp,48
   24870:	fca43c23          	sd	a0,-40(s0)
   24874:	00b43423          	sd	a1,8(s0)
   24878:	00c43823          	sd	a2,16(s0)
   2487c:	00d43c23          	sd	a3,24(s0)
   24880:	02e43023          	sd	a4,32(s0)
   24884:	02f43423          	sd	a5,40(s0)
   24888:	03043823          	sd	a6,48(s0)
   2488c:	03143c23          	sd	a7,56(s0)
   24890:	04040793          	addi	a5,s0,64
   24894:	fcf43823          	sd	a5,-48(s0)
   24898:	fd043783          	ld	a5,-48(s0)
   2489c:	fc878793          	addi	a5,a5,-56
   248a0:	fef43023          	sd	a5,-32(s0)
   248a4:	fe043783          	ld	a5,-32(s0)
   248a8:	00078693          	mv	a3,a5
   248ac:	fd843603          	ld	a2,-40(s0)
   248b0:	10000593          	li	a1,256
   248b4:	00002517          	auipc	a0,0x2
   248b8:	75450513          	addi	a0,a0,1876 # 27008 <_payload_end>
   248bc:	f64ff0ef          	jal	ra,24020 <bss_begin+0x1020>
   248c0:	00050793          	mv	a5,a0
   248c4:	fef42423          	sw	a5,-24(s0)
   248c8:	00003797          	auipc	a5,0x3
   248cc:	94078793          	addi	a5,a5,-1728 # 27208 <_payload_end+0x200>
   248d0:	0007a783          	lw	a5,0(a5)
   248d4:	06079663          	bnez	a5,24940 <bss_begin+0x1940>
   248d8:	00002797          	auipc	a5,0x2
   248dc:	72878793          	addi	a5,a5,1832 # 27000 <bss_begin+0x4000>
   248e0:	0007b783          	ld	a5,0(a5)
   248e4:	fe842703          	lw	a4,-24(s0)
   248e8:	00070613          	mv	a2,a4
   248ec:	00002597          	auipc	a1,0x2
   248f0:	71c58593          	addi	a1,a1,1820 # 27008 <_payload_end>
   248f4:	00078513          	mv	a0,a5
   248f8:	134000ef          	jal	ra,24a2c <bss_begin+0x1a2c>
   248fc:	fe842703          	lw	a4,-24(s0)
   24900:	00003797          	auipc	a5,0x3
   24904:	80878793          	addi	a5,a5,-2040 # 27108 <_payload_end+0x100>
   24908:	00f70733          	add	a4,a4,a5
   2490c:	00002797          	auipc	a5,0x2
   24910:	6f478793          	addi	a5,a5,1780 # 27000 <bss_begin+0x4000>
   24914:	00e7b023          	sd	a4,0(a5)
   24918:	fe842703          	lw	a4,-24(s0)
   2491c:	00003797          	auipc	a5,0x3
   24920:	8f478793          	addi	a5,a5,-1804 # 27210 <_payload_end+0x208>
   24924:	0007b783          	ld	a5,0(a5)
   24928:	00f70733          	add	a4,a4,a5
   2492c:	00003797          	auipc	a5,0x3
   24930:	8e478793          	addi	a5,a5,-1820 # 27210 <_payload_end+0x208>
   24934:	00e7b023          	sd	a4,0(a5)
   24938:	00000793          	li	a5,0
   2493c:	08c0006f          	j	249c8 <bss_begin+0x19c8>
   24940:	fe042623          	sw	zero,-20(s0)
   24944:	0640006f          	j	249a8 <bss_begin+0x19a8>
   24948:	00002717          	auipc	a4,0x2
   2494c:	6c070713          	addi	a4,a4,1728 # 27008 <_payload_end>
   24950:	fec42783          	lw	a5,-20(s0)
   24954:	00f707b3          	add	a5,a4,a5
   24958:	0007c783          	lbu	a5,0(a5)
   2495c:	00078713          	mv	a4,a5
   24960:	00a00793          	li	a5,10
   24964:	00f71663          	bne	a4,a5,24970 <bss_begin+0x1970>
   24968:	00d00513          	li	a0,13
   2496c:	9d4ff0ef          	jal	ra,23b40 <bss_begin+0xb40>
   24970:	00002717          	auipc	a4,0x2
   24974:	69870713          	addi	a4,a4,1688 # 27008 <_payload_end>
   24978:	fec42783          	lw	a5,-20(s0)
   2497c:	00f707b3          	add	a5,a4,a5
   24980:	0007c783          	lbu	a5,0(a5)
   24984:	00078513          	mv	a0,a5
   24988:	9b8ff0ef          	jal	ra,23b40 <bss_begin+0xb40>
   2498c:	fec42783          	lw	a5,-20(s0)
   24990:	00078713          	mv	a4,a5
   24994:	10000793          	li	a5,256
   24998:	02e7e463          	bltu	a5,a4,249c0 <bss_begin+0x19c0>
   2499c:	fec42783          	lw	a5,-20(s0)
   249a0:	0017879b          	addiw	a5,a5,1
   249a4:	fef42623          	sw	a5,-20(s0)
   249a8:	fec42703          	lw	a4,-20(s0)
   249ac:	fe842783          	lw	a5,-24(s0)
   249b0:	0007071b          	sext.w	a4,a4
   249b4:	0007879b          	sext.w	a5,a5
   249b8:	f8f748e3          	blt	a4,a5,24948 <bss_begin+0x1948>
   249bc:	0080006f          	j	249c4 <bss_begin+0x19c4>
   249c0:	00000013          	nop
   249c4:	fe842783          	lw	a5,-24(s0)
   249c8:	00078513          	mv	a0,a5
   249cc:	02813083          	ld	ra,40(sp)
   249d0:	02013403          	ld	s0,32(sp)
   249d4:	07010113          	addi	sp,sp,112
   249d8:	00008067          	ret
   249dc:	fd010113          	addi	sp,sp,-48
   249e0:	02813423          	sd	s0,40(sp)
   249e4:	03010413          	addi	s0,sp,48
   249e8:	fca43c23          	sd	a0,-40(s0)
   249ec:	fd843783          	ld	a5,-40(s0)
   249f0:	fef43423          	sd	a5,-24(s0)
   249f4:	0100006f          	j	24a04 <bss_begin+0x1a04>
   249f8:	fe843783          	ld	a5,-24(s0)
   249fc:	00178793          	addi	a5,a5,1
   24a00:	fef43423          	sd	a5,-24(s0)
   24a04:	fe843783          	ld	a5,-24(s0)
   24a08:	0007c783          	lbu	a5,0(a5)
   24a0c:	fe0796e3          	bnez	a5,249f8 <bss_begin+0x19f8>
   24a10:	fe843703          	ld	a4,-24(s0)
   24a14:	fd843783          	ld	a5,-40(s0)
   24a18:	40f707b3          	sub	a5,a4,a5
   24a1c:	00078513          	mv	a0,a5
   24a20:	02813403          	ld	s0,40(sp)
   24a24:	03010113          	addi	sp,sp,48
   24a28:	00008067          	ret
   24a2c:	fc010113          	addi	sp,sp,-64
   24a30:	02813c23          	sd	s0,56(sp)
   24a34:	04010413          	addi	s0,sp,64
   24a38:	fca43c23          	sd	a0,-40(s0)
   24a3c:	fcb43823          	sd	a1,-48(s0)
   24a40:	fcc43423          	sd	a2,-56(s0)
   24a44:	fd843783          	ld	a5,-40(s0)
   24a48:	fef43423          	sd	a5,-24(s0)
   24a4c:	fd043783          	ld	a5,-48(s0)
   24a50:	fef43023          	sd	a5,-32(s0)
   24a54:	0240006f          	j	24a78 <bss_begin+0x1a78>
   24a58:	fe043703          	ld	a4,-32(s0)
   24a5c:	00170793          	addi	a5,a4,1
   24a60:	fef43023          	sd	a5,-32(s0)
   24a64:	fe843783          	ld	a5,-24(s0)
   24a68:	00178693          	addi	a3,a5,1
   24a6c:	fed43423          	sd	a3,-24(s0)
   24a70:	00074703          	lbu	a4,0(a4)
   24a74:	00e78023          	sb	a4,0(a5)
   24a78:	fc843783          	ld	a5,-56(s0)
   24a7c:	fff78713          	addi	a4,a5,-1
   24a80:	fce43423          	sd	a4,-56(s0)
   24a84:	fc079ae3          	bnez	a5,24a58 <bss_begin+0x1a58>
   24a88:	fd843783          	ld	a5,-40(s0)
   24a8c:	00078513          	mv	a0,a5
   24a90:	03813403          	ld	s0,56(sp)
   24a94:	04010113          	addi	sp,sp,64
   24a98:	00008067          	ret
   24a9c:	fe010113          	addi	sp,sp,-32
   24aa0:	00813c23          	sd	s0,24(sp)
   24aa4:	02010413          	addi	s0,sp,32
   24aa8:	fea43423          	sd	a0,-24(s0)
   24aac:	fe843783          	ld	a5,-24(s0)
   24ab0:	0007a783          	lw	a5,0(a5)
   24ab4:	0007879b          	sext.w	a5,a5
   24ab8:	00078513          	mv	a0,a5
   24abc:	01813403          	ld	s0,24(sp)
   24ac0:	02010113          	addi	sp,sp,32
   24ac4:	00008067          	ret
   24ac8:	fe010113          	addi	sp,sp,-32
   24acc:	00813c23          	sd	s0,24(sp)
   24ad0:	02010413          	addi	s0,sp,32
   24ad4:	fea43423          	sd	a0,-24(s0)
   24ad8:	00058793          	mv	a5,a1
   24adc:	fef42223          	sw	a5,-28(s0)
   24ae0:	fe843783          	ld	a5,-24(s0)
   24ae4:	fe442703          	lw	a4,-28(s0)
   24ae8:	00e7a023          	sw	a4,0(a5)
   24aec:	00000013          	nop
   24af0:	01813403          	ld	s0,24(sp)
   24af4:	02010113          	addi	sp,sp,32
   24af8:	00008067          	ret
   24afc:	fe010113          	addi	sp,sp,-32
   24b00:	00813c23          	sd	s0,24(sp)
   24b04:	02010413          	addi	s0,sp,32
   24b08:	fea43423          	sd	a0,-24(s0)
   24b0c:	fe843783          	ld	a5,-24(s0)
   24b10:	00a79793          	slli	a5,a5,0xa
   24b14:	fef43423          	sd	a5,-24(s0)
   24b18:	00000013          	nop
   24b1c:	fe843783          	ld	a5,-24(s0)
   24b20:	fff78713          	addi	a4,a5,-1
   24b24:	fee43423          	sd	a4,-24(s0)
   24b28:	fe079ae3          	bnez	a5,24b1c <bss_begin+0x1b1c>
   24b2c:	00000013          	nop
   24b30:	00000013          	nop
   24b34:	01813403          	ld	s0,24(sp)
   24b38:	02010113          	addi	sp,sp,32
   24b3c:	00008067          	ret
   24b40:	fe010113          	addi	sp,sp,-32
   24b44:	00113c23          	sd	ra,24(sp)
   24b48:	00813823          	sd	s0,16(sp)
   24b4c:	02010413          	addi	s0,sp,32
   24b50:	30100593          	li	a1,769
   24b54:	020027b7          	lui	a5,0x2002
   24b58:	d0078513          	addi	a0,a5,-768 # 2001d00 <_payload_end+0x1fdacf8>
   24b5c:	f6dff0ef          	jal	ra,24ac8 <bss_begin+0x1ac8>
   24b60:	00100513          	li	a0,1
   24b64:	f99ff0ef          	jal	ra,24afc <bss_begin+0x1afc>
   24b68:	02001537          	lui	a0,0x2001
   24b6c:	f31ff0ef          	jal	ra,24a9c <bss_begin+0x1a9c>
   24b70:	00050793          	mv	a5,a0
   24b74:	fef42623          	sw	a5,-20(s0)
   24b78:	fec42703          	lw	a4,-20(s0)
   24b7c:	f80007b7          	lui	a5,0xf8000
   24b80:	fff78793          	addi	a5,a5,-1 # fffffffff7ffffff <_payload_end+0xfffffffff7fd8ff7>
   24b84:	00f777b3          	and	a5,a4,a5
   24b88:	fef42623          	sw	a5,-20(s0)
   24b8c:	fec42783          	lw	a5,-20(s0)
   24b90:	00078593          	mv	a1,a5
   24b94:	02001537          	lui	a0,0x2001
   24b98:	f31ff0ef          	jal	ra,24ac8 <bss_begin+0x1ac8>
   24b9c:	02001537          	lui	a0,0x2001
   24ba0:	efdff0ef          	jal	ra,24a9c <bss_begin+0x1a9c>
   24ba4:	00050793          	mv	a5,a0
   24ba8:	fef42623          	sw	a5,-20(s0)
   24bac:	fec42703          	lw	a4,-20(s0)
   24bb0:	400007b7          	lui	a5,0x40000
   24bb4:	00f767b3          	or	a5,a4,a5
   24bb8:	fef42623          	sw	a5,-20(s0)
   24bbc:	fec42783          	lw	a5,-20(s0)
   24bc0:	00078593          	mv	a1,a5
   24bc4:	02001537          	lui	a0,0x2001
   24bc8:	f01ff0ef          	jal	ra,24ac8 <bss_begin+0x1ac8>
   24bcc:	00500513          	li	a0,5
   24bd0:	f2dff0ef          	jal	ra,24afc <bss_begin+0x1afc>
   24bd4:	02001537          	lui	a0,0x2001
   24bd8:	ec5ff0ef          	jal	ra,24a9c <bss_begin+0x1a9c>
   24bdc:	00050793          	mv	a5,a0
   24be0:	fef42623          	sw	a5,-20(s0)
   24be4:	fec42703          	lw	a4,-20(s0)
   24be8:	fffc07b7          	lui	a5,0xfffc0
   24bec:	0fc78793          	addi	a5,a5,252 # fffffffffffc00fc <_payload_end+0xfffffffffff990f4>
   24bf0:	00f777b3          	and	a5,a4,a5
   24bf4:	fef42623          	sw	a5,-20(s0)
   24bf8:	fec42703          	lw	a4,-20(s0)
   24bfc:	000037b7          	lui	a5,0x3
   24c00:	90078793          	addi	a5,a5,-1792 # 2900 <__bin_size-0x4708>
   24c04:	00f767b3          	or	a5,a4,a5
   24c08:	fef42623          	sw	a5,-20(s0)
   24c0c:	fec42783          	lw	a5,-20(s0)
   24c10:	00078593          	mv	a1,a5
   24c14:	02001537          	lui	a0,0x2001
   24c18:	eb1ff0ef          	jal	ra,24ac8 <bss_begin+0x1ac8>
   24c1c:	02001537          	lui	a0,0x2001
   24c20:	e7dff0ef          	jal	ra,24a9c <bss_begin+0x1a9c>
   24c24:	00050793          	mv	a5,a0
   24c28:	fef42623          	sw	a5,-20(s0)
   24c2c:	fec42703          	lw	a4,-20(s0)
   24c30:	200007b7          	lui	a5,0x20000
   24c34:	00f767b3          	or	a5,a4,a5
   24c38:	fef42623          	sw	a5,-20(s0)
   24c3c:	fec42783          	lw	a5,-20(s0)
   24c40:	00078593          	mv	a1,a5
   24c44:	02001537          	lui	a0,0x2001
   24c48:	e81ff0ef          	jal	ra,24ac8 <bss_begin+0x1ac8>
   24c4c:	02001537          	lui	a0,0x2001
   24c50:	e4dff0ef          	jal	ra,24a9c <bss_begin+0x1a9c>
   24c54:	00050793          	mv	a5,a0
   24c58:	fef42623          	sw	a5,-20(s0)
   24c5c:	fec42703          	lw	a4,-20(s0)
   24c60:	800007b7          	lui	a5,0x80000
   24c64:	00f767b3          	or	a5,a4,a5
   24c68:	fef42623          	sw	a5,-20(s0)
   24c6c:	fec42783          	lw	a5,-20(s0)
   24c70:	00078593          	mv	a1,a5
   24c74:	02001537          	lui	a0,0x2001
   24c78:	e51ff0ef          	jal	ra,24ac8 <bss_begin+0x1ac8>
   24c7c:	00000013          	nop
   24c80:	02001537          	lui	a0,0x2001
   24c84:	e19ff0ef          	jal	ra,24a9c <bss_begin+0x1a9c>
   24c88:	00050793          	mv	a5,a0
   24c8c:	0007879b          	sext.w	a5,a5
   24c90:	00078713          	mv	a4,a5
   24c94:	100007b7          	lui	a5,0x10000
   24c98:	00f777b3          	and	a5,a4,a5
   24c9c:	0007879b          	sext.w	a5,a5
   24ca0:	fe0780e3          	beqz	a5,24c80 <bss_begin+0x1c80>
   24ca4:	01400513          	li	a0,20
   24ca8:	e55ff0ef          	jal	ra,24afc <bss_begin+0x1afc>
   24cac:	02001537          	lui	a0,0x2001
   24cb0:	dedff0ef          	jal	ra,24a9c <bss_begin+0x1a9c>
   24cb4:	00050793          	mv	a5,a0
   24cb8:	fef42623          	sw	a5,-20(s0)
   24cbc:	fec42703          	lw	a4,-20(s0)
   24cc0:	080007b7          	lui	a5,0x8000
   24cc4:	00f767b3          	or	a5,a4,a5
   24cc8:	fef42623          	sw	a5,-20(s0)
   24ccc:	fec42783          	lw	a5,-20(s0)
   24cd0:	00078593          	mv	a1,a5
   24cd4:	02001537          	lui	a0,0x2001
   24cd8:	df1ff0ef          	jal	ra,24ac8 <bss_begin+0x1ac8>
   24cdc:	02001537          	lui	a0,0x2001
   24ce0:	dbdff0ef          	jal	ra,24a9c <bss_begin+0x1a9c>
   24ce4:	00050793          	mv	a5,a0
   24ce8:	fef42623          	sw	a5,-20(s0)
   24cec:	fec42703          	lw	a4,-20(s0)
   24cf0:	e00007b7          	lui	a5,0xe0000
   24cf4:	fff78793          	addi	a5,a5,-1 # ffffffffdfffffff <_payload_end+0xffffffffdffd8ff7>
   24cf8:	00f777b3          	and	a5,a4,a5
   24cfc:	fef42623          	sw	a5,-20(s0)
   24d00:	fec42783          	lw	a5,-20(s0)
   24d04:	00078593          	mv	a1,a5
   24d08:	02001537          	lui	a0,0x2001
   24d0c:	dbdff0ef          	jal	ra,24ac8 <bss_begin+0x1ac8>
   24d10:	00100513          	li	a0,1
   24d14:	de9ff0ef          	jal	ra,24afc <bss_begin+0x1afc>
   24d18:	020027b7          	lui	a5,0x2002
   24d1c:	d0078513          	addi	a0,a5,-768 # 2001d00 <_payload_end+0x1fdacf8>
   24d20:	d7dff0ef          	jal	ra,24a9c <bss_begin+0x1a9c>
   24d24:	00050793          	mv	a5,a0
   24d28:	fef42623          	sw	a5,-20(s0)
   24d2c:	fec42703          	lw	a4,-20(s0)
   24d30:	f90007b7          	lui	a5,0xf9000
   24d34:	cf078793          	addi	a5,a5,-784 # fffffffff8fffcf0 <_payload_end+0xfffffffff8fd8ce8>
   24d38:	00f777b3          	and	a5,a4,a5
   24d3c:	fef42623          	sw	a5,-20(s0)
   24d40:	fec42703          	lw	a4,-20(s0)
   24d44:	050007b7          	lui	a5,0x5000
   24d48:	10078793          	addi	a5,a5,256 # 5000100 <_payload_end+0x4fd90f8>
   24d4c:	00f767b3          	or	a5,a4,a5
   24d50:	fef42623          	sw	a5,-20(s0)
   24d54:	fec42783          	lw	a5,-20(s0)
   24d58:	00078593          	mv	a1,a5
   24d5c:	020027b7          	lui	a5,0x2002
   24d60:	d0078513          	addi	a0,a5,-768 # 2001d00 <_payload_end+0x1fdacf8>
   24d64:	d65ff0ef          	jal	ra,24ac8 <bss_begin+0x1ac8>
   24d68:	00100513          	li	a0,1
   24d6c:	d91ff0ef          	jal	ra,24afc <bss_begin+0x1afc>
   24d70:	00000013          	nop
   24d74:	01813083          	ld	ra,24(sp)
   24d78:	01013403          	ld	s0,16(sp)
   24d7c:	02010113          	addi	sp,sp,32
   24d80:	00008067          	ret
   24d84:	fe010113          	addi	sp,sp,-32
   24d88:	00113c23          	sd	ra,24(sp)
   24d8c:	00813823          	sd	s0,16(sp)
   24d90:	02010413          	addi	s0,sp,32
   24d94:	020017b7          	lui	a5,0x2001
   24d98:	02078513          	addi	a0,a5,32 # 2001020 <_payload_end+0x1fda018>
   24d9c:	d01ff0ef          	jal	ra,24a9c <bss_begin+0x1a9c>
   24da0:	00050793          	mv	a5,a0
   24da4:	0007879b          	sext.w	a5,a5
   24da8:	0007879b          	sext.w	a5,a5
   24dac:	1207cc63          	bltz	a5,24ee4 <bss_begin+0x1ee4>
   24db0:	020017b7          	lui	a5,0x2001
   24db4:	51078513          	addi	a0,a5,1296 # 2001510 <_payload_end+0x1fda508>
   24db8:	ce5ff0ef          	jal	ra,24a9c <bss_begin+0x1a9c>
   24dbc:	00050793          	mv	a5,a0
   24dc0:	fef42623          	sw	a5,-20(s0)
   24dc4:	fec42703          	lw	a4,-20(s0)
   24dc8:	fd0007b7          	lui	a5,0xfd000
   24dcc:	fff78793          	addi	a5,a5,-1 # fffffffffcffffff <_payload_end+0xfffffffffcfd8ff7>
   24dd0:	00f777b3          	and	a5,a4,a5
   24dd4:	fef42623          	sw	a5,-20(s0)
   24dd8:	fec46703          	lwu	a4,-20(s0)
   24ddc:	020017b7          	lui	a5,0x2001
   24de0:	51078593          	addi	a1,a5,1296 # 2001510 <_payload_end+0x1fda508>
   24de4:	00070513          	mv	a0,a4
   24de8:	ce1ff0ef          	jal	ra,24ac8 <bss_begin+0x1ac8>
   24dec:	000067b7          	lui	a5,0x6
   24df0:	30078593          	addi	a1,a5,768 # 6300 <__bin_size-0xd08>
   24df4:	020017b7          	lui	a5,0x2001
   24df8:	02078513          	addi	a0,a5,32 # 2001020 <_payload_end+0x1fda018>
   24dfc:	ccdff0ef          	jal	ra,24ac8 <bss_begin+0x1ac8>
   24e00:	020017b7          	lui	a5,0x2001
   24e04:	02078513          	addi	a0,a5,32 # 2001020 <_payload_end+0x1fda018>
   24e08:	c95ff0ef          	jal	ra,24a9c <bss_begin+0x1a9c>
   24e0c:	00050793          	mv	a5,a0
   24e10:	fef42623          	sw	a5,-20(s0)
   24e14:	fec42703          	lw	a4,-20(s0)
   24e18:	200007b7          	lui	a5,0x20000
   24e1c:	00f767b3          	or	a5,a4,a5
   24e20:	fef42623          	sw	a5,-20(s0)
   24e24:	fec42783          	lw	a5,-20(s0)
   24e28:	00078593          	mv	a1,a5
   24e2c:	020017b7          	lui	a5,0x2001
   24e30:	02078513          	addi	a0,a5,32 # 2001020 <_payload_end+0x1fda018>
   24e34:	c95ff0ef          	jal	ra,24ac8 <bss_begin+0x1ac8>
   24e38:	020017b7          	lui	a5,0x2001
   24e3c:	02078513          	addi	a0,a5,32 # 2001020 <_payload_end+0x1fda018>
   24e40:	c5dff0ef          	jal	ra,24a9c <bss_begin+0x1a9c>
   24e44:	00050793          	mv	a5,a0
   24e48:	fef42623          	sw	a5,-20(s0)
   24e4c:	fec42703          	lw	a4,-20(s0)
   24e50:	800007b7          	lui	a5,0x80000
   24e54:	00f767b3          	or	a5,a4,a5
   24e58:	fef42623          	sw	a5,-20(s0)
   24e5c:	fec42783          	lw	a5,-20(s0)
   24e60:	00078593          	mv	a1,a5
   24e64:	020017b7          	lui	a5,0x2001
   24e68:	02078513          	addi	a0,a5,32 # 2001020 <_payload_end+0x1fda018>
   24e6c:	c5dff0ef          	jal	ra,24ac8 <bss_begin+0x1ac8>
   24e70:	00000013          	nop
   24e74:	020017b7          	lui	a5,0x2001
   24e78:	02078513          	addi	a0,a5,32 # 2001020 <_payload_end+0x1fda018>
   24e7c:	c21ff0ef          	jal	ra,24a9c <bss_begin+0x1a9c>
   24e80:	00050793          	mv	a5,a0
   24e84:	0007879b          	sext.w	a5,a5
   24e88:	00078713          	mv	a4,a5
   24e8c:	100007b7          	lui	a5,0x10000
   24e90:	00f777b3          	and	a5,a4,a5
   24e94:	0007879b          	sext.w	a5,a5
   24e98:	fc078ee3          	beqz	a5,24e74 <bss_begin+0x1e74>
   24e9c:	01400513          	li	a0,20
   24ea0:	c5dff0ef          	jal	ra,24afc <bss_begin+0x1afc>
   24ea4:	020017b7          	lui	a5,0x2001
   24ea8:	02078513          	addi	a0,a5,32 # 2001020 <_payload_end+0x1fda018>
   24eac:	bf1ff0ef          	jal	ra,24a9c <bss_begin+0x1a9c>
   24eb0:	00050793          	mv	a5,a0
   24eb4:	fef42623          	sw	a5,-20(s0)
   24eb8:	fec42703          	lw	a4,-20(s0)
   24ebc:	e00007b7          	lui	a5,0xe0000
   24ec0:	fff78793          	addi	a5,a5,-1 # ffffffffdfffffff <_payload_end+0xffffffffdffd8ff7>
   24ec4:	00f777b3          	and	a5,a4,a5
   24ec8:	fef42623          	sw	a5,-20(s0)
   24ecc:	fec42783          	lw	a5,-20(s0)
   24ed0:	00078593          	mv	a1,a5
   24ed4:	020017b7          	lui	a5,0x2001
   24ed8:	02078513          	addi	a0,a5,32 # 2001020 <_payload_end+0x1fda018>
   24edc:	bedff0ef          	jal	ra,24ac8 <bss_begin+0x1ac8>
   24ee0:	0080006f          	j	24ee8 <bss_begin+0x1ee8>
   24ee4:	00000013          	nop
   24ee8:	01813083          	ld	ra,24(sp)
   24eec:	01013403          	ld	s0,16(sp)
   24ef0:	02010113          	addi	sp,sp,32
   24ef4:	00008067          	ret
   24ef8:	ff010113          	addi	sp,sp,-16
   24efc:	00113423          	sd	ra,8(sp)
   24f00:	00813023          	sd	s0,0(sp)
   24f04:	01010413          	addi	s0,sp,16
   24f08:	00200593          	li	a1,2
   24f0c:	020017b7          	lui	a5,0x2001
   24f10:	51078513          	addi	a0,a5,1296 # 2001510 <_payload_end+0x1fda508>
   24f14:	bb5ff0ef          	jal	ra,24ac8 <bss_begin+0x1ac8>
   24f18:	020017b7          	lui	a5,0x2001
   24f1c:	51078513          	addi	a0,a5,1296 # 2001510 <_payload_end+0x1fda508>
   24f20:	b7dff0ef          	jal	ra,24a9c <bss_begin+0x1a9c>
   24f24:	00050793          	mv	a5,a0
   24f28:	0007879b          	sext.w	a5,a5
   24f2c:	00078713          	mv	a4,a5
   24f30:	030007b7          	lui	a5,0x3000
   24f34:	00f767b3          	or	a5,a4,a5
   24f38:	0007879b          	sext.w	a5,a5
   24f3c:	00078593          	mv	a1,a5
   24f40:	020017b7          	lui	a5,0x2001
   24f44:	51078513          	addi	a0,a5,1296 # 2001510 <_payload_end+0x1fda508>
   24f48:	b81ff0ef          	jal	ra,24ac8 <bss_begin+0x1ac8>
   24f4c:	00100513          	li	a0,1
   24f50:	badff0ef          	jal	ra,24afc <bss_begin+0x1afc>
   24f54:	00000013          	nop
   24f58:	00813083          	ld	ra,8(sp)
   24f5c:	00013403          	ld	s0,0(sp)
   24f60:	01010113          	addi	sp,sp,16
   24f64:	00008067          	ret
   24f68:	ff010113          	addi	sp,sp,-16
   24f6c:	00113423          	sd	ra,8(sp)
   24f70:	00813023          	sd	s0,0(sp)
   24f74:	01010413          	addi	s0,sp,16
   24f78:	10200593          	li	a1,258
   24f7c:	020017b7          	lui	a5,0x2001
   24f80:	52078513          	addi	a0,a5,1312 # 2001520 <_payload_end+0x1fda518>
   24f84:	b45ff0ef          	jal	ra,24ac8 <bss_begin+0x1ac8>
   24f88:	020017b7          	lui	a5,0x2001
   24f8c:	52078513          	addi	a0,a5,1312 # 2001520 <_payload_end+0x1fda518>
   24f90:	b0dff0ef          	jal	ra,24a9c <bss_begin+0x1a9c>
   24f94:	00050793          	mv	a5,a0
   24f98:	0007879b          	sext.w	a5,a5
   24f9c:	00078713          	mv	a4,a5
   24fa0:	030007b7          	lui	a5,0x3000
   24fa4:	00f767b3          	or	a5,a4,a5
   24fa8:	0007879b          	sext.w	a5,a5
   24fac:	00078593          	mv	a1,a5
   24fb0:	020017b7          	lui	a5,0x2001
   24fb4:	52078513          	addi	a0,a5,1312 # 2001520 <_payload_end+0x1fda518>
   24fb8:	b11ff0ef          	jal	ra,24ac8 <bss_begin+0x1ac8>
   24fbc:	00100513          	li	a0,1
   24fc0:	b3dff0ef          	jal	ra,24afc <bss_begin+0x1afc>
   24fc4:	00000013          	nop
   24fc8:	00813083          	ld	ra,8(sp)
   24fcc:	00013403          	ld	s0,0(sp)
   24fd0:	01010113          	addi	sp,sp,16
   24fd4:	00008067          	ret
   24fd8:	ff010113          	addi	sp,sp,-16
   24fdc:	00113423          	sd	ra,8(sp)
   24fe0:	00813023          	sd	s0,0(sp)
   24fe4:	01010413          	addi	s0,sp,16
   24fe8:	020017b7          	lui	a5,0x2001
   24fec:	70c78513          	addi	a0,a5,1804 # 200170c <_payload_end+0x1fda704>
   24ff0:	aadff0ef          	jal	ra,24a9c <bss_begin+0x1a9c>
   24ff4:	00050793          	mv	a5,a0
   24ff8:	0007879b          	sext.w	a5,a5
   24ffc:	00078713          	mv	a4,a5
   25000:	000107b7          	lui	a5,0x10
   25004:	00f767b3          	or	a5,a4,a5
   25008:	0007879b          	sext.w	a5,a5
   2500c:	00078593          	mv	a1,a5
   25010:	020017b7          	lui	a5,0x2001
   25014:	70c78513          	addi	a0,a5,1804 # 200170c <_payload_end+0x1fda704>
   25018:	ab1ff0ef          	jal	ra,24ac8 <bss_begin+0x1ac8>
   2501c:	01400513          	li	a0,20
   25020:	addff0ef          	jal	ra,24afc <bss_begin+0x1afc>
   25024:	020017b7          	lui	a5,0x2001
   25028:	70c78513          	addi	a0,a5,1804 # 200170c <_payload_end+0x1fda704>
   2502c:	a71ff0ef          	jal	ra,24a9c <bss_begin+0x1a9c>
   25030:	00050793          	mv	a5,a0
   25034:	0007879b          	sext.w	a5,a5
   25038:	0017e793          	ori	a5,a5,1
   2503c:	0007879b          	sext.w	a5,a5
   25040:	00078593          	mv	a1,a5
   25044:	020017b7          	lui	a5,0x2001
   25048:	70c78513          	addi	a0,a5,1804 # 200170c <_payload_end+0x1fda704>
   2504c:	a7dff0ef          	jal	ra,24ac8 <bss_begin+0x1ac8>
   25050:	00000013          	nop
   25054:	00813083          	ld	ra,8(sp)
   25058:	00013403          	ld	s0,0(sp)
   2505c:	01010113          	addi	sp,sp,16
   25060:	00008067          	ret
   25064:	fe010113          	addi	sp,sp,-32
   25068:	00113c23          	sd	ra,24(sp)
   2506c:	00813823          	sd	s0,16(sp)
   25070:	02010413          	addi	s0,sp,32
   25074:	020017b7          	lui	a5,0x2001
   25078:	54078513          	addi	a0,a5,1344 # 2001540 <_payload_end+0x1fda538>
   2507c:	a21ff0ef          	jal	ra,24a9c <bss_begin+0x1a9c>
   25080:	00050793          	mv	a5,a0
   25084:	fef42623          	sw	a5,-20(s0)
   25088:	fec42703          	lw	a4,-20(s0)
   2508c:	400007b7          	lui	a5,0x40000
   25090:	00f767b3          	or	a5,a4,a5
   25094:	fef42623          	sw	a5,-20(s0)
   25098:	fec42783          	lw	a5,-20(s0)
   2509c:	00078593          	mv	a1,a5
   250a0:	020017b7          	lui	a5,0x2001
   250a4:	54078513          	addi	a0,a5,1344 # 2001540 <_payload_end+0x1fda538>
   250a8:	a21ff0ef          	jal	ra,24ac8 <bss_begin+0x1ac8>
   250ac:	00100513          	li	a0,1
   250b0:	a4dff0ef          	jal	ra,24afc <bss_begin+0x1afc>
   250b4:	00000013          	nop
   250b8:	01813083          	ld	ra,24(sp)
   250bc:	01013403          	ld	s0,16(sp)
   250c0:	02010113          	addi	sp,sp,32
   250c4:	00008067          	ret
   250c8:	fd010113          	addi	sp,sp,-48
   250cc:	02113423          	sd	ra,40(sp)
   250d0:	02813023          	sd	s0,32(sp)
   250d4:	03010413          	addi	s0,sp,48
   250d8:	fca43c23          	sd	a0,-40(s0)
   250dc:	fd843503          	ld	a0,-40(s0)
   250e0:	9bdff0ef          	jal	ra,24a9c <bss_begin+0x1a9c>
   250e4:	00050793          	mv	a5,a0
   250e8:	0007879b          	sext.w	a5,a5
   250ec:	0007879b          	sext.w	a5,a5
   250f0:	0c07c263          	bltz	a5,251b4 <bss_begin+0x21b4>
   250f4:	fd843503          	ld	a0,-40(s0)
   250f8:	9a5ff0ef          	jal	ra,24a9c <bss_begin+0x1a9c>
   250fc:	00050793          	mv	a5,a0
   25100:	fef42623          	sw	a5,-20(s0)
   25104:	fec42703          	lw	a4,-20(s0)
   25108:	c00007b7          	lui	a5,0xc0000
   2510c:	00f767b3          	or	a5,a4,a5
   25110:	0007879b          	sext.w	a5,a5
   25114:	00078593          	mv	a1,a5
   25118:	fd843503          	ld	a0,-40(s0)
   2511c:	9adff0ef          	jal	ra,24ac8 <bss_begin+0x1ac8>
   25120:	fd843503          	ld	a0,-40(s0)
   25124:	979ff0ef          	jal	ra,24a9c <bss_begin+0x1a9c>
   25128:	00050793          	mv	a5,a0
   2512c:	fef42623          	sw	a5,-20(s0)
   25130:	fec42703          	lw	a4,-20(s0)
   25134:	200007b7          	lui	a5,0x20000
   25138:	00f767b3          	or	a5,a4,a5
   2513c:	fef42623          	sw	a5,-20(s0)
   25140:	fec42783          	lw	a5,-20(s0)
   25144:	00078593          	mv	a1,a5
   25148:	fd843503          	ld	a0,-40(s0)
   2514c:	97dff0ef          	jal	ra,24ac8 <bss_begin+0x1ac8>
   25150:	00000013          	nop
   25154:	fd843503          	ld	a0,-40(s0)
   25158:	945ff0ef          	jal	ra,24a9c <bss_begin+0x1a9c>
   2515c:	00050793          	mv	a5,a0
   25160:	0007879b          	sext.w	a5,a5
   25164:	00078713          	mv	a4,a5
   25168:	100007b7          	lui	a5,0x10000
   2516c:	00f777b3          	and	a5,a4,a5
   25170:	0007879b          	sext.w	a5,a5
   25174:	fe0780e3          	beqz	a5,25154 <bss_begin+0x2154>
   25178:	01400513          	li	a0,20
   2517c:	981ff0ef          	jal	ra,24afc <bss_begin+0x1afc>
   25180:	fd843503          	ld	a0,-40(s0)
   25184:	919ff0ef          	jal	ra,24a9c <bss_begin+0x1a9c>
   25188:	00050793          	mv	a5,a0
   2518c:	fef42623          	sw	a5,-20(s0)
   25190:	fec42703          	lw	a4,-20(s0)
   25194:	e00007b7          	lui	a5,0xe0000
   25198:	fff78793          	addi	a5,a5,-1 # ffffffffdfffffff <_payload_end+0xffffffffdffd8ff7>
   2519c:	00f777b3          	and	a5,a4,a5
   251a0:	fef42623          	sw	a5,-20(s0)
   251a4:	fec42783          	lw	a5,-20(s0)
   251a8:	00078593          	mv	a1,a5
   251ac:	fd843503          	ld	a0,-40(s0)
   251b0:	919ff0ef          	jal	ra,24ac8 <bss_begin+0x1ac8>
   251b4:	00000013          	nop
   251b8:	02813083          	ld	ra,40(sp)
   251bc:	02013403          	ld	s0,32(sp)
   251c0:	03010113          	addi	sp,sp,48
   251c4:	00008067          	ret
   251c8:	ff010113          	addi	sp,sp,-16
   251cc:	00113423          	sd	ra,8(sp)
   251d0:	00813023          	sd	s0,0(sp)
   251d4:	01010413          	addi	s0,sp,16
   251d8:	969ff0ef          	jal	ra,24b40 <bss_begin+0x1b40>
   251dc:	ba9ff0ef          	jal	ra,24d84 <bss_begin+0x1d84>
   251e0:	d19ff0ef          	jal	ra,24ef8 <bss_begin+0x1ef8>
   251e4:	d85ff0ef          	jal	ra,24f68 <bss_begin+0x1f68>
   251e8:	df1ff0ef          	jal	ra,24fd8 <bss_begin+0x1fd8>
   251ec:	e79ff0ef          	jal	ra,25064 <bss_begin+0x2064>
   251f0:	020017b7          	lui	a5,0x2001
   251f4:	02078513          	addi	a0,a5,32 # 2001020 <_payload_end+0x1fda018>
   251f8:	ed1ff0ef          	jal	ra,250c8 <bss_begin+0x20c8>
   251fc:	020017b7          	lui	a5,0x2001
   25200:	04078513          	addi	a0,a5,64 # 2001040 <_payload_end+0x1fda038>
   25204:	ec5ff0ef          	jal	ra,250c8 <bss_begin+0x20c8>
   25208:	020017b7          	lui	a5,0x2001
   2520c:	04878513          	addi	a0,a5,72 # 2001048 <_payload_end+0x1fda040>
   25210:	eb9ff0ef          	jal	ra,250c8 <bss_begin+0x20c8>
   25214:	020017b7          	lui	a5,0x2001
   25218:	05878513          	addi	a0,a5,88 # 2001058 <_payload_end+0x1fda050>
   2521c:	eadff0ef          	jal	ra,250c8 <bss_begin+0x20c8>
   25220:	020017b7          	lui	a5,0x2001
   25224:	07878513          	addi	a0,a5,120 # 2001078 <_payload_end+0x1fda070>
   25228:	ea1ff0ef          	jal	ra,250c8 <bss_begin+0x20c8>
   2522c:	020017b7          	lui	a5,0x2001
   25230:	08078513          	addi	a0,a5,128 # 2001080 <_payload_end+0x1fda078>
   25234:	e95ff0ef          	jal	ra,250c8 <bss_begin+0x20c8>
   25238:	00000013          	nop
   2523c:	00813083          	ld	ra,8(sp)
   25240:	00013403          	ld	s0,0(sp)
   25244:	01010113          	addi	sp,sp,16
   25248:	00008067          	ret
   2524c:	0000                	unimp
   2524e:	0000                	unimp
   25250:	abcd                	j	25842 <bss_begin+0x2842>
   25252:	abcd                	j	25844 <bss_begin+0x2844>
   25254:	5678                	lw	a4,108(a2)
   25256:	1234                	addi	a3,sp,296
   25258:	000212b7          	lui	t0,0x21
   2525c:	00028303          	lb	t1,0(t0) # 21000 <sys_uart_printf+0xc>
   25260:	00428303          	lb	t1,4(t0)
   25264:	ffc28303          	lb	t1,-4(t0)
   25268:	0002b303          	ld	t1,0(t0)
   2526c:	00428303          	lb	t1,4(t0)
   25270:	00000297          	auipc	t0,0x0
   25274:	fe028293          	addi	t0,t0,-32 # 25250 <bss_begin+0x2250>
   25278:	00000317          	auipc	t1,0x0
   2527c:	fd830313          	addi	t1,t1,-40 # 25250 <bss_begin+0x2250>
   25280:	802002b7          	lui	t0,0x80200
   25284:	40200337          	lui	t1,0x40200
   25288:	00008067          	ret
   2528c:	c00002b7          	lui	t0,0xc0000
   25290:	0452829b          	addiw	t0,t0,69
   25294:	02129293          	slli	t0,t0,0x21
   25298:	4012d593          	srai	a1,t0,0x1
   2529c:	0012d313          	srli	t1,t0,0x1
   252a0:	0250029b          	addiw	t0,zero,37
   252a4:	01f29293          	slli	t0,t0,0x1f
   252a8:	08a28293          	addi	t0,t0,138 # ffffffffc000008a <_payload_end+0xffffffffbffd9082>
   252ac:	4012d61b          	sraiw	a2,t0,0x1
   252b0:	0012d31b          	srliw	t1,t0,0x1
   252b4:	0012969b          	slliw	a3,t0,0x1
   252b8:	0490029b          	addiw	t0,zero,73
   252bc:	01e29293          	slli	t0,t0,0x1e
   252c0:	08a28293          	addi	t0,t0,138
   252c4:	4012d61b          	sraiw	a2,t0,0x1
   252c8:	0012d31b          	srliw	t1,t0,0x1
   252cc:	0012971b          	slliw	a4,t0,0x1
   252d0:	00008067          	ret
   252d4:	80028593          	addi	a1,t0,-2048
   252d8:	000012b7          	lui	t0,0x1
   252dc:	a012829b          	addiw	t0,t0,-1535
   252e0:	01529293          	slli	t0,t0,0x15
   252e4:	40000337          	lui	t1,0x40000
   252e8:	70028593          	addi	a1,t0,1792 # 1700 <__bin_size-0x5908>
   252ec:	80028593          	addi	a1,t0,-2048
   252f0:	0802861b          	addiw	a2,t0,128
   252f4:	006286b3          	add	a3,t0,t1
   252f8:	0062873b          	addw	a4,t0,t1
   252fc:	000012b7          	lui	t0,0x1
   25300:	c012829b          	addiw	t0,t0,-1023
   25304:	01529293          	slli	t0,t0,0x15
   25308:	00200337          	lui	t1,0x200
   2530c:	40628533          	sub	a0,t0,t1
   25310:	406285bb          	subw	a1,t0,t1
   25314:	00008067          	ret
   25318:	00b50533          	add	a0,a0,a1
   2531c:	00000013          	nop
   25320:	00008067          	ret
   25324:	ff810113          	addi	sp,sp,-8
   25328:	00113023          	sd	ra,0(sp)
   2532c:	00100513          	li	a0,1
   25330:	00200593          	li	a1,2
   25334:	fe5ff0ef          	jal	ra,25318 <bss_begin+0x2318>
   25338:	00000013          	nop
   2533c:	00013083          	ld	ra,0(sp)
   25340:	00810113          	addi	sp,sp,8
   25344:	00008067          	ret
   25348:	000202b7          	lui	t0,0x20
   2534c:	00021337          	lui	t1,0x21
   25350:	02028393          	addi	t2,t0,32 # 20020 <_start+0x20>
   25354:	0002be03          	ld	t3,0(t0)
   25358:	01c33023          	sd	t3,0(t1) # 21000 <sys_uart_printf+0xc>
   2535c:	00828293          	addi	t0,t0,8
   25360:	00830313          	addi	t1,t1,8
   25364:	fe72c8e3          	blt	t0,t2,25354 <bss_begin+0x2354>
   25368:	00008067          	ret
   2536c:	00b56663          	bltu	a0,a1,25378 <bss_begin+0x2378>
   25370:	00000793          	li	a5,0
   25374:	0080006f          	j	2537c <bss_begin+0x237c>
   25378:	fff00793          	li	a5,-1
   2537c:	00078513          	mv	a0,a5
   25380:	00008067          	ret
   25384:	00050663          	beqz	a0,25390 <bss_begin+0x2390>
   25388:	fff58793          	addi	a5,a1,-1
   2538c:	0080006f          	j	25394 <bss_begin+0x2394>
   25390:	00258793          	addi	a5,a1,2
   25394:	00078513          	mv	a0,a5
   25398:	00008067          	ret
   2539c:	ff010113          	addi	sp,sp,-16
   253a0:	00113423          	sd	ra,8(sp)
   253a4:	fe1ff0ef          	jal	ra,25384 <bss_begin+0x2384>
   253a8:	00813083          	ld	ra,8(sp)
   253ac:	01010113          	addi	sp,sp,16
   253b0:	00008067          	ret
   253b4:	00000013          	nop
   253b8:	0800                	addi	s0,sp,16
   253ba:	0080                	addi	s0,sp,64
   253bc:	0000                	unimp
   253be:	0000                	unimp
   253c0:	0860                	addi	s0,sp,28
   253c2:	0080                	addi	s0,sp,64
   253c4:	0000                	unimp
   253c6:	0000                	unimp
   253c8:	0880                	addi	s0,sp,80
   253ca:	0080                	addi	s0,sp,64
   253cc:	0000                	unimp
   253ce:	0000                	unimp
   253d0:	7566                	ld	a0,120(sp)
   253d2:	636e                	ld	t1,216(sp)
   253d4:	615f 6600 6e75      	0x6e756600615f
   253da:	00625f63          	bge	tp,t1,253f8 <bss_begin+0x23f8>
   253de:	7566                	ld	a0,120(sp)
   253e0:	636e                	ld	t1,216(sp)
   253e2:	635f 0100 0000      	0x100635f
   253e8:	00000003          	lb	zero,0(zero) # 0 <__bin_size-0x7008>
   253ec:	0000                	unimp
   253ee:	0000                	unimp
   253f0:	00b50533          	add	a0,a0,a1
   253f4:	00008067          	ret
   253f8:	40b50533          	sub	a0,a0,a1
   253fc:	00008067          	ret
   25400:	ff010113          	addi	sp,sp,-16
   25404:	00113423          	sd	ra,8(sp)
   25408:	00050293          	mv	t0,a0
   2540c:	00058313          	mv	t1,a1
   25410:	00028513          	mv	a0,t0
   25414:	00030593          	mv	a1,t1
   25418:	fd9ff0ef          	jal	ra,253f0 <bss_begin+0x23f0>
   2541c:	00813083          	ld	ra,8(sp)
   25420:	01010113          	addi	sp,sp,16
   25424:	00008067          	ret
   25428:	ff010113          	addi	sp,sp,-16
   2542c:	00113423          	sd	ra,8(sp)
   25430:	00050293          	mv	t0,a0
   25434:	00058313          	mv	t1,a1
   25438:	00028513          	mv	a0,t0
   2543c:	00030593          	mv	a1,t1
   25440:	fb9ff0ef          	jal	ra,253f8 <bss_begin+0x23f8>
   25444:	00813083          	ld	ra,8(sp)
   25448:	01010113          	addi	sp,sp,16
   2544c:	00008067          	ret
	...
   25458:	020002b7          	lui	t0,0x2000
   2545c:	0f02829b          	addiw	t0,t0,240
   25460:	0002a303          	lw	t1,0(t0) # 2000000 <_payload_end+0x1fd8ff8>
   25464:	fff0f3b7          	lui	t2,0xfff0f
   25468:	0ff3839b          	addiw	t2,t2,255
   2546c:	00737333          	and	t1,t1,t2
   25470:	000303b7          	lui	t2,0x30
   25474:	3003839b          	addiw	t2,t2,768
   25478:	00736333          	or	t1,t1,t2
   2547c:	0062a023          	sw	t1,0(t0)
   25480:	020022b7          	lui	t0,0x2002
   25484:	90c2829b          	addiw	t0,t0,-1780
   25488:	0002a303          	lw	t1,0(t0) # 2002000 <_payload_end+0x1fdaff8>
   2548c:	00136313          	ori	t1,t1,1
   25490:	0062a023          	sw	t1,0(t0)
   25494:	020022b7          	lui	t0,0x2002
   25498:	90c2829b          	addiw	t0,t0,-1780
   2549c:	0002a303          	lw	t1,0(t0) # 2002000 <_payload_end+0x1fdaff8>
   254a0:	000103b7          	lui	t2,0x10
   254a4:	00736333          	or	t1,t1,t2
   254a8:	0062a023          	sw	t1,0(t0)
   254ac:	025002b7          	lui	t0,0x2500
   254b0:	0002a223          	sw	zero,4(t0) # 2500004 <_payload_end+0x24d8ffc>
   254b4:	0f700313          	li	t1,247
   254b8:	0062a423          	sw	t1,8(t0)
   254bc:	0002a823          	sw	zero,16(t0)
   254c0:	00c2a303          	lw	t1,12(t0)
   254c4:	08036313          	ori	t1,t1,128
   254c8:	0062a623          	sw	t1,12(t0)
   254cc:	00d00393          	li	t2,13
   254d0:	0072a023          	sw	t2,0(t0)
   254d4:	00000393          	li	t2,0
   254d8:	0072a223          	sw	t2,4(t0)
   254dc:	08034313          	xori	t1,t1,128
   254e0:	0062a623          	sw	t1,12(t0)
   254e4:	00c2a303          	lw	t1,12(t0)
   254e8:	ff000393          	li	t2,-16
   254ec:	00737333          	and	t1,t1,t2
   254f0:	00300393          	li	t2,3
   254f4:	00736333          	or	t1,t1,t2
   254f8:	0062a623          	sw	t1,12(t0)
   254fc:	00008067          	ret
   25500:	025002b7          	lui	t0,0x2500
   25504:	07c2a303          	lw	t1,124(t0) # 250007c <_payload_end+0x24d9074>
   25508:	00237313          	andi	t1,t1,2
   2550c:	fe030ce3          	beqz	t1,25504 <bss_begin+0x2504>
   25510:	00a28023          	sb	a0,0(t0)
   25514:	00008067          	ret
   25518:	00008c13          	mv	s8,ra
   2551c:	00050793          	mv	a5,a0
   25520:	0007c503          	lbu	a0,0(a5)
   25524:	00050863          	beqz	a0,25534 <bss_begin+0x2534>
   25528:	fd9ff0ef          	jal	ra,25500 <bss_begin+0x2500>
   2552c:	00178793          	addi	a5,a5,1
   25530:	ff1ff06f          	j	25520 <bss_begin+0x2520>
   25534:	000c0093          	mv	ra,s8
   25538:	00008067          	ret
   2553c:	00000293          	li	t0,0
   25540:	00b53023          	sd	a1,0(a0) # 2001000 <_payload_end+0x1fd9ff8>
   25544:	00b53423          	sd	a1,8(a0)
   25548:	01028293          	addi	t0,t0,16
   2554c:	fec2cae3          	blt	t0,a2,25540 <bss_begin+0x2540>
   25550:	00008067          	ret
   25554:	0000                	unimp
   25556:	0000                	unimp
   25558:	303c                	fld	fa5,96(s0)
   2555a:	2578                	fld	fa4,200(a0)
   2555c:	786c                	ld	a1,240(s0)
   2555e:	203e                	fld	ft0,456(sp)
   25560:	7325                	lui	t1,0xfffe9
   25562:	000a                	c.slli	zero,0x2
   25564:	0000                	unimp
   25566:	0000                	unimp
   25568:	6574                	ld	a3,200(a0)
   2556a:	61207473          	csrrci	s0,0x612,0
   2556e:	646e                	ld	s0,216(sp)
   25570:	203a                	fld	ft0,392(sp)
   25572:	3d70                	fld	fa2,248(a0)
   25574:	7830                	ld	a2,112(s0)
   25576:	7825                	lui	a6,0xfffe9
   25578:	000a                	c.slli	zero,0x2
   2557a:	0000                	unimp
   2557c:	0000                	unimp
   2557e:	0000                	unimp
   25580:	6574                	ld	a3,200(a0)
   25582:	6f207473          	csrrci	s0,0x6f2,0
   25586:	7272                	ld	tp,312(sp)
   25588:	203a                	fld	ft0,392(sp)
   2558a:	3d70                	fld	fa2,248(a0)
   2558c:	7830                	ld	a2,112(s0)
   2558e:	7825                	lui	a6,0xfffe9
   25590:	000a                	c.slli	zero,0x2
   25592:	0000                	unimp
   25594:	0000                	unimp
   25596:	0000                	unimp
   25598:	6574                	ld	a3,200(a0)
   2559a:	61207473          	csrrci	s0,0x612,0
   2559e:	6464                	ld	s1,200(s0)
   255a0:	203a                	fld	ft0,392(sp)
   255a2:	3d70                	fld	fa2,248(a0)
   255a4:	7830                	ld	a2,112(s0)
   255a6:	7825                	lui	a6,0xfffe9
   255a8:	000a                	c.slli	zero,0x2
   255aa:	0000                	unimp
   255ac:	0000                	unimp
   255ae:	0000                	unimp
   255b0:	61747373          	csrrci	t1,0x617,8
   255b4:	7574                	ld	a3,232(a0)
   255b6:	303d2073          	csrs	mideleg,s10
   255ba:	2578                	fld	fa4,200(a0)
   255bc:	0a78                	addi	a4,sp,284
   255be:	0000                	unimp
   255c0:	7325                	lui	t1,0xfffe9
   255c2:	203a                	fld	ft0,392(sp)
   255c4:	2061                	0x2061
   255c6:	203d                	0x203d
   255c8:	6425                	lui	s0,0x9
   255ca:	000a                	c.slli	zero,0x2
   255cc:	0000                	unimp
   255ce:	0000                	unimp
   255d0:	7361                	lui	t1,0xffff8
   255d2:	5f6d                	li	t5,-5
   255d4:	6f746f67          	0x6f746f67
   255d8:	203a                	fld	ft0,392(sp)
   255da:	6572                	ld	a0,280(sp)
   255dc:	7574                	ld	a3,232(a0)
   255de:	6e72                	ld	t3,280(sp)
   255e0:	3120                	fld	fs0,96(a0)
   255e2:	000a                	c.slli	zero,0x2
   255e4:	0000                	unimp
   255e6:	0000                	unimp
   255e8:	7361                	lui	t1,0xffff8
   255ea:	5f6d                	li	t5,-5
   255ec:	6f746f67          	0x6f746f67
   255f0:	203a                	fld	ft0,392(sp)
   255f2:	2062                	fld	ft0,24(sp)
   255f4:	7369                	lui	t1,0xffffa
   255f6:	6e20                	ld	s0,88(a2)
   255f8:	3120746f          	jal	s0,2c90a <_payload_end+0x5902>
   255fc:	000a                	c.slli	zero,0x2
   255fe:	0000                	unimp
   25600:	616c                	ld	a1,192(a0)
   25602:	3362                	fld	ft6,56(sp)
   25604:	352d                	addiw	a0,a0,-21
   25606:	203a                	fld	ft0,392(sp)
   25608:	706d6f63          	bltu	s10,t1,25d26 <bss_begin+0x2d26>
   2560c:	7261                	lui	tp,0xffff8
   2560e:	5f65                	li	t5,-7
   25610:	6e61                	lui	t3,0x18
   25612:	5f64                	lw	s1,124(a4)
   25614:	6572                	ld	a0,280(sp)
   25616:	7574                	ld	a3,232(a0)
   25618:	6e72                	ld	t3,280(sp)
   2561a:	6f20                	ld	s0,88(a4)
   2561c:	00000a6b          	0xa6b
   25620:	616c                	ld	a1,192(a0)
   25622:	3362                	fld	ft6,56(sp)
   25624:	372d                	addiw	a4,a4,-21
   25626:	203a                	fld	ft0,392(sp)
   25628:	7262                	ld	tp,56(sp)
   2562a:	6e61                	lui	t3,0x18
   2562c:	74206863          	bltu	zero,sp,25d7c <bss_begin+0x2d7c>
   25630:	7365                	lui	t1,0xffff9
   25632:	2074                	fld	fa3,192(s0)
   25634:	000a6b6f          	jal	s6,cb634 <_payload_end+0xa462c>
   25638:	616c                	ld	a1,192(a0)
   2563a:	3562                	fld	fa0,56(sp)
   2563c:	352d                	addiw	a0,a0,-21
   2563e:	203a                	fld	ft0,392(sp)
   25640:	616d                	addi	sp,sp,240
   25642:	5f6f7263          	bgeu	t5,s6,25c26 <bss_begin+0x2c26>
   25646:	6574                	ld	a3,200(a0)
   25648:	315f7473          	csrrci	s0,0x315,30
   2564c:	6f20                	ld	s0,88(a4)
   2564e:	00000a6b          	0xa6b
   25652:	0000                	unimp
   25654:	0000                	unimp
   25656:	0000                	unimp
   25658:	616c                	ld	a1,192(a0)
   2565a:	3562                	fld	fa0,56(sp)
   2565c:	352d                	addiw	a0,a0,-21
   2565e:	203a                	fld	ft0,392(sp)
   25660:	616d                	addi	sp,sp,240
   25662:	5f6f7263          	bgeu	t5,s6,25c46 <bss_begin+0x2c46>
   25666:	6574                	ld	a3,200(a0)
   25668:	325f7473          	csrrci	s0,mhpmevent5,30
   2566c:	6f20                	ld	s0,88(a4)
   2566e:	00000a6b          	0xa6b
   25672:	0000                	unimp
   25674:	0000                	unimp
   25676:	0000                	unimp
   25678:	6542                	ld	a0,16(sp)
   2567a:	4f6e                	lw	t5,216(sp)
   2567c:	6d692053          	0x6d692053
   25680:	6761                	lui	a4,0x18
   25682:	2065                	0x2065
   25684:	616c                	ld	a1,192(a0)
   25686:	6f79                	lui	t5,0x1e
   25688:	7475                	lui	s0,0xffffd
   2568a:	0a3a                	slli	s4,s4,0xe
   2568c:	0000                	unimp
   2568e:	0000                	unimp
   25690:	2020                	fld	fs0,64(s0)
   25692:	742e                	ld	s0,232(sp)
   25694:	7865                	lui	a6,0xffff9
   25696:	2e74                	fld	fa3,216(a2)
   25698:	6f62                	ld	t5,24(sp)
   2569a:	203a746f          	jal	s0,cd09c <_payload_end+0xa6094>
   2569e:	7830                	ld	a2,112(s0)
   256a0:	3025                	0x3025
   256a2:	6c38                	ld	a4,88(s0)
   256a4:	2078                	fld	fa4,192(s0)
   256a6:	202d                	0x202d
   256a8:	7830                	ld	a2,112(s0)
   256aa:	3025                	0x3025
   256ac:	6c38                	ld	a4,88(s0)
   256ae:	2078                	fld	fa4,192(s0)
   256b0:	2528                	fld	fa0,72(a0)
   256b2:	6c36                	ld	s8,328(sp)
   256b4:	2064                	fld	fs1,192(s0)
   256b6:	2942                	fld	fs2,16(sp)
   256b8:	000a                	c.slli	zero,0x2
   256ba:	0000                	unimp
   256bc:	0000                	unimp
   256be:	0000                	unimp
   256c0:	2020                	fld	fs0,64(s0)
   256c2:	2020                	fld	fs0,64(s0)
   256c4:	2020                	fld	fs0,64(s0)
   256c6:	2e20                	fld	fs0,88(a2)
   256c8:	6574                	ld	a3,200(a0)
   256ca:	7478                	ld	a4,232(s0)
   256cc:	203a                	fld	ft0,392(sp)
   256ce:	7830                	ld	a2,112(s0)
   256d0:	3025                	0x3025
   256d2:	6c38                	ld	a4,88(s0)
   256d4:	2078                	fld	fa4,192(s0)
   256d6:	202d                	0x202d
   256d8:	7830                	ld	a2,112(s0)
   256da:	3025                	0x3025
   256dc:	6c38                	ld	a4,88(s0)
   256de:	2078                	fld	fa4,192(s0)
   256e0:	2528                	fld	fa0,72(a0)
   256e2:	6c36                	ld	s8,328(sp)
   256e4:	2064                	fld	fs1,192(s0)
   256e6:	2942                	fld	fs2,16(sp)
   256e8:	000a                	c.slli	zero,0x2
   256ea:	0000                	unimp
   256ec:	0000                	unimp
   256ee:	0000                	unimp
   256f0:	2020                	fld	fs0,64(s0)
   256f2:	2020                	fld	fs0,64(s0)
   256f4:	2e20                	fld	fs0,88(a2)
   256f6:	6f72                	ld	t5,280(sp)
   256f8:	6164                	ld	s1,192(a0)
   256fa:	6174                	ld	a3,192(a0)
   256fc:	203a                	fld	ft0,392(sp)
   256fe:	7830                	ld	a2,112(s0)
   25700:	3025                	0x3025
   25702:	6c38                	ld	a4,88(s0)
   25704:	2078                	fld	fa4,192(s0)
   25706:	202d                	0x202d
   25708:	7830                	ld	a2,112(s0)
   2570a:	3025                	0x3025
   2570c:	6c38                	ld	a4,88(s0)
   2570e:	2078                	fld	fa4,192(s0)
   25710:	2528                	fld	fa0,72(a0)
   25712:	6c36                	ld	s8,328(sp)
   25714:	2064                	fld	fs1,192(s0)
   25716:	2942                	fld	fs2,16(sp)
   25718:	000a                	c.slli	zero,0x2
   2571a:	0000                	unimp
   2571c:	0000                	unimp
   2571e:	0000                	unimp
   25720:	2020                	fld	fs0,64(s0)
   25722:	2020                	fld	fs0,64(s0)
   25724:	2020                	fld	fs0,64(s0)
   25726:	2e20                	fld	fs0,88(a2)
   25728:	6164                	ld	s1,192(a0)
   2572a:	6174                	ld	a3,192(a0)
   2572c:	203a                	fld	ft0,392(sp)
   2572e:	7830                	ld	a2,112(s0)
   25730:	3025                	0x3025
   25732:	6c38                	ld	a4,88(s0)
   25734:	2078                	fld	fa4,192(s0)
   25736:	202d                	0x202d
   25738:	7830                	ld	a2,112(s0)
   2573a:	3025                	0x3025
   2573c:	6c38                	ld	a4,88(s0)
   2573e:	2078                	fld	fa4,192(s0)
   25740:	2528                	fld	fa0,72(a0)
   25742:	6c36                	ld	s8,328(sp)
   25744:	2064                	fld	fs1,192(s0)
   25746:	2942                	fld	fs2,16(sp)
   25748:	000a                	c.slli	zero,0x2
   2574a:	0000                	unimp
   2574c:	0000                	unimp
   2574e:	0000                	unimp
   25750:	2020                	fld	fs0,64(s0)
   25752:	2020                	fld	fs0,64(s0)
   25754:	2020                	fld	fs0,64(s0)
   25756:	2020                	fld	fs0,64(s0)
   25758:	622e                	ld	tp,200(sp)
   2575a:	203a7373          	csrrci	t1,0x203,20
   2575e:	7830                	ld	a2,112(s0)
   25760:	3025                	0x3025
   25762:	6c38                	ld	a4,88(s0)
   25764:	2078                	fld	fa4,192(s0)
   25766:	202d                	0x202d
   25768:	7830                	ld	a2,112(s0)
   2576a:	3025                	0x3025
   2576c:	6c38                	ld	a4,88(s0)
   2576e:	2078                	fld	fa4,192(s0)
   25770:	2528                	fld	fa0,72(a0)
   25772:	6c36                	ld	s8,328(sp)
   25774:	2064                	fld	fs1,192(s0)
   25776:	2942                	fld	fs2,16(sp)
   25778:	000a                	c.slli	zero,0x2
   2577a:	0000                	unimp
   2577c:	0000                	unimp
   2577e:	0000                	unimp
   25780:	636c6557          	0x636c6557
   25784:	20656d6f          	jal	s10,7b98a <_payload_end+0x54982>
   25788:	4952                	lw	s2,20(sp)
   2578a:	562d4353          	0x562d4353
   2578e:	0d21                	addi	s10,s10,8
   25790:	000a                	c.slli	zero,0x2
   25792:	0000                	unimp
   25794:	0000                	unimp
   25796:	0000                	unimp
   25798:	7270                	ld	a2,224(a2)
   2579a:	6e69                	lui	t3,0x1a
   2579c:	6b74                	ld	a3,208(a4)
   2579e:	6920                	ld	s0,80(a0)
   257a0:	696e                	ld	s2,216(sp)
   257a2:	2074                	fld	fa3,192(s0)
   257a4:	6f64                	ld	s1,216(a4)
   257a6:	656e                	ld	a0,216(sp)
   257a8:	000a                	c.slli	zero,0x2
   257aa:	0000                	unimp
   257ac:	0000                	unimp
   257ae:	0000                	unimp
   257b0:	6574                	ld	a3,200(a0)
   257b2:	615f7473          	csrrci	s0,0x615,30
   257b6:	675f6d73          	csrrsi	s10,0x675,30
   257ba:	006f746f          	jal	s0,11c7c0 <_payload_end+0xf57b8>
   257be:	0000                	unimp
   257c0:	3130                	fld	fa2,96(a0)
   257c2:	3332                	fld	ft6,296(sp)
   257c4:	3534                	fld	fa3,104(a0)
   257c6:	3736                	fld	fa4,360(sp)
   257c8:	3938                	fld	fa4,112(a0)
   257ca:	4241                	li	tp,16
   257cc:	46454443          	fmadd.q	fs0,fa0,ft4,fs0,rmm
   257d0:	4a494847          	fmsub.d	fa6,fs2,ft4,fs1,rmm
   257d4:	4e4d4c4b          	fnmsub.q	fs8,fs10,ft4,fs1,rmm
   257d8:	5251504f          	fnmadd.d	ft0,ft2,ft5,fa0,unknown
   257dc:	56555453          	0x56555453
   257e0:	5a595857          	0x5a595857
   257e4:	0000                	unimp
   257e6:	0000                	unimp
   257e8:	3130                	fld	fa2,96(a0)
   257ea:	3332                	fld	ft6,296(sp)
   257ec:	3534                	fld	fa3,104(a0)
   257ee:	3736                	fld	fa4,360(sp)
   257f0:	3938                	fld	fa4,112(a0)
   257f2:	6261                	lui	tp,0x18
   257f4:	66656463          	bltu	a0,t1,25e5c <bss_begin+0x2e5c>
   257f8:	6a696867          	0x6a696867
   257fc:	6e6d6c6b          	0x6e6d6c6b
   25800:	7271706f          	j	3d726 <_payload_end+0x1671e>
   25804:	76757473          	csrrci	s0,0x767,10
   25808:	7a797877          	0x7a797877
   2580c:	0000                	unimp
   2580e:	0000                	unimp
   25810:	4e3c                	lw	a5,88(a2)
   25812:	4c55                	li	s8,21
   25814:	3e4c                	fld	fa1,184(a2)
   25816:	0000                	unimp
   25818:	e8e4                	sd	s1,208(s1)
   2581a:	e914ffff          	0xe914ffff
   2581e:	e914ffff          	0xe914ffff
   25822:	e8f4ffff          	0xe8f4ffff
   25826:	e914ffff          	0xe914ffff
   2582a:	e914ffff          	0xe914ffff
   2582e:	e914ffff          	0xe914ffff
   25832:	e914ffff          	0xe914ffff
   25836:	e914ffff          	0xe914ffff
   2583a:	e914ffff          	0xe914ffff
   2583e:	e914ffff          	0xe914ffff
   25842:	e8d4ffff          	0xe8d4ffff
   25846:	e914ffff          	0xe914ffff
   2584a:	e8c4ffff          	0xe8c4ffff
   2584e:	e914ffff          	0xe914ffff
   25852:	e914ffff          	0xe914ffff
   25856:	e904ffff          	0xe904ffff
   2585a:	ed40ffff          	0xed40ffff
   2585e:	ed64ffff          	0xed64ffff
   25862:	ed64ffff          	0xed64ffff
   25866:	ed64ffff          	0xed64ffff
   2586a:	ed64ffff          	0xed64ffff
   2586e:	ed64ffff          	0xed64ffff
   25872:	ed64ffff          	0xed64ffff
   25876:	ed64ffff          	0xed64ffff
   2587a:	ed64ffff          	0xed64ffff
   2587e:	ed64ffff          	0xed64ffff
   25882:	ed64ffff          	0xed64ffff
   25886:	eae0ffff          	0xeae0ffff
   2588a:	ed4cffff          	0xed4cffff
   2588e:	ed64ffff          	0xed64ffff
   25892:	ed64ffff          	0xed64ffff
   25896:	ed64ffff          	0xed64ffff
   2589a:	ed64ffff          	0xed64ffff
   2589e:	ed4cffff          	0xed4cffff
   258a2:	ed64ffff          	0xed64ffff
   258a6:	ed64ffff          	0xed64ffff
   258aa:	ed64ffff          	0xed64ffff
   258ae:	ed64ffff          	0xed64ffff
   258b2:	eca0ffff          	0xeca0ffff
   258b6:	ed28ffff          	0xed28ffff
   258ba:	ecd0ffff          	0xecd0ffff
   258be:	ed64ffff          	0xed64ffff
   258c2:	ed64ffff          	0xed64ffff
   258c6:	eb78ffff          	0xeb78ffff
   258ca:	ed64ffff          	0xed64ffff
   258ce:	ed58ffff          	0xed58ffff
   258d2:	ed64ffff          	0xed64ffff
   258d6:	ed64ffff          	0xed64ffff
   258da:	ed34ffff          	0xed34ffff
   258de:	0a0dffff          	0xa0dffff
   258e2:	6f42                	ld	t5,16(sp)
   258e4:	6e69746f          	jal	s0,bcfca <_payload_end+0x95fc2>
   258e8:	74612067          	0x74612067
   258ec:	6120                	ld	s0,64(a0)
   258ee:	0a0d6d73          	csrrsi	s10,0xa0,26
	...
   26ffe:	0000                	unimp
   27000:	7108                	ld	a0,32(a0)
   27002:	0002                	c.slli64	zero
   27004:	0000                	unimp
	...

Disassembly of section .debug_info:

0000000000000000 <.debug_info>:
   0:	0000037f          	0x37f
   4:	0004                	0x4
   6:	0000                	unimp
   8:	0000                	unimp
   a:	0108                	addi	a0,sp,128
   c:	001a                	c.slli	zero,0x6
   e:	0000                	unimp
  10:	000c                	0xc
  12:	0000                	unimp
  14:	8a00                	0x8a00
  16:	0000                	unimp
  18:	5000                	lw	s0,32(s0)
  1a:	0200                	addi	s0,sp,256
  1c:	0000                	unimp
  1e:	0000                	unimp
  20:	bc00                	fsd	fs0,56(s0)
  22:	0002                	c.slli64	zero
	...
  2c:	0200                	addi	s0,sp,256
  2e:	000e                	c.slli	zero,0x3
  30:	0000                	unimp
  32:	5001                	c.li	zero,-32
  34:	00006c0f          	0x6c0f
  38:	a400                	fsd	fs0,8(s0)
  3a:	0202                	c.slli64	tp
  3c:	0000                	unimp
  3e:	0000                	unimp
  40:	6800                	ld	s0,16(s0)
  42:	0000                	unimp
  44:	0000                	unimp
  46:	0000                	unimp
  48:	0100                	addi	s0,sp,128
  4a:	6c9c                	ld	a5,24(s1)
  4c:	0000                	unimp
  4e:	0300                	addi	s0,sp,384
  50:	0078                	addi	a4,sp,12
  52:	5001                	c.li	zero,-32
  54:	6c29                	lui	s8,0xa
  56:	0000                	unimp
  58:	0200                	addi	s0,sp,256
  5a:	5891                	li	a7,-28
  5c:	7204                	ld	s1,32(a2)
  5e:	7465                	lui	s0,0xffff9
  60:	0100                	addi	s0,sp,128
  62:	1052                	c.slli	zero,0x34
  64:	006c                	addi	a1,sp,12
  66:	0000                	unimp
  68:	9102                	jalr	sp
  6a:	0068                	addi	a0,sp,12
  6c:	0805                	addi	a6,a6,1
  6e:	00027e07          	vle64.v	v28,(tp),v0.t
  72:	0600                	addi	s0,sp,768
  74:	00de                	slli	ra,ra,0x17
  76:	0000                	unimp
  78:	2d01                	sext.w	s10,s10
  7a:	8006                	c.mv	zero,ra
  7c:	0201                	addi	tp,tp,0
  7e:	0000                	unimp
  80:	0000                	unimp
  82:	2400                	fld	fs0,8(s0)
  84:	0001                	nop
  86:	0000                	unimp
  88:	0000                	unimp
  8a:	0100                	addi	s0,sp,128
  8c:	fe9c                	sd	a5,56(a3)
  8e:	0001                	nop
  90:	0700                	addi	s0,sp,896
  92:	0082                	c.slli64	ra
  94:	0000                	unimp
  96:	2d01                	sext.w	s10,s10
  98:	fe18                	sd	a4,56(a2)
  9a:	0001                	nop
  9c:	0300                	addi	s0,sp,384
  9e:	9c91                	subw	s1,s1,a2
  a0:	6176037f          	0x6176037f
  a4:	006c                	addi	a1,sp,12
  a6:	2d01                	sext.w	s10,s10
  a8:	00006c2f          	vamoaddei32.v	zero,(zero),v0,v24,v0.t
  ac:	0300                	addi	s0,sp,384
  ae:	9091                	srli	s1,s1,0x24
  b0:	01dc087f          	0x1dc087f
  b4:	0002                	c.slli64	zero
  b6:	0000                	unimp
  b8:	0000                	unimp
  ba:	0010                	0x10
  bc:	0000                	unimp
  be:	0000                	unimp
  c0:	0000                	unimp
  c2:	000000d7          	vadd.vv	v1,v0,v0,v0.t
  c6:	5f04                	lw	s1,56(a4)
  c8:	765f 0100 1431      	0x14310100765f
  ce:	006c                	addi	a1,sp,12
  d0:	0000                	unimp
  d2:	7fa89103          	lh	sp,2042(a7)
  d6:	0800                	addi	s0,sp,16
  d8:	01f0                	addi	a2,sp,204
  da:	0002                	c.slli64	zero
  dc:	0000                	unimp
  de:	0000                	unimp
  e0:	0010                	0x10
  e2:	0000                	unimp
  e4:	0000                	unimp
  e6:	0000                	unimp
  e8:	00fd                	addi	ra,ra,31
  ea:	0000                	unimp
  ec:	5f04                	lw	s1,56(a4)
  ee:	765f 0100 1434      	0x14340100765f
  f4:	006c                	addi	a1,sp,12
  f6:	0000                	unimp
  f8:	7fb09103          	lh	sp,2043(ra)
  fc:	0800                	addi	s0,sp,16
  fe:	0204                	addi	s1,sp,256
 100:	0002                	c.slli64	zero
 102:	0000                	unimp
 104:	0000                	unimp
 106:	0010                	0x10
 108:	0000                	unimp
 10a:	0000                	unimp
 10c:	0000                	unimp
 10e:	00000123          	sb	zero,2(zero) # 2 <__bin_size-0x7006>
 112:	5f04                	lw	s1,56(a4)
 114:	765f 0100 1437      	0x14370100765f
 11a:	006c                	addi	a1,sp,12
 11c:	0000                	unimp
 11e:	7fb89103          	lh	sp,2043(a7)
 122:	0800                	addi	s0,sp,16
 124:	0218                	addi	a4,sp,256
 126:	0002                	c.slli64	zero
 128:	0000                	unimp
 12a:	0000                	unimp
 12c:	0010                	0x10
 12e:	0000                	unimp
 130:	0000                	unimp
 132:	0000                	unimp
 134:	0148                	addi	a0,sp,132
 136:	0000                	unimp
 138:	5f04                	lw	s1,56(a4)
 13a:	765f 0100 143a      	0x143a0100765f
 140:	006c                	addi	a1,sp,12
 142:	0000                	unimp
 144:	9102                	jalr	sp
 146:	0040                	addi	s0,sp,4
 148:	2c08                	fld	fa0,24(s0)
 14a:	0202                	c.slli64	tp
 14c:	0000                	unimp
 14e:	0000                	unimp
 150:	1000                	addi	s0,sp,32
 152:	0000                	unimp
 154:	0000                	unimp
 156:	0000                	unimp
 158:	6d00                	ld	s0,24(a0)
 15a:	0001                	nop
 15c:	0400                	addi	s0,sp,512
 15e:	5f5f 0076 3d01      	0x3d0100765f5f
 164:	6c14                	ld	a3,24(s0)
 166:	0000                	unimp
 168:	0200                	addi	s0,sp,256
 16a:	4891                	li	a7,4
 16c:	0800                	addi	s0,sp,16
 16e:	0240                	addi	s0,sp,260
 170:	0002                	c.slli64	zero
 172:	0000                	unimp
 174:	0000                	unimp
 176:	0010                	0x10
 178:	0000                	unimp
 17a:	0000                	unimp
 17c:	0000                	unimp
 17e:	0192                	slli	gp,gp,0x4
 180:	0000                	unimp
 182:	5f04                	lw	s1,56(a4)
 184:	765f 0100 1440      	0x14400100765f
 18a:	006c                	addi	a1,sp,12
 18c:	0000                	unimp
 18e:	9102                	jalr	sp
 190:	0050                	addi	a2,sp,4
 192:	5408                	lw	a0,40(s0)
 194:	0202                	c.slli64	tp
 196:	0000                	unimp
 198:	0000                	unimp
 19a:	1000                	addi	s0,sp,32
 19c:	0000                	unimp
 19e:	0000                	unimp
 1a0:	0000                	unimp
 1a2:	b700                	fsd	fs0,40(a4)
 1a4:	0001                	nop
 1a6:	0400                	addi	s0,sp,512
 1a8:	5f5f 0076 4301      	0x430100765f5f
 1ae:	6c14                	ld	a3,24(s0)
 1b0:	0000                	unimp
 1b2:	0200                	addi	s0,sp,256
 1b4:	5891                	li	a7,-28
 1b6:	0800                	addi	s0,sp,16
 1b8:	0268                	addi	a0,sp,268
 1ba:	0002                	c.slli64	zero
 1bc:	0000                	unimp
 1be:	0000                	unimp
 1c0:	0010                	0x10
 1c2:	0000                	unimp
 1c4:	0000                	unimp
 1c6:	0000                	unimp
 1c8:	01dc                	addi	a5,sp,196
 1ca:	0000                	unimp
 1cc:	5f04                	lw	s1,56(a4)
 1ce:	765f 0100 1446      	0x14460100765f
 1d4:	006c                	addi	a1,sp,12
 1d6:	0000                	unimp
 1d8:	9102                	jalr	sp
 1da:	0060                	addi	s0,sp,12
 1dc:	7c09                	lui	s8,0xfffe2
 1de:	0202                	c.slli64	tp
 1e0:	0000                	unimp
 1e2:	0000                	unimp
 1e4:	1000                	addi	s0,sp,32
 1e6:	0000                	unimp
 1e8:	0000                	unimp
 1ea:	0000                	unimp
 1ec:	0400                	addi	s0,sp,512
 1ee:	5f5f 0076 4901      	0x490100765f5f
 1f4:	6c14                	ld	a3,24(s0)
 1f6:	0000                	unimp
 1f8:	0200                	addi	s0,sp,256
 1fa:	6891                	lui	a7,0x4
 1fc:	0000                	unimp
 1fe:	040a                	slli	s0,s0,0x2
 200:	6905                	lui	s2,0x1
 202:	746e                	ld	s0,248(sp)
 204:	0b00                	addi	s0,sp,400
 206:	007d                	c.nop	31
 208:	0000                	unimp
 20a:	0601                	addi	a2,a2,0
 20c:	00006c0f          	0x6c0f
 210:	5000                	lw	s0,32(s0)
 212:	0200                	addi	s0,sp,256
 214:	0000                	unimp
 216:	0000                	unimp
 218:	3000                	fld	fs0,32(s0)
 21a:	0001                	nop
 21c:	0000                	unimp
 21e:	0000                	unimp
 220:	0100                	addi	s0,sp,128
 222:	079c                	addi	a5,sp,960
 224:	0082                	c.slli64	ra
 226:	0000                	unimp
 228:	0601                	addi	a2,a2,0
 22a:	fe20                	sd	s0,120(a2)
 22c:	0001                	nop
 22e:	0200                	addi	s0,sp,256
 230:	5c91                	li	s9,-28
 232:	7204                	ld	s1,32(a2)
 234:	7465                	lui	s0,0xffff9
 236:	0100                	addi	s0,sp,128
 238:	1008                	addi	a0,sp,32
 23a:	006c                	addi	a1,sp,12
 23c:	0000                	unimp
 23e:	9102                	jalr	sp
 240:	0868                	addi	a0,sp,28
 242:	00b0                	addi	a2,sp,72
 244:	0002                	c.slli64	zero
 246:	0000                	unimp
 248:	0000                	unimp
 24a:	000c                	0xc
 24c:	0000                	unimp
 24e:	0000                	unimp
 250:	0000                	unimp
 252:	0265                	addi	tp,tp,25
 254:	0000                	unimp
 256:	5f04                	lw	s1,56(a4)
 258:	765f 0100 230c      	0x230c0100765f
 25e:	006c                	addi	a1,sp,12
 260:	0000                	unimp
 262:	5901                	li	s2,-32
 264:	0800                	addi	s0,sp,16
 266:	00c4                	addi	s1,sp,68
 268:	0002                	c.slli64	zero
 26a:	0000                	unimp
 26c:	0000                	unimp
 26e:	000c                	0xc
 270:	0000                	unimp
 272:	0000                	unimp
 274:	0000                	unimp
 276:	0289                	addi	t0,t0,2
 278:	0000                	unimp
 27a:	5f04                	lw	s1,56(a4)
 27c:	765f 0100 230f      	0x230f0100765f
 282:	006c                	addi	a1,sp,12
 284:	0000                	unimp
 286:	5901                	li	s2,-32
 288:	0800                	addi	s0,sp,16
 28a:	00d8                	addi	a4,sp,68
 28c:	0002                	c.slli64	zero
 28e:	0000                	unimp
 290:	0000                	unimp
 292:	000c                	0xc
 294:	0000                	unimp
 296:	0000                	unimp
 298:	0000                	unimp
 29a:	02ad                	addi	t0,t0,11
 29c:	0000                	unimp
 29e:	5f04                	lw	s1,56(a4)
 2a0:	765f 0100 2312      	0x23120100765f
 2a6:	006c                	addi	a1,sp,12
 2a8:	0000                	unimp
 2aa:	5901                	li	s2,-32
 2ac:	0800                	addi	s0,sp,16
 2ae:	00ec                	addi	a1,sp,76
 2b0:	0002                	c.slli64	zero
 2b2:	0000                	unimp
 2b4:	0000                	unimp
 2b6:	000c                	0xc
 2b8:	0000                	unimp
 2ba:	0000                	unimp
 2bc:	0000                	unimp
 2be:	02d1                	addi	t0,t0,20
 2c0:	0000                	unimp
 2c2:	5f04                	lw	s1,56(a4)
 2c4:	765f 0100 2315      	0x23150100765f
 2ca:	006c                	addi	a1,sp,12
 2cc:	0000                	unimp
 2ce:	5901                	li	s2,-32
 2d0:	0800                	addi	s0,sp,16
 2d2:	0100                	addi	s0,sp,128
 2d4:	0002                	c.slli64	zero
 2d6:	0000                	unimp
 2d8:	0000                	unimp
 2da:	000c                	0xc
 2dc:	0000                	unimp
 2de:	0000                	unimp
 2e0:	0000                	unimp
 2e2:	02f5                	addi	t0,t0,29
 2e4:	0000                	unimp
 2e6:	5f04                	lw	s1,56(a4)
 2e8:	765f 0100 2318      	0x23180100765f
 2ee:	006c                	addi	a1,sp,12
 2f0:	0000                	unimp
 2f2:	5901                	li	s2,-32
 2f4:	0800                	addi	s0,sp,16
 2f6:	0114                	addi	a3,sp,128
 2f8:	0002                	c.slli64	zero
 2fa:	0000                	unimp
 2fc:	0000                	unimp
 2fe:	000c                	0xc
 300:	0000                	unimp
 302:	0000                	unimp
 304:	0000                	unimp
 306:	0319                	addi	t1,t1,6
 308:	0000                	unimp
 30a:	5f04                	lw	s1,56(a4)
 30c:	765f 0100 231b      	0x231b0100765f
 312:	006c                	addi	a1,sp,12
 314:	0000                	unimp
 316:	5901                	li	s2,-32
 318:	0800                	addi	s0,sp,16
 31a:	0128                	addi	a0,sp,136
 31c:	0002                	c.slli64	zero
 31e:	0000                	unimp
 320:	0000                	unimp
 322:	000c                	0xc
 324:	0000                	unimp
 326:	0000                	unimp
 328:	0000                	unimp
 32a:	033d                	addi	t1,t1,15
 32c:	0000                	unimp
 32e:	5f04                	lw	s1,56(a4)
 330:	765f 0100 231e      	0x231e0100765f
 336:	006c                	addi	a1,sp,12
 338:	0000                	unimp
 33a:	5901                	li	s2,-32
 33c:	0800                	addi	s0,sp,16
 33e:	013c                	addi	a5,sp,136
 340:	0002                	c.slli64	zero
 342:	0000                	unimp
 344:	0000                	unimp
 346:	000c                	0xc
 348:	0000                	unimp
 34a:	0000                	unimp
 34c:	0000                	unimp
 34e:	0361                	addi	t1,t1,24
 350:	0000                	unimp
 352:	5f04                	lw	s1,56(a4)
 354:	765f 0100 2321      	0x23210100765f
 35a:	006c                	addi	a1,sp,12
 35c:	0000                	unimp
 35e:	5901                	li	s2,-32
 360:	0900                	addi	s0,sp,144
 362:	0150                	addi	a2,sp,132
 364:	0002                	c.slli64	zero
 366:	0000                	unimp
 368:	0000                	unimp
 36a:	000c                	0xc
 36c:	0000                	unimp
 36e:	0000                	unimp
 370:	0000                	unimp
 372:	5f04                	lw	s1,56(a4)
 374:	765f 0100 2324      	0x23240100765f
 37a:	006c                	addi	a1,sp,12
 37c:	0000                	unimp
 37e:	5901                	li	s2,-32
 380:	0000                	unimp
 382:	1c00                	addi	s0,sp,560
 384:	0002                	c.slli64	zero
 386:	0400                	addi	s0,sp,512
 388:	c700                	sw	s0,8(a4)
 38a:	0000                	unimp
 38c:	0800                	addi	s0,sp,16
 38e:	1a01                	addi	s4,s4,-32
 390:	0000                	unimp
 392:	0c00                	addi	s0,sp,528
 394:	0105                	addi	sp,sp,1
 396:	0000                	unimp
 398:	008a                	slli	ra,ra,0x2
 39a:	0000                	unimp
 39c:	030c                	addi	a1,sp,384
 39e:	0002                	c.slli64	zero
 3a0:	0000                	unimp
 3a2:	0000                	unimp
 3a4:	02b0                	addi	a2,sp,328
 3a6:	0000                	unimp
 3a8:	0000                	unimp
 3aa:	0000                	unimp
 3ac:	02b8                	addi	a4,sp,328
 3ae:	0000                	unimp
 3b0:	0802                	c.slli64	a6
 3b2:	00027e07          	vle64.v	v28,(tp),v0.t
 3b6:	0300                	addi	s0,sp,384
 3b8:	0152                	slli	sp,sp,0x14
 3ba:	0000                	unimp
 3bc:	4e01                	li	t3,0
 3be:	ec06                	sd	ra,24(sp)
 3c0:	0204                	addi	s1,sp,256
 3c2:	0000                	unimp
 3c4:	0000                	unimp
 3c6:	d000                	sw	s0,32(s0)
 3c8:	0000                	unimp
 3ca:	0000                	unimp
 3cc:	0000                	unimp
 3ce:	0100                	addi	s0,sp,128
 3d0:	3d9c                	fld	fa5,56(a1)
 3d2:	0001                	nop
 3d4:	0400                	addi	s0,sp,512
 3d6:	6176                	ld	sp,344(sp)
 3d8:	006c                	addi	a1,sp,12
 3da:	5001                	c.li	zero,-32
 3dc:	2d10                	fld	fa2,24(a0)
 3de:	0000                	unimp
 3e0:	0200                	addi	s0,sp,256
 3e2:	5891                	li	a7,-28
 3e4:	1c05                	addi	s8,s8,-31
 3e6:	0205                	addi	tp,tp,1
 3e8:	0000                	unimp
 3ea:	0000                	unimp
 3ec:	0c00                	addi	s0,sp,528
 3ee:	0000                	unimp
 3f0:	0000                	unimp
 3f2:	0000                	unimp
 3f4:	8500                	0x8500
 3f6:	0000                	unimp
 3f8:	0400                	addi	s0,sp,512
 3fa:	5f5f 0076 5c01      	0x5c0100765f5f
 400:	2d22                	fld	fs10,8(sp)
 402:	0000                	unimp
 404:	0100                	addi	s0,sp,128
 406:	0059                	c.nop	22
 408:	5805                	li	a6,-31
 40a:	0205                	addi	tp,tp,1
 40c:	0000                	unimp
 40e:	0000                	unimp
 410:	1000                	addi	s0,sp,32
 412:	0000                	unimp
 414:	0000                	unimp
 416:	0000                	unimp
 418:	aa00                	fsd	fs0,16(a2)
 41a:	0000                	unimp
 41c:	0400                	addi	s0,sp,512
 41e:	5f5f 0076 5f01      	0x5f0100765f5f
 424:	00002d13          	slti	s10,zero,0
 428:	0200                	addi	s0,sp,256
 42a:	5091                	li	ra,-28
 42c:	0500                	addi	s0,sp,640
 42e:	0568                	addi	a0,sp,652
 430:	0002                	c.slli64	zero
 432:	0000                	unimp
 434:	0000                	unimp
 436:	0010                	0x10
 438:	0000                	unimp
 43a:	0000                	unimp
 43c:	0000                	unimp
 43e:	000000cf          	fnmadd.s	ft1,ft0,ft0,ft0,rne
 442:	5f04                	lw	s1,56(a4)
 444:	765f 0100 1362      	0x13620100765f
 44a:	002d                	c.nop	11
 44c:	0000                	unimp
 44e:	9102                	jalr	sp
 450:	0048                	addi	a0,sp,4
 452:	7805                	lui	a6,0xfffe1
 454:	0205                	addi	tp,tp,1
 456:	0000                	unimp
 458:	0000                	unimp
 45a:	1000                	addi	s0,sp,32
 45c:	0000                	unimp
 45e:	0000                	unimp
 460:	0000                	unimp
 462:	f400                	sd	s0,40(s0)
 464:	0000                	unimp
 466:	0400                	addi	s0,sp,512
 468:	5f5f 0076 6401      	0x640100765f5f
 46e:	00002d13          	slti	s10,zero,0
 472:	0200                	addi	s0,sp,256
 474:	4091                	li	ra,4
 476:	0500                	addi	s0,sp,640
 478:	0588                	addi	a0,sp,704
 47a:	0002                	c.slli64	zero
 47c:	0000                	unimp
 47e:	0000                	unimp
 480:	000c                	0xc
 482:	0000                	unimp
 484:	0000                	unimp
 486:	0000                	unimp
 488:	011a                	slli	sp,sp,0x6
 48a:	0000                	unimp
 48c:	5f04                	lw	s1,56(a4)
 48e:	765f 0100 1367      	0x13670100765f
 494:	002d                	c.nop	11
 496:	0000                	unimp
 498:	7fb89103          	lh	sp,2043(a7) # 47fb <__bin_size-0x280d>
 49c:	0600                	addi	s0,sp,768
 49e:	0594                	addi	a3,sp,704
 4a0:	0002                	c.slli64	zero
 4a2:	0000                	unimp
 4a4:	0000                	unimp
 4a6:	000c                	0xc
 4a8:	0000                	unimp
 4aa:	0000                	unimp
 4ac:	0000                	unimp
 4ae:	5f04                	lw	s1,56(a4)
 4b0:	765f 0100 1369      	0x13690100765f
 4b6:	002d                	c.nop	11
 4b8:	0000                	unimp
 4ba:	7fb09103          	lh	sp,2043(ra)
 4be:	0000                	unimp
 4c0:	00012e07          	flw	ft8,0(sp)
 4c4:	0100                	addi	s0,sp,128
 4c6:	050e                	slli	a0,a0,0x3
 4c8:	0218                	addi	a4,sp,256
 4ca:	0000                	unimp
 4cc:	030c                	addi	a1,sp,384
 4ce:	0002                	c.slli64	zero
 4d0:	0000                	unimp
 4d2:	0000                	unimp
 4d4:	01e0                	addi	s0,sp,204
 4d6:	0000                	unimp
 4d8:	0000                	unimp
 4da:	0000                	unimp
 4dc:	9c01                	subw	s0,s0,s0
 4de:	0218                	addi	a4,sp,256
 4e0:	0000                	unimp
 4e2:	1e08                	addi	a0,sp,816
 4e4:	0001                	nop
 4e6:	0100                	addi	s0,sp,128
 4e8:	150e                	slli	a0,a0,0x23
 4ea:	0218                	addi	a4,sp,256
 4ec:	0000                	unimp
 4ee:	7fbc9103          	lh	sp,2043(s9)
 4f2:	f208                	sd	a0,32(a2)
 4f4:	0000                	unimp
 4f6:	0100                	addi	s0,sp,128
 4f8:	2c0e                	fld	fs8,192(sp)
 4fa:	002d                	c.nop	11
 4fc:	0000                	unimp
 4fe:	7fb09103          	lh	sp,2043(ra)
 502:	1908                	addi	a0,sp,176
 504:	0001                	nop
 506:	0100                	addi	s0,sp,128
 508:	410e                	lw	sp,192(sp)
 50a:	002d                	c.nop	11
 50c:	0000                	unimp
 50e:	7fa89103          	lh	sp,2042(a7)
 512:	1408                	addi	a0,sp,544
 514:	0001                	nop
 516:	0100                	addi	s0,sp,128
 518:	550e                	lw	a0,224(sp)
 51a:	002d                	c.nop	11
 51c:	0000                	unimp
 51e:	7fa09103          	lh	sp,2042(ra)
 522:	ec09                	bnez	s0,53c <__bin_size-0x6acc>
 524:	0000                	unimp
 526:	0100                	addi	s0,sp,128
 528:	0610                	addi	a2,sp,768
 52a:	0218                	addi	a4,sp,256
 52c:	0000                	unimp
 52e:	9102                	jalr	sp
 530:	0964                	addi	s1,sp,156
 532:	0000015b          	0x15b
 536:	1101                	addi	sp,sp,-32
 538:	1806                	slli	a6,a6,0x21
 53a:	0002                	c.slli64	zero
 53c:	0200                	addi	s0,sp,256
 53e:	6091                	lui	ra,0x4
 540:	f809                	bnez	s0,452 <__bin_size-0x6bb6>
 542:	0000                	unimp
 544:	0100                	addi	s0,sp,128
 546:	1211                	addi	tp,tp,-28
 548:	0218                	addi	a4,sp,256
 54a:	0000                	unimp
 54c:	9102                	jalr	sp
 54e:	095c                	addi	a5,sp,148
 550:	0166                	slli	sp,sp,0x19
 552:	0000                	unimp
 554:	1101                	addi	sp,sp,-32
 556:	1820                	addi	s0,sp,56
 558:	0002                	c.slli64	zero
 55a:	0200                	addi	s0,sp,256
 55c:	5891                	li	a7,-28
 55e:	2609                	addiw	a2,a2,2
 560:	0001                	nop
 562:	0100                	addi	s0,sp,128
 564:	1012                	c.slli	zero,0x24
 566:	002d                	c.nop	11
 568:	0000                	unimp
 56a:	9102                	jalr	sp
 56c:	0950                	addi	a2,sp,148
 56e:	0000014b          	fnmsub.s	ft2,ft0,ft0,ft0,rne
 572:	1201                	addi	tp,tp,-32
 574:	2d19                	addiw	s10,s10,6
 576:	0000                	unimp
 578:	0200                	addi	s0,sp,256
 57a:	4891                	li	a7,4
 57c:	3a09                	addiw	s4,s4,-30
 57e:	0001                	nop
 580:	0100                	addi	s0,sp,128
 582:	002d1013          	slli	zero,s10,0x2
 586:	0000                	unimp
 588:	9102                	jalr	sp
 58a:	0940                	addi	s0,sp,148
 58c:	00000143          	fmadd.s	ft2,ft0,ft0,ft0,rne
 590:	1301                	addi	t1,t1,-32
 592:	2d1a                	fld	fs10,384(sp)
 594:	0000                	unimp
 596:	0200                	addi	s0,sp,256
 598:	6891                	lui	a7,0x4
 59a:	0a00                	addi	s0,sp,272
 59c:	0504                	addi	s1,sp,640
 59e:	6e69                	lui	t3,0x1a
 5a0:	0074                	addi	a3,sp,12
 5a2:	0500                	addi	s0,sp,640
 5a4:	04000003          	lb	zero,64(zero) # 40 <__bin_size-0x6fc8>
 5a8:	7200                	ld	s0,32(a2)
 5aa:	0001                	nop
 5ac:	0800                	addi	s0,sp,16
 5ae:	1a01                	addi	s4,s4,-32
 5b0:	0000                	unimp
 5b2:	0c00                	addi	s0,sp,528
 5b4:	01a1                	addi	gp,gp,8
 5b6:	0000                	unimp
 5b8:	008a                	slli	ra,ra,0x2
 5ba:	0000                	unimp
 5bc:	05bc                	addi	a5,sp,712
 5be:	0002                	c.slli64	zero
 5c0:	0000                	unimp
 5c2:	0000                	unimp
 5c4:	0134                	addi	a3,sp,136
 5c6:	0000                	unimp
 5c8:	0000                	unimp
 5ca:	0000                	unimp
 5cc:	050d                	addi	a0,a0,3
 5ce:	0000                	unimp
 5d0:	9302                	jalr	t1
 5d2:	0001                	nop
 5d4:	0800                	addi	s0,sp,16
 5d6:	0201                	addi	tp,tp,0
 5d8:	080d                	addi	a6,a6,3
 5da:	01cd                	addi	gp,gp,19
 5dc:	0000                	unimp
 5de:	0001b003          	ld	zero,0(gp)
 5e2:	0200                	addi	s0,sp,256
 5e4:	01cd100f          	0x1cd100f
 5e8:	0000                	unimp
 5ea:	0400                	addi	s0,sp,512
 5ec:	6172                	ld	sp,280(sp)
 5ee:	0200                	addi	s0,sp,256
 5f0:	1010                	addi	a2,sp,32
 5f2:	01cd                	addi	gp,gp,19
 5f4:	0000                	unimp
 5f6:	0408                	addi	a0,sp,512
 5f8:	02007073          	csrci	0x20,0
 5fc:	1011                	c.nop	-28
 5fe:	01cd                	addi	gp,gp,19
 600:	0000                	unimp
 602:	0410                	addi	a2,sp,512
 604:	02007067          	0x2007067
 608:	1012                	c.slli	zero,0x24
 60a:	01cd                	addi	gp,gp,19
 60c:	0000                	unimp
 60e:	0418                	addi	a4,sp,512
 610:	7074                	ld	a3,224(s0)
 612:	0200                	addi	s0,sp,256
 614:	01cd1013          	slli	zero,s10,0x1c
 618:	0000                	unimp
 61a:	0420                	addi	s0,sp,520
 61c:	3074                	fld	fa3,224(s0)
 61e:	0200                	addi	s0,sp,256
 620:	1014                	addi	a3,sp,32
 622:	01cd                	addi	gp,gp,19
 624:	0000                	unimp
 626:	0428                	addi	a0,sp,520
 628:	3174                	fld	fa3,224(a0)
 62a:	0200                	addi	s0,sp,256
 62c:	1015                	c.nop	-27
 62e:	01cd                	addi	gp,gp,19
 630:	0000                	unimp
 632:	0430                	addi	a2,sp,520
 634:	3274                	fld	fa3,224(a2)
 636:	0200                	addi	s0,sp,256
 638:	1016                	c.slli	zero,0x25
 63a:	01cd                	addi	gp,gp,19
 63c:	0000                	unimp
 63e:	0438                	addi	a4,sp,520
 640:	02003073          	csrc	0x20,zero
 644:	01cd1017          	auipc	zero,0x1cd1
 648:	0000                	unimp
 64a:	0440                	addi	s0,sp,516
 64c:	02003173          	csrrc	sp,0x20,zero
 650:	1018                	addi	a4,sp,32
 652:	01cd                	addi	gp,gp,19
 654:	0000                	unimp
 656:	0448                	addi	a0,sp,516
 658:	3061                	0x3061
 65a:	0200                	addi	s0,sp,256
 65c:	1019                	c.nop	-26
 65e:	01cd                	addi	gp,gp,19
 660:	0000                	unimp
 662:	0450                	addi	a2,sp,516
 664:	3161                	addiw	sp,sp,-8
 666:	0200                	addi	s0,sp,256
 668:	101a                	c.slli	zero,0x26
 66a:	01cd                	addi	gp,gp,19
 66c:	0000                	unimp
 66e:	0458                	addi	a4,sp,516
 670:	3261                	addiw	tp,tp,-8
 672:	0200                	addi	s0,sp,256
 674:	01cd101b          	slliw	zero,s10,0x1c
 678:	0000                	unimp
 67a:	0460                	addi	s0,sp,524
 67c:	3361                	addiw	t1,t1,-8
 67e:	0200                	addi	s0,sp,256
 680:	101c                	addi	a5,sp,32
 682:	01cd                	addi	gp,gp,19
 684:	0000                	unimp
 686:	0468                	addi	a0,sp,524
 688:	3461                	addiw	s0,s0,-8
 68a:	0200                	addi	s0,sp,256
 68c:	101d                	c.nop	-25
 68e:	01cd                	addi	gp,gp,19
 690:	0000                	unimp
 692:	0470                	addi	a2,sp,524
 694:	3561                	addiw	a0,a0,-8
 696:	0200                	addi	s0,sp,256
 698:	101e                	c.slli	zero,0x27
 69a:	01cd                	addi	gp,gp,19
 69c:	0000                	unimp
 69e:	0478                	addi	a4,sp,524
 6a0:	3661                	addiw	a2,a2,-8
 6a2:	0200                	addi	s0,sp,256
 6a4:	101f 01cd 0000      	0x1cd101f
 6aa:	0480                	addi	s0,sp,576
 6ac:	3761                	addiw	a4,a4,-8
 6ae:	0200                	addi	s0,sp,256
 6b0:	1020                	addi	s0,sp,40
 6b2:	01cd                	addi	gp,gp,19
 6b4:	0000                	unimp
 6b6:	0488                	addi	a0,sp,576
 6b8:	02003273          	csrrc	tp,0x20,zero
 6bc:	1021                	c.nop	-24
 6be:	01cd                	addi	gp,gp,19
 6c0:	0000                	unimp
 6c2:	0490                	addi	a2,sp,576
 6c4:	02003373          	csrrc	t1,0x20,zero
 6c8:	1022                	c.slli	zero,0x28
 6ca:	01cd                	addi	gp,gp,19
 6cc:	0000                	unimp
 6ce:	0498                	addi	a4,sp,576
 6d0:	02003473          	csrrc	s0,0x20,zero
 6d4:	01cd1023          	sh	t3,0(s10)
 6d8:	0000                	unimp
 6da:	04a0                	addi	s0,sp,584
 6dc:	02003573          	csrrc	a0,0x20,zero
 6e0:	1024                	addi	s1,sp,40
 6e2:	01cd                	addi	gp,gp,19
 6e4:	0000                	unimp
 6e6:	04a8                	addi	a0,sp,584
 6e8:	02003673          	csrrc	a2,0x20,zero
 6ec:	1025                	c.nop	-23
 6ee:	01cd                	addi	gp,gp,19
 6f0:	0000                	unimp
 6f2:	04b0                	addi	a2,sp,584
 6f4:	02003773          	csrrc	a4,0x20,zero
 6f8:	1026                	c.slli	zero,0x29
 6fa:	01cd                	addi	gp,gp,19
 6fc:	0000                	unimp
 6fe:	04b8                	addi	a4,sp,584
 700:	02003873          	csrrc	a6,0x20,zero
 704:	01cd1027          	fsh	ft8,0(s10)
 708:	0000                	unimp
 70a:	04c0                	addi	s0,sp,580
 70c:	02003973          	csrrc	s2,0x20,zero
 710:	1028                	addi	a0,sp,40
 712:	01cd                	addi	gp,gp,19
 714:	0000                	unimp
 716:	04c8                	addi	a0,sp,580
 718:	00303173          	csrrc	sp,fcsr,zero
 71c:	2902                	fld	fs2,0(sp)
 71e:	cd10                	sw	a2,24(a0)
 720:	0001                	nop
 722:	d000                	sw	s0,32(s0)
 724:	7304                	ld	s1,32(a4)
 726:	3131                	addiw	sp,sp,-20
 728:	0200                	addi	s0,sp,256
 72a:	102a                	c.slli	zero,0x2a
 72c:	01cd                	addi	gp,gp,19
 72e:	0000                	unimp
 730:	04d8                	addi	a4,sp,580
 732:	3374                	fld	fa3,224(a4)
 734:	0200                	addi	s0,sp,256
 736:	01cd102b          	0x1cd102b
 73a:	0000                	unimp
 73c:	04e0                	addi	s0,sp,588
 73e:	3474                	fld	fa3,232(s0)
 740:	0200                	addi	s0,sp,256
 742:	102c                	addi	a1,sp,40
 744:	01cd                	addi	gp,gp,19
 746:	0000                	unimp
 748:	04e8                	addi	a0,sp,588
 74a:	3574                	fld	fa3,232(a0)
 74c:	0200                	addi	s0,sp,256
 74e:	102d                	c.nop	-21
 750:	01cd                	addi	gp,gp,19
 752:	0000                	unimp
 754:	04f0                	addi	a2,sp,588
 756:	3674                	fld	fa3,232(a2)
 758:	0200                	addi	s0,sp,256
 75a:	102e                	c.slli	zero,0x2b
 75c:	01cd                	addi	gp,gp,19
 75e:	0000                	unimp
 760:	05f8                	addi	a4,sp,716
 762:	01d4                	addi	a3,sp,196
 764:	0000                	unimp
 766:	3002                	fld	ft0,32(sp)
 768:	cd10                	sw	a2,24(a0)
 76a:	0001                	nop
 76c:	0000                	unimp
 76e:	0001                	nop
 770:	0806                	slli	a6,a6,0x1
 772:	00027e07          	vle64.v	v28,(tp),v0.t
 776:	0700                	addi	s0,sp,896
 778:	01b5                	addi	gp,gp,13
 77a:	0000                	unimp
 77c:	2901                	sext.w	s2,s2
 77e:	b406                	fsd	ft1,40(sp)
 780:	0206                	slli	tp,tp,0x1
 782:	0000                	unimp
 784:	0000                	unimp
 786:	3c00                	fld	fs0,56(s0)
 788:	0000                	unimp
 78a:	0000                	unimp
 78c:	0000                	unimp
 78e:	0100                	addi	s0,sp,128
 790:	399c                	fld	fa5,48(a1)
 792:	0002                	c.slli64	zero
 794:	0800                	addi	s0,sp,16
 796:	06c0                	addi	s0,sp,836
 798:	0002                	c.slli64	zero
 79a:	0000                	unimp
 79c:	0000                	unimp
 79e:	0014                	0x14
 7a0:	0000                	unimp
 7a2:	0000                	unimp
 7a4:	0000                	unimp
 7a6:	00000217          	auipc	tp,0x0
 7aa:	5f09                	li	t5,-30
 7ac:	765f 0100 132c      	0x132c0100765f
 7b2:	01cd                	addi	gp,gp,19
 7b4:	0000                	unimp
 7b6:	9102                	jalr	sp
 7b8:	0068                	addi	a0,sp,12
 7ba:	d40a                	sw	sp,40(sp)
 7bc:	0206                	slli	tp,tp,0x1
 7be:	0000                	unimp
 7c0:	0000                	unimp
 7c2:	0c00                	addi	s0,sp,528
 7c4:	0000                	unimp
 7c6:	0000                	unimp
 7c8:	0000                	unimp
 7ca:	0900                	addi	s0,sp,144
 7cc:	5f5f 0076 2e01      	0x2e0100765f5f
 7d2:	0001cd13          	xori	s10,gp,0
 7d6:	0200                	addi	s0,sp,256
 7d8:	6091                	lui	ra,0x4
 7da:	0000                	unimp
 7dc:	0001c30b          	lrb	t1,gp,zero,0
 7e0:	0100                	addi	s0,sp,128
 7e2:	0619                	addi	a2,a2,6
 7e4:	0640                	addi	s0,sp,772
 7e6:	0002                	c.slli64	zero
 7e8:	0000                	unimp
 7ea:	0000                	unimp
 7ec:	0074                	addi	a3,sp,12
 7ee:	0000                	unimp
 7f0:	0000                	unimp
 7f2:	0000                	unimp
 7f4:	9c01                	subw	s0,s0,s0
 7f6:	02a5                	addi	t0,t0,9
 7f8:	0000                	unimp
 7fa:	9c0c                	0x9c0c
 7fc:	0001                	nop
 7fe:	0100                	addi	s0,sp,128
 800:	2d19                	addiw	s10,s10,6
 802:	02a5                	addi	t0,t0,9
 804:	0000                	unimp
 806:	9102                	jalr	sp
 808:	0d48                	addi	a0,sp,660
 80a:	018c                	addi	a1,sp,192
 80c:	0000                	unimp
 80e:	1b01                	addi	s6,s6,-32
 810:	cd10                	sw	a2,24(a0)
 812:	0001                	nop
 814:	0200                	addi	s0,sp,256
 816:	5891                	li	a7,-28
 818:	830d                	srli	a4,a4,0x3
 81a:	0001                	nop
 81c:	0100                	addi	s0,sp,128
 81e:	101c                	addi	a5,sp,32
 820:	01cd                	addi	gp,gp,19
 822:	0000                	unimp
 824:	9102                	jalr	sp
 826:	0a50                	addi	a2,sp,276
 828:	0658                	addi	a4,sp,772
 82a:	0002                	c.slli64	zero
 82c:	0000                	unimp
 82e:	0000                	unimp
 830:	000c                	0xc
 832:	0000                	unimp
 834:	0000                	unimp
 836:	0000                	unimp
 838:	5f09                	li	t5,-30
 83a:	765f 0100 331b      	0x331b0100765f
 840:	01cd                	addi	gp,gp,19
 842:	0000                	unimp
 844:	5901                	li	s2,-32
 846:	0000                	unimp
 848:	080e                	slli	a6,a6,0x3
 84a:	002d                	c.nop	11
 84c:	0000                	unimp
 84e:	0001720f          	0x1720f
 852:	0100                	addi	s0,sp,128
 854:	02fa0c07          	0x2fa0c07
 858:	0000                	unimp
 85a:	05bc                	addi	a5,sp,712
 85c:	0002                	c.slli64	zero
 85e:	0000                	unimp
 860:	0000                	unimp
 862:	0084                	addi	s1,sp,64
 864:	0000                	unimp
 866:	0000                	unimp
 868:	0000                	unimp
 86a:	9c01                	subw	s0,s0,s0
 86c:	02fa                	slli	t0,t0,0x1e
 86e:	0000                	unimp
 870:	6910                	ld	a2,16(a0)
 872:	0064                	addi	s1,sp,12
 874:	0701                	addi	a4,a4,0
 876:	012a                	slli	sp,sp,0xa
 878:	02000003          	lb	zero,32(zero) # 20 <__bin_size-0x6fe8>
 87c:	5c91                	li	s9,-28
 87e:	9c0c                	0x9c0c
 880:	0001                	nop
 882:	0100                	addi	s0,sp,128
 884:	02a54407          	flq	fs0,42(a0)
 888:	0000                	unimp
 88a:	9102                	jalr	sp
 88c:	0950                	addi	a2,sp,148
 88e:	6572                	ld	a0,280(sp)
 890:	0074                	addi	a3,sp,12
 892:	0901                	addi	s2,s2,0
 894:	fa06                	sd	ra,304(sp)
 896:	0002                	c.slli64	zero
 898:	0200                	addi	s0,sp,256
 89a:	6c91                	lui	s9,0x4
 89c:	1100                	addi	s0,sp,160
 89e:	0504                	addi	s1,sp,640
 8a0:	6e69                	lui	t3,0x1a
 8a2:	0074                	addi	a3,sp,12
 8a4:	0406                	slli	s0,s0,0x1
 8a6:	00028307          	vle8.v	v6,(t0),v0.t
 8aa:	0000                	unimp
 8ac:	04f5                	addi	s1,s1,29
 8ae:	0000                	unimp
 8b0:	0004                	0x4
 8b2:	0295                	addi	t0,t0,5
 8b4:	0000                	unimp
 8b6:	0108                	addi	a0,sp,128
 8b8:	001a                	c.slli	zero,0x6
 8ba:	0000                	unimp
 8bc:	130c                	addi	a1,sp,416
 8be:	0002                	c.slli64	zero
 8c0:	8a00                	0x8a00
 8c2:	0000                	unimp
 8c4:	f000                	sd	s0,32(s0)
 8c6:	0206                	slli	tp,tp,0x1
 8c8:	0000                	unimp
 8ca:	0000                	unimp
 8cc:	4000                	lw	s0,0(s0)
 8ce:	000a                	c.slli	zero,0x2
 8d0:	0000                	unimp
 8d2:	0000                	unimp
 8d4:	2900                	fld	fs0,16(a0)
 8d6:	0006                	c.slli	zero,0x1
 8d8:	0200                	addi	s0,sp,256
 8da:	0601                	addi	a2,a2,0
 8dc:	0200                	addi	s0,sp,256
 8de:	0000                	unimp
 8e0:	00029803          	lh	a6,0(t0)
 8e4:	0300                	addi	s0,sp,384
 8e6:	1709                	addi	a4,a4,-30
 8e8:	0040                	addi	s0,sp,4
 8ea:	0000                	unimp
 8ec:	0102                	c.slli64	sp
 8ee:	fe08                	sd	a0,56(a2)
 8f0:	0001                	nop
 8f2:	0200                	addi	s0,sp,256
 8f4:	0502                	c.slli64	a0
 8f6:	02dc                	addi	a5,sp,324
 8f8:	0000                	unimp
 8fa:	0202                	c.slli64	tp
 8fc:	00022207          	flw	ft4,0(tp) # 7a6 <__bin_size-0x6862>
 900:	0400                	addi	s0,sp,512
 902:	0504                	addi	s1,sp,640
 904:	6e69                	lui	t3,0x1a
 906:	0074                	addi	a3,sp,12
 908:	00026e03          	lwu	t3,0(tp) # 0 <__bin_size-0x7008>
 90c:	0300                	addi	s0,sp,384
 90e:	0068160f          	0x68160f
 912:	0000                	unimp
 914:	0402                	c.slli64	s0
 916:	00028307          	vle8.v	v6,(t0),v0.t
 91a:	0200                	addi	s0,sp,256
 91c:	0508                	addi	a0,sp,640
 91e:	000002b7          	lui	t0,0x0
 922:	0802                	c.slli64	a6
 924:	00027907          	vle64.v	v18,(tp),v0.t
 928:	0200                	addi	s0,sp,256
 92a:	0508                	addi	a0,sp,640
 92c:	02bc                	addi	a5,sp,328
 92e:	0000                	unimp
 930:	0802                	c.slli64	a6
 932:	00027e07          	vle64.v	v28,(tp),v0.t
 936:	0300                	addi	s0,sp,384
 938:	0000023f 761c2403 	0x761c24030000023f
 940:	0000                	unimp
 942:	0300                	addi	s0,sp,384
 944:	01e6                	slli	gp,gp,0x19
 946:	0000                	unimp
 948:	0804                	addi	s1,sp,16
 94a:	0000a31b          	0xa31b
 94e:	0500                	addi	s0,sp,640
 950:	dc08                	sw	a0,56(s0)
 952:	0001                	nop
 954:	0300                	addi	s0,sp,384
 956:	000002fb          	0x2fb
 95a:	1105                	addi	sp,sp,-31
 95c:	00005c0f          	0x5c0f
 960:	0600                	addi	s0,sp,768
 962:	0235                	addi	tp,tp,13
 964:	0000                	unimp
 966:	e702                	sd	zero,392(sp)
 968:	6006                	0x6006
 96a:	0210                	addi	a2,sp,256
 96c:	0000                	unimp
 96e:	0000                	unimp
 970:	d000                	sw	s0,32(s0)
 972:	0000                	unimp
 974:	0000                	unimp
 976:	0000                	unimp
 978:	0100                	addi	s0,sp,128
 97a:	ff9c                	sd	a5,56(a5)
 97c:	0000                	unimp
 97e:	0700                	addi	s0,sp,896
 980:	6176                	ld	sp,344(sp)
 982:	006c                	addi	a1,sp,12
 984:	e702                	sd	zero,392(sp)
 986:	681d                	lui	a6,0x7
 988:	0000                	unimp
 98a:	0200                	addi	s0,sp,256
 98c:	5c91                	li	s9,-28
 98e:	6908                	ld	a0,16(a0)
 990:	0200                	addi	s0,sp,256
 992:	09e9                	addi	s3,s3,26
 994:	0055                	c.nop	21
 996:	0000                	unimp
 998:	9102                	jalr	sp
 99a:	096c                	addi	a1,sp,156
 99c:	02cd                	addi	t0,t0,19
 99e:	0000                	unimp
 9a0:	ea02                	sd	zero,272(sp)
 9a2:	5509                	li	a0,-30
 9a4:	0000                	unimp
 9a6:	0200                	addi	s0,sp,256
 9a8:	6891                	lui	a7,0x4
 9aa:	0a00                	addi	s0,sp,272
 9ac:	000002a7          	vse8.v	v5,(zero),v0.t
 9b0:	da02                	sw	zero,52(sp)
 9b2:	5505                	li	a0,-31
 9b4:	0000                	unimp
 9b6:	f400                	sd	s0,40(s0)
 9b8:	0000020f          	0x20f
 9bc:	0000                	unimp
 9be:	6c00                	ld	s0,24(s0)
 9c0:	0000                	unimp
 9c2:	0000                	unimp
 9c4:	0000                	unimp
 9c6:	0100                	addi	s0,sp,128
 9c8:	429c                	lw	a5,0(a3)
 9ca:	0001                	nop
 9cc:	0700                	addi	s0,sp,896
 9ce:	6d66                	ld	s10,88(sp)
 9d0:	0074                	addi	a3,sp,12
 9d2:	da02                	sw	zero,52(sp)
 9d4:	4222                	lw	tp,8(sp)
 9d6:	0001                	nop
 9d8:	0300                	addi	s0,sp,384
 9da:	9891                	andi	s1,s1,-28
 9dc:	76080b7f          	0x76080b7f
 9e0:	0061                	c.nop	24
 9e2:	dd02                	sw	zero,184(sp)
 9e4:	970a                	add	a4,a4,sp
 9e6:	0000                	unimp
 9e8:	0300                	addi	s0,sp,384
 9ea:	a891                	j	a3e <__bin_size-0x65ca>
 9ec:	080c007f          	0x80c007f
 9f0:	0000014f          	fnmadd.s	ft2,ft0,ft0,ft0,rne
 9f4:	0102                	c.slli64	sp
 9f6:	0708                	addi	a0,sp,896
 9f8:	0002                	c.slli64	zero
 9fa:	0d00                	addi	s0,sp,656
 9fc:	0148                	addi	a0,sp,132
 9fe:	0000                	unimp
 a00:	760e                	ld	a2,224(sp)
 a02:	6670                	ld	a2,200(a2)
 a04:	0200                	addi	s0,sp,256
 a06:	0cb5                	addi	s9,s9,13
 a08:	0055                	c.nop	21
 a0a:	0000                	unimp
 a0c:	0e20                	addi	s0,sp,792
 a0e:	0002                	c.slli64	zero
 a10:	0000                	unimp
 a12:	0000                	unimp
 a14:	01d4                	addi	a3,sp,196
 a16:	0000                	unimp
 a18:	0000                	unimp
 a1a:	0000                	unimp
 a1c:	9c01                	subw	s0,s0,s0
 a1e:	0000020f          	0x20f
 a22:	746d6607          	0x746d6607
 a26:	0200                	addi	s0,sp,256
 a28:	1db5                	addi	s11,s11,-19
 a2a:	0142                	slli	sp,sp,0x10
 a2c:	0000                	unimp
 a2e:	7fb89103          	lh	sp,2043(a7) # 47fb <__bin_size-0x280d>
 a32:	00617607          	0x617607
 a36:	b502                	fsd	ft0,168(sp)
 a38:	972a                	add	a4,a4,a0
 a3a:	0000                	unimp
 a3c:	0300                	addi	s0,sp,384
 a3e:	b091                	j	282 <__bin_size-0x6d86>
 a40:	0070087f          	0x70087f
 a44:	b702                	fsd	ft0,424(sp)
 a46:	0001420f          	0x1420f
 a4a:	0200                	addi	s0,sp,256
 a4c:	6891                	lui	a7,0x4
 a4e:	7108                	ld	a0,32(a0)
 a50:	0200                	addi	s0,sp,256
 a52:	014214b7          	lui	s1,0x1421
 a56:	0000                	unimp
 a58:	9102                	jalr	sp
 a5a:	0860                	addi	s0,sp,28
 a5c:	0066                	c.slli	zero,0x19
 a5e:	b802                	fsd	ft0,48(sp)
 a60:	5506                	lw	a0,96(sp)
 a62:	0000                	unimp
 a64:	0200                	addi	s0,sp,256
 a66:	5c91                	li	s9,-28
 a68:	6308                	ld	a0,0(a4)
 a6a:	0200                	addi	s0,sp,256
 a6c:	09b8                	addi	a4,sp,216
 a6e:	0055                	c.nop	21
 a70:	0000                	unimp
 a72:	9102                	jalr	sp
 a74:	0850                	addi	a2,sp,20
 a76:	6176                	ld	sp,344(sp)
 a78:	0069                	c.nop	26
 a7a:	b802                	fsd	ft0,48(sp)
 a7c:	550c                	lw	a1,40(a0)
 a7e:	0000                	unimp
 a80:	0200                	addi	s0,sp,256
 a82:	4891                	li	a7,4
 a84:	7008                	ld	a0,32(s0)
 a86:	006c                	addi	a1,sp,12
 a88:	b802                	fsd	ft0,48(sp)
 a8a:	5511                	li	a0,-28
 a8c:	0000                	unimp
 a8e:	0200                	addi	s0,sp,256
 a90:	4491                	li	s1,4
 a92:	7008                	ld	a0,32(s0)
 a94:	b8020063          	beqz	tp,fffffffffffffe14 <_payload_end+0xfffffffffffd8e0c>
 a98:	5515                	li	a0,-27
 a9a:	0000                	unimp
 a9c:	0200                	addi	s0,sp,256
 a9e:	5491                	li	s1,-28
 aa0:	6908                	ld	a0,16(a0)
 aa2:	0200                	addi	s0,sp,256
 aa4:	19b8                	addi	a4,sp,248
 aa6:	0055                	c.nop	21
 aa8:	0000                	unimp
 aaa:	9102                	jalr	sp
 aac:	0858                	addi	a4,sp,20
 aae:	0074                	addi	a3,sp,12
 ab0:	b902                	fsd	ft0,176(sp)
 ab2:	4010                	lw	a2,0(s0)
 ab4:	0000                	unimp
 ab6:	0200                	addi	s0,sp,256
 ab8:	4f91                	li	t6,4
 aba:	0f00                	addi	s0,sp,912
 abc:	02e6                	slli	t0,t0,0x19
 abe:	0000                	unimp
 ac0:	9102                	jalr	sp
 ac2:	580d                	li	a6,-29
 ac4:	020c                	addi	a1,sp,256
 ac6:	0000                	unimp
 ac8:	0000                	unimp
 aca:	c800                	sw	s0,16(s0)
 acc:	0001                	nop
 ace:	0000                	unimp
 ad0:	0000                	unimp
 ad2:	0100                	addi	s0,sp,128
 ad4:	b19c                	fsd	fa5,32(a1)
 ad6:	0002                	c.slli64	zero
 ad8:	0700                	addi	s0,sp,896
 ada:	0061                	c.nop	24
 adc:	9102                	jalr	sp
 ade:	a925                	j	f16 <__bin_size-0x60f2>
 ae0:	0000                	unimp
 ae2:	0300                	addi	s0,sp,384
 ae4:	bc91                	j	538 <__bin_size-0x6ad0>
 ae6:	7369077f          	0x7369077f
 aea:	0068                	addi	a0,sp,12
 aec:	9102                	jalr	sp
 aee:	552c                	lw	a1,104(a0)
 af0:	0000                	unimp
 af2:	0300                	addi	s0,sp,384
 af4:	b891                	j	348 <__bin_size-0x6cc0>
 af6:	6c70077f          	0x6c70077f
 afa:	0200                	addi	s0,sp,256
 afc:	3591                	addiw	a1,a1,-28
 afe:	0055                	c.nop	21
 b00:	0000                	unimp
 b02:	7fb49103          	lh	sp,2043(s1) # 14217fb <_payload_end+0x13fa7f3>
 b06:	00637007          	0x637007
 b0a:	9102                	jalr	sp
 b0c:	553d                	li	a0,-17
 b0e:	0000                	unimp
 b10:	0300                	addi	s0,sp,384
 b12:	b091                	j	356 <__bin_size-0x6cb2>
 b14:	7562087f          	0x7562087f
 b18:	0066                	c.slli	zero,0x19
 b1a:	9302                	jalr	t1
 b1c:	0002b107          	fld	ft2,0(t0) # 0 <__bin_size-0x7008>
 b20:	0200                	addi	s0,sp,256
 b22:	4091                	li	ra,4
 b24:	7409                	lui	s0,0xfffe2
 b26:	0002                	c.slli64	zero
 b28:	0200                	addi	s0,sp,256
 b2a:	0b94                	addi	a3,sp,464
 b2c:	00a9                	addi	ra,ra,10
 b2e:	0000                	unimp
 b30:	9102                	jalr	sp
 b32:	086c                	addi	a1,sp,28
 b34:	6469                	lui	s0,0x1a
 b36:	0078                	addi	a4,sp,12
 b38:	9502                	jalr	a0
 b3a:	5506                	lw	a0,96(sp)
 b3c:	0000                	unimp
 b3e:	0200                	addi	s0,sp,256
 b40:	6891                	lui	a7,0x4
 b42:	6908                	ld	a0,16(a0)
 b44:	0200                	addi	s0,sp,256
 b46:	0b95                	addi	s7,s7,5
 b48:	0055                	c.nop	21
 b4a:	0000                	unimp
 b4c:	9102                	jalr	sp
 b4e:	0864                	addi	s1,sp,28
 b50:	0074                	addi	a3,sp,12
 b52:	9502                	jalr	a0
 b54:	550e                	lw	a0,224(sp)
 b56:	0000                	unimp
 b58:	0200                	addi	s0,sp,256
 b5a:	6091                	lui	ra,0x4
 b5c:	1000                	addi	s0,sp,32
 b5e:	0148                	addi	a0,sp,132
 b60:	0000                	unimp
 b62:	02c1                	addi	t0,t0,16
 b64:	0000                	unimp
 b66:	8411                	srai	s0,s0,0x4
 b68:	0000                	unimp
 b6a:	1f00                	addi	s0,sp,944
 b6c:	1200                	addi	s0,sp,288
 b6e:	025f 0000 7e02      	0x7e020000025f
 b74:	550c                	lw	a1,40(a0)
 b76:	0000                	unimp
 b78:	6800                	ld	s0,16(s0)
 b7a:	0000020b          	0x20b
 b7e:	0000                	unimp
 b80:	f000                	sd	s0,32(s0)
 b82:	0000                	unimp
 b84:	0000                	unimp
 b86:	0000                	unimp
 b88:	0100                	addi	s0,sp,128
 b8a:	3a9c                	fld	fa5,48(a3)
 b8c:	07000003          	lb	zero,112(zero) # 70 <__bin_size-0x6f98>
 b90:	6d66                	ld	s10,88(sp)
 b92:	0074                	addi	a3,sp,12
 b94:	7e02                	ld	t3,32(sp)
 b96:	4228                	lw	a0,64(a2)
 b98:	0001                	nop
 b9a:	0200                	addi	s0,sp,256
 b9c:	4891                	li	a7,4
 b9e:	6d756e07          	vloxseg4ei32.v	v28,(a0),v23,v0.t
 ba2:	0200                	addi	s0,sp,256
 ba4:	337e                	fld	ft6,504(sp)
 ba6:	033a                	slli	t1,t1,0xe
 ba8:	0000                	unimp
 baa:	9102                	jalr	sp
 bac:	0840                	addi	s0,sp,20
 bae:	0070                	addi	a2,sp,12
 bb0:	8002                	0x8002
 bb2:	0001420f          	0x1420f
 bb6:	0200                	addi	s0,sp,256
 bb8:	6891                	lui	a7,0x4
 bba:	7208                	ld	a0,32(a2)
 bbc:	7365                	lui	t1,0xffff9
 bbe:	0200                	addi	s0,sp,256
 bc0:	0681                	addi	a3,a3,0
 bc2:	0055                	c.nop	21
 bc4:	0000                	unimp
 bc6:	9102                	jalr	sp
 bc8:	0864                	addi	s1,sp,28
 bca:	0064                	addi	s1,sp,12
 bcc:	8102                	jr	sp
 bce:	0000550b          	srb	a0,zero,zero,0
 bd2:	0200                	addi	s0,sp,256
 bd4:	5c91                	li	s9,-28
 bd6:	6908                	ld	a0,16(a0)
 bd8:	02006473          	csrrsi	s0,0x20,0
 bdc:	0e81                	addi	t4,t4,0
 bde:	0055                	c.nop	21
 be0:	0000                	unimp
 be2:	9102                	jalr	sp
 be4:	0060                	addi	s0,sp,12
 be6:	080c                	addi	a1,sp,16
 be8:	0055                	c.nop	21
 bea:	0000                	unimp
 bec:	4e06                	lw	t3,64(sp)
 bee:	0002                	c.slli64	zero
 bf0:	0200                	addi	s0,sp,256
 bf2:	0672                	slli	a2,a2,0x1c
 bf4:	0ad8                	addi	a4,sp,340
 bf6:	0002                	c.slli64	zero
 bf8:	0000                	unimp
 bfa:	0000                	unimp
 bfc:	0090                	addi	a2,sp,64
 bfe:	0000                	unimp
 c00:	0000                	unimp
 c02:	0000                	unimp
 c04:	9c01                	subw	s0,s0,s0
 c06:	0000037b          	0x37b
 c0a:	72747307          	0x72747307
 c0e:	0200                	addi	s0,sp,256
 c10:	1d72                	slli	s10,s10,0x3c
 c12:	0000037b          	0x37b
 c16:	9102                	jalr	sp
 c18:	0858                	addi	a4,sp,20
 c1a:	0069                	c.nop	26
 c1c:	7402                	ld	s0,32(sp)
 c1e:	5509                	li	a0,-30
 c20:	0000                	unimp
 c22:	0200                	addi	s0,sp,256
 c24:	6c91                	lui	s9,0x4
 c26:	0c00                	addi	s0,sp,528
 c28:	4808                	lw	a0,16(s0)
 c2a:	0001                	nop
 c2c:	0a00                	addi	s0,sp,272
 c2e:	029d                	addi	t0,t0,7
 c30:	0000                	unimp
 c32:	6a02                	ld	s4,0(sp)
 c34:	4806                	lw	a6,64(sp)
 c36:	0001                	nop
 c38:	7800                	ld	s0,48(s0)
 c3a:	020a                	slli	tp,tp,0x2
 c3c:	0000                	unimp
 c3e:	0000                	unimp
 c40:	6000                	ld	s0,0(s0)
 c42:	0000                	unimp
 c44:	0000                	unimp
 c46:	0000                	unimp
 c48:	0100                	addi	s0,sp,128
 c4a:	b39c                	fsd	fa5,32(a5)
 c4c:	09000003          	lb	zero,144(zero) # 90 <__bin_size-0x6f78>
 c50:	0146                	slli	sp,sp,0x11
 c52:	0000                	unimp
 c54:	6c02                	ld	s8,0(sp)
 c56:	8b11                	andi	a4,a4,4
 c58:	0000                	unimp
 c5a:	0200                	addi	s0,sp,256
 c5c:	6891                	lui	a7,0x4
 c5e:	0a00                	addi	s0,sp,272
 c60:	0290                	addi	a2,sp,320
 c62:	0000                	unimp
 c64:	6402                	ld	s0,0(sp)
 c66:	5505                	li	a0,-31
 c68:	0000                	unimp
 c6a:	3800                	fld	fs0,48(s0)
 c6c:	020a                	slli	tp,tp,0x2
 c6e:	0000                	unimp
 c70:	0000                	unimp
 c72:	4000                	lw	s0,0(s0)
 c74:	0000                	unimp
 c76:	0000                	unimp
 c78:	0000                	unimp
 c7a:	0100                	addi	s0,sp,128
 c7c:	e39c                	sd	a5,0(a5)
 c7e:	07000003          	lb	zero,112(zero) # 70 <__bin_size-0x6f98>
 c82:	64020063          	beqz	tp,12c2 <__bin_size-0x5d46>
 c86:	5511                	li	a0,-28
 c88:	0000                	unimp
 c8a:	0200                	addi	s0,sp,256
 c8c:	6c91                	lui	s9,0x4
 c8e:	0600                	addi	s0,sp,768
 c90:	02d2                	slli	t0,t0,0x14
 c92:	0000                	unimp
 c94:	5c02                	lw	s8,32(sp)
 c96:	c806                	sw	ra,16(sp)
 c98:	0209                	addi	tp,tp,2
 c9a:	0000                	unimp
 c9c:	0000                	unimp
 c9e:	7000                	ld	s0,32(s0)
 ca0:	0000                	unimp
 ca2:	0000                	unimp
 ca4:	0000                	unimp
 ca6:	0100                	addi	s0,sp,128
 ca8:	1e9c                	addi	a5,sp,880
 caa:	0004                	0x4
 cac:	0700                	addi	s0,sp,896
 cae:	5c020063          	beqz	tp,126e <__bin_size-0x5d9a>
 cb2:	4815                	li	a6,5
 cb4:	0001                	nop
 cb6:	0200                	addi	s0,sp,256
 cb8:	5f91                	li	t6,-28
 cba:	4609                	li	a2,2
 cbc:	0001                	nop
 cbe:	0200                	addi	s0,sp,256
 cc0:	115e                	slli	sp,sp,0x37
 cc2:	0000008b          	0x8b
 cc6:	9102                	jalr	sp
 cc8:	0068                	addi	a0,sp,12
 cca:	f406                	sd	ra,40(sp)
 ccc:	0001                	nop
 cce:	0200                	addi	s0,sp,256
 cd0:	061f 077c 0002      	0x2077c061f
 cd6:	0000                	unimp
 cd8:	0000                	unimp
 cda:	024c                	addi	a1,sp,260
 cdc:	0000                	unimp
 cde:	0000                	unimp
 ce0:	0000                	unimp
 ce2:	9c01                	subw	s0,s0,s0
 ce4:	0000045b          	0x45b
 ce8:	4609                	li	a2,2
 cea:	0001                	nop
 cec:	0200                	addi	s0,sp,256
 cee:	1121                	addi	sp,sp,-24
 cf0:	0000008b          	0x8b
 cf4:	9102                	jalr	sp
 cf6:	0868                	addi	a0,sp,28
 cf8:	6176                	ld	sp,344(sp)
 cfa:	006c                	addi	a1,sp,12
 cfc:	2202                	fld	ft4,0(sp)
 cfe:	5c08                	lw	a0,56(s0)
 d00:	0000                	unimp
 d02:	0200                	addi	s0,sp,256
 d04:	6491                	lui	s1,0x4
 d06:	1300                	addi	s0,sp,416
 d08:	02c5                	addi	t0,t0,17
 d0a:	0000                	unimp
 d0c:	2801                	sext.w	a6,a6
 d0e:	4814                	lw	a3,16(s0)
 d10:	00000207          	vle8.v	v4,(zero),v0.t
 d14:	0000                	unimp
 d16:	3400                	fld	fs0,40(s0)
 d18:	0000                	unimp
 d1a:	0000                	unimp
 d1c:	0000                	unimp
 d1e:	0100                	addi	s0,sp,128
 d20:	989c                	0x989c
 d22:	0004                	0x4
 d24:	1400                	addi	s0,sp,544
 d26:	0146                	slli	sp,sp,0x11
 d28:	0000                	unimp
 d2a:	2801                	sext.w	a6,a6
 d2c:	00008b2b          	0x8b2b
 d30:	0200                	addi	s0,sp,256
 d32:	6891                	lui	a7,0x4
 d34:	ee14                	sd	a3,24(a2)
 d36:	0001                	nop
 d38:	0100                	addi	s0,sp,128
 d3a:	3728                	fld	fa0,104(a4)
 d3c:	005c                	addi	a5,sp,4
 d3e:	0000                	unimp
 d40:	9102                	jalr	sp
 d42:	0064                	addi	s1,sp,12
 d44:	0c12                	slli	s8,s8,0x4
 d46:	0002                	c.slli64	zero
 d48:	0100                	addi	s0,sp,128
 d4a:	1514                	addi	a3,sp,672
 d4c:	005c                	addi	a5,sp,4
 d4e:	0000                	unimp
 d50:	071c                	addi	a5,sp,896
 d52:	0002                	c.slli64	zero
 d54:	0000                	unimp
 d56:	0000                	unimp
 d58:	002c                	addi	a1,sp,8
 d5a:	0000                	unimp
 d5c:	0000                	unimp
 d5e:	0000                	unimp
 d60:	9c01                	subw	s0,s0,s0
 d62:	04ca                	slli	s1,s1,0x12
 d64:	0000                	unimp
 d66:	4614                	lw	a3,8(a2)
 d68:	0001                	nop
 d6a:	0100                	addi	s0,sp,128
 d6c:	2b14                	fld	fa3,16(a4)
 d6e:	0000008b          	0x8b
 d72:	9102                	jalr	sp
 d74:	0068                	addi	a0,sp,12
 d76:	f515                	bnez	a0,ca2 <__bin_size-0x6366>
 d78:	0002                	c.slli64	zero
 d7a:	0100                	addi	s0,sp,128
 d7c:	140a                	slli	s0,s0,0x22
 d7e:	0034                	addi	a3,sp,8
 d80:	0000                	unimp
 d82:	06f0                	addi	a2,sp,844
 d84:	0002                	c.slli64	zero
 d86:	0000                	unimp
 d88:	0000                	unimp
 d8a:	002c                	addi	a1,sp,8
 d8c:	0000                	unimp
 d8e:	0000                	unimp
 d90:	0000                	unimp
 d92:	9c01                	subw	s0,s0,s0
 d94:	4614                	lw	a3,8(a2)
 d96:	0001                	nop
 d98:	0100                	addi	s0,sp,128
 d9a:	290a                	fld	fs2,128(sp)
 d9c:	0000008b          	0x8b
 da0:	9102                	jalr	sp
 da2:	0068                	addi	a0,sp,12
 da4:	2a00                	fld	fs0,16(a2)
 da6:	0000                	unimp
 da8:	0200                	addi	s0,sp,256
 daa:	0200                	addi	s0,sp,256
 dac:	0004                	0x4
 dae:	0800                	addi	s0,sp,16
 db0:	6901                	0x6901
 db2:	000d                	c.nop	3
 db4:	0000                	unimp
 db6:	0200                	addi	s0,sp,256
 db8:	0000                	unimp
 dba:	0000                	unimp
 dbc:	4c00                	lw	s0,24(s0)
 dbe:	0200                	addi	s0,sp,256
 dc0:	0000                	unimp
 dc2:	0000                	unimp
 dc4:	0400                	addi	s0,sp,512
 dc6:	13000003          	lb	zero,304(zero) # 130 <__bin_size-0x6ed8>
 dca:	62000003          	lb	zero,1568(zero) # 620 <__bin_size-0x69e8>
 dce:	01000003          	lb	zero,16(zero) # 10 <__bin_size-0x6ff8>
 dd2:	2a80                	fld	fs0,16(a3)
 dd4:	0000                	unimp
 dd6:	0200                	addi	s0,sp,256
 dd8:	1600                	addi	s0,sp,800
 dda:	0004                	0x4
 ddc:	0800                	addi	s0,sp,16
 dde:	ca01                	beqz	a2,dee <__bin_size-0x621a>
 de0:	000d                	c.nop	3
 de2:	3000                	fld	fs0,32(s0)
 de4:	0211                	addi	tp,tp,4
 de6:	0000                	unimp
 de8:	0000                	unimp
 dea:	5c00                	lw	s0,56(s0)
 dec:	0212                	slli	tp,tp,0x4
 dee:	0000                	unimp
 df0:	0000                	unimp
 df2:	6e00                	ld	s0,24(a2)
 df4:	13000003          	lb	zero,304(zero) # 130 <__bin_size-0x6ed8>
 df8:	62000003          	lb	zero,1568(zero) # 620 <__bin_size-0x69e8>
 dfc:	01000003          	lb	zero,16(zero) # 10 <__bin_size-0x6ff8>
 e00:	80              	Address 0x0000000000000e00 is out of bounds.


Disassembly of section .debug_abbrev:

0000000000000000 <.debug_abbrev>:
   0:	1101                	addi	sp,sp,-32
   2:	2501                	sext.w	a0,a0
   4:	130e                	slli	t1,t1,0x23
   6:	1b0e030b          	0x1b0e030b
   a:	110e                	slli	sp,sp,0x23
   c:	1201                	addi	tp,tp,-32
   e:	00171007          	flh	ft0,1(a4) # 18001 <__bin_size+0x10ff9>
  12:	0200                	addi	s0,sp,256
  14:	012e                	slli	sp,sp,0xb
  16:	0e03193f 0b3b0b3a 	0xb3b0b3a0e03193f
  1e:	0b39                	addi	s6,s6,14
  20:	13491927          	fsh	fs4,306(s2) # 1132 <__bin_size-0x5ed6>
  24:	0111                	addi	sp,sp,4
  26:	0712                	slli	a4,a4,0x4
  28:	1840                	addi	s0,sp,52
  2a:	01194297          	auipc	t0,0x1194
  2e:	03000013          	li	zero,48
  32:	0005                	c.nop	1
  34:	0b3a0803          	lb	a6,179(s4)
  38:	0b390b3b          	0xb390b3b
  3c:	1349                	addi	t1,t1,-14
  3e:	1802                	slli	a6,a6,0x20
  40:	0000                	unimp
  42:	3404                	fld	fs1,40(s0)
  44:	0300                	addi	s0,sp,384
  46:	3a08                	fld	fa0,48(a2)
  48:	390b3b0b          	extu	s6,s6,14,16
  4c:	0213490b          	lrb	s2,t1,ra,1
  50:	0018                	0x18
  52:	0500                	addi	s0,sp,640
  54:	0024                	addi	s1,sp,8
  56:	0b3e0b0b          	0xb3e0b0b
  5a:	00000e03          	lb	t3,0(zero) # 0 <__bin_size-0x7008>
  5e:	2e06                	fld	ft8,64(sp)
  60:	3f01                	addiw	t5,t5,-32
  62:	0319                	addi	t1,t1,6
  64:	3a0e                	fld	fs4,224(sp)
  66:	390b3b0b          	extu	s6,s6,14,16
  6a:	1119270b          	ext	a4,s2,4,17
  6e:	1201                	addi	tp,tp,-32
  70:	97184007          	flq	ft0,-1679(a6) # 6971 <__bin_size-0x697>
  74:	1942                	slli	s2,s2,0x30
  76:	1301                	addi	t1,t1,-32
  78:	0000                	unimp
  7a:	03000507          	vle8ff.v	v10,(zero)
  7e:	3a0e                	fld	fs4,224(sp)
  80:	390b3b0b          	extu	s6,s6,14,16
  84:	0213490b          	lrb	s2,t1,ra,1
  88:	0018                	0x18
  8a:	0800                	addi	s0,sp,16
  8c:	0111010b          	0x111010b
  90:	0712                	slli	a4,a4,0x4
  92:	1301                	addi	t1,t1,-32
  94:	0000                	unimp
  96:	0b09                	addi	s6,s6,2
  98:	1101                	addi	sp,sp,-32
  9a:	1201                	addi	tp,tp,-32
  9c:	0a000007          	vlse8.v	v0,(zero),zero
  a0:	0024                	addi	s1,sp,8
  a2:	0b3e0b0b          	0xb3e0b0b
  a6:	00000803          	lb	a6,0(zero) # 0 <__bin_size-0x7008>
  aa:	3f012e0b          	ext	t3,sp,15,48
  ae:	0319                	addi	t1,t1,6
  b0:	3a0e                	fld	fs4,224(sp)
  b2:	390b3b0b          	extu	s6,s6,14,16
  b6:	4919270b          	ext	a4,s2,18,17
  ba:	12011113          	0x12011113
  be:	97184007          	flq	ft0,-1679(a6)
  c2:	1942                	slli	s2,s2,0x30
  c4:	0000                	unimp
  c6:	0100                	addi	s0,sp,128
  c8:	0111                	addi	sp,sp,4
  ca:	0e25                	addi	t3,t3,9
  cc:	0e030b13          	addi	s6,t1,224 # ffffffffffff90e0 <_payload_end+0xfffffffffffd20d8>
  d0:	01110e1b          	addiw	t3,sp,17
  d4:	0712                	slli	a4,a4,0x4
  d6:	1710                	addi	a2,sp,928
  d8:	0000                	unimp
  da:	2402                	fld	fs0,0(sp)
  dc:	0b00                	addi	s0,sp,400
  de:	030b3e0b          	extu	t3,s6,0,48
  e2:	000e                	c.slli	zero,0x3
  e4:	0300                	addi	s0,sp,384
  e6:	012e                	slli	sp,sp,0xb
  e8:	0e03193f 0b3b0b3a 	0xb3b0b3a0e03193f
  f0:	0b39                	addi	s6,s6,14
  f2:	01111927          	fsh	fa7,18(sp)
  f6:	0712                	slli	a4,a4,0x4
  f8:	1840                	addi	s0,sp,52
  fa:	4296                	lw	t0,68(sp)
  fc:	0119                	addi	sp,sp,6
  fe:	04000013          	li	zero,64
 102:	0034                	addi	a3,sp,8
 104:	0b3a0803          	lb	a6,179(s4)
 108:	0b390b3b          	0xb390b3b
 10c:	1349                	addi	t1,t1,-14
 10e:	1802                	slli	a6,a6,0x20
 110:	0000                	unimp
 112:	0b05                	addi	s6,s6,1
 114:	1101                	addi	sp,sp,-32
 116:	1201                	addi	tp,tp,-32
 118:	00130107          	0x130107
 11c:	0600                	addi	s0,sp,768
 11e:	0111010b          	0x111010b
 122:	0712                	slli	a4,a4,0x4
 124:	0000                	unimp
 126:	3f012e07          	flw	ft8,1008(sp)
 12a:	0319                	addi	t1,t1,6
 12c:	3a0e                	fld	fs4,224(sp)
 12e:	390b3b0b          	extu	s6,s6,14,16
 132:	4919270b          	ext	a4,s2,18,17
 136:	12011113          	0x12011113
 13a:	96184007          	flq	ft0,-1695(a6)
 13e:	1942                	slli	s2,s2,0x30
 140:	1301                	addi	t1,t1,-32
 142:	0000                	unimp
 144:	0508                	addi	a0,sp,640
 146:	0300                	addi	s0,sp,384
 148:	3a0e                	fld	fs4,224(sp)
 14a:	390b3b0b          	extu	s6,s6,14,16
 14e:	0213490b          	lrb	s2,t1,ra,1
 152:	0018                	0x18
 154:	0900                	addi	s0,sp,144
 156:	0034                	addi	a3,sp,8
 158:	0b3a0e03          	lb	t3,179(s4)
 15c:	0b390b3b          	0xb390b3b
 160:	1349                	addi	t1,t1,-14
 162:	1802                	slli	a6,a6,0x20
 164:	0000                	unimp
 166:	240a                	fld	fs0,128(sp)
 168:	0b00                	addi	s0,sp,400
 16a:	030b3e0b          	extu	t3,s6,0,48
 16e:	0008                	0x8
 170:	0000                	unimp
 172:	1101                	addi	sp,sp,-32
 174:	2501                	sext.w	a0,a0
 176:	130e                	slli	t1,t1,0x23
 178:	1b0e030b          	0x1b0e030b
 17c:	110e                	slli	sp,sp,0x23
 17e:	1201                	addi	tp,tp,-32
 180:	00171007          	flh	ft0,1(a4)
 184:	0200                	addi	s0,sp,256
 186:	0e030113          	addi	sp,t1,224
 18a:	0b3a050b          	0xb3a050b
 18e:	0b390b3b          	0xb390b3b
 192:	1301                	addi	t1,t1,-32
 194:	0000                	unimp
 196:	03000d03          	lb	s10,48(zero) # 30 <__bin_size-0x6fd8>
 19a:	3a0e                	fld	fs4,224(sp)
 19c:	390b3b0b          	extu	s6,s6,14,16
 1a0:	3813490b          	lhia	s2,(t1),1,0
 1a4:	0400000b          	sfence.vmas	zero,zero
 1a8:	000d                	c.nop	3
 1aa:	0b3a0803          	lb	a6,179(s4)
 1ae:	0b390b3b          	0xb390b3b
 1b2:	1349                	addi	t1,t1,-14
 1b4:	0b38                	addi	a4,sp,408
 1b6:	0000                	unimp
 1b8:	0d05                	addi	s10,s10,1
 1ba:	0300                	addi	s0,sp,384
 1bc:	3a0e                	fld	fs4,224(sp)
 1be:	390b3b0b          	extu	s6,s6,14,16
 1c2:	3813490b          	lhia	s2,(t1),1,0
 1c6:	0005                	c.nop	1
 1c8:	0600                	addi	s0,sp,768
 1ca:	0024                	addi	s1,sp,8
 1cc:	0b3e0b0b          	0xb3e0b0b
 1d0:	00000e03          	lb	t3,0(zero) # 0 <__bin_size-0x7008>
 1d4:	3f012e07          	flw	ft8,1008(sp)
 1d8:	0319                	addi	t1,t1,6
 1da:	3a0e                	fld	fs4,224(sp)
 1dc:	390b3b0b          	extu	s6,s6,14,16
 1e0:	1119270b          	ext	a4,s2,4,17
 1e4:	1201                	addi	tp,tp,-32
 1e6:	97184007          	flq	ft0,-1679(a6)
 1ea:	1942                	slli	s2,s2,0x30
 1ec:	1301                	addi	t1,t1,-32
 1ee:	0000                	unimp
 1f0:	0b08                	addi	a0,sp,400
 1f2:	1101                	addi	sp,sp,-32
 1f4:	1201                	addi	tp,tp,-32
 1f6:	00130107          	0x130107
 1fa:	0900                	addi	s0,sp,144
 1fc:	0034                	addi	a3,sp,8
 1fe:	0b3a0803          	lb	a6,179(s4)
 202:	0b390b3b          	0xb390b3b
 206:	1349                	addi	t1,t1,-14
 208:	1802                	slli	a6,a6,0x20
 20a:	0000                	unimp
 20c:	0b0a                	slli	s6,s6,0x2
 20e:	1101                	addi	sp,sp,-32
 210:	1201                	addi	tp,tp,-32
 212:	0b000007          	vlse8.v	v0,(zero),a6
 216:	012e                	slli	sp,sp,0xb
 218:	0e03193f 0b3b0b3a 	0xb3b0b3a0e03193f
 220:	0b39                	addi	s6,s6,14
 222:	01111927          	fsh	fa7,18(sp)
 226:	0712                	slli	a4,a4,0x4
 228:	1840                	addi	s0,sp,52
 22a:	4296                	lw	t0,68(sp)
 22c:	0119                	addi	sp,sp,6
 22e:	0c000013          	li	zero,192
 232:	0005                	c.nop	1
 234:	0b3a0e03          	lb	t3,179(s4)
 238:	0b390b3b          	0xb390b3b
 23c:	1349                	addi	t1,t1,-14
 23e:	1802                	slli	a6,a6,0x20
 240:	0000                	unimp
 242:	340d                	addiw	s0,s0,-29
 244:	0300                	addi	s0,sp,384
 246:	3a0e                	fld	fs4,224(sp)
 248:	390b3b0b          	extu	s6,s6,14,16
 24c:	0213490b          	lrb	s2,t1,ra,1
 250:	0018                	0x18
 252:	0e00                	addi	s0,sp,784
 254:	0b0b000f          	0xb0b000f
 258:	1349                	addi	t1,t1,-14
 25a:	0000                	unimp
 25c:	03012e0f          	0x3012e0f
 260:	3a0e                	fld	fs4,224(sp)
 262:	390b3b0b          	extu	s6,s6,14,16
 266:	4919270b          	ext	a4,s2,18,17
 26a:	12011113          	0x12011113
 26e:	96184007          	flq	ft0,-1695(a6)
 272:	1942                	slli	s2,s2,0x30
 274:	1301                	addi	t1,t1,-32
 276:	0000                	unimp
 278:	0510                	addi	a2,sp,640
 27a:	0300                	addi	s0,sp,384
 27c:	3a08                	fld	fa0,48(a2)
 27e:	390b3b0b          	extu	s6,s6,14,16
 282:	0213490b          	lrb	s2,t1,ra,1
 286:	0018                	0x18
 288:	1100                	addi	s0,sp,160
 28a:	0024                	addi	s1,sp,8
 28c:	0b3e0b0b          	0xb3e0b0b
 290:	00000803          	lb	a6,0(zero) # 0 <__bin_size-0x7008>
 294:	0100                	addi	s0,sp,128
 296:	0111                	addi	sp,sp,4
 298:	0e25                	addi	t3,t3,9
 29a:	0e030b13          	addi	s6,t1,224
 29e:	01110e1b          	addiw	t3,sp,17
 2a2:	0712                	slli	a4,a4,0x4
 2a4:	1710                	addi	a2,sp,928
 2a6:	0000                	unimp
 2a8:	2402                	fld	fs0,0(sp)
 2aa:	0b00                	addi	s0,sp,400
 2ac:	030b3e0b          	extu	t3,s6,0,48
 2b0:	000e                	c.slli	zero,0x3
 2b2:	0300                	addi	s0,sp,384
 2b4:	0016                	c.slli	zero,0x5
 2b6:	0b3a0e03          	lb	t3,179(s4)
 2ba:	0b390b3b          	0xb390b3b
 2be:	1349                	addi	t1,t1,-14
 2c0:	0000                	unimp
 2c2:	2404                	fld	fs1,8(s0)
 2c4:	0b00                	addi	s0,sp,400
 2c6:	030b3e0b          	extu	t3,s6,0,48
 2ca:	0008                	0x8
 2cc:	0500                	addi	s0,sp,640
 2ce:	0b0b000f          	0xb0b000f
 2d2:	00000e03          	lb	t3,0(zero) # 0 <__bin_size-0x7008>
 2d6:	2e06                	fld	ft8,64(sp)
 2d8:	3f01                	addiw	t5,t5,-32
 2da:	0319                	addi	t1,t1,6
 2dc:	3a0e                	fld	fs4,224(sp)
 2de:	390b3b0b          	extu	s6,s6,14,16
 2e2:	1119270b          	ext	a4,s2,4,17
 2e6:	1201                	addi	tp,tp,-32
 2e8:	96184007          	flq	ft0,-1695(a6)
 2ec:	1942                	slli	s2,s2,0x30
 2ee:	1301                	addi	t1,t1,-32
 2f0:	0000                	unimp
 2f2:	03000507          	vle8ff.v	v10,(zero)
 2f6:	3a08                	fld	fa0,48(a2)
 2f8:	390b3b0b          	extu	s6,s6,14,16
 2fc:	0213490b          	lrb	s2,t1,ra,1
 300:	0018                	0x18
 302:	0800                	addi	s0,sp,16
 304:	0034                	addi	a3,sp,8
 306:	0b3a0803          	lb	a6,179(s4)
 30a:	0b390b3b          	0xb390b3b
 30e:	1349                	addi	t1,t1,-14
 310:	1802                	slli	a6,a6,0x20
 312:	0000                	unimp
 314:	3409                	addiw	s0,s0,-30
 316:	0300                	addi	s0,sp,384
 318:	3a0e                	fld	fs4,224(sp)
 31a:	390b3b0b          	extu	s6,s6,14,16
 31e:	0213490b          	lrb	s2,t1,ra,1
 322:	0018                	0x18
 324:	0a00                	addi	s0,sp,272
 326:	012e                	slli	sp,sp,0xb
 328:	0e03193f 0b3b0b3a 	0xb3b0b3a0e03193f
 330:	0b39                	addi	s6,s6,14
 332:	13491927          	fsh	fs4,306(s2)
 336:	0111                	addi	sp,sp,4
 338:	0712                	slli	a4,a4,0x4
 33a:	1840                	addi	s0,sp,52
 33c:	4296                	lw	t0,68(sp)
 33e:	0119                	addi	sp,sp,6
 340:	0b000013          	li	zero,176
 344:	0018                	0x18
 346:	0000                	unimp
 348:	0f0c                	addi	a1,sp,912
 34a:	0b00                	addi	s0,sp,400
 34c:	0013490b          	lrb	s2,t1,ra,0
 350:	0d00                	addi	s0,sp,656
 352:	0026                	c.slli	zero,0x9
 354:	1349                	addi	t1,t1,-14
 356:	0000                	unimp
 358:	2e0e                	fld	ft8,192(sp)
 35a:	0301                	addi	t1,t1,0
 35c:	3a08                	fld	fa0,48(a2)
 35e:	390b3b0b          	extu	s6,s6,14,16
 362:	4919270b          	ext	a4,s2,18,17
 366:	12011113          	0x12011113
 36a:	96184007          	flq	ft0,-1695(a6)
 36e:	1942                	slli	s2,s2,0x30
 370:	1301                	addi	t1,t1,-32
 372:	0000                	unimp
 374:	03012e0f          	0x3012e0f
 378:	3a0e                	fld	fs4,224(sp)
 37a:	390b3b0b          	extu	s6,s6,14,16
 37e:	1119270b          	ext	a4,s2,4,17
 382:	1201                	addi	tp,tp,-32
 384:	96184007          	flq	ft0,-1695(a6)
 388:	1942                	slli	s2,s2,0x30
 38a:	1301                	addi	t1,t1,-32
 38c:	0000                	unimp
 38e:	0110                	addi	a2,sp,128
 390:	4901                	li	s2,0
 392:	00130113          	addi	sp,t1,1
 396:	1100                	addi	s0,sp,160
 398:	0021                	c.nop	8
 39a:	1349                	addi	t1,t1,-14
 39c:	00000b2f          	vamoaddei8.v	zero,(zero),v0,v22,v0.t
 3a0:	2e12                	fld	ft8,256(sp)
 3a2:	0301                	addi	t1,t1,0
 3a4:	3a0e                	fld	fs4,224(sp)
 3a6:	390b3b0b          	extu	s6,s6,14,16
 3aa:	4919270b          	ext	a4,s2,18,17
 3ae:	12011113          	0x12011113
 3b2:	97184007          	flq	ft0,-1679(a6)
 3b6:	1942                	slli	s2,s2,0x30
 3b8:	1301                	addi	t1,t1,-32
 3ba:	0000                	unimp
 3bc:	03012e13          	slti	t3,sp,48
 3c0:	3a0e                	fld	fs4,224(sp)
 3c2:	390b3b0b          	extu	s6,s6,14,16
 3c6:	1119270b          	ext	a4,s2,4,17
 3ca:	1201                	addi	tp,tp,-32
 3cc:	97184007          	flq	ft0,-1679(a6)
 3d0:	1942                	slli	s2,s2,0x30
 3d2:	1301                	addi	t1,t1,-32
 3d4:	0000                	unimp
 3d6:	0514                	addi	a3,sp,640
 3d8:	0300                	addi	s0,sp,384
 3da:	3a0e                	fld	fs4,224(sp)
 3dc:	390b3b0b          	extu	s6,s6,14,16
 3e0:	0213490b          	lrb	s2,t1,ra,1
 3e4:	0018                	0x18
 3e6:	1500                	addi	s0,sp,672
 3e8:	012e                	slli	sp,sp,0xb
 3ea:	0b3a0e03          	lb	t3,179(s4)
 3ee:	0b390b3b          	0xb390b3b
 3f2:	13491927          	fsh	fs4,306(s2)
 3f6:	0111                	addi	sp,sp,4
 3f8:	0712                	slli	a4,a4,0x4
 3fa:	1840                	addi	s0,sp,52
 3fc:	00194297          	auipc	t0,0x194
 400:	0000                	unimp
 402:	1101                	addi	sp,sp,-32
 404:	1000                	addi	s0,sp,32
 406:	1106                	slli	sp,sp,0x21
 408:	1201                	addi	tp,tp,-32
 40a:	0301                	addi	t1,t1,0
 40c:	1b0e                	slli	s6,s6,0x23
 40e:	250e                	fld	fa0,192(sp)
 410:	130e                	slli	t1,t1,0x23
 412:	0005                	c.nop	1
 414:	0000                	unimp
 416:	1101                	addi	sp,sp,-32
 418:	1000                	addi	s0,sp,32
 41a:	1106                	slli	sp,sp,0x21
 41c:	1201                	addi	tp,tp,-32
 41e:	0301                	addi	t1,t1,0
 420:	1b0e                	slli	s6,s6,0x23
 422:	250e                	fld	fa0,192(sp)
 424:	130e                	slli	t1,t1,0x23
 426:	0005                	c.nop	1
	...

Disassembly of section .debug_aranges:

0000000000000000 <.debug_aranges>:
   0:	002c                	addi	a1,sp,8
   2:	0000                	unimp
   4:	0002                	c.slli64	zero
   6:	0000                	unimp
   8:	0000                	unimp
   a:	0008                	0x8
   c:	0000                	unimp
   e:	0000                	unimp
  10:	0050                	addi	a2,sp,4
  12:	0002                	c.slli64	zero
  14:	0000                	unimp
  16:	0000                	unimp
  18:	02bc                	addi	a5,sp,328
	...
  2e:	0000                	unimp
  30:	002c                	addi	a1,sp,8
  32:	0000                	unimp
  34:	0002                	c.slli64	zero
  36:	00000383          	lb	t2,0(zero) # 0 <__bin_size-0x7008>
  3a:	0008                	0x8
  3c:	0000                	unimp
  3e:	0000                	unimp
  40:	030c                	addi	a1,sp,384
  42:	0002                	c.slli64	zero
  44:	0000                	unimp
  46:	0000                	unimp
  48:	02b0                	addi	a2,sp,328
	...
  5e:	0000                	unimp
  60:	002c                	addi	a1,sp,8
  62:	0000                	unimp
  64:	0002                	c.slli64	zero
  66:	000005a3          	sb	zero,11(zero) # b <__bin_size-0x6ffd>
  6a:	0008                	0x8
  6c:	0000                	unimp
  6e:	0000                	unimp
  70:	05bc                	addi	a5,sp,712
  72:	0002                	c.slli64	zero
  74:	0000                	unimp
  76:	0000                	unimp
  78:	0134                	addi	a3,sp,136
	...
  8e:	0000                	unimp
  90:	002c                	addi	a1,sp,8
  92:	0000                	unimp
  94:	0002                	c.slli64	zero
  96:	08ac                	addi	a1,sp,88
  98:	0000                	unimp
  9a:	0008                	0x8
  9c:	0000                	unimp
  9e:	0000                	unimp
  a0:	06f0                	addi	a2,sp,844
  a2:	0002                	c.slli64	zero
  a4:	0000                	unimp
  a6:	0000                	unimp
  a8:	0a40                	addi	s0,sp,276
	...
  be:	0000                	unimp
  c0:	002c                	addi	a1,sp,8
  c2:	0000                	unimp
  c4:	0002                	c.slli64	zero
  c6:	0da5                	addi	s11,s11,9
  c8:	0000                	unimp
  ca:	0008                	0x8
  cc:	0000                	unimp
  ce:	0000                	unimp
  d0:	0000                	unimp
  d2:	0002                	c.slli64	zero
  d4:	0000                	unimp
  d6:	0000                	unimp
  d8:	004c                	addi	a1,sp,4
	...
  ee:	0000                	unimp
  f0:	002c                	addi	a1,sp,8
  f2:	0000                	unimp
  f4:	0002                	c.slli64	zero
  f6:	00000dd3          	fadd.s	fs11,ft0,ft0,rne
  fa:	0008                	0x8
  fc:	0000                	unimp
  fe:	0000                	unimp
 100:	1130                	addi	a2,sp,168
 102:	0002                	c.slli64	zero
 104:	0000                	unimp
 106:	0000                	unimp
 108:	012c                	addi	a1,sp,136
	...

Disassembly of section .debug_line:

0000000000000000 <.debug_line>:
   0:	02b4                	addi	a3,sp,328
   2:	0000                	unimp
   4:	00240003          	lb	zero,2(s0) # 1a002 <__bin_size+0x12ffa>
   8:	0000                	unimp
   a:	0101                	addi	sp,sp,0
   c:	000d0efb          	0xd0efb
  10:	0101                	addi	sp,sp,0
  12:	0101                	addi	sp,sp,0
  14:	0000                	unimp
  16:	0100                	addi	s0,sp,128
  18:	0000                	unimp
  1a:	7301                	lui	t1,0xfffe0
  1c:	6962                	ld	s2,24(sp)
  1e:	0000                	unimp
  20:	5f696273          	csrrsi	tp,shpmcounter22,18
  24:	696c                	ld	a1,208(a0)
  26:	2e62                	fld	ft8,24(sp)
  28:	00010063          	beqz	sp,28 <__bin_size-0x6fe0>
  2c:	0000                	unimp
  2e:	0105                	addi	sp,sp,1
  30:	0900                	addi	s0,sp,144
  32:	5002                	0x5002
  34:	0200                	addi	s0,sp,256
  36:	0000                	unimp
  38:	0000                	unimp
  3a:	1800                	addi	s0,sp,48
  3c:	1005                	c.nop	-31
  3e:	18090103          	lb	sp,384(s2)
  42:	0100                	addi	s0,sp,128
  44:	2805                	addiw	a6,a6,1
  46:	48090403          	lb	s0,1152(s2)
  4a:	0100                	addi	s0,sp,128
  4c:	6e05                	lui	t3,0x1
  4e:	08090003          	lb	zero,128(s2)
  52:	0100                	addi	s0,sp,128
  54:	0705                	addi	a4,a4,1
  56:	04090003          	lb	zero,64(s2)
  5a:	0100                	addi	s0,sp,128
  5c:	0305                	addi	t1,t1,1
  5e:	04090103          	lb	sp,64(s2)
  62:	0100                	addi	s0,sp,128
  64:	2805                	addiw	a6,a6,1
  66:	04090203          	lb	tp,64(s2)
  6a:	0100                	addi	s0,sp,128
  6c:	6e05                	lui	t3,0x1
  6e:	08090003          	lb	zero,128(s2)
  72:	0100                	addi	s0,sp,128
  74:	0705                	addi	a4,a4,1
  76:	04090003          	lb	zero,64(s2)
  7a:	0100                	addi	s0,sp,128
  7c:	0305                	addi	t1,t1,1
  7e:	04090103          	lb	sp,64(s2)
  82:	0100                	addi	s0,sp,128
  84:	2805                	addiw	a6,a6,1
  86:	04090203          	lb	tp,64(s2)
  8a:	0100                	addi	s0,sp,128
  8c:	6e05                	lui	t3,0x1
  8e:	08090003          	lb	zero,128(s2)
  92:	0100                	addi	s0,sp,128
  94:	0705                	addi	a4,a4,1
  96:	04090003          	lb	zero,64(s2)
  9a:	0100                	addi	s0,sp,128
  9c:	0305                	addi	t1,t1,1
  9e:	04090103          	lb	sp,64(s2)
  a2:	0100                	addi	s0,sp,128
  a4:	2805                	addiw	a6,a6,1
  a6:	04090203          	lb	tp,64(s2)
  aa:	0100                	addi	s0,sp,128
  ac:	6e05                	lui	t3,0x1
  ae:	08090003          	lb	zero,128(s2)
  b2:	0100                	addi	s0,sp,128
  b4:	0705                	addi	a4,a4,1
  b6:	04090003          	lb	zero,64(s2)
  ba:	0100                	addi	s0,sp,128
  bc:	0305                	addi	t1,t1,1
  be:	04090103          	lb	sp,64(s2)
  c2:	0100                	addi	s0,sp,128
  c4:	2805                	addiw	a6,a6,1
  c6:	04090203          	lb	tp,64(s2)
  ca:	0100                	addi	s0,sp,128
  cc:	6e05                	lui	t3,0x1
  ce:	08090003          	lb	zero,128(s2)
  d2:	0100                	addi	s0,sp,128
  d4:	0705                	addi	a4,a4,1
  d6:	04090003          	lb	zero,64(s2)
  da:	0100                	addi	s0,sp,128
  dc:	0305                	addi	t1,t1,1
  de:	04090103          	lb	sp,64(s2)
  e2:	0100                	addi	s0,sp,128
  e4:	2805                	addiw	a6,a6,1
  e6:	04090203          	lb	tp,64(s2)
  ea:	0100                	addi	s0,sp,128
  ec:	6e05                	lui	t3,0x1
  ee:	08090003          	lb	zero,128(s2)
  f2:	0100                	addi	s0,sp,128
  f4:	0705                	addi	a4,a4,1
  f6:	04090003          	lb	zero,64(s2)
  fa:	0100                	addi	s0,sp,128
  fc:	0305                	addi	t1,t1,1
  fe:	04090103          	lb	sp,64(s2)
 102:	0100                	addi	s0,sp,128
 104:	2805                	addiw	a6,a6,1
 106:	04090203          	lb	tp,64(s2)
 10a:	0100                	addi	s0,sp,128
 10c:	6e05                	lui	t3,0x1
 10e:	08090003          	lb	zero,128(s2)
 112:	0100                	addi	s0,sp,128
 114:	0705                	addi	a4,a4,1
 116:	04090003          	lb	zero,64(s2)
 11a:	0100                	addi	s0,sp,128
 11c:	0305                	addi	t1,t1,1
 11e:	04090103          	lb	sp,64(s2)
 122:	0100                	addi	s0,sp,128
 124:	2805                	addiw	a6,a6,1
 126:	04090203          	lb	tp,64(s2)
 12a:	0100                	addi	s0,sp,128
 12c:	6e05                	lui	t3,0x1
 12e:	08090003          	lb	zero,128(s2)
 132:	0100                	addi	s0,sp,128
 134:	0705                	addi	a4,a4,1
 136:	04090003          	lb	zero,64(s2)
 13a:	0100                	addi	s0,sp,128
 13c:	0305                	addi	t1,t1,1
 13e:	04090103          	lb	sp,64(s2)
 142:	0100                	addi	s0,sp,128
 144:	2805                	addiw	a6,a6,1
 146:	04090203          	lb	tp,64(s2)
 14a:	0100                	addi	s0,sp,128
 14c:	6e05                	lui	t3,0x1
 14e:	08090003          	lb	zero,128(s2)
 152:	0100                	addi	s0,sp,128
 154:	0705                	addi	a4,a4,1
 156:	04090003          	lb	zero,64(s2)
 15a:	0100                	addi	s0,sp,128
 15c:	0305                	addi	t1,t1,1
 15e:	04090103          	lb	sp,64(s2)
 162:	0100                	addi	s0,sp,128
 164:	04090203          	lb	tp,64(s2)
 168:	0100                	addi	s0,sp,128
 16a:	0905                	addi	s2,s2,1
 16c:	04090303          	lb	t1,64(s2)
 170:	0100                	addi	s0,sp,128
 172:	0105                	addi	sp,sp,1
 174:	04090103          	lb	sp,64(s2)
 178:	0100                	addi	s0,sp,128
 17a:	14090303          	lb	t1,320(s2)
 17e:	0100                	addi	s0,sp,128
 180:	1405                	addi	s0,s0,-31
 182:	5c090303          	lb	t1,1472(s2)
 186:	0100                	addi	s0,sp,128
 188:	3005                	0x3005
 18a:	08090003          	lb	zero,128(s2)
 18e:	0100                	addi	s0,sp,128
 190:	0305                	addi	t1,t1,1
 192:	08090103          	lb	sp,128(s2)
 196:	0100                	addi	s0,sp,128
 198:	1405                	addi	s0,s0,-31
 19a:	04090203          	lb	tp,64(s2)
 19e:	0100                	addi	s0,sp,128
 1a0:	3005                	0x3005
 1a2:	08090003          	lb	zero,128(s2)
 1a6:	0100                	addi	s0,sp,128
 1a8:	0305                	addi	t1,t1,1
 1aa:	08090103          	lb	sp,128(s2)
 1ae:	0100                	addi	s0,sp,128
 1b0:	1405                	addi	s0,s0,-31
 1b2:	04090203          	lb	tp,64(s2)
 1b6:	0100                	addi	s0,sp,128
 1b8:	3005                	0x3005
 1ba:	08090003          	lb	zero,128(s2)
 1be:	0100                	addi	s0,sp,128
 1c0:	0305                	addi	t1,t1,1
 1c2:	08090103          	lb	sp,128(s2)
 1c6:	0100                	addi	s0,sp,128
 1c8:	1405                	addi	s0,s0,-31
 1ca:	04090203          	lb	tp,64(s2)
 1ce:	0100                	addi	s0,sp,128
 1d0:	3005                	0x3005
 1d2:	08090003          	lb	zero,128(s2)
 1d6:	0100                	addi	s0,sp,128
 1d8:	0305                	addi	t1,t1,1
 1da:	08090103          	lb	sp,128(s2)
 1de:	0100                	addi	s0,sp,128
 1e0:	1405                	addi	s0,s0,-31
 1e2:	04090203          	lb	tp,64(s2)
 1e6:	0100                	addi	s0,sp,128
 1e8:	3005                	0x3005
 1ea:	08090003          	lb	zero,128(s2)
 1ee:	0100                	addi	s0,sp,128
 1f0:	0305                	addi	t1,t1,1
 1f2:	08090103          	lb	sp,128(s2)
 1f6:	0100                	addi	s0,sp,128
 1f8:	1405                	addi	s0,s0,-31
 1fa:	04090203          	lb	tp,64(s2)
 1fe:	0100                	addi	s0,sp,128
 200:	3005                	0x3005
 202:	08090003          	lb	zero,128(s2)
 206:	0100                	addi	s0,sp,128
 208:	0305                	addi	t1,t1,1
 20a:	08090103          	lb	sp,128(s2)
 20e:	0100                	addi	s0,sp,128
 210:	1405                	addi	s0,s0,-31
 212:	04090203          	lb	tp,64(s2)
 216:	0100                	addi	s0,sp,128
 218:	3005                	0x3005
 21a:	08090003          	lb	zero,128(s2)
 21e:	0100                	addi	s0,sp,128
 220:	0305                	addi	t1,t1,1
 222:	08090103          	lb	sp,128(s2)
 226:	0100                	addi	s0,sp,128
 228:	1405                	addi	s0,s0,-31
 22a:	04090203          	lb	tp,64(s2)
 22e:	0100                	addi	s0,sp,128
 230:	3005                	0x3005
 232:	08090003          	lb	zero,128(s2)
 236:	0100                	addi	s0,sp,128
 238:	0305                	addi	t1,t1,1
 23a:	08090103          	lb	sp,128(s2)
 23e:	0100                	addi	s0,sp,128
 240:	1405                	addi	s0,s0,-31
 242:	04090203          	lb	tp,64(s2)
 246:	0100                	addi	s0,sp,128
 248:	3005                	0x3005
 24a:	08090003          	lb	zero,128(s2)
 24e:	0100                	addi	s0,sp,128
 250:	0305                	addi	t1,t1,1
 252:	08090103          	lb	sp,128(s2)
 256:	0100                	addi	s0,sp,128
 258:	04090203          	lb	tp,64(s2)
 25c:	0100                	addi	s0,sp,128
 25e:	0105                	addi	sp,sp,1
 260:	04090203          	lb	tp,64(s2)
 264:	0100                	addi	s0,sp,128
 266:	10090303          	lb	t1,256(s2)
 26a:	0100                	addi	s0,sp,128
 26c:	1005                	c.nop	-31
 26e:	10090103          	lb	sp,256(s2)
 272:	0100                	addi	s0,sp,128
 274:	0805                	addi	a6,a6,1
 276:	04090203          	lb	tp,64(s2)
 27a:	0100                	addi	s0,sp,128
 27c:	1105                	addi	sp,sp,-31
 27e:	04090103          	lb	sp,64(s2)
 282:	0100                	addi	s0,sp,128
 284:	0605                	addi	a2,a2,1
 286:	14090003          	lb	zero,320(s2)
 28a:	0100                	addi	s0,sp,128
 28c:	08090203          	lb	tp,128(s2)
 290:	0100                	addi	s0,sp,128
 292:	0805                	addi	a6,a6,1
 294:	0c097d03          	0xc097d03
 298:	0100                	addi	s0,sp,128
 29a:	0405                	addi	s0,s0,1
 29c:	10090203          	lb	tp,256(s2)
 2a0:	0100                	addi	s0,sp,128
 2a2:	0905                	addi	s2,s2,1
 2a4:	04090403          	lb	s0,64(s2)
 2a8:	0100                	addi	s0,sp,128
 2aa:	0105                	addi	sp,sp,1
 2ac:	04090103          	lb	sp,64(s2)
 2b0:	0100                	addi	s0,sp,128
 2b2:	1009                	c.nop	-30
 2b4:	0000                	unimp
 2b6:	0101                	addi	sp,sp,0
 2b8:	0251                	addi	tp,tp,20
 2ba:	0000                	unimp
 2bc:	00250003          	lb	zero,2(a0)
 2c0:	0000                	unimp
 2c2:	0101                	addi	sp,sp,0
 2c4:	000d0efb          	0xd0efb
 2c8:	0101                	addi	sp,sp,0
 2ca:	0101                	addi	sp,sp,0
 2cc:	0000                	unimp
 2ce:	0100                	addi	s0,sp,128
 2d0:	0000                	unimp
 2d2:	7301                	lui	t1,0xfffe0
 2d4:	6962                	ld	s2,24(sp)
 2d6:	0000                	unimp
 2d8:	5f696273          	csrrsi	tp,shpmcounter22,18
 2dc:	616d                	addi	sp,sp,240
 2de:	6e69                	lui	t3,0x1a
 2e0:	632e                	ld	t1,200(sp)
 2e2:	0100                	addi	s0,sp,128
 2e4:	0000                	unimp
 2e6:	0500                	addi	s0,sp,640
 2e8:	0001                	nop
 2ea:	0209                	addi	tp,tp,2
 2ec:	030c                	addi	a1,sp,384
 2ee:	0002                	c.slli64	zero
 2f0:	0000                	unimp
 2f2:	0000                	unimp
 2f4:	05010e03          	lb	t3,80(sp)
 2f8:	0305                	addi	t1,t1,1
 2fa:	0906                	slli	s2,s2,0x1
 2fc:	0024                	addi	s1,sp,8
 2fe:	0501                	addi	a0,a0,0
 300:	030a                	slli	t1,t1,0x2
 302:	0901                	addi	s2,s2,0
 304:	0010                	0x10
 306:	0301                	addi	t1,t1,0
 308:	0902                	c.slli64	s2
 30a:	0008                	0x8
 30c:	0501                	addi	a0,a0,0
 30e:	0308                	addi	a0,sp,384
 310:	0900                	addi	s0,sp,144
 312:	000c                	0xc
 314:	0501                	addi	a0,a0,0
 316:	0305                	addi	t1,t1,1
 318:	0901                	addi	s2,s2,0
 31a:	0004                	0x4
 31c:	0501                	addi	a0,a0,0
 31e:	030a                	slli	t1,t1,0x2
 320:	0901                	addi	s2,s2,0
 322:	0010                	0x10
 324:	0301                	addi	t1,t1,0
 326:	0902                	c.slli64	s2
 328:	0008                	0x8
 32a:	0501                	addi	a0,a0,0
 32c:	0321                	addi	t1,t1,8
 32e:	000c0903          	lb	s2,0(s8) # fffffffffffe2000 <_payload_end+0xfffffffffffbaff8>
 332:	0501                	addi	a0,a0,0
 334:	0316                	slli	t1,t1,0x5
 336:	0900                	addi	s0,sp,144
 338:	000c                	0xc
 33a:	0501                	addi	a0,a0,0
 33c:	030d                	addi	t1,t1,3
 33e:	0900                	addi	s0,sp,144
 340:	0008                	0x8
 342:	0501                	addi	a0,a0,0
 344:	031f 0901 0008      	0x80901031f
 34a:	0501                	addi	a0,a0,0
 34c:	0900030f          	0x900030f
 350:	000c                	0xc
 352:	0501                	addi	a0,a0,0
 354:	030e                	slli	t1,t1,0x3
 356:	0902                	c.slli64	s2
 358:	0008                	0x8
 35a:	0501                	addi	a0,a0,0
 35c:	09030307          	vlse8.v	v6,(t1),a6,v0.t
 360:	000c                	0xc
 362:	0501                	addi	a0,a0,0
 364:	0320                	addi	s0,sp,392
 366:	0901                	addi	s2,s2,0
 368:	000c                	0xc
 36a:	0001                	nop
 36c:	0402                	c.slli64	s0
 36e:	0601                	addi	a2,a2,0
 370:	10090003          	lb	zero,256(s2)
 374:	0100                	addi	s0,sp,128
 376:	0200                	addi	s0,sp,256
 378:	0204                	addi	s1,sp,256
 37a:	08090003          	lb	zero,128(s2)
 37e:	0100                	addi	s0,sp,128
 380:	0705                	addi	a4,a4,1
 382:	0200                	addi	s0,sp,256
 384:	0404                	addi	s1,sp,512
 386:	0306                	slli	t1,t1,0x1
 388:	0900                	addi	s0,sp,144
 38a:	0004                	0x4
 38c:	0501                	addi	a0,a0,0
 38e:	0015                	c.nop	5
 390:	0402                	c.slli64	s0
 392:	0304                	addi	s1,sp,384
 394:	000c0903          	lb	s2,0(s8)
 398:	0501                	addi	a0,a0,0
 39a:	000a                	c.slli	zero,0x2
 39c:	0402                	c.slli64	s0
 39e:	0304                	addi	s1,sp,384
 3a0:	0900                	addi	s0,sp,144
 3a2:	000c                	0xc
 3a4:	0501                	addi	a0,a0,0
 3a6:	000c                	0xc
 3a8:	0402                	c.slli64	s0
 3aa:	0304                	addi	s1,sp,384
 3ac:	0901                	addi	s2,s2,0
 3ae:	0008                	0x8
 3b0:	0501                	addi	a0,a0,0
 3b2:	0009                	c.nop	2
 3b4:	0402                	c.slli64	s0
 3b6:	0304                	addi	s1,sp,384
 3b8:	0900                	addi	s0,sp,144
 3ba:	0010                	0x10
 3bc:	0501                	addi	a0,a0,0
 3be:	04020013          	addi	zero,tp,64 # 40 <__bin_size-0x6fc8>
 3c2:	0304                	addi	s1,sp,384
 3c4:	0901                	addi	s2,s2,0
 3c6:	000c                	0xc
 3c8:	0501                	addi	a0,a0,0
 3ca:	0026                	c.slli	zero,0x9
 3cc:	0402                	c.slli64	s0
 3ce:	0304                	addi	s1,sp,384
 3d0:	0900                	addi	s0,sp,144
 3d2:	000c                	0xc
 3d4:	0501                	addi	a0,a0,0
 3d6:	0024                	addi	s1,sp,8
 3d8:	0402                	c.slli64	s0
 3da:	0304                	addi	s1,sp,384
 3dc:	0900                	addi	s0,sp,144
 3de:	0008                	0x8
 3e0:	0501                	addi	a0,a0,0
 3e2:	0009                	c.nop	2
 3e4:	0402                	c.slli64	s0
 3e6:	0304                	addi	s1,sp,384
 3e8:	0900                	addi	s0,sp,144
 3ea:	0004                	0x4
 3ec:	0501                	addi	a0,a0,0
 3ee:	0005                	c.nop	1
 3f0:	0402                	c.slli64	s0
 3f2:	0304                	addi	s1,sp,384
 3f4:	000c0907          	vle8.v	v18,(s8),v0.t
 3f8:	0501                	addi	a0,a0,0
 3fa:	0306                	slli	t1,t1,0x1
 3fc:	0902                	c.slli64	s2
 3fe:	0010                	0x10
 400:	0501                	addi	a0,a0,0
 402:	030c                	addi	a1,sp,384
 404:	0901                	addi	s2,s2,0
 406:	0010                	0x10
 408:	0501                	addi	a0,a0,0
 40a:	031e                	slli	t1,t1,0x7
 40c:	000c0907          	vle8.v	v18,(s8),v0.t
 410:	0501                	addi	a0,a0,0
 412:	0314                	addi	a3,sp,384
 414:	0900                	addi	s0,sp,144
 416:	000c                	0xc
 418:	0501                	addi	a0,a0,0
 41a:	030d                	addi	t1,t1,3
 41c:	0900                	addi	s0,sp,144
 41e:	000c                	0xc
 420:	0501                	addi	a0,a0,0
 422:	0901030f          	0x901030f
 426:	0008                	0x8
 428:	0501                	addi	a0,a0,0
 42a:	030c                	addi	a1,sp,384
 42c:	0900                	addi	s0,sp,144
 42e:	0008                	0x8
 430:	0501                	addi	a0,a0,0
 432:	0319                	addi	t1,t1,6
 434:	0901                	addi	s2,s2,0
 436:	000c                	0xc
 438:	0501                	addi	a0,a0,0
 43a:	030c                	addi	a1,sp,384
 43c:	0900                	addi	s0,sp,144
 43e:	0008                	0x8
 440:	0501                	addi	a0,a0,0
 442:	0302                	c.slli64	t1
 444:	0906                	slli	s2,s2,0x1
 446:	000c                	0xc
 448:	0301                	addi	t1,t1,0
 44a:	0901                	addi	s2,s2,0
 44c:	0010                	0x10
 44e:	0501                	addi	a0,a0,0
 450:	0309                	addi	t1,t1,2
 452:	0902                	c.slli64	s2
 454:	0010                	0x10
 456:	0501                	addi	a0,a0,0
 458:	0301                	addi	t1,t1,0
 45a:	0901                	addi	s2,s2,0
 45c:	0004                	0x4
 45e:	0301                	addi	t1,t1,0
 460:	00140907          	0x140907
 464:	0501                	addi	a0,a0,0
 466:	0302                	c.slli64	t1
 468:	00140903          	lb	s2,1(s0)
 46c:	0301                	addi	t1,t1,0
 46e:	0901                	addi	s2,s2,0
 470:	0004                	0x4
 472:	0301                	addi	t1,t1,0
 474:	0905                	addi	s2,s2,1
 476:	0004                	0x4
 478:	0501                	addi	a0,a0,0
 47a:	09040327          	vsse8.v	v6,(s0),a6,v0.t
 47e:	0014                	0x14
 480:	0501                	addi	a0,a0,0
 482:	0900036f          	jal	t1,512 <__bin_size-0x6af6>
 486:	0008                	0x8
 488:	0501                	addi	a0,a0,0
 48a:	0306                	slli	t1,t1,0x1
 48c:	0900                	addi	s0,sp,144
 48e:	0004                	0x4
 490:	0501                	addi	a0,a0,0
 492:	0310                	addi	a2,sp,384
 494:	0901                	addi	s2,s2,0
 496:	0004                	0x4
 498:	0501                	addi	a0,a0,0
 49a:	0306                	slli	t1,t1,0x1
 49c:	0900                	addi	s0,sp,144
 49e:	0010                	0x10
 4a0:	0301                	addi	t1,t1,0
 4a2:	0901                	addi	s2,s2,0
 4a4:	0010                	0x10
 4a6:	0501                	addi	a0,a0,0
 4a8:	09010313          	addi	t1,sp,144
 4ac:	000c                	0xc
 4ae:	0501                	addi	a0,a0,0
 4b0:	0900032f          	vamoswapei8.v	zero,(zero),v16,v6,v0.t
 4b4:	0008                	0x8
 4b6:	0501                	addi	a0,a0,0
 4b8:	09030313          	addi	t1,t1,144 # fffffffffffe0090 <_payload_end+0xfffffffffffb9088>
 4bc:	0008                	0x8
 4be:	0501                	addi	a0,a0,0
 4c0:	09000333          	0x9000333
 4c4:	0008                	0x8
 4c6:	0501                	addi	a0,a0,0
 4c8:	09020313          	addi	t1,tp,144 # 90 <__bin_size-0x6f78>
 4cc:	0008                	0x8
 4ce:	0501                	addi	a0,a0,0
 4d0:	09000333          	0x9000333
 4d4:	0008                	0x8
 4d6:	0501                	addi	a0,a0,0
 4d8:	09030313          	addi	t1,t1,144
 4dc:	0008                	0x8
 4de:	0501                	addi	a0,a0,0
 4e0:	032d                	addi	t1,t1,11
 4e2:	0900                	addi	s0,sp,144
 4e4:	0004                	0x4
 4e6:	0501                	addi	a0,a0,0
 4e8:	09020313          	addi	t1,tp,144 # 90 <__bin_size-0x6f78>
 4ec:	0008                	0x8
 4ee:	0501                	addi	a0,a0,0
 4f0:	032d                	addi	t1,t1,11
 4f2:	0900                	addi	s0,sp,144
 4f4:	0004                	0x4
 4f6:	0501                	addi	a0,a0,0
 4f8:	0302                	c.slli64	t1
 4fa:	00080903          	lb	s2,0(a6)
 4fe:	0501                	addi	a0,a0,0
 500:	0301                	addi	t1,t1,0
 502:	0901                	addi	s2,s2,0
 504:	0004                	0x4
 506:	0901                	addi	s2,s2,0
 508:	0018                	0x18
 50a:	0100                	addi	s0,sp,128
 50c:	1801                	addi	a6,a6,-32
 50e:	0001                	nop
 510:	0300                	addi	s0,sp,384
 512:	3800                	fld	fs0,48(s0)
 514:	0000                	unimp
 516:	0100                	addi	s0,sp,128
 518:	fb01                	bnez	a4,428 <__bin_size-0x6be0>
 51a:	0d0e                	slli	s10,s10,0x3
 51c:	0100                	addi	s0,sp,128
 51e:	0101                	addi	sp,sp,0
 520:	0001                	nop
 522:	0000                	unimp
 524:	0001                	nop
 526:	0100                	addi	s0,sp,128
 528:	00696273          	csrrsi	tp,0x6,18
 52c:	7300                	ld	s0,32(a4)
 52e:	6962                	ld	s2,24(sp)
 530:	745f 6172 2e70      	0x2e706172745f
 536:	00010063          	beqz	sp,536 <__bin_size-0x6ad2>
 53a:	7300                	ld	s0,32(a4)
 53c:	6962                	ld	s2,24(sp)
 53e:	745f 6172 5f70      	0x5f706172745f
 544:	6572                	ld	a0,280(sp)
 546:	682e7367          	0x682e7367
 54a:	0100                	addi	s0,sp,128
 54c:	0000                	unimp
 54e:	0500                	addi	s0,sp,640
 550:	0001                	nop
 552:	0209                	addi	tp,tp,2
 554:	05bc                	addi	a5,sp,712
 556:	0002                	c.slli64	zero
 558:	0000                	unimp
 55a:	0000                	unimp
 55c:	0519                	addi	a0,a0,6
 55e:	0306                	slli	t1,t1,0x1
 560:	0901                	addi	s2,s2,0
 562:	001c                	0x1c
 564:	0501                	addi	a0,a0,0
 566:	0302                	c.slli64	t1
 568:	0902                	c.slli64	s2
 56a:	0004                	0x4
 56c:	0501                	addi	a0,a0,0
 56e:	0902030f          	0x902030f
 572:	0010                	0x10
 574:	0501                	addi	a0,a0,0
 576:	09000303          	lb	t1,144(zero) # 90 <__bin_size-0x6f78>
 57a:	0008                	0x8
 57c:	0501                	addi	a0,a0,0
 57e:	09010307          	vlse8.v	v6,(sp),a6,v0.t
 582:	000c                	0xc
 584:	0501                	addi	a0,a0,0
 586:	09010303          	lb	t1,144(sp)
 58a:	0004                	0x4
 58c:	0501                	addi	a0,a0,0
 58e:	0305                	addi	t1,t1,1
 590:	0904                	addi	s1,sp,144
 592:	0004                	0x4
 594:	0501                	addi	a0,a0,0
 596:	030e                	slli	t1,t1,0x3
 598:	0901                	addi	s2,s2,0
 59a:	000c                	0xc
 59c:	0501                	addi	a0,a0,0
 59e:	0309                	addi	t1,t1,2
 5a0:	0902                	c.slli64	s2
 5a2:	0014                	0x14
 5a4:	0501                	addi	a0,a0,0
 5a6:	0301                	addi	t1,t1,0
 5a8:	0901                	addi	s2,s2,0
 5aa:	0004                	0x4
 5ac:	0301                	addi	t1,t1,0
 5ae:	00140903          	lb	s2,1(s0)
 5b2:	0501                	addi	a0,a0,0
 5b4:	0338                	addi	a4,sp,392
 5b6:	0901                	addi	s2,s2,0
 5b8:	0018                	0x18
 5ba:	0501                	addi	a0,a0,0
 5bc:	0900037f          	0x900037f
 5c0:	0008                	0x8
 5c2:	0501                	addi	a0,a0,0
 5c4:	0310                	addi	a2,sp,384
 5c6:	0900                	addi	s0,sp,144
 5c8:	0004                	0x4
 5ca:	0301                	addi	t1,t1,0
 5cc:	0901                	addi	s2,s2,0
 5ce:	0004                	0x4
 5d0:	0501                	addi	a0,a0,0
 5d2:	0302                	c.slli64	t1
 5d4:	0902                	c.slli64	s2
 5d6:	000c                	0xc
 5d8:	0501                	addi	a0,a0,0
 5da:	09020303          	lb	t1,144(tp) # 90 <__bin_size-0x6f78>
 5de:	000c                	0xc
 5e0:	0301                	addi	t1,t1,0
 5e2:	0901                	addi	s2,s2,0
 5e4:	0014                	0x14
 5e6:	0301                	addi	t1,t1,0
 5e8:	0902                	c.slli64	s2
 5ea:	0004                	0x4
 5ec:	0501                	addi	a0,a0,0
 5ee:	0301                	addi	t1,t1,0
 5f0:	0902                	c.slli64	s2
 5f2:	0004                	0x4
 5f4:	0301                	addi	t1,t1,0
 5f6:	0905                	addi	s2,s2,1
 5f8:	0018                	0x18
 5fa:	0501                	addi	a0,a0,0
 5fc:	09020313          	addi	t1,tp,144 # 90 <__bin_size-0x6f78>
 600:	000c                	0xc
 602:	0501                	addi	a0,a0,0
 604:	0340                	addi	s0,sp,388
 606:	0900                	addi	s0,sp,144
 608:	000c                	0xc
 60a:	0501                	addi	a0,a0,0
 60c:	09020313          	addi	t1,tp,144 # 90 <__bin_size-0x6f78>
 610:	0008                	0x8
 612:	0501                	addi	a0,a0,0
 614:	032d                	addi	t1,t1,11
 616:	0900                	addi	s0,sp,144
 618:	0004                	0x4
 61a:	0501                	addi	a0,a0,0
 61c:	0301                	addi	t1,t1,0
 61e:	0901                	addi	s2,s2,0
 620:	0008                	0x8
 622:	0901                	addi	s2,s2,0
 624:	0010                	0x10
 626:	0100                	addi	s0,sp,128
 628:	3c01                	addiw	s8,s8,-32
 62a:	03000007          	vle8ff.v	v0,(zero)
 62e:	5800                	lw	s0,48(s0)
 630:	0000                	unimp
 632:	0100                	addi	s0,sp,128
 634:	fb01                	bnez	a4,544 <__bin_size-0x6ac4>
 636:	0d0e                	slli	s10,s10,0x3
 638:	0100                	addi	s0,sp,128
 63a:	0101                	addi	sp,sp,0
 63c:	0001                	nop
 63e:	0000                	unimp
 640:	0001                	nop
 642:	0100                	addi	s0,sp,128
 644:	6e69                	lui	t3,0x1a
 646:	64756c63          	bltu	a0,t2,c9e <__bin_size-0x636a>
 64a:	0065                	c.nop	25
 64c:	00696273          	csrrsi	tp,0x6,18
 650:	6900                	ld	s0,16(a0)
 652:	00682e6f          	jal	t3,82658 <_payload_end+0x5b650>
 656:	0001                	nop
 658:	7300                	ld	s0,32(a4)
 65a:	7379                	lui	t1,0xffffe
 65c:	752d                	lui	a0,0xfffeb
 65e:	7261                	lui	tp,0xffff8
 660:	2e74                	fld	fa3,216(a2)
 662:	00020063          	beqz	tp,662 <__bin_size-0x69a6>
 666:	7400                	ld	s0,40(s0)
 668:	7079                	c.lui	zero,0xffffe
 66a:	7365                	lui	t1,0xffff9
 66c:	682e                	ld	a6,200(sp)
 66e:	0100                	addi	s0,sp,128
 670:	0000                	unimp
 672:	61647473          	csrrci	s0,0x616,8
 676:	6772                	ld	a4,280(sp)
 678:	682e                	ld	a6,200(sp)
 67a:	0100                	addi	s0,sp,128
 67c:	0000                	unimp
 67e:	69647473          	csrrci	s0,0x696,8
 682:	746e                	ld	s0,248(sp)
 684:	682e                	ld	a6,200(sp)
 686:	0100                	addi	s0,sp,128
 688:	0000                	unimp
 68a:	0500                	addi	s0,sp,640
 68c:	0001                	nop
 68e:	0209                	addi	tp,tp,2
 690:	06f0                	addi	a2,sp,844
 692:	0002                	c.slli64	zero
 694:	0000                	unimp
 696:	0000                	unimp
 698:	05010a03          	lb	s4,80(sp)
 69c:	030c                	addi	a1,sp,384
 69e:	0901                	addi	s2,s2,0
 6a0:	0010                	0x10
 6a2:	0501                	addi	a0,a0,0
 6a4:	030a                	slli	t1,t1,0x2
 6a6:	0900                	addi	s0,sp,144
 6a8:	0004                	0x4
 6aa:	0501                	addi	a0,a0,0
 6ac:	0301                	addi	t1,t1,0
 6ae:	0901                	addi	s2,s2,0
 6b0:	0008                	0x8
 6b2:	0301                	addi	t1,t1,0
 6b4:	0908                	addi	a0,sp,144
 6b6:	0010                	0x10
 6b8:	0501                	addi	a0,a0,0
 6ba:	030c                	addi	a1,sp,384
 6bc:	0901                	addi	s2,s2,0
 6be:	0010                	0x10
 6c0:	0501                	addi	a0,a0,0
 6c2:	030a                	slli	t1,t1,0x2
 6c4:	0900                	addi	s0,sp,144
 6c6:	0004                	0x4
 6c8:	0501                	addi	a0,a0,0
 6ca:	0301                	addi	t1,t1,0
 6cc:	0901                	addi	s2,s2,0
 6ce:	0008                	0x8
 6d0:	0301                	addi	t1,t1,0
 6d2:	0912                	slli	s2,s2,0x4
 6d4:	0010                	0x10
 6d6:	0501                	addi	a0,a0,0
 6d8:	0304                	addi	s1,sp,384
 6da:	0901                	addi	s2,s2,0
 6dc:	0018                	0x18
 6de:	0501                	addi	a0,a0,0
 6e0:	031e                	slli	t1,t1,0x7
 6e2:	0900                	addi	s0,sp,144
 6e4:	0004                	0x4
 6e6:	0501                	addi	a0,a0,0
 6e8:	0301                	addi	t1,t1,0
 6ea:	0901                	addi	s2,s2,0
 6ec:	0008                	0x8
 6ee:	0401                	addi	s0,s0,0
 6f0:	0302                	c.slli64	t1
 6f2:	0975                	addi	s2,s2,29
 6f4:	0010                	0x10
 6f6:	0501                	addi	a0,a0,0
 6f8:	030e                	slli	t1,t1,0x3
 6fa:	0911                	addi	s2,s2,4
 6fc:	0010                	0x10
 6fe:	0501                	addi	a0,a0,0
 700:	0901030f          	0x901030f
 704:	000c                	0xc
 706:	0501                	addi	a0,a0,0
 708:	030d                	addi	t1,t1,3
 70a:	0901                	addi	s2,s2,0
 70c:	0010                	0x10
 70e:	0301                	addi	t1,t1,0
 710:	0901                	addi	s2,s2,0
 712:	0014                	0x14
 714:	0501                	addi	a0,a0,0
 716:	0309                	addi	t1,t1,2
 718:	0901                	addi	s2,s2,0
 71a:	000c                	0xc
 71c:	0501                	addi	a0,a0,0
 71e:	0902030f          	0x902030f
 722:	0010                	0x10
 724:	0501                	addi	a0,a0,0
 726:	030d                	addi	t1,t1,3
 728:	0901                	addi	s2,s2,0
 72a:	0010                	0x10
 72c:	0301                	addi	t1,t1,0
 72e:	0901                	addi	s2,s2,0
 730:	0014                	0x14
 732:	0501                	addi	a0,a0,0
 734:	0309                	addi	t1,t1,2
 736:	0901                	addi	s2,s2,0
 738:	0010                	0x10
 73a:	0501                	addi	a0,a0,0
 73c:	09030307          	vlse8.v	v6,(t1),a6,v0.t
 740:	0010                	0x10
 742:	0501                	addi	a0,a0,0
 744:	0308                	addi	a0,sp,384
 746:	0901                	addi	s2,s2,0
 748:	000c                	0xc
 74a:	0501                	addi	a0,a0,0
 74c:	0306                	slli	t1,t1,0x1
 74e:	0901                	addi	s2,s2,0
 750:	0010                	0x10
 752:	0501                	addi	a0,a0,0
 754:	0302                	c.slli64	t1
 756:	0901                	addi	s2,s2,0
 758:	000c                	0xc
 75a:	0501                	addi	a0,a0,0
 75c:	09030307          	vlse8.v	v6,(t1),a6,v0.t
 760:	0010                	0x10
 762:	0501                	addi	a0,a0,0
 764:	0308                	addi	a0,sp,384
 766:	0901                	addi	s2,s2,0
 768:	000c                	0xc
 76a:	0501                	addi	a0,a0,0
 76c:	0306                	slli	t1,t1,0x1
 76e:	0901                	addi	s2,s2,0
 770:	0010                	0x10
 772:	0501                	addi	a0,a0,0
 774:	0302                	c.slli64	t1
 776:	0901                	addi	s2,s2,0
 778:	0010                	0x10
 77a:	0501                	addi	a0,a0,0
 77c:	09030307          	vlse8.v	v6,(t1),a6,v0.t
 780:	0010                	0x10
 782:	0501                	addi	a0,a0,0
 784:	0302                	c.slli64	t1
 786:	0901                	addi	s2,s2,0
 788:	0008                	0x8
 78a:	0301                	addi	t1,t1,0
 78c:	0901                	addi	s2,s2,0
 78e:	0014                	0x14
 790:	0301                	addi	t1,t1,0
 792:	0902                	c.slli64	s2
 794:	0014                	0x14
 796:	0501                	addi	a0,a0,0
 798:	0308                	addi	a0,sp,384
 79a:	0901                	addi	s2,s2,0
 79c:	0014                	0x14
 79e:	0501                	addi	a0,a0,0
 7a0:	0306                	slli	t1,t1,0x1
 7a2:	0901                	addi	s2,s2,0
 7a4:	0018                	0x18
 7a6:	0501                	addi	a0,a0,0
 7a8:	0302                	c.slli64	t1
 7aa:	0901                	addi	s2,s2,0
 7ac:	000c                	0xc
 7ae:	0301                	addi	t1,t1,0
 7b0:	0901                	addi	s2,s2,0
 7b2:	0018                	0x18
 7b4:	0301                	addi	t1,t1,0
 7b6:	0901                	addi	s2,s2,0
 7b8:	000c                	0xc
 7ba:	0501                	addi	a0,a0,0
 7bc:	0308                	addi	a0,sp,384
 7be:	0901                	addi	s2,s2,0
 7c0:	0014                	0x14
 7c2:	0501                	addi	a0,a0,0
 7c4:	0306                	slli	t1,t1,0x1
 7c6:	0901                	addi	s2,s2,0
 7c8:	0018                	0x18
 7ca:	0501                	addi	a0,a0,0
 7cc:	0302                	c.slli64	t1
 7ce:	0901                	addi	s2,s2,0
 7d0:	000c                	0xc
 7d2:	0501                	addi	a0,a0,0
 7d4:	0308                	addi	a0,sp,384
 7d6:	0901                	addi	s2,s2,0
 7d8:	0018                	0x18
 7da:	0501                	addi	a0,a0,0
 7dc:	0306                	slli	t1,t1,0x1
 7de:	0901                	addi	s2,s2,0
 7e0:	0018                	0x18
 7e2:	0301                	addi	t1,t1,0
 7e4:	0901                	addi	s2,s2,0
 7e6:	000c                	0xc
 7e8:	0501                	addi	a0,a0,0
 7ea:	0302                	c.slli64	t1
 7ec:	0901                	addi	s2,s2,0
 7ee:	000c                	0xc
 7f0:	0501                	addi	a0,a0,0
 7f2:	0301                	addi	t1,t1,0
 7f4:	0901                	addi	s2,s2,0
 7f6:	0018                	0x18
 7f8:	0301                	addi	t1,t1,0
 7fa:	00140903          	lb	s2,1(s0)
 7fe:	0501                	addi	a0,a0,0
 800:	0311                	addi	t1,t1,4
 802:	0901                	addi	s2,s2,0
 804:	0018                	0x18
 806:	0501                	addi	a0,a0,0
 808:	09020307          	vlse8.v	v6,(tp),a6,v0.t
 80c:	0008                	0x8
 80e:	0501                	addi	a0,a0,0
 810:	0009                	c.nop	2
 812:	0402                	c.slli64	s0
 814:	0301                	addi	t1,t1,0
 816:	0900                	addi	s0,sp,144
 818:	0004                	0x4
 81a:	0501                	addi	a0,a0,0
 81c:	001d                	c.nop	7
 81e:	0402                	c.slli64	s0
 820:	0301                	addi	t1,t1,0
 822:	0900                	addi	s0,sp,144
 824:	0018                	0x18
 826:	0501                	addi	a0,a0,0
 828:	04020007          	vluxei8.v	v0,(tp),v0,v0.t
 82c:	0301                	addi	t1,t1,0
 82e:	0900                	addi	s0,sp,144
 830:	0008                	0x8
 832:	0501                	addi	a0,a0,0
 834:	0302                	c.slli64	t1
 836:	0901                	addi	s2,s2,0
 838:	0004                	0x4
 83a:	0501                	addi	a0,a0,0
 83c:	0301                	addi	t1,t1,0
 83e:	0901                	addi	s2,s2,0
 840:	0014                	0x14
 842:	0301                	addi	t1,t1,0
 844:	00140903          	lb	s2,1(s0)
 848:	0501                	addi	a0,a0,0
 84a:	0302                	c.slli64	t1
 84c:	0901                	addi	s2,s2,0
 84e:	0018                	0x18
 850:	0501                	addi	a0,a0,0
 852:	0309                	addi	t1,t1,2
 854:	0901                	addi	s2,s2,0
 856:	0010                	0x10
 858:	0501                	addi	a0,a0,0
 85a:	0301                	addi	t1,t1,0
 85c:	0901                	addi	s2,s2,0
 85e:	0004                	0x4
 860:	0301                	addi	t1,t1,0
 862:	00140903          	lb	s2,1(s0)
 866:	0501                	addi	a0,a0,0
 868:	0311                	addi	t1,t1,4
 86a:	0901                	addi	s2,s2,0
 86c:	0010                	0x10
 86e:	0501                	addi	a0,a0,0
 870:	09020307          	vlse8.v	v6,(tp),a6,v0.t
 874:	0008                	0x8
 876:	0501                	addi	a0,a0,0
 878:	0009                	c.nop	2
 87a:	0402                	c.slli64	s0
 87c:	0301                	addi	t1,t1,0
 87e:	0900                	addi	s0,sp,144
 880:	0004                	0x4
 882:	0501                	addi	a0,a0,0
 884:	001d                	c.nop	7
 886:	0402                	c.slli64	s0
 888:	0301                	addi	t1,t1,0
 88a:	0900                	addi	s0,sp,144
 88c:	0018                	0x18
 88e:	0501                	addi	a0,a0,0
 890:	04020007          	vluxei8.v	v0,(tp),v0,v0.t
 894:	0301                	addi	t1,t1,0
 896:	0900                	addi	s0,sp,144
 898:	0008                	0x8
 89a:	0501                	addi	a0,a0,0
 89c:	0309                	addi	t1,t1,2
 89e:	0901                	addi	s2,s2,0
 8a0:	0004                	0x4
 8a2:	0501                	addi	a0,a0,0
 8a4:	0301                	addi	t1,t1,0
 8a6:	0901                	addi	s2,s2,0
 8a8:	000c                	0xc
 8aa:	0301                	addi	t1,t1,0
 8ac:	00140903          	lb	s2,1(s0)
 8b0:	0501                	addi	a0,a0,0
 8b2:	030c                	addi	a1,sp,384
 8b4:	00140903          	lb	s2,1(s0)
 8b8:	0501                	addi	a0,a0,0
 8ba:	0305                	addi	t1,t1,1
 8bc:	0900                	addi	s0,sp,144
 8be:	0004                	0x4
 8c0:	0501                	addi	a0,a0,0
 8c2:	0310                	addi	a2,sp,384
 8c4:	0902                	c.slli64	s2
 8c6:	0004                	0x4
 8c8:	0501                	addi	a0,a0,0
 8ca:	030c                	addi	a1,sp,384
 8cc:	0900                	addi	s0,sp,144
 8ce:	0010                	0x10
 8d0:	0501                	addi	a0,a0,0
 8d2:	030d                	addi	t1,t1,3
 8d4:	0901                	addi	s2,s2,0
 8d6:	000c                	0xc
 8d8:	0501                	addi	a0,a0,0
 8da:	001d                	c.nop	7
 8dc:	0402                	c.slli64	s0
 8de:	0302                	c.slli64	t1
 8e0:	0901                	addi	s2,s2,0
 8e2:	0008                	0x8
 8e4:	0501                	addi	a0,a0,0
 8e6:	0009                	c.nop	2
 8e8:	0402                	c.slli64	s0
 8ea:	0302                	c.slli64	t1
 8ec:	0900                	addi	s0,sp,144
 8ee:	000c                	0xc
 8f0:	0501                	addi	a0,a0,0
 8f2:	0022                	c.slli	zero,0x8
 8f4:	0402                	c.slli64	s0
 8f6:	0302                	c.slli64	t1
 8f8:	097c                	addi	a5,sp,156
 8fa:	000c                	0xc
 8fc:	0501                	addi	a0,a0,0
 8fe:	0014                	0x14
 900:	0402                	c.slli64	s0
 902:	0301                	addi	t1,t1,0
 904:	0900                	addi	s0,sp,144
 906:	000c                	0xc
 908:	0501                	addi	a0,a0,0
 90a:	0005                	c.nop	1
 90c:	0402                	c.slli64	s0
 90e:	0301                	addi	t1,t1,0
 910:	0900                	addi	s0,sp,144
 912:	0010                	0x10
 914:	0501                	addi	a0,a0,0
 916:	0301                	addi	t1,t1,0
 918:	0906                	slli	s2,s2,0x1
 91a:	0004                	0x4
 91c:	0301                	addi	t1,t1,0
 91e:	00180903          	lb	s2,1(a6)
 922:	0501                	addi	a0,a0,0
 924:	0306                	slli	t1,t1,0x1
 926:	0904                	addi	s1,sp,144
 928:	0014                	0x14
 92a:	0501                	addi	a0,a0,0
 92c:	0308                	addi	a0,sp,384
 92e:	0901                	addi	s2,s2,0
 930:	0004                	0x4
 932:	0501                	addi	a0,a0,0
 934:	0302                	c.slli64	t1
 936:	0900                	addi	s0,sp,144
 938:	0008                	0x8
 93a:	0501                	addi	a0,a0,0
 93c:	030a                	slli	t1,t1,0x2
 93e:	0902                	c.slli64	s2
 940:	0004                	0x4
 942:	0501                	addi	a0,a0,0
 944:	0314                	addi	a3,sp,384
 946:	0900                	addi	s0,sp,144
 948:	0008                	0x8
 94a:	0501                	addi	a0,a0,0
 94c:	04020017          	auipc	zero,0x4020
 950:	0301                	addi	t1,t1,0
 952:	0900                	addi	s0,sp,144
 954:	000c                	0xc
 956:	0501                	addi	a0,a0,0
 958:	0014                	0x14
 95a:	0402                	c.slli64	s0
 95c:	0301                	addi	t1,t1,0
 95e:	0900                	addi	s0,sp,144
 960:	0008                	0x8
 962:	0001                	nop
 964:	0402                	c.slli64	s0
 966:	00030603          	lb	a2,0(t1) # ffffffffffff9000 <_payload_end+0xfffffffffffd1ff8>
 96a:	0c09                	addi	s8,s8,2
 96c:	0100                	addi	s0,sp,128
 96e:	0200                	addi	s0,sp,256
 970:	0404                	addi	s1,sp,512
 972:	08090003          	lb	zero,128(s2)
 976:	0100                	addi	s0,sp,128
 978:	0705                	addi	a4,a4,1
 97a:	0200                	addi	s0,sp,256
 97c:	0604                	addi	s1,sp,768
 97e:	0306                	slli	t1,t1,0x1
 980:	0900                	addi	s0,sp,144
 982:	0004                	0x4
 984:	0501                	addi	a0,a0,0
 986:	0005                	c.nop	1
 988:	0402                	c.slli64	s0
 98a:	0306                	slli	t1,t1,0x1
 98c:	0901                	addi	s2,s2,0
 98e:	0004                	0x4
 990:	0501                	addi	a0,a0,0
 992:	04020007          	vluxei8.v	v0,(tp),v0,v0.t
 996:	0302                	c.slli64	t1
 998:	0902                	c.slli64	s2
 99a:	000c                	0xc
 99c:	0501                	addi	a0,a0,0
 99e:	0005                	c.nop	1
 9a0:	0402                	c.slli64	s0
 9a2:	0302                	c.slli64	t1
 9a4:	0900                	addi	s0,sp,144
 9a6:	000c                	0xc
 9a8:	0501                	addi	a0,a0,0
 9aa:	04020007          	vluxei8.v	v0,(tp),v0,v0.t
 9ae:	0302                	c.slli64	t1
 9b0:	0901                	addi	s2,s2,0
 9b2:	0008                	0x8
 9b4:	0001                	nop
 9b6:	0402                	c.slli64	s0
 9b8:	0302                	c.slli64	t1
 9ba:	0901                	addi	s2,s2,0
 9bc:	0018                	0x18
 9be:	0501                	addi	a0,a0,0
 9c0:	001e                	c.slli	zero,0x7
 9c2:	0402                	c.slli64	s0
 9c4:	0302                	c.slli64	t1
 9c6:	0979                	addi	s2,s2,30
 9c8:	0010                	0x10
 9ca:	0501                	addi	a0,a0,0
 9cc:	0402000f          	0x402000f
 9d0:	0301                	addi	t1,t1,0
 9d2:	0900                	addi	s0,sp,144
 9d4:	000c                	0xc
 9d6:	0501                	addi	a0,a0,0
 9d8:	0002                	c.slli64	zero
 9da:	0402                	c.slli64	s0
 9dc:	0301                	addi	t1,t1,0
 9de:	0900                	addi	s0,sp,144
 9e0:	0008                	0x8
 9e2:	0501                	addi	a0,a0,0
 9e4:	0304                	addi	s1,sp,384
 9e6:	0904                	addi	s1,sp,144
 9e8:	0008                	0x8
 9ea:	0501                	addi	a0,a0,0
 9ec:	09050307          	vlse8.v	v6,(a0),a6,v0.t
 9f0:	0004                	0x4
 9f2:	0501                	addi	a0,a0,0
 9f4:	0312                	slli	t1,t1,0x4
 9f6:	0901                	addi	s2,s2,0
 9f8:	000c                	0xc
 9fa:	0501                	addi	a0,a0,0
 9fc:	030a                	slli	t1,t1,0x2
 9fe:	0900                	addi	s0,sp,144
 a00:	000c                	0xc
 a02:	0501                	addi	a0,a0,0
 a04:	0301                	addi	t1,t1,0
 a06:	0901                	addi	s2,s2,0
 a08:	0004                	0x4
 a0a:	0301                	addi	t1,t1,0
 a0c:	00100903          	lb	s2,1(zero) # 1 <__bin_size-0x7007>
 a10:	0501                	addi	a0,a0,0
 a12:	0308                	addi	a0,sp,384
 a14:	0905                	addi	s2,s2,1
 a16:	0034                	addi	a3,sp,8
 a18:	0501                	addi	a0,a0,0
 a1a:	0302                	c.slli64	t1
 a1c:	0900                	addi	s0,sp,144
 a1e:	0004                	0x4
 a20:	0501                	addi	a0,a0,0
 a22:	000a                	c.slli	zero,0x2
 a24:	0402                	c.slli64	s0
 a26:	09010303          	lb	t1,144(sp)
 a2a:	0004                	0x4
 a2c:	0501                	addi	a0,a0,0
 a2e:	001f 0402 0303      	0x3030402001f
 a34:	0018097f          	0x18097f
 a38:	0501                	addi	a0,a0,0
 a3a:	0402000f          	0x402000f
 a3e:	0301                	addi	t1,t1,0
 a40:	0900                	addi	s0,sp,144
 a42:	000c                	0xc
 a44:	0501                	addi	a0,a0,0
 a46:	0002                	c.slli64	zero
 a48:	0402                	c.slli64	s0
 a4a:	0301                	addi	t1,t1,0
 a4c:	0900                	addi	s0,sp,144
 a4e:	0004                	0x4
 a50:	0501                	addi	a0,a0,0
 a52:	09020307          	vlse8.v	v6,(tp),a6,v0.t
 a56:	000c                	0xc
 a58:	0501                	addi	a0,a0,0
 a5a:	0304                	addi	s1,sp,384
 a5c:	0901                	addi	s2,s2,0
 a5e:	0008                	0x8
 a60:	0501                	addi	a0,a0,0
 a62:	0308                	addi	a0,sp,384
 a64:	0901                	addi	s2,s2,0
 a66:	000c                	0xc
 a68:	0501                	addi	a0,a0,0
 a6a:	0306                	slli	t1,t1,0x1
 a6c:	0902                	c.slli64	s2
 a6e:	0008                	0x8
 a70:	0501                	addi	a0,a0,0
 a72:	0309                	addi	t1,t1,2
 a74:	0902                	c.slli64	s2
 a76:	0004                	0x4
 a78:	0501                	addi	a0,a0,0
 a7a:	0305                	addi	t1,t1,1
 a7c:	0900                	addi	s0,sp,144
 a7e:	0010                	0x10
 a80:	0301                	addi	t1,t1,0
 a82:	0901                	addi	s2,s2,0
 a84:	0004                	0x4
 a86:	0501                	addi	a0,a0,0
 a88:	0316                	slli	t1,t1,0x5
 a8a:	0901                	addi	s2,s2,0
 a8c:	0010                	0x10
 a8e:	0501                	addi	a0,a0,0
 a90:	030d                	addi	t1,t1,3
 a92:	0900                	addi	s0,sp,144
 a94:	0010                	0x10
 a96:	0501                	addi	a0,a0,0
 a98:	0311                	addi	t1,t1,4
 a9a:	0902                	c.slli64	s2
 a9c:	0014                	0x14
 a9e:	0501                	addi	a0,a0,0
 aa0:	030d                	addi	t1,t1,3
 aa2:	0900                	addi	s0,sp,144
 aa4:	0010                	0x10
 aa6:	0501                	addi	a0,a0,0
 aa8:	0305                	addi	t1,t1,1
 aaa:	0901                	addi	s2,s2,0
 aac:	0010                	0x10
 aae:	0501                	addi	a0,a0,0
 ab0:	0306                	slli	t1,t1,0x1
 ab2:	0901                	addi	s2,s2,0
 ab4:	0010                	0x10
 ab6:	0501                	addi	a0,a0,0
 ab8:	0302                	c.slli64	t1
 aba:	0901                	addi	s2,s2,0
 abc:	000c                	0xc
 abe:	0501                	addi	a0,a0,0
 ac0:	0304                	addi	s1,sp,384
 ac2:	0902                	c.slli64	s2
 ac4:	000c                	0xc
 ac6:	0501                	addi	a0,a0,0
 ac8:	0309                	addi	t1,t1,2
 aca:	0902                	c.slli64	s2
 acc:	000c                	0xc
 ace:	0501                	addi	a0,a0,0
 ad0:	0305                	addi	t1,t1,1
 ad2:	0900                	addi	s0,sp,144
 ad4:	0004                	0x4
 ad6:	0501                	addi	a0,a0,0
 ad8:	09010307          	vlse8.v	v6,(sp),a6,v0.t
 adc:	000c                	0xc
 ade:	0501                	addi	a0,a0,0
 ae0:	0305                	addi	t1,t1,1
 ae2:	0901                	addi	s2,s2,0
 ae4:	0008                	0x8
 ae6:	0501                	addi	a0,a0,0
 ae8:	0308                	addi	a0,sp,384
 aea:	0901                	addi	s2,s2,0
 aec:	0014                	0x14
 aee:	0501                	addi	a0,a0,0
 af0:	0902030b          	0x902030b
 af4:	0008                	0x8
 af6:	0501                	addi	a0,a0,0
 af8:	0308                	addi	a0,sp,384
 afa:	0902                	c.slli64	s2
 afc:	0010                	0x10
 afe:	0501                	addi	a0,a0,0
 b00:	0302                	c.slli64	t1
 b02:	0900                	addi	s0,sp,144
 b04:	000c                	0xc
 b06:	0501                	addi	a0,a0,0
 b08:	04020003          	lb	zero,64(tp) # ffffffffffff8040 <_payload_end+0xfffffffffffd1038>
 b0c:	09010303          	lb	t1,144(sp)
 b10:	0004                	0x4
 b12:	0501                	addi	a0,a0,0
 b14:	001c                	0x1c
 b16:	0402                	c.slli64	s0
 b18:	097f0303          	lb	t1,151(t5) # 1e097 <__bin_size+0x1708f>
 b1c:	0018                	0x18
 b1e:	0501                	addi	a0,a0,0
 b20:	0002                	c.slli64	zero
 b22:	0402                	c.slli64	s0
 b24:	0301                	addi	t1,t1,0
 b26:	0900                	addi	s0,sp,144
 b28:	000c                	0xc
 b2a:	0501                	addi	a0,a0,0
 b2c:	0301                	addi	t1,t1,0
 b2e:	0902                	c.slli64	s2
 b30:	000c                	0xc
 b32:	0301                	addi	t1,t1,0
 b34:	00180903          	lb	s2,1(a6)
 b38:	0501                	addi	a0,a0,0
 b3a:	0305                	addi	t1,t1,1
 b3c:	0905                	addi	s2,s2,1
 b3e:	0018                	0x18
 b40:	0501                	addi	a0,a0,0
 b42:	0308                	addi	a0,sp,384
 b44:	0901                	addi	s2,s2,0
 b46:	0008                	0x8
 b48:	0501                	addi	a0,a0,0
 b4a:	0302                	c.slli64	t1
 b4c:	0900                	addi	s0,sp,144
 b4e:	0008                	0x8
 b50:	0501                	addi	a0,a0,0
 b52:	0305                	addi	t1,t1,1
 b54:	0902                	c.slli64	s2
 b56:	0004                	0x4
 b58:	0501                	addi	a0,a0,0
 b5a:	0306                	slli	t1,t1,0x1
 b5c:	0901                	addi	s2,s2,0
 b5e:	0004                	0x4
 b60:	0501                	addi	a0,a0,0
 b62:	09010307          	vlse8.v	v6,(sp),a6,v0.t
 b66:	0004                	0x4
 b68:	0501                	addi	a0,a0,0
 b6a:	0305                	addi	t1,t1,1
 b6c:	0900                	addi	s0,sp,144
 b6e:	0008                	0x8
 b70:	0301                	addi	t1,t1,0
 b72:	0901                	addi	s2,s2,0
 b74:	0004                	0x4
 b76:	0501                	addi	a0,a0,0
 b78:	0306                	slli	t1,t1,0x1
 b7a:	0901                	addi	s2,s2,0
 b7c:	0008                	0x8
 b7e:	0501                	addi	a0,a0,0
 b80:	0305                	addi	t1,t1,1
 b82:	0900                	addi	s0,sp,144
 b84:	0008                	0x8
 b86:	0501                	addi	a0,a0,0
 b88:	0306                	slli	t1,t1,0x1
 b8a:	0902                	c.slli64	s2
 b8c:	000c                	0xc
 b8e:	0501                	addi	a0,a0,0
 b90:	0305                	addi	t1,t1,1
 b92:	0901                	addi	s2,s2,0
 b94:	0008                	0x8
 b96:	0501                	addi	a0,a0,0
 b98:	09010307          	vlse8.v	v6,(sp),a6,v0.t
 b9c:	000c                	0xc
 b9e:	0501                	addi	a0,a0,0
 ba0:	0306                	slli	t1,t1,0x1
 ba2:	0900                	addi	s0,sp,144
 ba4:	0008                	0x8
 ba6:	0501                	addi	a0,a0,0
 ba8:	0014                	0x14
 baa:	0402                	c.slli64	s0
 bac:	0301                	addi	t1,t1,0
 bae:	0900                	addi	s0,sp,144
 bb0:	000c                	0xc
 bb2:	0501                	addi	a0,a0,0
 bb4:	0011                	c.nop	4
 bb6:	0402                	c.slli64	s0
 bb8:	0301                	addi	t1,t1,0
 bba:	0900                	addi	s0,sp,144
 bbc:	0008                	0x8
 bbe:	0501                	addi	a0,a0,0
 bc0:	030a                	slli	t1,t1,0x2
 bc2:	0901                	addi	s2,s2,0
 bc4:	000c                	0xc
 bc6:	0501                	addi	a0,a0,0
 bc8:	09000307          	vlse8.v	v6,(zero),a6,v0.t
 bcc:	0018                	0x18
 bce:	0501                	addi	a0,a0,0
 bd0:	0308                	addi	a0,sp,384
 bd2:	0901                	addi	s2,s2,0
 bd4:	000c                	0xc
 bd6:	0501                	addi	a0,a0,0
 bd8:	0306                	slli	t1,t1,0x1
 bda:	0900                	addi	s0,sp,144
 bdc:	0008                	0x8
 bde:	0501                	addi	a0,a0,0
 be0:	0305                	addi	t1,t1,1
 be2:	0902                	c.slli64	s2
 be4:	0004                	0x4
 be6:	0501                	addi	a0,a0,0
 be8:	0011                	c.nop	4
 bea:	0402                	c.slli64	s0
 bec:	0301                	addi	t1,t1,0
 bee:	0900                	addi	s0,sp,144
 bf0:	0010                	0x10
 bf2:	0501                	addi	a0,a0,0
 bf4:	0308                	addi	a0,sp,384
 bf6:	0902                	c.slli64	s2
 bf8:	0010                	0x10
 bfa:	0501                	addi	a0,a0,0
 bfc:	0304                	addi	s1,sp,384
 bfe:	0901                	addi	s2,s2,0
 c00:	0014                	0x14
 c02:	0501                	addi	a0,a0,0
 c04:	030a                	slli	t1,t1,0x2
 c06:	0904                	addi	s1,sp,144
 c08:	0038                	addi	a4,sp,8
 c0a:	0501                	addi	a0,a0,0
 c0c:	0304                	addi	s1,sp,384
 c0e:	0900                	addi	s0,sp,144
 c10:	0004                	0x4
 c12:	0501                	addi	a0,a0,0
 c14:	0010                	0x10
 c16:	0402                	c.slli64	s0
 c18:	09010303          	lb	t1,144(sp)
 c1c:	0004                	0x4
 c1e:	0501                	addi	a0,a0,0
 c20:	0005                	c.nop	1
 c22:	0402                	c.slli64	s0
 c24:	09000303          	lb	t1,144(zero) # 90 <__bin_size-0x6f78>
 c28:	000c                	0xc
 c2a:	0501                	addi	a0,a0,0
 c2c:	001d                	c.nop	7
 c2e:	0402                	c.slli64	s0
 c30:	097f0303          	lb	t1,151(t5)
 c34:	000c                	0xc
 c36:	0501                	addi	a0,a0,0
 c38:	0011                	c.nop	4
 c3a:	0402                	c.slli64	s0
 c3c:	0301                	addi	t1,t1,0
 c3e:	0900                	addi	s0,sp,144
 c40:	000c                	0xc
 c42:	0501                	addi	a0,a0,0
 c44:	0016                	c.slli	zero,0x5
 c46:	0402                	c.slli64	s0
 c48:	0301                	addi	t1,t1,0
 c4a:	0900                	addi	s0,sp,144
 c4c:	0004                	0x4
 c4e:	0501                	addi	a0,a0,0
 c50:	0004                	0x4
 c52:	0402                	c.slli64	s0
 c54:	0301                	addi	t1,t1,0
 c56:	0900                	addi	s0,sp,144
 c58:	000c                	0xc
 c5a:	0501                	addi	a0,a0,0
 c5c:	0308                	addi	a0,sp,384
 c5e:	0902                	c.slli64	s2
 c60:	0004                	0x4
 c62:	0001                	nop
 c64:	0402                	c.slli64	s0
 c66:	0601                	addi	a2,a2,0
 c68:	0c090003          	lb	zero,192(s2)
 c6c:	0100                	addi	s0,sp,128
 c6e:	0200                	addi	s0,sp,256
 c70:	0204                	addi	s1,sp,256
 c72:	0c090003          	lb	zero,192(s2)
 c76:	0100                	addi	s0,sp,128
 c78:	0605                	addi	a2,a2,1
 c7a:	0200                	addi	s0,sp,256
 c7c:	0404                	addi	s1,sp,512
 c7e:	0306                	slli	t1,t1,0x1
 c80:	0900                	addi	s0,sp,144
 c82:	0008                	0x8
 c84:	0501                	addi	a0,a0,0
 c86:	0004                	0x4
 c88:	0402                	c.slli64	s0
 c8a:	0304                	addi	s1,sp,384
 c8c:	0901                	addi	s2,s2,0
 c8e:	0004                	0x4
 c90:	0501                	addi	a0,a0,0
 c92:	001c                	0x1c
 c94:	0402                	c.slli64	s0
 c96:	0302                	c.slli64	t1
 c98:	0968                	addi	a0,sp,156
 c9a:	000c                	0xc
 c9c:	0501                	addi	a0,a0,0
 c9e:	0402000f          	0x402000f
 ca2:	0301                	addi	t1,t1,0
 ca4:	0900                	addi	s0,sp,144
 ca6:	000c                	0xc
 ca8:	0501                	addi	a0,a0,0
 caa:	0002                	c.slli64	zero
 cac:	0402                	c.slli64	s0
 cae:	0301                	addi	t1,t1,0
 cb0:	0900                	addi	s0,sp,144
 cb2:	0008                	0x8
 cb4:	0501                	addi	a0,a0,0
 cb6:	0309                	addi	t1,t1,2
 cb8:	0004091b          	sext.w	s2,s0
 cbc:	0501                	addi	a0,a0,0
 cbe:	0301                	addi	t1,t1,0
 cc0:	0901                	addi	s2,s2,0
 cc2:	0004                	0x4
 cc4:	0301                	addi	t1,t1,0
 cc6:	00140903          	lb	s2,1(s0)
 cca:	0501                	addi	a0,a0,0
 ccc:	0302                	c.slli64	t1
 cce:	0904                	addi	s1,sp,144
 cd0:	0030                	addi	a2,sp,8
 cd2:	0301                	addi	t1,t1,0
 cd4:	0901                	addi	s2,s2,0
 cd6:	0014                	0x14
 cd8:	0501                	addi	a0,a0,0
 cda:	0309                	addi	t1,t1,2
 cdc:	00100903          	lb	s2,1(zero) # 1 <__bin_size-0x7007>
 ce0:	0501                	addi	a0,a0,0
 ce2:	0301                	addi	t1,t1,0
 ce4:	0901                	addi	s2,s2,0
 ce6:	0004                	0x4
 ce8:	0301                	addi	t1,t1,0
 cea:	0904                	addi	s1,sp,144
 cec:	0014                	0x14
 cee:	0501                	addi	a0,a0,0
 cf0:	0305                	addi	t1,t1,1
 cf2:	0904                	addi	s1,sp,144
 cf4:	0018                	0x18
 cf6:	0301                	addi	t1,t1,0
 cf8:	0901                	addi	s2,s2,0
 cfa:	0008                	0x8
 cfc:	0501                	addi	a0,a0,0
 cfe:	030c                	addi	a1,sp,384
 d00:	0902                	c.slli64	s2
 d02:	0008                	0x8
 d04:	0501                	addi	a0,a0,0
 d06:	0305                	addi	t1,t1,1
 d08:	0900                	addi	s0,sp,144
 d0a:	0008                	0x8
 d0c:	0501                	addi	a0,a0,0
 d0e:	09020317          	auipc	t1,0x9020
 d12:	0004                	0x4
 d14:	0501                	addi	a0,a0,0
 d16:	09000313          	li	t1,144
 d1a:	000c                	0xc
 d1c:	0501                	addi	a0,a0,0
 d1e:	031c                	addi	a5,sp,384
 d20:	0900                	addi	s0,sp,144
 d22:	0010                	0x10
 d24:	0501                	addi	a0,a0,0
 d26:	030e                	slli	t1,t1,0x3
 d28:	0900                	addi	s0,sp,144
 d2a:	0004                	0x4
 d2c:	0501                	addi	a0,a0,0
 d2e:	030c                	addi	a1,sp,384
 d30:	0901                	addi	s2,s2,0
 d32:	0008                	0x8
 d34:	0501                	addi	a0,a0,0
 d36:	030d                	addi	t1,t1,3
 d38:	0901                	addi	s2,s2,0
 d3a:	0010                	0x10
 d3c:	0301                	addi	t1,t1,0
 d3e:	0902                	c.slli64	s2
 d40:	001c                	0x1c
 d42:	0501                	addi	a0,a0,0
 d44:	001a                	c.slli	zero,0x6
 d46:	0402                	c.slli64	s0
 d48:	0302                	c.slli64	t1
 d4a:	097a                	slli	s2,s2,0x1e
 d4c:	0018                	0x18
 d4e:	0501                	addi	a0,a0,0
 d50:	0005                	c.nop	1
 d52:	0402                	c.slli64	s0
 d54:	0301                	addi	t1,t1,0
 d56:	0900                	addi	s0,sp,144
 d58:	000c                	0xc
 d5a:	0501                	addi	a0,a0,0
 d5c:	0301                	addi	t1,t1,0
 d5e:	0908                	addi	a0,sp,144
 d60:	000c                	0xc
 d62:	0901                	addi	s2,s2,0
 d64:	0018                	0x18
 d66:	0100                	addi	s0,sp,128
 d68:	5d01                	li	s10,-32
 d6a:	0000                	unimp
 d6c:	0300                	addi	s0,sp,384
 d6e:	2500                	fld	fs0,8(a0)
 d70:	0000                	unimp
 d72:	0100                	addi	s0,sp,128
 d74:	fb01                	bnez	a4,c84 <__bin_size-0x6384>
 d76:	0d0e                	slli	s10,s10,0x3
 d78:	0100                	addi	s0,sp,128
 d7a:	0101                	addi	sp,sp,0
 d7c:	0001                	nop
 d7e:	0000                	unimp
 d80:	0001                	nop
 d82:	0100                	addi	s0,sp,128
 d84:	00696273          	csrrsi	tp,0x6,18
 d88:	7300                	ld	s0,32(a4)
 d8a:	6962                	ld	s2,24(sp)
 d8c:	625f 6f6f 2e74      	0x2e746f6f625f
 d92:	00010053          	fadd.s	ft0,ft2,ft0,rne
 d96:	0000                	unimp
 d98:	0900                	addi	s0,sp,144
 d9a:	3002                	fld	ft0,32(sp)
 d9c:	0200                	addi	s0,sp,256
 d9e:	0000                	unimp
 da0:	0000                	unimp
 da2:	0300                	addi	s0,sp,384
 da4:	0116                	slli	sp,sp,0x5
 da6:	04090303          	lb	t1,64(s2)
 daa:	0100                	addi	s0,sp,128
 dac:	08090103          	lb	sp,128(s2)
 db0:	0100                	addi	s0,sp,128
 db2:	04090103          	lb	sp,64(s2)
 db6:	0100                	addi	s0,sp,128
 db8:	04090603          	lb	a2,64(s2)
 dbc:	0100                	addi	s0,sp,128
 dbe:	04090303          	lb	t1,64(s2)
 dc2:	0100                	addi	s0,sp,128
 dc4:	0409                	addi	s0,s0,2
 dc6:	0000                	unimp
 dc8:	0101                	addi	sp,sp,0
 dca:	01fc                	addi	a5,sp,204
 dcc:	0000                	unimp
 dce:	00260003          	lb	zero,2(a2)
 dd2:	0000                	unimp
 dd4:	0101                	addi	sp,sp,0
 dd6:	000d0efb          	0xd0efb
 dda:	0101                	addi	sp,sp,0
 ddc:	0101                	addi	sp,sp,0
 dde:	0000                	unimp
 de0:	0100                	addi	s0,sp,128
 de2:	0000                	unimp
 de4:	7301                	lui	t1,0xfffe0
 de6:	6962                	ld	s2,24(sp)
 de8:	0000                	unimp
 dea:	5f696273          	csrrsi	tp,shpmcounter22,18
 dee:	6e65                	lui	t3,0x19
 df0:	7274                	ld	a3,224(a2)
 df2:	2e79                	addiw	t3,t3,30
 df4:	00010053          	fadd.s	ft0,ft2,ft0,rne
 df8:	0000                	unimp
 dfa:	0900                	addi	s0,sp,144
 dfc:	3002                	fld	ft0,32(sp)
 dfe:	0211                	addi	tp,tp,4
 e00:	0000                	unimp
 e02:	0000                	unimp
 e04:	0300                	addi	s0,sp,384
 e06:	0203010b          	0x203010b
 e0a:	0409                	addi	s0,s0,2
 e0c:	0100                	addi	s0,sp,128
 e0e:	04090203          	lb	tp,64(s2)
 e12:	0100                	addi	s0,sp,128
 e14:	04090103          	lb	sp,64(s2)
 e18:	0100                	addi	s0,sp,128
 e1a:	04090103          	lb	sp,64(s2)
 e1e:	0100                	addi	s0,sp,128
 e20:	04090103          	lb	sp,64(s2)
 e24:	0100                	addi	s0,sp,128
 e26:	04090103          	lb	sp,64(s2)
 e2a:	0100                	addi	s0,sp,128
 e2c:	04090103          	lb	sp,64(s2)
 e30:	0100                	addi	s0,sp,128
 e32:	04090103          	lb	sp,64(s2)
 e36:	0100                	addi	s0,sp,128
 e38:	04090103          	lb	sp,64(s2)
 e3c:	0100                	addi	s0,sp,128
 e3e:	04090103          	lb	sp,64(s2)
 e42:	0100                	addi	s0,sp,128
 e44:	04090103          	lb	sp,64(s2)
 e48:	0100                	addi	s0,sp,128
 e4a:	04090103          	lb	sp,64(s2)
 e4e:	0100                	addi	s0,sp,128
 e50:	04090103          	lb	sp,64(s2)
 e54:	0100                	addi	s0,sp,128
 e56:	04090103          	lb	sp,64(s2)
 e5a:	0100                	addi	s0,sp,128
 e5c:	04090103          	lb	sp,64(s2)
 e60:	0100                	addi	s0,sp,128
 e62:	04090103          	lb	sp,64(s2)
 e66:	0100                	addi	s0,sp,128
 e68:	04090103          	lb	sp,64(s2)
 e6c:	0100                	addi	s0,sp,128
 e6e:	04090103          	lb	sp,64(s2)
 e72:	0100                	addi	s0,sp,128
 e74:	04090103          	lb	sp,64(s2)
 e78:	0100                	addi	s0,sp,128
 e7a:	04090103          	lb	sp,64(s2)
 e7e:	0100                	addi	s0,sp,128
 e80:	04090103          	lb	sp,64(s2)
 e84:	0100                	addi	s0,sp,128
 e86:	04090103          	lb	sp,64(s2)
 e8a:	0100                	addi	s0,sp,128
 e8c:	04090103          	lb	sp,64(s2)
 e90:	0100                	addi	s0,sp,128
 e92:	04090103          	lb	sp,64(s2)
 e96:	0100                	addi	s0,sp,128
 e98:	04090103          	lb	sp,64(s2)
 e9c:	0100                	addi	s0,sp,128
 e9e:	04090103          	lb	sp,64(s2)
 ea2:	0100                	addi	s0,sp,128
 ea4:	04090103          	lb	sp,64(s2)
 ea8:	0100                	addi	s0,sp,128
 eaa:	04090103          	lb	sp,64(s2)
 eae:	0100                	addi	s0,sp,128
 eb0:	04090103          	lb	sp,64(s2)
 eb4:	0100                	addi	s0,sp,128
 eb6:	04090103          	lb	sp,64(s2)
 eba:	0100                	addi	s0,sp,128
 ebc:	04090303          	lb	t1,64(s2)
 ec0:	0100                	addi	s0,sp,128
 ec2:	04090103          	lb	sp,64(s2)
 ec6:	0100                	addi	s0,sp,128
 ec8:	04090303          	lb	t1,64(s2)
 ecc:	0100                	addi	s0,sp,128
 ece:	04090103          	lb	sp,64(s2)
 ed2:	0100                	addi	s0,sp,128
 ed4:	04090703          	lb	a4,64(s2)
 ed8:	0100                	addi	s0,sp,128
 eda:	04090203          	lb	tp,64(s2)
 ede:	0100                	addi	s0,sp,128
 ee0:	04090103          	lb	sp,64(s2)
 ee4:	0100                	addi	s0,sp,128
 ee6:	04090303          	lb	t1,64(s2)
 eea:	0100                	addi	s0,sp,128
 eec:	04090103          	lb	sp,64(s2)
 ef0:	0100                	addi	s0,sp,128
 ef2:	04090303          	lb	t1,64(s2)
 ef6:	0100                	addi	s0,sp,128
 ef8:	04090103          	lb	sp,64(s2)
 efc:	0100                	addi	s0,sp,128
 efe:	04090203          	lb	tp,64(s2)
 f02:	0100                	addi	s0,sp,128
 f04:	04090103          	lb	sp,64(s2)
 f08:	0100                	addi	s0,sp,128
 f0a:	04090203          	lb	tp,64(s2)
 f0e:	0100                	addi	s0,sp,128
 f10:	04090103          	lb	sp,64(s2)
 f14:	0100                	addi	s0,sp,128
 f16:	04090103          	lb	sp,64(s2)
 f1a:	0100                	addi	s0,sp,128
 f1c:	04090103          	lb	sp,64(s2)
 f20:	0100                	addi	s0,sp,128
 f22:	04090103          	lb	sp,64(s2)
 f26:	0100                	addi	s0,sp,128
 f28:	04090103          	lb	sp,64(s2)
 f2c:	0100                	addi	s0,sp,128
 f2e:	04090103          	lb	sp,64(s2)
 f32:	0100                	addi	s0,sp,128
 f34:	04090103          	lb	sp,64(s2)
 f38:	0100                	addi	s0,sp,128
 f3a:	04090103          	lb	sp,64(s2)
 f3e:	0100                	addi	s0,sp,128
 f40:	04090103          	lb	sp,64(s2)
 f44:	0100                	addi	s0,sp,128
 f46:	04090103          	lb	sp,64(s2)
 f4a:	0100                	addi	s0,sp,128
 f4c:	04090103          	lb	sp,64(s2)
 f50:	0100                	addi	s0,sp,128
 f52:	04090103          	lb	sp,64(s2)
 f56:	0100                	addi	s0,sp,128
 f58:	04090103          	lb	sp,64(s2)
 f5c:	0100                	addi	s0,sp,128
 f5e:	04090103          	lb	sp,64(s2)
 f62:	0100                	addi	s0,sp,128
 f64:	04090103          	lb	sp,64(s2)
 f68:	0100                	addi	s0,sp,128
 f6a:	04090103          	lb	sp,64(s2)
 f6e:	0100                	addi	s0,sp,128
 f70:	04090103          	lb	sp,64(s2)
 f74:	0100                	addi	s0,sp,128
 f76:	04090103          	lb	sp,64(s2)
 f7a:	0100                	addi	s0,sp,128
 f7c:	04090103          	lb	sp,64(s2)
 f80:	0100                	addi	s0,sp,128
 f82:	04090103          	lb	sp,64(s2)
 f86:	0100                	addi	s0,sp,128
 f88:	04090103          	lb	sp,64(s2)
 f8c:	0100                	addi	s0,sp,128
 f8e:	04090103          	lb	sp,64(s2)
 f92:	0100                	addi	s0,sp,128
 f94:	04090103          	lb	sp,64(s2)
 f98:	0100                	addi	s0,sp,128
 f9a:	04090103          	lb	sp,64(s2)
 f9e:	0100                	addi	s0,sp,128
 fa0:	04090103          	lb	sp,64(s2)
 fa4:	0100                	addi	s0,sp,128
 fa6:	04090103          	lb	sp,64(s2)
 faa:	0100                	addi	s0,sp,128
 fac:	04090103          	lb	sp,64(s2)
 fb0:	0100                	addi	s0,sp,128
 fb2:	04090103          	lb	sp,64(s2)
 fb6:	0100                	addi	s0,sp,128
 fb8:	04090203          	lb	tp,64(s2)
 fbc:	0100                	addi	s0,sp,128
 fbe:	04090103          	lb	sp,64(s2)
 fc2:	0100                	addi	s0,sp,128
 fc4:	0409                	addi	s0,s0,2
 fc6:	0000                	unimp
 fc8:	0101                	addi	sp,sp,0

Disassembly of section .debug_str:

0000000000000000 <.debug_str>:
   0:	2f696273          	csrrsi	tp,0x2f6,18
   4:	5f696273          	csrrsi	tp,shpmcounter22,18
   8:	696c                	ld	a1,208(a0)
   a:	2e62                	fld	ft8,24(sp)
   c:	6f6c0063          	beq	s8,s6,6ec <__bin_size-0x691c>
  10:	6f723267          	0x6f723267
  14:	6e75                	lui	t3,0x1d
  16:	7564                	ld	s1,232(a0)
  18:	0070                	addi	a2,sp,12
  1a:	20554e47          	fmsub.s	ft8,fa0,ft5,ft4,rmm
  1e:	20373143          	fmadd.s	ft2,fa4,ft3,ft4,rup
  22:	3031                	0x3031
  24:	322e                	fld	ft4,232(sp)
  26:	302e                	fld	ft0,232(sp)
  28:	2d20                	fld	fs0,88(a0)
  2a:	636d                	lui	t1,0x1b
  2c:	6f6d                	lui	t5,0x1b
  2e:	6564                	ld	s1,200(a0)
  30:	3d6c                	fld	fa1,248(a0)
  32:	656d                	lui	a0,0x1b
  34:	6164                	ld	s1,192(a0)
  36:	796e                	ld	s2,248(sp)
  38:	2d20                	fld	fs0,88(a0)
  3a:	616d                	addi	sp,sp,240
  3c:	6962                	ld	s2,24(sp)
  3e:	6c3d                	lui	s8,0xf
  40:	3670                	fld	fa2,232(a2)
  42:	2034                	fld	fa3,64(s0)
  44:	6d2d                	lui	s10,0xb
  46:	7261                	lui	tp,0xffff8
  48:	723d6863          	bltu	s10,gp,778 <__bin_size-0x6890>
  4c:	3676                	fld	fa2,376(sp)
  4e:	6934                	ld	a3,80(a0)
  50:	616d                	addi	sp,sp,240
  52:	6466                	ld	s0,88(sp)
  54:	2d20                	fld	fs0,88(a0)
  56:	4f2d2067          	0x4f2d2067
  5a:	2030                	fld	fa2,64(s0)
  5c:	662d                	lui	a2,0xb
  5e:	6f6e                	ld	t5,216(sp)
  60:	502d                	c.li	zero,-21
  62:	4549                	li	a0,18
  64:	2d20                	fld	fs0,88(a0)
  66:	6e66                	ld	t3,88(sp)
  68:	6d6f2d6f          	jal	s10,f273e <_payload_end+0xcb736>
  6c:	7469                	lui	s0,0xffffa
  6e:	662d                	lui	a2,0xb
  70:	6172                	ld	sp,280(sp)
  72:	656d                	lui	a0,0x1b
  74:	702d                	c.lui	zero,0xfffeb
  76:	746e696f          	jal	s2,e67bc <_payload_end+0xbf7b4>
  7a:	7265                	lui	tp,0xffff9
  7c:	7200                	ld	s0,32(a2)
  7e:	6165                	addi	sp,sp,112
  80:	5f64                	lw	s1,124(a4)
  82:	5f727363          	bgeu	tp,s7,668 <__bin_size-0x69a0>
  86:	756e                	ld	a0,248(sp)
  88:	006d                	c.nop	27
  8a:	3a45                	addiw	s4,s4,-15
  8c:	5c5c                	lw	a5,60(s0)
  8e:	3164                	fld	fs1,224(a0)
  90:	72705f73          	csrrwi	t5,0x727,0
  94:	63656a6f          	jal	s4,566ca <_payload_end+0x2f6c2>
  98:	7374                	ld	a3,224(a4)
  9a:	5c5c                	lw	a5,60(s0)
  9c:	6972                	ld	s2,280(sp)
  9e:	5f766373          	csrrsi	t1,shpmcounter23,12
  a2:	7270                	ld	a2,224(a2)
  a4:	6172676f          	jal	a4,26eba <bss_begin+0x3eba>
  a8:	6d6d                	lui	s10,0x1b
  aa:	6e69                	lui	t3,0x1a
  ac:	72705f67          	0x72705f67
  b0:	6361                	lui	t1,0x18
  b2:	6974                	ld	a3,208(a0)
  b4:	662d6563          	bltu	s10,sp,71e <__bin_size-0x68ea>
  b8:	642d726f          	jal	tp,d76fa <_payload_end+0xb06f2>
  bc:	73676e6f          	jal	t3,767f2 <_payload_end+0x4f7ea>
  c0:	6168                	ld	a0,192(a0)
  c2:	5c6e                	lw	s8,248(sp)
  c4:	635c                	ld	a5,128(a4)
  c6:	6168                	ld	a0,192(a0)
  c8:	7470                	ld	a2,232(s0)
  ca:	7265                	lui	tp,0xffff9
  cc:	385f 5c5c 616c      	0x616c5c5c385f
  d2:	3862                	fld	fa6,56(sp)
  d4:	312d                	addiw	sp,sp,-21
  d6:	5c5c                	lw	a5,60(s0)
  d8:	6562                	ld	a0,24(sp)
  da:	6f6e                	ld	t5,216(sp)
  dc:	72770073          	0x72770073
  e0:	7469                	lui	s0,0xffffa
  e2:	5f65                	li	t5,-7
  e4:	5f727363          	bgeu	tp,s7,6ca <__bin_size-0x693e>
  e8:	756e                	ld	a0,248(sp)
  ea:	006d                	c.nop	27
  ec:	6564726f          	jal	tp,47742 <_payload_end+0x2073a>
  f0:	0072                	c.slli	zero,0x1c
  f2:	72617473          	csrrci	s0,0x726,2
  f6:	0074                	addi	a3,sp,12
  f8:	6d70                	ld	a2,216(a0)
  fa:	6370                	ld	a2,192(a4)
  fc:	6766                	ld	a4,88(sp)
  fe:	735f 6968 7466      	0x74666968735f
 104:	7300                	ld	s0,32(a4)
 106:	6962                	ld	s2,24(sp)
 108:	6962732f          	0x6962732f
 10c:	6d5f 6961 2e6e      	0x2e6e69616d5f
 112:	72700063          	beq	zero,t2,832 <__bin_size-0x67d6>
 116:	7300746f          	jal	s0,7846 <__bin_size+0x83e>
 11a:	7a69                	lui	s4,0xffffa
 11c:	0065                	c.nop	25
 11e:	6572                	ld	a0,280(sp)
 120:	64695f67          	0x64695f67
 124:	0078                	addi	a4,sp,12
 126:	6d676663          	bltu	a4,s6,7f2 <__bin_size-0x6816>
 12a:	7361                	lui	t1,0xffff8
 12c:	6273006b          	0x6273006b
 130:	5f69                	li	t5,-6
 132:	5f746573          	csrrsi	a0,shpmcounter23,8
 136:	6d70                	ld	a2,216(a0)
 138:	0070                	addi	a2,sp,12
 13a:	6461                	lui	s0,0x18
 13c:	7264                	ld	s1,224(a2)
 13e:	616d                	addi	sp,sp,240
 140:	70006b73          	csrrsi	s6,0x700,0
 144:	706d                	c.lui	zero,0xffffb
 146:	6461                	lui	s0,0x18
 148:	7264                	ld	s1,224(a2)
 14a:	7000                	ld	s0,32(s0)
 14c:	706d                	c.lui	zero,0xffffb
 14e:	00676663          	bltu	a4,t1,15a <__bin_size-0x6eae>
 152:	5f696273          	csrrsi	tp,shpmcounter22,18
 156:	616d                	addi	sp,sp,240
 158:	6e69                	lui	t3,0x1a
 15a:	7000                	ld	s0,32(s0)
 15c:	706d                	c.lui	zero,0xffffb
 15e:	5f676663          	bltu	a4,s6,74a <__bin_size-0x68be>
 162:	00727363          	bgeu	tp,t2,168 <__bin_size-0x6ea0>
 166:	6d70                	ld	a2,216(a0)
 168:	6170                	ld	a2,192(a0)
 16a:	6464                	ld	s1,200(s0)
 16c:	5f72                	lw	t5,60(sp)
 16e:	00727363          	bgeu	tp,t2,174 <__bin_size-0x6e94>
 172:	5f696273          	csrrsi	tp,shpmcounter22,18
 176:	6365                	lui	t1,0x19
 178:	6c61                	lui	s8,0x18
 17a:	5f6c                	lw	a1,124(a4)
 17c:	6168                	ld	a0,192(a0)
 17e:	646e                	ld	s0,216(sp)
 180:	656c                	ld	a1,200(a0)
 182:	6500                	ld	s0,8(a0)
 184:	6c6c6163          	bltu	s8,t1,846 <__bin_size-0x67c2>
 188:	695f 0064 636d      	0x636d0064695f
 18e:	7561                	lui	a0,0xffff8
 190:	73006573          	csrrsi	a0,0x730,0
 194:	6962                	ld	s2,24(sp)
 196:	745f 6172 5f70      	0x5f706172745f
 19c:	6572                	ld	a0,280(sp)
 19e:	73007367          	0x73007367
 1a2:	6962                	ld	s2,24(sp)
 1a4:	6962732f          	0x6962732f
 1a8:	745f 6172 2e70      	0x2e706172745f
 1ae:	656d0063          	beq	s10,s6,7ee <__bin_size-0x681a>
 1b2:	6370                	ld	a2,192(a4)
 1b4:	7300                	ld	s0,32(a4)
 1b6:	6962                	ld	s2,24(sp)
 1b8:	745f 6172 5f70      	0x5f706172745f
 1be:	6e69                	lui	t3,0x1a
 1c0:	7469                	lui	s0,0xffffa
 1c2:	7300                	ld	s0,32(a4)
 1c4:	6962                	ld	s2,24(sp)
 1c6:	745f 6172 5f70      	0x5f706172745f
 1cc:	6168                	ld	a0,192(a0)
 1ce:	646e                	ld	s0,216(sp)
 1d0:	656c                	ld	a1,200(a0)
 1d2:	0072                	c.slli	zero,0x1c
 1d4:	736d                	lui	t1,0xffffb
 1d6:	6174                	ld	a3,192(a0)
 1d8:	7574                	ld	a3,232(a0)
 1da:	5f5f0073          	0x5f5f0073
 1de:	7562                	ld	a0,56(sp)
 1e0:	6c69                	lui	s8,0x1a
 1e2:	6974                	ld	a3,208(a0)
 1e4:	5f6e                	lw	t5,248(sp)
 1e6:	6176                	ld	sp,344(sp)
 1e8:	6c5f 7369 0074      	0x7473696c5f
 1ee:	6176                	ld	sp,344(sp)
 1f0:	756c                	ld	a1,232(a0)
 1f2:	0065                	c.nop	25
 1f4:	6175                	addi	sp,sp,368
 1f6:	7472                	ld	s0,312(sp)
 1f8:	695f 696e 0074      	0x74696e695f
 1fe:	6e75                	lui	t3,0x1d
 200:	6e676973          	csrrsi	s2,0x6e6,14
 204:	6465                	lui	s0,0x19
 206:	6320                	ld	s0,64(a4)
 208:	6168                	ld	a0,192(a0)
 20a:	0072                	c.slli	zero,0x1c
 20c:	6572                	ld	a0,280(sp)
 20e:	6461                	lui	s0,0x18
 210:	73003233          	0x73003233
 214:	6962                	ld	s2,24(sp)
 216:	7379732f          	0x7379732f
 21a:	752d                	lui	a0,0xfffeb
 21c:	7261                	lui	tp,0xffff8
 21e:	2e74                	fld	fa3,216(a2)
 220:	68730063          	beq	t1,t2,8a0 <__bin_size-0x6768>
 224:	2074726f          	jal	tp,47c2a <_payload_end+0x20c22>
 228:	6e75                	lui	t3,0x1d
 22a:	6e676973          	csrrsi	s2,0x6e6,14
 22e:	6465                	lui	s0,0x19
 230:	6920                	ld	s0,80(a0)
 232:	746e                	ld	s0,248(sp)
 234:	7000                	ld	s0,32(s0)
 236:	6972                	ld	s2,280(sp)
 238:	746e                	ld	s0,248(sp)
 23a:	685f 7865 7600      	0x76007865685f
 240:	7269                	lui	tp,0xffffa
 242:	7574                	ld	a3,232(a0)
 244:	6c61                	lui	s8,0x18
 246:	615f 6464 5f72      	0x5f726464615f
 24c:	0074                	addi	a3,sp,12
 24e:	6175                	addi	sp,sp,368
 250:	7472                	ld	s0,312(sp)
 252:	735f 6e65 5f64      	0x5f646e65735f
 258:	69727473          	csrrci	s0,0x697,4
 25c:	676e                	ld	a4,216(sp)
 25e:	7600                	ld	s0,40(a2)
 260:	6670                	ld	a2,200(a2)
 262:	735f 7274 745f      	0x745f7274735f
 268:	756e5f6f          	jal	t5,e59be <_payload_end+0xbe9b6>
 26c:	006d                	c.nop	27
 26e:	3375                	addiw	t1,t1,-3
 270:	5f32                	lw	t5,44(sp)
 272:	0074                	addi	a3,sp,12
 274:	6162                	ld	sp,24(sp)
 276:	6c006573          	csrrsi	a0,0x6c0,0
 27a:	20676e6f          	jal	t3,76480 <_payload_end+0x4f478>
 27e:	6f6c                	ld	a1,216(a4)
 280:	676e                	ld	a4,216(sp)
 282:	7520                	ld	s0,104(a0)
 284:	736e                	ld	t1,248(sp)
 286:	6769                	lui	a4,0x1a
 288:	656e                	ld	a0,216(sp)
 28a:	2064                	fld	fs1,192(s0)
 28c:	6e69                	lui	t3,0x1a
 28e:	0074                	addi	a3,sp,12
 290:	7570                	ld	a2,232(a0)
 292:	6374                	ld	a3,192(a4)
 294:	6168                	ld	a0,192(a0)
 296:	0072                	c.slli	zero,0x1c
 298:	3875                	addiw	a6,a6,-3
 29a:	745f 7500 7261      	0x72617500745f
 2a0:	5f74                	lw	a3,124(a4)
 2a2:	6572                	ld	a0,280(sp)
 2a4:	73007663          	bgeu	zero,a6,9d0 <__bin_size-0x6638>
 2a8:	7379                	lui	t1,0xffffe
 2aa:	755f 7261 5f74      	0x5f747261755f
 2b0:	7270                	ld	a2,224(a2)
 2b2:	6e69                	lui	t3,0x1a
 2b4:	6674                	ld	a3,200(a2)
 2b6:	6c00                	ld	s0,24(s0)
 2b8:	20676e6f          	jal	t3,764be <_payload_end+0x4f4b6>
 2bc:	6f6c                	ld	a1,216(a4)
 2be:	676e                	ld	a4,216(sp)
 2c0:	6920                	ld	s0,80(a0)
 2c2:	746e                	ld	s0,248(sp)
 2c4:	7700                	ld	s0,40(a4)
 2c6:	6972                	ld	s2,280(sp)
 2c8:	6574                	ld	a3,200(a0)
 2ca:	62003233          	0x62003233
 2ce:	7469                	lui	s0,0xffffa
 2d0:	61750073          	0x61750073
 2d4:	7472                	ld	s0,312(sp)
 2d6:	735f 6e65 0064      	0x646e65735f
 2dc:	726f6873          	csrrsi	a6,0x726,30
 2e0:	2074                	fld	fa3,192(s0)
 2e2:	6e69                	lui	t3,0x1a
 2e4:	0074                	addi	a3,sp,12
 2e6:	7076                	0x7076
 2e8:	5f66                	lw	t5,120(sp)
 2ea:	756e                	ld	a0,248(sp)
 2ec:	5f6d                	li	t5,-5
 2ee:	6f74                	ld	a3,216(a4)
 2f0:	735f 7274 7200      	0x72007274735f
 2f6:	6165                	addi	sp,sp,112
 2f8:	3864                	fld	fs1,240(s0)
 2fa:	7500                	ld	s0,40(a0)
 2fc:	6e69                	lui	t3,0x1a
 2fe:	3374                	fld	fa3,224(a4)
 300:	5f32                	lw	t5,44(sp)
 302:	0074                	addi	a3,sp,12
 304:	2f696273          	csrrsi	tp,0x2f6,18
 308:	5f696273          	csrrsi	tp,shpmcounter22,18
 30c:	6f62                	ld	t5,24(sp)
 30e:	532e746f          	jal	s0,e7840 <_payload_end+0xc0838>
 312:	4500                	lw	s0,8(a0)
 314:	5c3a                	lw	s8,172(sp)
 316:	3164                	fld	fs1,224(a0)
 318:	72705f73          	csrrwi	t5,0x727,0
 31c:	63656a6f          	jal	s4,56952 <_payload_end+0x2f94a>
 320:	7374                	ld	a3,224(a4)
 322:	725c                	ld	a5,160(a2)
 324:	7369                	lui	t1,0xffffa
 326:	705f7663          	bgeu	t5,t0,a32 <__bin_size-0x65d6>
 32a:	6f72                	ld	t5,280(sp)
 32c:	6d617267          	0x6d617267
 330:	696d                	lui	s2,0x1b
 332:	676e                	ld	a4,216(sp)
 334:	705f 6172 7463      	0x74636172705f
 33a:	6369                	lui	t1,0x1a
 33c:	2d65                	addiw	s10,s10,25
 33e:	6f66                	ld	t5,88(sp)
 340:	2d72                	fld	fs10,280(sp)
 342:	6f64                	ld	s1,216(a4)
 344:	676e                	ld	a4,216(sp)
 346:	6e616873          	csrrsi	a6,0x6e6,2
 34a:	635c                	ld	a5,128(a4)
 34c:	6168                	ld	a0,192(a0)
 34e:	7470                	ld	a2,232(s0)
 350:	7265                	lui	tp,0xffff9
 352:	385f 6c5c 6261      	0x62616c5c385f
 358:	2d38                	fld	fa4,88(a0)
 35a:	5c31                	li	s8,-20
 35c:	6562                	ld	a0,24(sp)
 35e:	6f6e                	ld	t5,216(sp)
 360:	4e470073          	0x4e470073
 364:	2055                	0x2055
 366:	5341                	li	t1,-16
 368:	3220                	fld	fs0,96(a2)
 36a:	332e                	fld	ft6,232(sp)
 36c:	0035                	c.nop	13
 36e:	2f696273          	csrrsi	tp,0x2f6,18
 372:	5f696273          	csrrsi	tp,shpmcounter22,18
 376:	6e65                	lui	t3,0x19
 378:	7274                	ld	a3,224(a2)
 37a:	2e79                	addiw	t3,t3,30
 37c:	          	fadd.s	ft0,ft0,ft0,rne

Disassembly of section .comment:

0000000000000000 <.comment>:
   0:	3a434347          	fmsub.d	ft6,ft6,ft4,ft7,rmm
   4:	2820                	fld	fs0,80(s0)
   6:	7558                	ld	a4,168(a0)
   8:	6e61                	lui	t3,0x18
   a:	6974                	ld	a3,208(a0)
   c:	2d65                	addiw	s10,s10,25
   e:	3039                	0x3039
  10:	2030                	fld	fa2,64(s0)
  12:	6c65                	lui	s8,0x19
  14:	2066                	fld	ft0,88(sp)
  16:	656e                	ld	a0,216(sp)
  18:	62696c77          	0x62696c77
  1c:	6720                	ld	s0,72(a4)
  1e:	54206363          	bltu	zero,sp,564 <__bin_size-0x6aa4>
  22:	636c6f6f          	jal	t5,c6658 <_payload_end+0x9f650>
  26:	6168                	ld	a0,192(a0)
  28:	6e69                	lui	t3,0x1a
  2a:	5620                	lw	s0,104(a2)
  2c:	2e32                	fld	ft8,264(sp)
  2e:	2e36                	fld	ft8,328(sp)
  30:	2031                	0x2031
  32:	2d42                	fld	fs10,16(sp)
  34:	3032                	fld	ft0,296(sp)
  36:	3232                	fld	ft4,296(sp)
  38:	3930                	fld	fa2,112(a0)
  3a:	3630                	fld	fa2,104(a2)
  3c:	2029                	0x2029
  3e:	3031                	0x3031
  40:	322e                	fld	ft4,232(sp)
  42:	302e                	fld	ft0,232(sp)
	...

Disassembly of section .riscv.attributes:

0000000000000000 <.riscv.attributes>:
   0:	3341                	addiw	t1,t1,-16
   2:	0000                	unimp
   4:	7200                	ld	s0,32(a2)
   6:	7369                	lui	t1,0xffffa
   8:	01007663          	bgeu	zero,a6,14 <__bin_size-0x6ff4>
   c:	0029                	c.nop	10
   e:	0000                	unimp
  10:	1004                	addi	s1,sp,32
  12:	7205                	lui	tp,0xfffe1
  14:	3676                	fld	fa2,376(sp)
  16:	6934                	ld	a3,80(a0)
  18:	7032                	0x7032
  1a:	5f30                	lw	a2,120(a4)
  1c:	326d                	addiw	tp,tp,-5
  1e:	3070                	fld	fa2,224(s0)
  20:	615f 7032 5f30      	0x5f307032615f
  26:	3266                	fld	ft4,120(sp)
  28:	3070                	fld	fa2,224(s0)
  2a:	645f 7032 0030      	0x307032645f
  30:	0108                	addi	a0,sp,128
  32:	0b0a                	slli	s6,s6,0x2

Disassembly of section .debug_frame:

0000000000000000 <.debug_frame>:
   0:	000c                	0xc
   2:	0000                	unimp
   4:	ffffffff          	0xffffffff
   8:	7c010003          	lb	zero,1984(sp)
   c:	0d01                	addi	s10,s10,0
   e:	0002                	c.slli64	zero
  10:	002c                	addi	a1,sp,8
  12:	0000                	unimp
  14:	0000                	unimp
  16:	0000                	unimp
  18:	0050                	addi	a2,sp,4
  1a:	0002                	c.slli64	zero
  1c:	0000                	unimp
  1e:	0000                	unimp
  20:	0130                	addi	a2,sp,136
  22:	0000                	unimp
  24:	0000                	unimp
  26:	0000                	unimp
  28:	0e44                	addi	s1,sp,788
  2a:	4830                	lw	a2,80(s0)
  2c:	0288                	addi	a0,sp,320
  2e:	0489                	addi	s1,s1,2
  30:	0c44                	addi	s1,sp,532
  32:	0008                	0x8
  34:	c8011403          	lh	s0,-896(sp)
  38:	020c                	addi	a1,sp,256
  3a:	4430                	lw	a2,72(s0)
  3c:	44c9                	li	s1,18
  3e:	000e                	c.slli	zero,0x3
  40:	002c                	addi	a1,sp,8
  42:	0000                	unimp
  44:	0000                	unimp
  46:	0000                	unimp
  48:	0180                	addi	s0,sp,192
  4a:	0002                	c.slli64	zero
  4c:	0000                	unimp
  4e:	0000                	unimp
  50:	0124                	addi	s1,sp,136
  52:	0000                	unimp
  54:	0000                	unimp
  56:	0000                	unimp
  58:	0e44                	addi	s1,sp,788
  5a:	4470                	lw	a2,76(s0)
  5c:	0288                	addi	a0,sp,320
  5e:	0c44                	addi	s1,sp,532
  60:	0008                	0x8
  62:	c8011003          	lh	zero,-896(sp)
  66:	020c                	addi	a1,sp,256
  68:	4470                	lw	a2,76(s0)
  6a:	000e                	c.slli	zero,0x3
  6c:	0000                	unimp
  6e:	0000                	unimp
  70:	002c                	addi	a1,sp,8
  72:	0000                	unimp
  74:	0000                	unimp
  76:	0000                	unimp
  78:	02a4                	addi	s1,sp,328
  7a:	0002                	c.slli64	zero
  7c:	0000                	unimp
  7e:	0000                	unimp
  80:	0068                	addi	a0,sp,12
  82:	0000                	unimp
  84:	0000                	unimp
  86:	0000                	unimp
  88:	0e44                	addi	s1,sp,788
  8a:	4430                	lw	a2,72(s0)
  8c:	0288                	addi	a0,sp,320
  8e:	0c44                	addi	s1,sp,532
  90:	0008                	0x8
  92:	5402                	lw	s0,32(sp)
  94:	0cc8                	addi	a0,sp,596
  96:	3002                	fld	ft0,32(sp)
  98:	0e44                	addi	s1,sp,788
  9a:	0000                	unimp
  9c:	0000                	unimp
  9e:	0000                	unimp
  a0:	000c                	0xc
  a2:	0000                	unimp
  a4:	ffffffff          	0xffffffff
  a8:	7c010003          	lb	zero,1984(sp)
  ac:	0d01                	addi	s10,s10,0
  ae:	0002                	c.slli64	zero
  b0:	002c                	addi	a1,sp,8
  b2:	0000                	unimp
  b4:	00a0                	addi	s0,sp,72
  b6:	0000                	unimp
  b8:	030c                	addi	a1,sp,384
  ba:	0002                	c.slli64	zero
  bc:	0000                	unimp
  be:	0000                	unimp
  c0:	01e0                	addi	s0,sp,204
  c2:	0000                	unimp
  c4:	0000                	unimp
  c6:	0000                	unimp
  c8:	0e44                	addi	s1,sp,788
  ca:	4860                	lw	s0,84(s0)
  cc:	0281                	addi	t0,t0,0
  ce:	0488                	addi	a0,sp,576
  d0:	0c44                	addi	s1,sp,532
  d2:	0008                	0x8
  d4:	c101c403          	lbu	s0,-1008(gp)
  d8:	c844                	sw	s1,20(s0)
  da:	020c                	addi	a1,sp,256
  dc:	4460                	lw	s0,76(s0)
  de:	000e                	c.slli	zero,0x3
  e0:	0034                	addi	a3,sp,8
  e2:	0000                	unimp
  e4:	00a0                	addi	s0,sp,72
  e6:	0000                	unimp
  e8:	04ec                	addi	a1,sp,588
  ea:	0002                	c.slli64	zero
  ec:	0000                	unimp
  ee:	0000                	unimp
  f0:	00d0                	addi	a2,sp,68
  f2:	0000                	unimp
  f4:	0000                	unimp
  f6:	0000                	unimp
  f8:	0e44                	addi	s1,sp,788
  fa:	4c50                	lw	a2,28(s0)
  fc:	0281                	addi	t0,t0,0
  fe:	0488                	addi	a0,sp,576
 100:	0689                	addi	a3,a3,2
 102:	0c44                	addi	s1,sp,532
 104:	0008                	0x8
 106:	ac02                	fsd	ft0,24(sp)
 108:	44c1                	li	s1,16
 10a:	0cc8                	addi	a0,sp,596
 10c:	5002                	0x5002
 10e:	c944                	sw	s1,20(a0)
 110:	0e44                	addi	s1,sp,788
 112:	0000                	unimp
 114:	0000                	unimp
 116:	0000                	unimp
 118:	000c                	0xc
 11a:	0000                	unimp
 11c:	ffffffff          	0xffffffff
 120:	7c010003          	lb	zero,1984(sp)
 124:	0d01                	addi	s10,s10,0
 126:	0002                	c.slli64	zero
 128:	002c                	addi	a1,sp,8
 12a:	0000                	unimp
 12c:	0118                	addi	a4,sp,128
 12e:	0000                	unimp
 130:	05bc                	addi	a5,sp,712
 132:	0002                	c.slli64	zero
 134:	0000                	unimp
 136:	0000                	unimp
 138:	0084                	addi	s1,sp,64
 13a:	0000                	unimp
 13c:	0000                	unimp
 13e:	0000                	unimp
 140:	0e44                	addi	s1,sp,788
 142:	4830                	lw	a2,80(s0)
 144:	0281                	addi	t0,t0,0
 146:	0488                	addi	a0,sp,576
 148:	0c44                	addi	s1,sp,532
 14a:	0008                	0x8
 14c:	6802                	ld	a6,0(sp)
 14e:	44c1                	li	s1,16
 150:	0cc8                	addi	a0,sp,596
 152:	3002                	fld	ft0,32(sp)
 154:	0e44                	addi	s1,sp,788
 156:	0000                	unimp
 158:	0034                	addi	a3,sp,8
 15a:	0000                	unimp
 15c:	0118                	addi	a4,sp,128
 15e:	0000                	unimp
 160:	0640                	addi	s0,sp,772
 162:	0002                	c.slli64	zero
 164:	0000                	unimp
 166:	0000                	unimp
 168:	0074                	addi	a3,sp,12
 16a:	0000                	unimp
 16c:	0000                	unimp
 16e:	0000                	unimp
 170:	0e44                	addi	s1,sp,788
 172:	4c40                	lw	s0,28(s0)
 174:	0281                	addi	t0,t0,0
 176:	0488                	addi	a0,sp,576
 178:	0689                	addi	a3,a3,2
 17a:	0c44                	addi	s1,sp,532
 17c:	0008                	0x8
 17e:	5002                	0x5002
 180:	44c1                	li	s1,16
 182:	0cc8                	addi	a0,sp,596
 184:	4002                	0x4002
 186:	c944                	sw	s1,20(a0)
 188:	0e44                	addi	s1,sp,788
 18a:	0000                	unimp
 18c:	0000                	unimp
 18e:	0000                	unimp
 190:	002c                	addi	a1,sp,8
 192:	0000                	unimp
 194:	0118                	addi	a4,sp,128
 196:	0000                	unimp
 198:	06b4                	addi	a3,sp,840
 19a:	0002                	c.slli64	zero
 19c:	0000                	unimp
 19e:	0000                	unimp
 1a0:	003c                	addi	a5,sp,8
 1a2:	0000                	unimp
 1a4:	0000                	unimp
 1a6:	0000                	unimp
 1a8:	0e44                	addi	s1,sp,788
 1aa:	4420                	lw	s0,72(s0)
 1ac:	0288                	addi	a0,sp,320
 1ae:	0c44                	addi	s1,sp,532
 1b0:	0008                	0x8
 1b2:	c868                	sw	a0,84(s0)
 1b4:	020c                	addi	a1,sp,256
 1b6:	4420                	lw	s0,72(s0)
 1b8:	000e                	c.slli	zero,0x3
 1ba:	0000                	unimp
 1bc:	0000                	unimp
 1be:	0000                	unimp
 1c0:	000c                	0xc
 1c2:	0000                	unimp
 1c4:	ffffffff          	0xffffffff
 1c8:	7c010003          	lb	zero,1984(sp)
 1cc:	0d01                	addi	s10,s10,0
 1ce:	0002                	c.slli64	zero
 1d0:	002c                	addi	a1,sp,8
 1d2:	0000                	unimp
 1d4:	01c0                	addi	s0,sp,196
 1d6:	0000                	unimp
 1d8:	06f0                	addi	a2,sp,844
 1da:	0002                	c.slli64	zero
 1dc:	0000                	unimp
 1de:	0000                	unimp
 1e0:	002c                	addi	a1,sp,8
 1e2:	0000                	unimp
 1e4:	0000                	unimp
 1e6:	0000                	unimp
 1e8:	0e44                	addi	s1,sp,788
 1ea:	4420                	lw	s0,72(s0)
 1ec:	0288                	addi	a0,sp,320
 1ee:	0c44                	addi	s1,sp,532
 1f0:	0008                	0x8
 1f2:	c858                	sw	a4,20(s0)
 1f4:	020c                	addi	a1,sp,256
 1f6:	4420                	lw	s0,72(s0)
 1f8:	000e                	c.slli	zero,0x3
 1fa:	0000                	unimp
 1fc:	0000                	unimp
 1fe:	0000                	unimp
 200:	002c                	addi	a1,sp,8
 202:	0000                	unimp
 204:	01c0                	addi	s0,sp,196
 206:	0000                	unimp
 208:	071c                	addi	a5,sp,896
 20a:	0002                	c.slli64	zero
 20c:	0000                	unimp
 20e:	0000                	unimp
 210:	002c                	addi	a1,sp,8
 212:	0000                	unimp
 214:	0000                	unimp
 216:	0000                	unimp
 218:	0e44                	addi	s1,sp,788
 21a:	4420                	lw	s0,72(s0)
 21c:	0288                	addi	a0,sp,320
 21e:	0c44                	addi	s1,sp,532
 220:	0008                	0x8
 222:	c858                	sw	a4,20(s0)
 224:	020c                	addi	a1,sp,256
 226:	4420                	lw	s0,72(s0)
 228:	000e                	c.slli	zero,0x3
 22a:	0000                	unimp
 22c:	0000                	unimp
 22e:	0000                	unimp
 230:	002c                	addi	a1,sp,8
 232:	0000                	unimp
 234:	01c0                	addi	s0,sp,196
 236:	0000                	unimp
 238:	0748                	addi	a0,sp,900
 23a:	0002                	c.slli64	zero
 23c:	0000                	unimp
 23e:	0000                	unimp
 240:	0034                	addi	a3,sp,8
 242:	0000                	unimp
 244:	0000                	unimp
 246:	0000                	unimp
 248:	0e44                	addi	s1,sp,788
 24a:	4420                	lw	s0,72(s0)
 24c:	0288                	addi	a0,sp,320
 24e:	0c44                	addi	s1,sp,532
 250:	0008                	0x8
 252:	c860                	sw	s0,84(s0)
 254:	020c                	addi	a1,sp,256
 256:	4420                	lw	s0,72(s0)
 258:	000e                	c.slli	zero,0x3
 25a:	0000                	unimp
 25c:	0000                	unimp
 25e:	0000                	unimp
 260:	002c                	addi	a1,sp,8
 262:	0000                	unimp
 264:	01c0                	addi	s0,sp,196
 266:	0000                	unimp
 268:	077c                	addi	a5,sp,908
 26a:	0002                	c.slli64	zero
 26c:	0000                	unimp
 26e:	0000                	unimp
 270:	024c                	addi	a1,sp,260
 272:	0000                	unimp
 274:	0000                	unimp
 276:	0000                	unimp
 278:	0e44                	addi	s1,sp,788
 27a:	4820                	lw	s0,80(s0)
 27c:	0281                	addi	t0,t0,0
 27e:	0488                	addi	a0,sp,576
 280:	0c44                	addi	s1,sp,532
 282:	0008                	0x8
 284:	c1023003          	ld	zero,-1008(tp) # fffffffffffe0c10 <_payload_end+0xfffffffffffb9c08>
 288:	c844                	sw	s1,20(s0)
 28a:	020c                	addi	a1,sp,256
 28c:	4420                	lw	s0,72(s0)
 28e:	000e                	c.slli	zero,0x3
 290:	002c                	addi	a1,sp,8
 292:	0000                	unimp
 294:	01c0                	addi	s0,sp,196
 296:	0000                	unimp
 298:	09c8                	addi	a0,sp,212
 29a:	0002                	c.slli64	zero
 29c:	0000                	unimp
 29e:	0000                	unimp
 2a0:	0070                	addi	a2,sp,12
 2a2:	0000                	unimp
 2a4:	0000                	unimp
 2a6:	0000                	unimp
 2a8:	0e44                	addi	s1,sp,788
 2aa:	4830                	lw	a2,80(s0)
 2ac:	0281                	addi	t0,t0,0
 2ae:	0488                	addi	a0,sp,576
 2b0:	0c44                	addi	s1,sp,532
 2b2:	0008                	0x8
 2b4:	5402                	lw	s0,32(sp)
 2b6:	44c1                	li	s1,16
 2b8:	0cc8                	addi	a0,sp,596
 2ba:	3002                	fld	ft0,32(sp)
 2bc:	0e44                	addi	s1,sp,788
 2be:	0000                	unimp
 2c0:	002c                	addi	a1,sp,8
 2c2:	0000                	unimp
 2c4:	01c0                	addi	s0,sp,196
 2c6:	0000                	unimp
 2c8:	0a38                	addi	a4,sp,280
 2ca:	0002                	c.slli64	zero
 2cc:	0000                	unimp
 2ce:	0000                	unimp
 2d0:	0040                	addi	s0,sp,4
 2d2:	0000                	unimp
 2d4:	0000                	unimp
 2d6:	0000                	unimp
 2d8:	0e44                	addi	s1,sp,788
 2da:	4820                	lw	s0,80(s0)
 2dc:	0281                	addi	t0,t0,0
 2de:	0488                	addi	a0,sp,576
 2e0:	0c44                	addi	s1,sp,532
 2e2:	0008                	0x8
 2e4:	c164                	sw	s1,68(a0)
 2e6:	c844                	sw	s1,20(s0)
 2e8:	020c                	addi	a1,sp,256
 2ea:	4420                	lw	s0,72(s0)
 2ec:	000e                	c.slli	zero,0x3
 2ee:	0000                	unimp
 2f0:	002c                	addi	a1,sp,8
 2f2:	0000                	unimp
 2f4:	01c0                	addi	s0,sp,196
 2f6:	0000                	unimp
 2f8:	0a78                	addi	a4,sp,284
 2fa:	0002                	c.slli64	zero
 2fc:	0000                	unimp
 2fe:	0000                	unimp
 300:	0060                	addi	s0,sp,12
 302:	0000                	unimp
 304:	0000                	unimp
 306:	0000                	unimp
 308:	0e44                	addi	s1,sp,788
 30a:	4820                	lw	s0,80(s0)
 30c:	0281                	addi	t0,t0,0
 30e:	0488                	addi	a0,sp,576
 310:	0c44                	addi	s1,sp,532
 312:	0008                	0x8
 314:	4402                	lw	s0,0(sp)
 316:	44c1                	li	s1,16
 318:	0cc8                	addi	a0,sp,596
 31a:	2002                	fld	ft0,0(sp)
 31c:	0e44                	addi	s1,sp,788
 31e:	0000                	unimp
 320:	002c                	addi	a1,sp,8
 322:	0000                	unimp
 324:	01c0                	addi	s0,sp,196
 326:	0000                	unimp
 328:	0ad8                	addi	a4,sp,340
 32a:	0002                	c.slli64	zero
 32c:	0000                	unimp
 32e:	0000                	unimp
 330:	0090                	addi	a2,sp,64
 332:	0000                	unimp
 334:	0000                	unimp
 336:	0000                	unimp
 338:	0e44                	addi	s1,sp,788
 33a:	4830                	lw	a2,80(s0)
 33c:	0281                	addi	t0,t0,0
 33e:	0488                	addi	a0,sp,576
 340:	0c44                	addi	s1,sp,532
 342:	0008                	0x8
 344:	7402                	ld	s0,32(sp)
 346:	44c1                	li	s1,16
 348:	0cc8                	addi	a0,sp,596
 34a:	3002                	fld	ft0,32(sp)
 34c:	0e44                	addi	s1,sp,788
 34e:	0000                	unimp
 350:	002c                	addi	a1,sp,8
 352:	0000                	unimp
 354:	01c0                	addi	s0,sp,196
 356:	0000                	unimp
 358:	0b68                	addi	a0,sp,412
 35a:	0002                	c.slli64	zero
 35c:	0000                	unimp
 35e:	0000                	unimp
 360:	00f0                	addi	a2,sp,76
 362:	0000                	unimp
 364:	0000                	unimp
 366:	0000                	unimp
 368:	0e44                	addi	s1,sp,788
 36a:	4440                	lw	s0,12(s0)
 36c:	0288                	addi	a0,sp,320
 36e:	0c44                	addi	s1,sp,532
 370:	0008                	0x8
 372:	dc02                	sw	zero,56(sp)
 374:	0cc8                	addi	a0,sp,596
 376:	4002                	0x4002
 378:	0e44                	addi	s1,sp,788
 37a:	0000                	unimp
 37c:	0000                	unimp
 37e:	0000                	unimp
 380:	002c                	addi	a1,sp,8
 382:	0000                	unimp
 384:	01c0                	addi	s0,sp,196
 386:	0000                	unimp
 388:	0c58                	addi	a4,sp,532
 38a:	0002                	c.slli64	zero
 38c:	0000                	unimp
 38e:	0000                	unimp
 390:	01c8                	addi	a0,sp,196
 392:	0000                	unimp
 394:	0000                	unimp
 396:	0000                	unimp
 398:	0e44                	addi	s1,sp,788
 39a:	4850                	lw	a2,20(s0)
 39c:	0281                	addi	t0,t0,0
 39e:	0488                	addi	a0,sp,576
 3a0:	0c44                	addi	s1,sp,532
 3a2:	0008                	0x8
 3a4:	c101ac03          	lw	s8,-1008(gp)
 3a8:	c844                	sw	s1,20(s0)
 3aa:	020c                	addi	a1,sp,256
 3ac:	4450                	lw	a2,12(s0)
 3ae:	000e                	c.slli	zero,0x3
 3b0:	002c                	addi	a1,sp,8
 3b2:	0000                	unimp
 3b4:	01c0                	addi	s0,sp,196
 3b6:	0000                	unimp
 3b8:	0e20                	addi	s0,sp,792
 3ba:	0002                	c.slli64	zero
 3bc:	0000                	unimp
 3be:	0000                	unimp
 3c0:	01d4                	addi	a3,sp,196
 3c2:	0000                	unimp
 3c4:	0000                	unimp
 3c6:	0000                	unimp
 3c8:	0e44                	addi	s1,sp,788
 3ca:	4850                	lw	a2,20(s0)
 3cc:	0281                	addi	t0,t0,0
 3ce:	0488                	addi	a0,sp,576
 3d0:	0c44                	addi	s1,sp,532
 3d2:	0008                	0x8
 3d4:	c101b803          	ld	a6,-1008(gp)
 3d8:	c844                	sw	s1,20(s0)
 3da:	020c                	addi	a1,sp,256
 3dc:	4450                	lw	a2,12(s0)
 3de:	000e                	c.slli	zero,0x3
 3e0:	002c                	addi	a1,sp,8
 3e2:	0000                	unimp
 3e4:	01c0                	addi	s0,sp,196
 3e6:	0000                	unimp
 3e8:	0ff4                	addi	a3,sp,988
 3ea:	0002                	c.slli64	zero
 3ec:	0000                	unimp
 3ee:	0000                	unimp
 3f0:	006c                	addi	a1,sp,12
 3f2:	0000                	unimp
 3f4:	0000                	unimp
 3f6:	0000                	unimp
 3f8:	0e44                	addi	s1,sp,788
 3fa:	4870                	lw	a2,84(s0)
 3fc:	1281                	addi	t0,t0,-32
 3fe:	1488                	addi	a0,sp,608
 400:	0c44                	addi	s1,sp,532
 402:	4008                	lw	a0,0(s0)
 404:	5002                	0x5002
 406:	44c1                	li	s1,16
 408:	0cc8                	addi	a0,sp,596
 40a:	7002                	0x7002
 40c:	0e44                	addi	s1,sp,788
 40e:	0000                	unimp
 410:	002c                	addi	a1,sp,8
 412:	0000                	unimp
 414:	01c0                	addi	s0,sp,196
 416:	0000                	unimp
 418:	1060                	addi	s0,sp,44
 41a:	0002                	c.slli64	zero
 41c:	0000                	unimp
 41e:	0000                	unimp
 420:	00d0                	addi	a2,sp,68
 422:	0000                	unimp
 424:	0000                	unimp
 426:	0000                	unimp
 428:	0e44                	addi	s1,sp,788
 42a:	4830                	lw	a2,80(s0)
 42c:	0281                	addi	t0,t0,0
 42e:	0488                	addi	a0,sp,576
 430:	0c44                	addi	s1,sp,532
 432:	0008                	0x8
 434:	b402                	fsd	ft0,40(sp)
 436:	44c1                	li	s1,16
 438:	0cc8                	addi	a0,sp,596
 43a:	3002                	fld	ft0,32(sp)
 43c:	0e44                	addi	s1,sp,788
	...
