
mysbi.elf:     file format elf64-littleriscv


Disassembly of section .text.boot:

0000000000020000 <_start>:
   20000:	0300006f          	j	20030 <reset>
   20004:	4765                	li	a4,25
   20006:	422e4e4f          	fnmadd.d	ft8,ft8,ft2,fs0,rmm
   2000a:	3054                	fld	fa3,160(s0)
   2000c:	5678                	lw	a4,108(a2)
   2000e:	1234                	addi	a3,sp,296
   20010:	7000                	ld	s0,32(s0)
   20012:	0000                	unimp
   20014:	0030                	addi	a2,sp,8
   20016:	0000                	unimp
   20018:	30303033          	0x30303033
   2001c:	0000                	unimp
   2001e:	0002                	c.slli64	zero
   20020:	0000                	unimp
   20022:	0002                	c.slli64	zero
	...
   2002c:	2e34                	fld	fa3,88(a2)
   2002e:	0030                	addi	a2,sp,8

0000000000020030 <reset>:
   20030:	30401073          	csrw	mie,zero
   20034:	00006117          	auipc	sp,0x6
   20038:	fcc10113          	addi	sp,sp,-52 # 26000 <stacks_start>
   2003c:	000012b7          	lui	t0,0x1
   20040:	00510133          	add	sp,sp,t0
   20044:	34011073          	csrw	mscratch,sp
   20048:	4a40006f          	j	204ec <sbi_main>

Disassembly of section .text:

0000000000020050 <read_csr_num>:
   20050:	fd010113          	addi	sp,sp,-48
   20054:	02813423          	sd	s0,40(sp)
   20058:	02913023          	sd	s1,32(sp)
   2005c:	03010413          	addi	s0,sp,48
   20060:	00050793          	mv	a5,a0
   20064:	fcf42e23          	sw	a5,-36(s0)
   20068:	fe043423          	sd	zero,-24(s0)
   2006c:	fdc42783          	lw	a5,-36(s0)
   20070:	c607869b          	addiw	a3,a5,-928
   20074:	0006871b          	sext.w	a4,a3
   20078:	01700793          	li	a5,23
   2007c:	0ee7e463          	bltu	a5,a4,20164 <read_csr_num+0x114>
   20080:	02069793          	slli	a5,a3,0x20
   20084:	0207d793          	srli	a5,a5,0x20
   20088:	00279713          	slli	a4,a5,0x2
   2008c:	00005797          	auipc	a5,0x5
   20090:	1dc78793          	addi	a5,a5,476 # 25268 <payload_bin+0x4008>
   20094:	00f707b3          	add	a5,a4,a5
   20098:	0007a783          	lw	a5,0(a5)
   2009c:	0007871b          	sext.w	a4,a5
   200a0:	00005797          	auipc	a5,0x5
   200a4:	1c878793          	addi	a5,a5,456 # 25268 <payload_bin+0x4008>
   200a8:	00f707b3          	add	a5,a4,a5
   200ac:	00078067          	jr	a5
   200b0:	3a0027f3          	csrr	a5,pmpcfg0
   200b4:	00078493          	mv	s1,a5
   200b8:	00048793          	mv	a5,s1
   200bc:	fef43423          	sd	a5,-24(s0)
   200c0:	0a80006f          	j	20168 <read_csr_num+0x118>
   200c4:	3b0027f3          	csrr	a5,pmpaddr0
   200c8:	00078493          	mv	s1,a5
   200cc:	00048793          	mv	a5,s1
   200d0:	fef43423          	sd	a5,-24(s0)
   200d4:	0940006f          	j	20168 <read_csr_num+0x118>
   200d8:	3b1027f3          	csrr	a5,pmpaddr1
   200dc:	00078493          	mv	s1,a5
   200e0:	00048793          	mv	a5,s1
   200e4:	fef43423          	sd	a5,-24(s0)
   200e8:	0800006f          	j	20168 <read_csr_num+0x118>
   200ec:	3b2027f3          	csrr	a5,pmpaddr2
   200f0:	00078493          	mv	s1,a5
   200f4:	00048793          	mv	a5,s1
   200f8:	fef43423          	sd	a5,-24(s0)
   200fc:	06c0006f          	j	20168 <read_csr_num+0x118>
   20100:	3b3027f3          	csrr	a5,pmpaddr3
   20104:	00078493          	mv	s1,a5
   20108:	00048793          	mv	a5,s1
   2010c:	fef43423          	sd	a5,-24(s0)
   20110:	0580006f          	j	20168 <read_csr_num+0x118>
   20114:	3b4027f3          	csrr	a5,pmpaddr4
   20118:	00078493          	mv	s1,a5
   2011c:	00048793          	mv	a5,s1
   20120:	fef43423          	sd	a5,-24(s0)
   20124:	0440006f          	j	20168 <read_csr_num+0x118>
   20128:	3b5027f3          	csrr	a5,pmpaddr5
   2012c:	00078493          	mv	s1,a5
   20130:	00048793          	mv	a5,s1
   20134:	fef43423          	sd	a5,-24(s0)
   20138:	0300006f          	j	20168 <read_csr_num+0x118>
   2013c:	3b6027f3          	csrr	a5,pmpaddr6
   20140:	00078493          	mv	s1,a5
   20144:	00048793          	mv	a5,s1
   20148:	fef43423          	sd	a5,-24(s0)
   2014c:	01c0006f          	j	20168 <read_csr_num+0x118>
   20150:	3b7027f3          	csrr	a5,pmpaddr7
   20154:	00078493          	mv	s1,a5
   20158:	00048793          	mv	a5,s1
   2015c:	fef43423          	sd	a5,-24(s0)
   20160:	0080006f          	j	20168 <read_csr_num+0x118>
   20164:	00000013          	nop
   20168:	fe843783          	ld	a5,-24(s0)
   2016c:	00078513          	mv	a0,a5
   20170:	02813403          	ld	s0,40(sp)
   20174:	02013483          	ld	s1,32(sp)
   20178:	03010113          	addi	sp,sp,48
   2017c:	00008067          	ret

0000000000020180 <write_csr_num>:
   20180:	f9010113          	addi	sp,sp,-112
   20184:	06813423          	sd	s0,104(sp)
   20188:	07010413          	addi	s0,sp,112
   2018c:	00050793          	mv	a5,a0
   20190:	f8b43823          	sd	a1,-112(s0)
   20194:	f8f42e23          	sw	a5,-100(s0)
   20198:	f9c42783          	lw	a5,-100(s0)
   2019c:	c607869b          	addiw	a3,a5,-928
   201a0:	0006871b          	sext.w	a4,a3
   201a4:	01700793          	li	a5,23
   201a8:	0ee7e463          	bltu	a5,a4,20290 <write_csr_num+0x110>
   201ac:	02069793          	slli	a5,a3,0x20
   201b0:	0207d793          	srli	a5,a5,0x20
   201b4:	00279713          	slli	a4,a5,0x2
   201b8:	00005797          	auipc	a5,0x5
   201bc:	11078793          	addi	a5,a5,272 # 252c8 <payload_bin+0x4068>
   201c0:	00f707b3          	add	a5,a4,a5
   201c4:	0007a783          	lw	a5,0(a5)
   201c8:	0007871b          	sext.w	a4,a5
   201cc:	00005797          	auipc	a5,0x5
   201d0:	0fc78793          	addi	a5,a5,252 # 252c8 <payload_bin+0x4068>
   201d4:	00f707b3          	add	a5,a4,a5
   201d8:	00078067          	jr	a5
   201dc:	f9043783          	ld	a5,-112(s0)
   201e0:	faf43423          	sd	a5,-88(s0)
   201e4:	fa843783          	ld	a5,-88(s0)
   201e8:	3a079073          	csrw	pmpcfg0,a5
   201ec:	0a80006f          	j	20294 <write_csr_num+0x114>
   201f0:	f9043783          	ld	a5,-112(s0)
   201f4:	faf43823          	sd	a5,-80(s0)
   201f8:	fb043783          	ld	a5,-80(s0)
   201fc:	3b079073          	csrw	pmpaddr0,a5
   20200:	0940006f          	j	20294 <write_csr_num+0x114>
   20204:	f9043783          	ld	a5,-112(s0)
   20208:	faf43c23          	sd	a5,-72(s0)
   2020c:	fb843783          	ld	a5,-72(s0)
   20210:	3b179073          	csrw	pmpaddr1,a5
   20214:	0800006f          	j	20294 <write_csr_num+0x114>
   20218:	f9043783          	ld	a5,-112(s0)
   2021c:	fcf43023          	sd	a5,-64(s0)
   20220:	fc043783          	ld	a5,-64(s0)
   20224:	3b279073          	csrw	pmpaddr2,a5
   20228:	06c0006f          	j	20294 <write_csr_num+0x114>
   2022c:	f9043783          	ld	a5,-112(s0)
   20230:	fcf43423          	sd	a5,-56(s0)
   20234:	fc843783          	ld	a5,-56(s0)
   20238:	3b379073          	csrw	pmpaddr3,a5
   2023c:	0580006f          	j	20294 <write_csr_num+0x114>
   20240:	f9043783          	ld	a5,-112(s0)
   20244:	fcf43823          	sd	a5,-48(s0)
   20248:	fd043783          	ld	a5,-48(s0)
   2024c:	3b479073          	csrw	pmpaddr4,a5
   20250:	0440006f          	j	20294 <write_csr_num+0x114>
   20254:	f9043783          	ld	a5,-112(s0)
   20258:	fcf43c23          	sd	a5,-40(s0)
   2025c:	fd843783          	ld	a5,-40(s0)
   20260:	3b579073          	csrw	pmpaddr5,a5
   20264:	0300006f          	j	20294 <write_csr_num+0x114>
   20268:	f9043783          	ld	a5,-112(s0)
   2026c:	fef43023          	sd	a5,-32(s0)
   20270:	fe043783          	ld	a5,-32(s0)
   20274:	3b679073          	csrw	pmpaddr6,a5
   20278:	01c0006f          	j	20294 <write_csr_num+0x114>
   2027c:	f9043783          	ld	a5,-112(s0)
   20280:	fef43423          	sd	a5,-24(s0)
   20284:	fe843783          	ld	a5,-24(s0)
   20288:	3b779073          	csrw	pmpaddr7,a5
   2028c:	0080006f          	j	20294 <write_csr_num+0x114>
   20290:	00000013          	nop
   20294:	00000013          	nop
   20298:	06813403          	ld	s0,104(sp)
   2029c:	07010113          	addi	sp,sp,112
   202a0:	00008067          	ret

00000000000202a4 <log2roundup>:
   202a4:	fd010113          	addi	sp,sp,-48
   202a8:	02813423          	sd	s0,40(sp)
   202ac:	03010413          	addi	s0,sp,48
   202b0:	fca43c23          	sd	a0,-40(s0)
   202b4:	fe043423          	sd	zero,-24(s0)
   202b8:	02c0006f          	j	202e4 <log2roundup+0x40>
   202bc:	fe843783          	ld	a5,-24(s0)
   202c0:	0007879b          	sext.w	a5,a5
   202c4:	00078713          	mv	a4,a5
   202c8:	00100793          	li	a5,1
   202cc:	00e797b3          	sll	a5,a5,a4
   202d0:	fd843703          	ld	a4,-40(s0)
   202d4:	02e7f063          	bgeu	a5,a4,202f4 <log2roundup+0x50>
   202d8:	fe843783          	ld	a5,-24(s0)
   202dc:	00178793          	addi	a5,a5,1
   202e0:	fef43423          	sd	a5,-24(s0)
   202e4:	fe843703          	ld	a4,-24(s0)
   202e8:	03f00793          	li	a5,63
   202ec:	fce7f8e3          	bgeu	a5,a4,202bc <log2roundup+0x18>
   202f0:	0080006f          	j	202f8 <log2roundup+0x54>
   202f4:	00000013          	nop
   202f8:	fe843783          	ld	a5,-24(s0)
   202fc:	00078513          	mv	a0,a5
   20300:	02813403          	ld	s0,40(sp)
   20304:	03010113          	addi	sp,sp,48
   20308:	00008067          	ret

000000000002030c <sbi_set_pmp>:
   2030c:	fa010113          	addi	sp,sp,-96
   20310:	04113c23          	sd	ra,88(sp)
   20314:	04813823          	sd	s0,80(sp)
   20318:	06010413          	addi	s0,sp,96
   2031c:	00050793          	mv	a5,a0
   20320:	fab43823          	sd	a1,-80(s0)
   20324:	fac43423          	sd	a2,-88(s0)
   20328:	fad43023          	sd	a3,-96(s0)
   2032c:	faf42e23          	sw	a5,-68(s0)
   20330:	fbc42783          	lw	a5,-68(s0)
   20334:	0007871b          	sext.w	a4,a5
   20338:	00800793          	li	a5,8
   2033c:	00e7d663          	bge	a5,a4,20348 <sbi_set_pmp+0x3c>
   20340:	fff00793          	li	a5,-1
   20344:	1940006f          	j	204d8 <sbi_set_pmp+0x1cc>
   20348:	fa843503          	ld	a0,-88(s0)
   2034c:	f59ff0ef          	jal	ra,202a4 <log2roundup>
   20350:	00050793          	mv	a5,a0
   20354:	fef42223          	sw	a5,-28(s0)
   20358:	fe442783          	lw	a5,-28(s0)
   2035c:	0007871b          	sext.w	a4,a5
   20360:	00100793          	li	a5,1
   20364:	00e7c663          	blt	a5,a4,20370 <sbi_set_pmp+0x64>
   20368:	fff00793          	li	a5,-1
   2036c:	16c0006f          	j	204d8 <sbi_set_pmp+0x1cc>
   20370:	fb043783          	ld	a5,-80(s0)
   20374:	0027d793          	srli	a5,a5,0x2
   20378:	fef43423          	sd	a5,-24(s0)
   2037c:	fbc42783          	lw	a5,-68(s0)
   20380:	4027d79b          	sraiw	a5,a5,0x2
   20384:	0007879b          	sext.w	a5,a5
   20388:	3a07879b          	addiw	a5,a5,928
   2038c:	0007879b          	sext.w	a5,a5
   20390:	ffe7f793          	andi	a5,a5,-2
   20394:	fef42023          	sw	a5,-32(s0)
   20398:	fbc42783          	lw	a5,-68(s0)
   2039c:	0037979b          	slliw	a5,a5,0x3
   203a0:	0007879b          	sext.w	a5,a5
   203a4:	0387f793          	andi	a5,a5,56
   203a8:	fcf42e23          	sw	a5,-36(s0)
   203ac:	fbc42783          	lw	a5,-68(s0)
   203b0:	3b07879b          	addiw	a5,a5,944
   203b4:	fcf42c23          	sw	a5,-40(s0)
   203b8:	fa043783          	ld	a5,-96(s0)
   203bc:	fe77f793          	andi	a5,a5,-25
   203c0:	faf43023          	sd	a5,-96(s0)
   203c4:	fe442783          	lw	a5,-28(s0)
   203c8:	0007871b          	sext.w	a4,a5
   203cc:	00200793          	li	a5,2
   203d0:	00f71663          	bne	a4,a5,203dc <sbi_set_pmp+0xd0>
   203d4:	01000793          	li	a5,16
   203d8:	0080006f          	j	203e0 <sbi_set_pmp+0xd4>
   203dc:	01800793          	li	a5,24
   203e0:	fa043703          	ld	a4,-96(s0)
   203e4:	00f767b3          	or	a5,a4,a5
   203e8:	faf43023          	sd	a5,-96(s0)
   203ec:	fdc42783          	lw	a5,-36(s0)
   203f0:	0ff00713          	li	a4,255
   203f4:	00f717b3          	sll	a5,a4,a5
   203f8:	fff7c793          	not	a5,a5
   203fc:	fcf43823          	sd	a5,-48(s0)
   20400:	fe042783          	lw	a5,-32(s0)
   20404:	00078513          	mv	a0,a5
   20408:	c49ff0ef          	jal	ra,20050 <read_csr_num>
   2040c:	00050713          	mv	a4,a0
   20410:	fd043783          	ld	a5,-48(s0)
   20414:	00e7f7b3          	and	a5,a5,a4
   20418:	fcf43423          	sd	a5,-56(s0)
   2041c:	fdc42783          	lw	a5,-36(s0)
   20420:	fa043703          	ld	a4,-96(s0)
   20424:	00f71733          	sll	a4,a4,a5
   20428:	fd043783          	ld	a5,-48(s0)
   2042c:	fff7c793          	not	a5,a5
   20430:	00f777b3          	and	a5,a4,a5
   20434:	fc843703          	ld	a4,-56(s0)
   20438:	00f767b3          	or	a5,a4,a5
   2043c:	fcf43423          	sd	a5,-56(s0)
   20440:	fe442783          	lw	a5,-28(s0)
   20444:	0007871b          	sext.w	a4,a5
   20448:	00200793          	li	a5,2
   2044c:	06e7d463          	bge	a5,a4,204b4 <sbi_set_pmp+0x1a8>
   20450:	fe442783          	lw	a5,-28(s0)
   20454:	0007871b          	sext.w	a4,a5
   20458:	04000793          	li	a5,64
   2045c:	00f71863          	bne	a4,a5,2046c <sbi_set_pmp+0x160>
   20460:	fff00793          	li	a5,-1
   20464:	fef43423          	sd	a5,-24(s0)
   20468:	04c0006f          	j	204b4 <sbi_set_pmp+0x1a8>
   2046c:	fe442783          	lw	a5,-28(s0)
   20470:	ffe7879b          	addiw	a5,a5,-2
   20474:	0007879b          	sext.w	a5,a5
   20478:	00078713          	mv	a4,a5
   2047c:	00100793          	li	a5,1
   20480:	00e797b3          	sll	a5,a5,a4
   20484:	fff78793          	addi	a5,a5,-1
   20488:	fcf43023          	sd	a5,-64(s0)
   2048c:	fc043783          	ld	a5,-64(s0)
   20490:	fff7c793          	not	a5,a5
   20494:	fe843703          	ld	a4,-24(s0)
   20498:	00f777b3          	and	a5,a4,a5
   2049c:	fef43423          	sd	a5,-24(s0)
   204a0:	fc043783          	ld	a5,-64(s0)
   204a4:	0017d793          	srli	a5,a5,0x1
   204a8:	fe843703          	ld	a4,-24(s0)
   204ac:	00f767b3          	or	a5,a4,a5
   204b0:	fef43423          	sd	a5,-24(s0)
   204b4:	fd842783          	lw	a5,-40(s0)
   204b8:	fe843583          	ld	a1,-24(s0)
   204bc:	00078513          	mv	a0,a5
   204c0:	cc1ff0ef          	jal	ra,20180 <write_csr_num>
   204c4:	fe042783          	lw	a5,-32(s0)
   204c8:	fc843583          	ld	a1,-56(s0)
   204cc:	00078513          	mv	a0,a5
   204d0:	cb1ff0ef          	jal	ra,20180 <write_csr_num>
   204d4:	00000793          	li	a5,0
   204d8:	00078513          	mv	a0,a5
   204dc:	05813083          	ld	ra,88(sp)
   204e0:	05013403          	ld	s0,80(sp)
   204e4:	06010113          	addi	sp,sp,96
   204e8:	00008067          	ret

00000000000204ec <sbi_main>:
   204ec:	fb010113          	addi	sp,sp,-80
   204f0:	04113423          	sd	ra,72(sp)
   204f4:	04813023          	sd	s0,64(sp)
   204f8:	02913c23          	sd	s1,56(sp)
   204fc:	05010413          	addi	s0,sp,80
   20500:	27c000ef          	jal	ra,2077c <uart_init>
   20504:	1b0000ef          	jal	ra,206b4 <sbi_trap_init>
   20508:	00700693          	li	a3,7
   2050c:	fff00613          	li	a2,-1
   20510:	00000593          	li	a1,0
   20514:	00000513          	li	a0,0
   20518:	df5ff0ef          	jal	ra,2030c <sbi_set_pmp>
   2051c:	300027f3          	csrr	a5,mstatus
   20520:	00078493          	mv	s1,a5
   20524:	00048793          	mv	a5,s1
   20528:	fcf43c23          	sd	a5,-40(s0)
   2052c:	fd843703          	ld	a4,-40(s0)
   20530:	ffffe7b7          	lui	a5,0xffffe
   20534:	7ff78793          	addi	a5,a5,2047 # ffffffffffffe7ff <bss_begin+0xfffffffffffd77ff>
   20538:	00f77733          	and	a4,a4,a5
   2053c:	000017b7          	lui	a5,0x1
   20540:	80078793          	addi	a5,a5,-2048 # 800 <__bin_size-0x6800>
   20544:	00f767b3          	or	a5,a4,a5
   20548:	fcf43c23          	sd	a5,-40(s0)
   2054c:	fd843783          	ld	a5,-40(s0)
   20550:	f7f7f793          	andi	a5,a5,-129
   20554:	fcf43c23          	sd	a5,-40(s0)
   20558:	fd843783          	ld	a5,-40(s0)
   2055c:	fcf43823          	sd	a5,-48(s0)
   20560:	fd043783          	ld	a5,-48(s0)
   20564:	30079073          	csrw	mstatus,a5
   20568:	000237b7          	lui	a5,0x23
   2056c:	fcf43423          	sd	a5,-56(s0)
   20570:	fc843783          	ld	a5,-56(s0)
   20574:	34179073          	csrw	mepc,a5
   20578:	000237b7          	lui	a5,0x23
   2057c:	fcf43023          	sd	a5,-64(s0)
   20580:	fc043783          	ld	a5,-64(s0)
   20584:	10579073          	csrw	stvec,a5
   20588:	fa043c23          	sd	zero,-72(s0)
   2058c:	fb843783          	ld	a5,-72(s0)
   20590:	10479073          	csrw	sie,a5
   20594:	fa043823          	sd	zero,-80(s0)
   20598:	fb043783          	ld	a5,-80(s0)
   2059c:	18079073          	csrw	satp,a5
   205a0:	30200073          	mret
   205a4:	00000013          	nop
   205a8:	04813083          	ld	ra,72(sp)
   205ac:	04013403          	ld	s0,64(sp)
   205b0:	03813483          	ld	s1,56(sp)
   205b4:	05010113          	addi	sp,sp,80
   205b8:	00008067          	ret

00000000000205bc <sbi_ecall_handle>:
   205bc:	fd010113          	addi	sp,sp,-48
   205c0:	02113423          	sd	ra,40(sp)
   205c4:	02813023          	sd	s0,32(sp)
   205c8:	03010413          	addi	s0,sp,48
   205cc:	00050793          	mv	a5,a0
   205d0:	fcb43823          	sd	a1,-48(s0)
   205d4:	fcf42e23          	sw	a5,-36(s0)
   205d8:	fe042623          	sw	zero,-20(s0)
   205dc:	fdc42783          	lw	a5,-36(s0)
   205e0:	0007871b          	sext.w	a4,a5
   205e4:	00100793          	li	a5,1
   205e8:	02f71063          	bne	a4,a5,20608 <sbi_ecall_handle+0x4c>
   205ec:	fd043783          	ld	a5,-48(s0)
   205f0:	0507b783          	ld	a5,80(a5) # 23050 <payload_bin+0x1df0>
   205f4:	0007879b          	sext.w	a5,a5
   205f8:	00078513          	mv	a0,a5
   205fc:	43c000ef          	jal	ra,20a38 <putchar>
   20600:	fe042623          	sw	zero,-20(s0)
   20604:	00000013          	nop
   20608:	fec42783          	lw	a5,-20(s0)
   2060c:	0007879b          	sext.w	a5,a5
   20610:	00079c63          	bnez	a5,20628 <sbi_ecall_handle+0x6c>
   20614:	fd043783          	ld	a5,-48(s0)
   20618:	0007b783          	ld	a5,0(a5)
   2061c:	00478713          	addi	a4,a5,4
   20620:	fd043783          	ld	a5,-48(s0)
   20624:	00e7b023          	sd	a4,0(a5)
   20628:	fec42783          	lw	a5,-20(s0)
   2062c:	00078513          	mv	a0,a5
   20630:	02813083          	ld	ra,40(sp)
   20634:	02013403          	ld	s0,32(sp)
   20638:	03010113          	addi	sp,sp,48
   2063c:	00008067          	ret

0000000000020640 <sbi_trap_handler>:
   20640:	fc010113          	addi	sp,sp,-64
   20644:	02113c23          	sd	ra,56(sp)
   20648:	02813823          	sd	s0,48(sp)
   2064c:	02913423          	sd	s1,40(sp)
   20650:	04010413          	addi	s0,sp,64
   20654:	fca43423          	sd	a0,-56(s0)
   20658:	342027f3          	csrr	a5,mcause
   2065c:	00078493          	mv	s1,a5
   20660:	00048793          	mv	a5,s1
   20664:	fcf43c23          	sd	a5,-40(s0)
   20668:	fc843783          	ld	a5,-56(s0)
   2066c:	0887b783          	ld	a5,136(a5)
   20670:	fcf43823          	sd	a5,-48(s0)
   20674:	fd843703          	ld	a4,-40(s0)
   20678:	00900793          	li	a5,9
   2067c:	00f71e63          	bne	a4,a5,20698 <sbi_trap_handler+0x58>
   20680:	fd043783          	ld	a5,-48(s0)
   20684:	0007879b          	sext.w	a5,a5
   20688:	fc843583          	ld	a1,-56(s0)
   2068c:	00078513          	mv	a0,a5
   20690:	f2dff0ef          	jal	ra,205bc <sbi_ecall_handle>
   20694:	0080006f          	j	2069c <sbi_trap_handler+0x5c>
   20698:	00000013          	nop
   2069c:	00000013          	nop
   206a0:	03813083          	ld	ra,56(sp)
   206a4:	03013403          	ld	s0,48(sp)
   206a8:	02813483          	ld	s1,40(sp)
   206ac:	04010113          	addi	sp,sp,64
   206b0:	00008067          	ret

00000000000206b4 <sbi_trap_init>:
   206b4:	fe010113          	addi	sp,sp,-32
   206b8:	00813c23          	sd	s0,24(sp)
   206bc:	02010413          	addi	s0,sp,32
   206c0:	00001797          	auipc	a5,0x1
   206c4:	a7078793          	addi	a5,a5,-1424 # 21130 <sbi_exception_vector>
   206c8:	fef43423          	sd	a5,-24(s0)
   206cc:	fe843783          	ld	a5,-24(s0)
   206d0:	30579073          	csrw	mtvec,a5
   206d4:	fe043023          	sd	zero,-32(s0)
   206d8:	fe043783          	ld	a5,-32(s0)
   206dc:	30479073          	csrw	mie,a5
   206e0:	00000013          	nop
   206e4:	01813403          	ld	s0,24(sp)
   206e8:	02010113          	addi	sp,sp,32
   206ec:	00008067          	ret

00000000000206f0 <read8>:
   206f0:	fe010113          	addi	sp,sp,-32
   206f4:	00813c23          	sd	s0,24(sp)
   206f8:	02010413          	addi	s0,sp,32
   206fc:	fea43423          	sd	a0,-24(s0)
   20700:	fe843783          	ld	a5,-24(s0)
   20704:	0007c783          	lbu	a5,0(a5)
   20708:	0ff7f793          	andi	a5,a5,255
   2070c:	00078513          	mv	a0,a5
   20710:	01813403          	ld	s0,24(sp)
   20714:	02010113          	addi	sp,sp,32
   20718:	00008067          	ret

000000000002071c <read32>:
   2071c:	fe010113          	addi	sp,sp,-32
   20720:	00813c23          	sd	s0,24(sp)
   20724:	02010413          	addi	s0,sp,32
   20728:	fea43423          	sd	a0,-24(s0)
   2072c:	fe843783          	ld	a5,-24(s0)
   20730:	0007a783          	lw	a5,0(a5)
   20734:	0007879b          	sext.w	a5,a5
   20738:	00078513          	mv	a0,a5
   2073c:	01813403          	ld	s0,24(sp)
   20740:	02010113          	addi	sp,sp,32
   20744:	00008067          	ret

0000000000020748 <write32>:
   20748:	fe010113          	addi	sp,sp,-32
   2074c:	00813c23          	sd	s0,24(sp)
   20750:	02010413          	addi	s0,sp,32
   20754:	fea43423          	sd	a0,-24(s0)
   20758:	00058793          	mv	a5,a1
   2075c:	fef42223          	sw	a5,-28(s0)
   20760:	fe843783          	ld	a5,-24(s0)
   20764:	fe442703          	lw	a4,-28(s0)
   20768:	00e7a023          	sw	a4,0(a5)
   2076c:	00000013          	nop
   20770:	01813403          	ld	s0,24(sp)
   20774:	02010113          	addi	sp,sp,32
   20778:	00008067          	ret

000000000002077c <uart_init>:
   2077c:	fe010113          	addi	sp,sp,-32
   20780:	00113c23          	sd	ra,24(sp)
   20784:	00813823          	sd	s0,16(sp)
   20788:	02010413          	addi	s0,sp,32
   2078c:	020007b7          	lui	a5,0x2000
   20790:	0f078793          	addi	a5,a5,240 # 20000f0 <bss_begin+0x1fd90f0>
   20794:	fef43423          	sd	a5,-24(s0)
   20798:	fe843503          	ld	a0,-24(s0)
   2079c:	f81ff0ef          	jal	ra,2071c <read32>
   207a0:	00050793          	mv	a5,a0
   207a4:	fef42223          	sw	a5,-28(s0)
   207a8:	fe442703          	lw	a4,-28(s0)
   207ac:	fffff7b7          	lui	a5,0xfffff
   207b0:	0ff78793          	addi	a5,a5,255 # fffffffffffff0ff <bss_begin+0xfffffffffffd80ff>
   207b4:	00f777b3          	and	a5,a4,a5
   207b8:	fef42223          	sw	a5,-28(s0)
   207bc:	fe442783          	lw	a5,-28(s0)
   207c0:	3007e793          	ori	a5,a5,768
   207c4:	fef42223          	sw	a5,-28(s0)
   207c8:	fe442783          	lw	a5,-28(s0)
   207cc:	00078593          	mv	a1,a5
   207d0:	fe843503          	ld	a0,-24(s0)
   207d4:	f75ff0ef          	jal	ra,20748 <write32>
   207d8:	fe843503          	ld	a0,-24(s0)
   207dc:	f41ff0ef          	jal	ra,2071c <read32>
   207e0:	00050793          	mv	a5,a0
   207e4:	fef42223          	sw	a5,-28(s0)
   207e8:	fe442703          	lw	a4,-28(s0)
   207ec:	fff107b7          	lui	a5,0xfff10
   207f0:	fff78793          	addi	a5,a5,-1 # fffffffffff0ffff <bss_begin+0xffffffffffee8fff>
   207f4:	00f777b3          	and	a5,a4,a5
   207f8:	fef42223          	sw	a5,-28(s0)
   207fc:	fe442703          	lw	a4,-28(s0)
   20800:	000307b7          	lui	a5,0x30
   20804:	00f767b3          	or	a5,a4,a5
   20808:	fef42223          	sw	a5,-28(s0)
   2080c:	fe442783          	lw	a5,-28(s0)
   20810:	00078593          	mv	a1,a5
   20814:	fe843503          	ld	a0,-24(s0)
   20818:	f31ff0ef          	jal	ra,20748 <write32>
   2081c:	020027b7          	lui	a5,0x2002
   20820:	90c78793          	addi	a5,a5,-1780 # 200190c <bss_begin+0x1fda90c>
   20824:	fef43423          	sd	a5,-24(s0)
   20828:	fe843503          	ld	a0,-24(s0)
   2082c:	ef1ff0ef          	jal	ra,2071c <read32>
   20830:	00050793          	mv	a5,a0
   20834:	fef42223          	sw	a5,-28(s0)
   20838:	fe442783          	lw	a5,-28(s0)
   2083c:	0017e793          	ori	a5,a5,1
   20840:	fef42223          	sw	a5,-28(s0)
   20844:	fe442783          	lw	a5,-28(s0)
   20848:	00078593          	mv	a1,a5
   2084c:	fe843503          	ld	a0,-24(s0)
   20850:	ef9ff0ef          	jal	ra,20748 <write32>
   20854:	020027b7          	lui	a5,0x2002
   20858:	90c78793          	addi	a5,a5,-1780 # 200190c <bss_begin+0x1fda90c>
   2085c:	fef43423          	sd	a5,-24(s0)
   20860:	fe843503          	ld	a0,-24(s0)
   20864:	eb9ff0ef          	jal	ra,2071c <read32>
   20868:	00050793          	mv	a5,a0
   2086c:	fef42223          	sw	a5,-28(s0)
   20870:	fe442703          	lw	a4,-28(s0)
   20874:	000107b7          	lui	a5,0x10
   20878:	00f767b3          	or	a5,a4,a5
   2087c:	fef42223          	sw	a5,-28(s0)
   20880:	fe442783          	lw	a5,-28(s0)
   20884:	00078593          	mv	a1,a5
   20888:	fe843503          	ld	a0,-24(s0)
   2088c:	ebdff0ef          	jal	ra,20748 <write32>
   20890:	025007b7          	lui	a5,0x2500
   20894:	fef43423          	sd	a5,-24(s0)
   20898:	fe843783          	ld	a5,-24(s0)
   2089c:	00478793          	addi	a5,a5,4 # 2500004 <bss_begin+0x24d9004>
   208a0:	00000593          	li	a1,0
   208a4:	00078513          	mv	a0,a5
   208a8:	ea1ff0ef          	jal	ra,20748 <write32>
   208ac:	fe843783          	ld	a5,-24(s0)
   208b0:	00878793          	addi	a5,a5,8
   208b4:	0f100593          	li	a1,241
   208b8:	00078513          	mv	a0,a5
   208bc:	e8dff0ef          	jal	ra,20748 <write32>
   208c0:	fe843783          	ld	a5,-24(s0)
   208c4:	01078793          	addi	a5,a5,16
   208c8:	00000593          	li	a1,0
   208cc:	00078513          	mv	a0,a5
   208d0:	e79ff0ef          	jal	ra,20748 <write32>
   208d4:	fe843783          	ld	a5,-24(s0)
   208d8:	00c78793          	addi	a5,a5,12
   208dc:	00078513          	mv	a0,a5
   208e0:	e3dff0ef          	jal	ra,2071c <read32>
   208e4:	00050793          	mv	a5,a0
   208e8:	fef42223          	sw	a5,-28(s0)
   208ec:	fe442783          	lw	a5,-28(s0)
   208f0:	0807e793          	ori	a5,a5,128
   208f4:	fef42223          	sw	a5,-28(s0)
   208f8:	fe843783          	ld	a5,-24(s0)
   208fc:	00c78793          	addi	a5,a5,12
   20900:	fe442703          	lw	a4,-28(s0)
   20904:	00070593          	mv	a1,a4
   20908:	00078513          	mv	a0,a5
   2090c:	e3dff0ef          	jal	ra,20748 <write32>
   20910:	00d00593          	li	a1,13
   20914:	fe843503          	ld	a0,-24(s0)
   20918:	e31ff0ef          	jal	ra,20748 <write32>
   2091c:	fe843783          	ld	a5,-24(s0)
   20920:	00478793          	addi	a5,a5,4
   20924:	00000593          	li	a1,0
   20928:	00078513          	mv	a0,a5
   2092c:	e1dff0ef          	jal	ra,20748 <write32>
   20930:	fe843783          	ld	a5,-24(s0)
   20934:	00c78793          	addi	a5,a5,12
   20938:	00078513          	mv	a0,a5
   2093c:	de1ff0ef          	jal	ra,2071c <read32>
   20940:	00050793          	mv	a5,a0
   20944:	fef42223          	sw	a5,-28(s0)
   20948:	fe442783          	lw	a5,-28(s0)
   2094c:	f7f7f793          	andi	a5,a5,-129
   20950:	fef42223          	sw	a5,-28(s0)
   20954:	fe843783          	ld	a5,-24(s0)
   20958:	00c78793          	addi	a5,a5,12
   2095c:	fe442703          	lw	a4,-28(s0)
   20960:	00070593          	mv	a1,a4
   20964:	00078513          	mv	a0,a5
   20968:	de1ff0ef          	jal	ra,20748 <write32>
   2096c:	fe843783          	ld	a5,-24(s0)
   20970:	00c78793          	addi	a5,a5,12
   20974:	00078513          	mv	a0,a5
   20978:	da5ff0ef          	jal	ra,2071c <read32>
   2097c:	00050793          	mv	a5,a0
   20980:	fef42223          	sw	a5,-28(s0)
   20984:	fe442783          	lw	a5,-28(s0)
   20988:	fe07f793          	andi	a5,a5,-32
   2098c:	fef42223          	sw	a5,-28(s0)
   20990:	fe442783          	lw	a5,-28(s0)
   20994:	0037e793          	ori	a5,a5,3
   20998:	fef42223          	sw	a5,-28(s0)
   2099c:	fe843783          	ld	a5,-24(s0)
   209a0:	00c78793          	addi	a5,a5,12
   209a4:	fe442703          	lw	a4,-28(s0)
   209a8:	00070593          	mv	a1,a4
   209ac:	00078513          	mv	a0,a5
   209b0:	d99ff0ef          	jal	ra,20748 <write32>
   209b4:	00000013          	nop
   209b8:	01813083          	ld	ra,24(sp)
   209bc:	01013403          	ld	s0,16(sp)
   209c0:	02010113          	addi	sp,sp,32
   209c4:	00008067          	ret

00000000000209c8 <uart_send>:
   209c8:	fd010113          	addi	sp,sp,-48
   209cc:	02113423          	sd	ra,40(sp)
   209d0:	02813023          	sd	s0,32(sp)
   209d4:	03010413          	addi	s0,sp,48
   209d8:	00050793          	mv	a5,a0
   209dc:	fcf40fa3          	sb	a5,-33(s0)
   209e0:	025007b7          	lui	a5,0x2500
   209e4:	fef43423          	sd	a5,-24(s0)
   209e8:	00000013          	nop
   209ec:	fe843783          	ld	a5,-24(s0)
   209f0:	07c78793          	addi	a5,a5,124 # 250007c <bss_begin+0x24d907c>
   209f4:	00078513          	mv	a0,a5
   209f8:	d25ff0ef          	jal	ra,2071c <read32>
   209fc:	00050793          	mv	a5,a0
   20a00:	0007879b          	sext.w	a5,a5
   20a04:	0027f793          	andi	a5,a5,2
   20a08:	0007879b          	sext.w	a5,a5
   20a0c:	fe0780e3          	beqz	a5,209ec <uart_send+0x24>
   20a10:	fdf44783          	lbu	a5,-33(s0)
   20a14:	0007879b          	sext.w	a5,a5
   20a18:	00078593          	mv	a1,a5
   20a1c:	fe843503          	ld	a0,-24(s0)
   20a20:	d29ff0ef          	jal	ra,20748 <write32>
   20a24:	00000013          	nop
   20a28:	02813083          	ld	ra,40(sp)
   20a2c:	02013403          	ld	s0,32(sp)
   20a30:	03010113          	addi	sp,sp,48
   20a34:	00008067          	ret

0000000000020a38 <putchar>:
   20a38:	fe010113          	addi	sp,sp,-32
   20a3c:	00113c23          	sd	ra,24(sp)
   20a40:	00813823          	sd	s0,16(sp)
   20a44:	02010413          	addi	s0,sp,32
   20a48:	00050793          	mv	a5,a0
   20a4c:	fef42623          	sw	a5,-20(s0)
   20a50:	fec42783          	lw	a5,-20(s0)
   20a54:	0ff7f793          	andi	a5,a5,255
   20a58:	00078513          	mv	a0,a5
   20a5c:	f6dff0ef          	jal	ra,209c8 <uart_send>
   20a60:	fec42783          	lw	a5,-20(s0)
   20a64:	00078513          	mv	a0,a5
   20a68:	01813083          	ld	ra,24(sp)
   20a6c:	01013403          	ld	s0,16(sp)
   20a70:	02010113          	addi	sp,sp,32
   20a74:	00008067          	ret

0000000000020a78 <uart_recv>:
   20a78:	fe010113          	addi	sp,sp,-32
   20a7c:	00113c23          	sd	ra,24(sp)
   20a80:	00813823          	sd	s0,16(sp)
   20a84:	02010413          	addi	s0,sp,32
   20a88:	025007b7          	lui	a5,0x2500
   20a8c:	fef43423          	sd	a5,-24(s0)
   20a90:	00000013          	nop
   20a94:	fe843783          	ld	a5,-24(s0)
   20a98:	07c78793          	addi	a5,a5,124 # 250007c <bss_begin+0x24d907c>
   20a9c:	00078513          	mv	a0,a5
   20aa0:	c7dff0ef          	jal	ra,2071c <read32>
   20aa4:	00050793          	mv	a5,a0
   20aa8:	0007879b          	sext.w	a5,a5
   20aac:	0087f793          	andi	a5,a5,8
   20ab0:	0007879b          	sext.w	a5,a5
   20ab4:	fe0780e3          	beqz	a5,20a94 <uart_recv+0x1c>
   20ab8:	fe843503          	ld	a0,-24(s0)
   20abc:	c35ff0ef          	jal	ra,206f0 <read8>
   20ac0:	00050793          	mv	a5,a0
   20ac4:	00078513          	mv	a0,a5
   20ac8:	01813083          	ld	ra,24(sp)
   20acc:	01013403          	ld	s0,16(sp)
   20ad0:	02010113          	addi	sp,sp,32
   20ad4:	00008067          	ret

0000000000020ad8 <uart_send_string>:
   20ad8:	fd010113          	addi	sp,sp,-48
   20adc:	02113423          	sd	ra,40(sp)
   20ae0:	02813023          	sd	s0,32(sp)
   20ae4:	03010413          	addi	s0,sp,48
   20ae8:	fca43c23          	sd	a0,-40(s0)
   20aec:	fe042623          	sw	zero,-20(s0)
   20af0:	04c0006f          	j	20b3c <uart_send_string+0x64>
   20af4:	fec42783          	lw	a5,-20(s0)
   20af8:	fd843703          	ld	a4,-40(s0)
   20afc:	00f707b3          	add	a5,a4,a5
   20b00:	0007c783          	lbu	a5,0(a5)
   20b04:	00078713          	mv	a4,a5
   20b08:	00a00793          	li	a5,10
   20b0c:	00f71663          	bne	a4,a5,20b18 <uart_send_string+0x40>
   20b10:	00d00513          	li	a0,13
   20b14:	eb5ff0ef          	jal	ra,209c8 <uart_send>
   20b18:	fec42783          	lw	a5,-20(s0)
   20b1c:	fd843703          	ld	a4,-40(s0)
   20b20:	00f707b3          	add	a5,a4,a5
   20b24:	0007c783          	lbu	a5,0(a5)
   20b28:	00078513          	mv	a0,a5
   20b2c:	e9dff0ef          	jal	ra,209c8 <uart_send>
   20b30:	fec42783          	lw	a5,-20(s0)
   20b34:	0017879b          	addiw	a5,a5,1
   20b38:	fef42623          	sw	a5,-20(s0)
   20b3c:	fec42783          	lw	a5,-20(s0)
   20b40:	fd843703          	ld	a4,-40(s0)
   20b44:	00f707b3          	add	a5,a4,a5
   20b48:	0007c783          	lbu	a5,0(a5)
   20b4c:	fa0794e3          	bnez	a5,20af4 <uart_send_string+0x1c>
   20b50:	00000013          	nop
   20b54:	00000013          	nop
   20b58:	02813083          	ld	ra,40(sp)
   20b5c:	02013403          	ld	s0,32(sp)
   20b60:	03010113          	addi	sp,sp,48
   20b64:	00008067          	ret

0000000000020b68 <vpf_str_to_num>:
   20b68:	fc010113          	addi	sp,sp,-64
   20b6c:	02813c23          	sd	s0,56(sp)
   20b70:	04010413          	addi	s0,sp,64
   20b74:	fca43423          	sd	a0,-56(s0)
   20b78:	fcb43023          	sd	a1,-64(s0)
   20b7c:	fe042223          	sw	zero,-28(s0)
   20b80:	fc843783          	ld	a5,-56(s0)
   20b84:	fef43423          	sd	a5,-24(s0)
   20b88:	0900006f          	j	20c18 <vpf_str_to_num+0xb0>
   20b8c:	fe843783          	ld	a5,-24(s0)
   20b90:	0007c783          	lbu	a5,0(a5)
   20b94:	00078713          	mv	a4,a5
   20b98:	02f00793          	li	a5,47
   20b9c:	02e7f063          	bgeu	a5,a4,20bbc <vpf_str_to_num+0x54>
   20ba0:	fe843783          	ld	a5,-24(s0)
   20ba4:	0007c783          	lbu	a5,0(a5)
   20ba8:	00078713          	mv	a4,a5
   20bac:	03900793          	li	a5,57
   20bb0:	00e7e663          	bltu	a5,a4,20bbc <vpf_str_to_num+0x54>
   20bb4:	00100793          	li	a5,1
   20bb8:	0080006f          	j	20bc0 <vpf_str_to_num+0x58>
   20bbc:	00000793          	li	a5,0
   20bc0:	fef42023          	sw	a5,-32(s0)
   20bc4:	fe042783          	lw	a5,-32(s0)
   20bc8:	0007879b          	sext.w	a5,a5
   20bcc:	04078e63          	beqz	a5,20c28 <vpf_str_to_num+0xc0>
   20bd0:	fe843783          	ld	a5,-24(s0)
   20bd4:	0007c783          	lbu	a5,0(a5)
   20bd8:	0007879b          	sext.w	a5,a5
   20bdc:	fd07879b          	addiw	a5,a5,-48
   20be0:	fcf42e23          	sw	a5,-36(s0)
   20be4:	fe442703          	lw	a4,-28(s0)
   20be8:	00070793          	mv	a5,a4
   20bec:	0027979b          	slliw	a5,a5,0x2
   20bf0:	00e787bb          	addw	a5,a5,a4
   20bf4:	0017979b          	slliw	a5,a5,0x1
   20bf8:	fef42223          	sw	a5,-28(s0)
   20bfc:	fe442703          	lw	a4,-28(s0)
   20c00:	fdc42783          	lw	a5,-36(s0)
   20c04:	00f707bb          	addw	a5,a4,a5
   20c08:	fef42223          	sw	a5,-28(s0)
   20c0c:	fe843783          	ld	a5,-24(s0)
   20c10:	00178793          	addi	a5,a5,1
   20c14:	fef43423          	sd	a5,-24(s0)
   20c18:	fc843783          	ld	a5,-56(s0)
   20c1c:	0007c783          	lbu	a5,0(a5)
   20c20:	f60796e3          	bnez	a5,20b8c <vpf_str_to_num+0x24>
   20c24:	0080006f          	j	20c2c <vpf_str_to_num+0xc4>
   20c28:	00000013          	nop
   20c2c:	fc043783          	ld	a5,-64(s0)
   20c30:	fe442703          	lw	a4,-28(s0)
   20c34:	00e7a023          	sw	a4,0(a5)
   20c38:	fe843703          	ld	a4,-24(s0)
   20c3c:	fc843783          	ld	a5,-56(s0)
   20c40:	40f707b3          	sub	a5,a4,a5
   20c44:	0007879b          	sext.w	a5,a5
   20c48:	00078513          	mv	a0,a5
   20c4c:	03813403          	ld	s0,56(sp)
   20c50:	04010113          	addi	sp,sp,64
   20c54:	00008067          	ret

0000000000020c58 <vpf_num_to_str>:
   20c58:	fb010113          	addi	sp,sp,-80
   20c5c:	04113423          	sd	ra,72(sp)
   20c60:	04813023          	sd	s0,64(sp)
   20c64:	05010413          	addi	s0,sp,80
   20c68:	00050793          	mv	a5,a0
   20c6c:	00068713          	mv	a4,a3
   20c70:	faf42e23          	sw	a5,-68(s0)
   20c74:	00058793          	mv	a5,a1
   20c78:	faf42c23          	sw	a5,-72(s0)
   20c7c:	00060793          	mv	a5,a2
   20c80:	faf42a23          	sw	a5,-76(s0)
   20c84:	00070793          	mv	a5,a4
   20c88:	faf42823          	sw	a5,-80(s0)
   20c8c:	fe042223          	sw	zero,-28(s0)
   20c90:	0280006f          	j	20cb8 <vpf_num_to_str+0x60>
   20c94:	fb042783          	lw	a5,-80(s0)
   20c98:	0ff7f713          	andi	a4,a5,255
   20c9c:	fe442783          	lw	a5,-28(s0)
   20ca0:	ff040693          	addi	a3,s0,-16
   20ca4:	00f687b3          	add	a5,a3,a5
   20ca8:	fce78823          	sb	a4,-48(a5)
   20cac:	fe442783          	lw	a5,-28(s0)
   20cb0:	0017879b          	addiw	a5,a5,1
   20cb4:	fef42223          	sw	a5,-28(s0)
   20cb8:	fe442783          	lw	a5,-28(s0)
   20cbc:	00078713          	mv	a4,a5
   20cc0:	01f00793          	li	a5,31
   20cc4:	fce7f8e3          	bgeu	a5,a4,20c94 <vpf_num_to_str+0x3c>
   20cc8:	00a00793          	li	a5,10
   20ccc:	fef42623          	sw	a5,-20(s0)
   20cd0:	fb842783          	lw	a5,-72(s0)
   20cd4:	0007879b          	sext.w	a5,a5
   20cd8:	00078663          	beqz	a5,20ce4 <vpf_num_to_str+0x8c>
   20cdc:	01000793          	li	a5,16
   20ce0:	fef42623          	sw	a5,-20(s0)
   20ce4:	fe042423          	sw	zero,-24(s0)
   20ce8:	fbc42703          	lw	a4,-68(s0)
   20cec:	fec42783          	lw	a5,-20(s0)
   20cf0:	02f777bb          	remuw	a5,a4,a5
   20cf4:	0007879b          	sext.w	a5,a5
   20cf8:	fef42023          	sw	a5,-32(s0)
   20cfc:	fe042783          	lw	a5,-32(s0)
   20d00:	0007871b          	sext.w	a4,a5
   20d04:	00900793          	li	a5,9
   20d08:	02e7d463          	bge	a5,a4,20d30 <vpf_num_to_str+0xd8>
   20d0c:	fe042783          	lw	a5,-32(s0)
   20d10:	0ff7f793          	andi	a5,a5,255
   20d14:	0577879b          	addiw	a5,a5,87
   20d18:	0ff7f713          	andi	a4,a5,255
   20d1c:	fe842783          	lw	a5,-24(s0)
   20d20:	ff040693          	addi	a3,s0,-16
   20d24:	00f687b3          	add	a5,a3,a5
   20d28:	fce78823          	sb	a4,-48(a5)
   20d2c:	0240006f          	j	20d50 <vpf_num_to_str+0xf8>
   20d30:	fe042783          	lw	a5,-32(s0)
   20d34:	0ff7f793          	andi	a5,a5,255
   20d38:	0307879b          	addiw	a5,a5,48
   20d3c:	0ff7f713          	andi	a4,a5,255
   20d40:	fe842783          	lw	a5,-24(s0)
   20d44:	ff040693          	addi	a3,s0,-16
   20d48:	00f687b3          	add	a5,a3,a5
   20d4c:	fce78823          	sb	a4,-48(a5)
   20d50:	fbc42703          	lw	a4,-68(s0)
   20d54:	fec42783          	lw	a5,-20(s0)
   20d58:	02f757bb          	divuw	a5,a4,a5
   20d5c:	faf42e23          	sw	a5,-68(s0)
   20d60:	fe842783          	lw	a5,-24(s0)
   20d64:	0017879b          	addiw	a5,a5,1
   20d68:	fef42423          	sw	a5,-24(s0)
   20d6c:	fbc42783          	lw	a5,-68(s0)
   20d70:	0007879b          	sext.w	a5,a5
   20d74:	f6079ae3          	bnez	a5,20ce8 <vpf_num_to_str+0x90>
   20d78:	fb442783          	lw	a5,-76(s0)
   20d7c:	0007879b          	sext.w	a5,a5
   20d80:	02f05c63          	blez	a5,20db8 <vpf_num_to_str+0x160>
   20d84:	fb442783          	lw	a5,-76(s0)
   20d88:	00078713          	mv	a4,a5
   20d8c:	01f00793          	li	a5,31
   20d90:	00e7f663          	bgeu	a5,a4,20d9c <vpf_num_to_str+0x144>
   20d94:	01f00793          	li	a5,31
   20d98:	faf42a23          	sw	a5,-76(s0)
   20d9c:	fe842703          	lw	a4,-24(s0)
   20da0:	fb442783          	lw	a5,-76(s0)
   20da4:	0007071b          	sext.w	a4,a4
   20da8:	0007879b          	sext.w	a5,a5
   20dac:	00f75663          	bge	a4,a5,20db8 <vpf_num_to_str+0x160>
   20db0:	fb442783          	lw	a5,-76(s0)
   20db4:	fef42423          	sw	a5,-24(s0)
   20db8:	fe842783          	lw	a5,-24(s0)
   20dbc:	ff040713          	addi	a4,s0,-16
   20dc0:	00f707b3          	add	a5,a4,a5
   20dc4:	fc078823          	sb	zero,-48(a5)
   20dc8:	fe842783          	lw	a5,-24(s0)
   20dcc:	fff7879b          	addiw	a5,a5,-1
   20dd0:	fef42223          	sw	a5,-28(s0)
   20dd4:	0280006f          	j	20dfc <vpf_num_to_str+0x1a4>
   20dd8:	fe442783          	lw	a5,-28(s0)
   20ddc:	ff040713          	addi	a4,s0,-16
   20de0:	00f707b3          	add	a5,a4,a5
   20de4:	fd07c783          	lbu	a5,-48(a5)
   20de8:	00078513          	mv	a0,a5
   20dec:	bddff0ef          	jal	ra,209c8 <uart_send>
   20df0:	fe442783          	lw	a5,-28(s0)
   20df4:	fff7879b          	addiw	a5,a5,-1
   20df8:	fef42223          	sw	a5,-28(s0)
   20dfc:	fe442783          	lw	a5,-28(s0)
   20e00:	0007879b          	sext.w	a5,a5
   20e04:	fc07dae3          	bgez	a5,20dd8 <vpf_num_to_str+0x180>
   20e08:	00000013          	nop
   20e0c:	00000013          	nop
   20e10:	04813083          	ld	ra,72(sp)
   20e14:	04013403          	ld	s0,64(sp)
   20e18:	05010113          	addi	sp,sp,80
   20e1c:	00008067          	ret

0000000000020e20 <vpf>:
   20e20:	fb010113          	addi	sp,sp,-80
   20e24:	04113423          	sd	ra,72(sp)
   20e28:	04813023          	sd	s0,64(sp)
   20e2c:	05010413          	addi	s0,sp,80
   20e30:	faa43c23          	sd	a0,-72(s0)
   20e34:	fab43823          	sd	a1,-80(s0)
   20e38:	02000793          	li	a5,32
   20e3c:	fcf42a23          	sw	a5,-44(s0)
   20e40:	fb843783          	ld	a5,-72(s0)
   20e44:	fef43423          	sd	a5,-24(s0)
   20e48:	1880006f          	j	20fd0 <vpf+0x1b0>
   20e4c:	fc042e23          	sw	zero,-36(s0)
   20e50:	fc042223          	sw	zero,-60(s0)
   20e54:	fe843783          	ld	a5,-24(s0)
   20e58:	0007c783          	lbu	a5,0(a5)
   20e5c:	fcf42823          	sw	a5,-48(s0)
   20e60:	fe843783          	ld	a5,-24(s0)
   20e64:	fef43023          	sd	a5,-32(s0)
   20e68:	fe843783          	ld	a5,-24(s0)
   20e6c:	0007c783          	lbu	a5,0(a5)
   20e70:	00078713          	mv	a4,a5
   20e74:	02500793          	li	a5,37
   20e78:	06f71863          	bne	a4,a5,20ee8 <vpf+0xc8>
   20e7c:	fe843783          	ld	a5,-24(s0)
   20e80:	fef43023          	sd	a5,-32(s0)
   20e84:	fe843783          	ld	a5,-24(s0)
   20e88:	00178793          	addi	a5,a5,1
   20e8c:	fef43423          	sd	a5,-24(s0)
   20e90:	fe843783          	ld	a5,-24(s0)
   20e94:	0007c783          	lbu	a5,0(a5)
   20e98:	00078713          	mv	a4,a5
   20e9c:	02f00793          	li	a5,47
   20ea0:	02e7fe63          	bgeu	a5,a4,20edc <vpf+0xbc>
   20ea4:	fe843783          	ld	a5,-24(s0)
   20ea8:	0007c783          	lbu	a5,0(a5)
   20eac:	00078713          	mv	a4,a5
   20eb0:	03900793          	li	a5,57
   20eb4:	02e7e463          	bltu	a5,a4,20edc <vpf+0xbc>
   20eb8:	fc440793          	addi	a5,s0,-60
   20ebc:	00078593          	mv	a1,a5
   20ec0:	fe843503          	ld	a0,-24(s0)
   20ec4:	ca5ff0ef          	jal	ra,20b68 <vpf_str_to_num>
   20ec8:	00050793          	mv	a5,a0
   20ecc:	00078713          	mv	a4,a5
   20ed0:	fe843783          	ld	a5,-24(s0)
   20ed4:	00e787b3          	add	a5,a5,a4
   20ed8:	fef43423          	sd	a5,-24(s0)
   20edc:	fe843783          	ld	a5,-24(s0)
   20ee0:	0007c783          	lbu	a5,0(a5)
   20ee4:	fcf42e23          	sw	a5,-36(s0)
   20ee8:	fdc42783          	lw	a5,-36(s0)
   20eec:	0007871b          	sext.w	a4,a5
   20ef0:	06400793          	li	a5,100
   20ef4:	00f70a63          	beq	a4,a5,20f08 <vpf+0xe8>
   20ef8:	fdc42783          	lw	a5,-36(s0)
   20efc:	0007871b          	sext.w	a4,a5
   20f00:	07800793          	li	a5,120
   20f04:	04f71863          	bne	a4,a5,20f54 <vpf+0x134>
   20f08:	fb043783          	ld	a5,-80(s0)
   20f0c:	00878713          	addi	a4,a5,8
   20f10:	fae43823          	sd	a4,-80(s0)
   20f14:	0007a783          	lw	a5,0(a5)
   20f18:	fcf42423          	sw	a5,-56(s0)
   20f1c:	fc842503          	lw	a0,-56(s0)
   20f20:	fdc42783          	lw	a5,-36(s0)
   20f24:	0007871b          	sext.w	a4,a5
   20f28:	07800793          	li	a5,120
   20f2c:	40f707b3          	sub	a5,a4,a5
   20f30:	0017b793          	seqz	a5,a5
   20f34:	0ff7f793          	andi	a5,a5,255
   20f38:	0007879b          	sext.w	a5,a5
   20f3c:	fc442703          	lw	a4,-60(s0)
   20f40:	fd442683          	lw	a3,-44(s0)
   20f44:	00070613          	mv	a2,a4
   20f48:	00078593          	mv	a1,a5
   20f4c:	d0dff0ef          	jal	ra,20c58 <vpf_num_to_str>
   20f50:	0740006f          	j	20fc4 <vpf+0x1a4>
   20f54:	fc042c23          	sw	zero,-40(s0)
   20f58:	0280006f          	j	20f80 <vpf+0x160>
   20f5c:	fd842783          	lw	a5,-40(s0)
   20f60:	fe043703          	ld	a4,-32(s0)
   20f64:	00f707b3          	add	a5,a4,a5
   20f68:	0007c783          	lbu	a5,0(a5)
   20f6c:	00078513          	mv	a0,a5
   20f70:	a59ff0ef          	jal	ra,209c8 <uart_send>
   20f74:	fd842783          	lw	a5,-40(s0)
   20f78:	0017879b          	addiw	a5,a5,1
   20f7c:	fcf42c23          	sw	a5,-40(s0)
   20f80:	fd842703          	lw	a4,-40(s0)
   20f84:	fe843683          	ld	a3,-24(s0)
   20f88:	fe043783          	ld	a5,-32(s0)
   20f8c:	40f687b3          	sub	a5,a3,a5
   20f90:	fcf746e3          	blt	a4,a5,20f5c <vpf+0x13c>
   20f94:	fdc42783          	lw	a5,-36(s0)
   20f98:	0007879b          	sext.w	a5,a5
   20f9c:	00078863          	beqz	a5,20fac <vpf+0x18c>
   20fa0:	fdc42783          	lw	a5,-36(s0)
   20fa4:	0ff7f793          	andi	a5,a5,255
   20fa8:	00c0006f          	j	20fb4 <vpf+0x194>
   20fac:	fd042783          	lw	a5,-48(s0)
   20fb0:	0ff7f793          	andi	a5,a5,255
   20fb4:	fcf407a3          	sb	a5,-49(s0)
   20fb8:	fcf44783          	lbu	a5,-49(s0)
   20fbc:	00078513          	mv	a0,a5
   20fc0:	a09ff0ef          	jal	ra,209c8 <uart_send>
   20fc4:	fe843783          	ld	a5,-24(s0)
   20fc8:	00178793          	addi	a5,a5,1
   20fcc:	fef43423          	sd	a5,-24(s0)
   20fd0:	fe843783          	ld	a5,-24(s0)
   20fd4:	0007c783          	lbu	a5,0(a5)
   20fd8:	e6079ae3          	bnez	a5,20e4c <vpf+0x2c>
   20fdc:	00000793          	li	a5,0
   20fe0:	00078513          	mv	a0,a5
   20fe4:	04813083          	ld	ra,72(sp)
   20fe8:	04013403          	ld	s0,64(sp)
   20fec:	05010113          	addi	sp,sp,80
   20ff0:	00008067          	ret

0000000000020ff4 <sys_uart_printf>:
   20ff4:	f9010113          	addi	sp,sp,-112
   20ff8:	02113423          	sd	ra,40(sp)
   20ffc:	02813023          	sd	s0,32(sp)
   21000:	03010413          	addi	s0,sp,48
   21004:	fca43c23          	sd	a0,-40(s0)
   21008:	00b43423          	sd	a1,8(s0)
   2100c:	00c43823          	sd	a2,16(s0)
   21010:	00d43c23          	sd	a3,24(s0)
   21014:	02e43023          	sd	a4,32(s0)
   21018:	02f43423          	sd	a5,40(s0)
   2101c:	03043823          	sd	a6,48(s0)
   21020:	03143c23          	sd	a7,56(s0)
   21024:	04040793          	addi	a5,s0,64
   21028:	fcf43823          	sd	a5,-48(s0)
   2102c:	fd043783          	ld	a5,-48(s0)
   21030:	fc878793          	addi	a5,a5,-56
   21034:	fef43423          	sd	a5,-24(s0)
   21038:	fe843783          	ld	a5,-24(s0)
   2103c:	00078593          	mv	a1,a5
   21040:	fd843503          	ld	a0,-40(s0)
   21044:	dddff0ef          	jal	ra,20e20 <vpf>
   21048:	00000793          	li	a5,0
   2104c:	00078513          	mv	a0,a5
   21050:	02813083          	ld	ra,40(sp)
   21054:	02013403          	ld	s0,32(sp)
   21058:	07010113          	addi	sp,sp,112
   2105c:	00008067          	ret

0000000000021060 <print_hex>:
   21060:	fd010113          	addi	sp,sp,-48
   21064:	02113423          	sd	ra,40(sp)
   21068:	02813023          	sd	s0,32(sp)
   2106c:	03010413          	addi	s0,sp,48
   21070:	00050793          	mv	a5,a0
   21074:	fcf42e23          	sw	a5,-36(s0)
   21078:	03000513          	li	a0,48
   2107c:	94dff0ef          	jal	ra,209c8 <uart_send>
   21080:	07800513          	li	a0,120
   21084:	945ff0ef          	jal	ra,209c8 <uart_send>
   21088:	00700793          	li	a5,7
   2108c:	fef42623          	sw	a5,-20(s0)
   21090:	07c0006f          	j	2110c <print_hex+0xac>
   21094:	fec42783          	lw	a5,-20(s0)
   21098:	0027979b          	slliw	a5,a5,0x2
   2109c:	0007879b          	sext.w	a5,a5
   210a0:	00078713          	mv	a4,a5
   210a4:	fdc42783          	lw	a5,-36(s0)
   210a8:	00e7d7bb          	srlw	a5,a5,a4
   210ac:	0007879b          	sext.w	a5,a5
   210b0:	0007879b          	sext.w	a5,a5
   210b4:	00f7f793          	andi	a5,a5,15
   210b8:	fef42423          	sw	a5,-24(s0)
   210bc:	fe842783          	lw	a5,-24(s0)
   210c0:	0007871b          	sext.w	a4,a5
   210c4:	00900793          	li	a5,9
   210c8:	02e7c063          	blt	a5,a4,210e8 <print_hex+0x88>
   210cc:	fe842783          	lw	a5,-24(s0)
   210d0:	0ff7f793          	andi	a5,a5,255
   210d4:	0307879b          	addiw	a5,a5,48
   210d8:	0ff7f793          	andi	a5,a5,255
   210dc:	00078513          	mv	a0,a5
   210e0:	8e9ff0ef          	jal	ra,209c8 <uart_send>
   210e4:	01c0006f          	j	21100 <print_hex+0xa0>
   210e8:	fe842783          	lw	a5,-24(s0)
   210ec:	0ff7f793          	andi	a5,a5,255
   210f0:	0377879b          	addiw	a5,a5,55
   210f4:	0ff7f793          	andi	a5,a5,255
   210f8:	00078513          	mv	a0,a5
   210fc:	8cdff0ef          	jal	ra,209c8 <uart_send>
   21100:	fec42783          	lw	a5,-20(s0)
   21104:	fff7879b          	addiw	a5,a5,-1
   21108:	fef42623          	sw	a5,-20(s0)
   2110c:	fec42783          	lw	a5,-20(s0)
   21110:	0007879b          	sext.w	a5,a5
   21114:	f807d0e3          	bgez	a5,21094 <print_hex+0x34>
   21118:	00000013          	nop
   2111c:	00000013          	nop
   21120:	02813083          	ld	ra,40(sp)
   21124:	02013403          	ld	s0,32(sp)
   21128:	03010113          	addi	sp,sp,48
   2112c:	00008067          	ret

0000000000021130 <sbi_exception_vector>:
   21130:	34011173          	csrrw	sp,mscratch,sp
   21134:	ef810113          	addi	sp,sp,-264
   21138:	00113423          	sd	ra,8(sp)
   2113c:	00313c23          	sd	gp,24(sp)
   21140:	02513423          	sd	t0,40(sp)
   21144:	02613823          	sd	t1,48(sp)
   21148:	02713c23          	sd	t2,56(sp)
   2114c:	04813023          	sd	s0,64(sp)
   21150:	04913423          	sd	s1,72(sp)
   21154:	04a13823          	sd	a0,80(sp)
   21158:	04b13c23          	sd	a1,88(sp)
   2115c:	06c13023          	sd	a2,96(sp)
   21160:	06d13423          	sd	a3,104(sp)
   21164:	06e13823          	sd	a4,112(sp)
   21168:	06f13c23          	sd	a5,120(sp)
   2116c:	09013023          	sd	a6,128(sp)
   21170:	09113423          	sd	a7,136(sp)
   21174:	09213823          	sd	s2,144(sp)
   21178:	09313c23          	sd	s3,152(sp)
   2117c:	0b413023          	sd	s4,160(sp)
   21180:	0b513423          	sd	s5,168(sp)
   21184:	0b613823          	sd	s6,176(sp)
   21188:	0b713c23          	sd	s7,184(sp)
   2118c:	0d813023          	sd	s8,192(sp)
   21190:	0d913423          	sd	s9,200(sp)
   21194:	0da13823          	sd	s10,208(sp)
   21198:	0db13c23          	sd	s11,216(sp)
   2119c:	0fc13023          	sd	t3,224(sp)
   211a0:	0fd13423          	sd	t4,232(sp)
   211a4:	0fe13823          	sd	t5,240(sp)
   211a8:	0ff13c23          	sd	t6,248(sp)
   211ac:	341022f3          	csrr	t0,mepc
   211b0:	00513023          	sd	t0,0(sp)
   211b4:	300022f3          	csrr	t0,mstatus
   211b8:	10513023          	sd	t0,256(sp)
   211bc:	10810293          	addi	t0,sp,264
   211c0:	340292f3          	csrrw	t0,mscratch,t0
   211c4:	00513823          	sd	t0,16(sp)
   211c8:	00010513          	mv	a0,sp
   211cc:	c74ff0ef          	jal	ra,20640 <sbi_trap_handler>
   211d0:	10013283          	ld	t0,256(sp)
   211d4:	30029073          	csrw	mstatus,t0
   211d8:	00013283          	ld	t0,0(sp)
   211dc:	34129073          	csrw	mepc,t0
   211e0:	00813083          	ld	ra,8(sp)
   211e4:	01813183          	ld	gp,24(sp)
   211e8:	02813283          	ld	t0,40(sp)
   211ec:	03013303          	ld	t1,48(sp)
   211f0:	03813383          	ld	t2,56(sp)
   211f4:	04013403          	ld	s0,64(sp)
   211f8:	04813483          	ld	s1,72(sp)
   211fc:	05013503          	ld	a0,80(sp)
   21200:	05813583          	ld	a1,88(sp)
   21204:	06013603          	ld	a2,96(sp)
   21208:	06813683          	ld	a3,104(sp)
   2120c:	07013703          	ld	a4,112(sp)
   21210:	07813783          	ld	a5,120(sp)
   21214:	08013803          	ld	a6,128(sp)
   21218:	08813883          	ld	a7,136(sp)
   2121c:	09013903          	ld	s2,144(sp)
   21220:	09813983          	ld	s3,152(sp)
   21224:	0a013a03          	ld	s4,160(sp)
   21228:	0a813a83          	ld	s5,168(sp)
   2122c:	0b013b03          	ld	s6,176(sp)
   21230:	0b813b83          	ld	s7,184(sp)
   21234:	0c013c03          	ld	s8,192(sp)
   21238:	0c813c83          	ld	s9,200(sp)
   2123c:	0d013d03          	ld	s10,208(sp)
   21240:	0d813d83          	ld	s11,216(sp)
   21244:	0e013e03          	ld	t3,224(sp)
   21248:	0e813e83          	ld	t4,232(sp)
   2124c:	0f013f03          	ld	t5,240(sp)
   21250:	0f813f83          	ld	t6,248(sp)
   21254:	01013103          	ld	sp,16(sp)
   21258:	30200073          	mret
   2125c:	0000                	unimp
	...

Disassembly of section .payload:

0000000000021260 <payload_bin>:
   21260:	10401073          	csrw	sie,zero
   21264:	454020ef          	jal	ra,236b8 <payload_bin+0x2458>
   21268:	00000097          	auipc	ra,0x0
   2126c:	01c080e7          	jalr	28(ra) # 21284 <payload_bin+0x24>
   21270:	00003117          	auipc	sp,0x3
   21274:	ff010113          	addi	sp,sp,-16 # 24260 <payload_bin+0x3000>
   21278:	000012b7          	lui	t0,0x1
   2127c:	00510133          	add	sp,sp,t0
   21280:	0250006f          	j	21aa4 <payload_bin+0x844>
   21284:	00008493          	mv	s1,ra
   21288:	00003517          	auipc	a0,0x3
   2128c:	8b850513          	addi	a0,a0,-1864 # 23b40 <payload_bin+0x28e0>
   21290:	4e8020ef          	jal	ra,23778 <payload_bin+0x2518>
   21294:	00048093          	mv	ra,s1
   21298:	00008067          	ret
   2129c:	0000                	unimp
   2129e:	0000                	unimp
   212a0:	fe010113          	addi	sp,sp,-32
   212a4:	00813c23          	sd	s0,24(sp)
   212a8:	02010413          	addi	s0,sp,32
   212ac:	00050793          	mv	a5,a0
   212b0:	fef407a3          	sb	a5,-17(s0)
   212b4:	fef44783          	lbu	a5,-17(s0)
   212b8:	00078513          	mv	a0,a5
   212bc:	00000593          	li	a1,0
   212c0:	00000613          	li	a2,0
   212c4:	00100893          	li	a7,1
   212c8:	00000073          	ecall
   212cc:	00000013          	nop
   212d0:	01813403          	ld	s0,24(sp)
   212d4:	02010113          	addi	sp,sp,32
   212d8:	00008067          	ret
   212dc:	fd010113          	addi	sp,sp,-48
   212e0:	02113423          	sd	ra,40(sp)
   212e4:	02813023          	sd	s0,32(sp)
   212e8:	03010413          	addi	s0,sp,48
   212ec:	fca43c23          	sd	a0,-40(s0)
   212f0:	fe042623          	sw	zero,-20(s0)
   212f4:	0280006f          	j	2131c <payload_bin+0xbc>
   212f8:	fec42783          	lw	a5,-20(s0)
   212fc:	fd843703          	ld	a4,-40(s0)
   21300:	00f707b3          	add	a5,a4,a5
   21304:	0007c783          	lbu	a5,0(a5)
   21308:	00078513          	mv	a0,a5
   2130c:	f95ff0ef          	jal	ra,212a0 <payload_bin+0x40>
   21310:	fec42783          	lw	a5,-20(s0)
   21314:	0017879b          	addiw	a5,a5,1
   21318:	fef42623          	sw	a5,-20(s0)
   2131c:	fec42783          	lw	a5,-20(s0)
   21320:	fd843703          	ld	a4,-40(s0)
   21324:	00f707b3          	add	a5,a4,a5
   21328:	0007c783          	lbu	a5,0(a5)
   2132c:	fc0796e3          	bnez	a5,212f8 <payload_bin+0x98>
   21330:	00000013          	nop
   21334:	00000013          	nop
   21338:	02813083          	ld	ra,40(sp)
   2133c:	02013403          	ld	s0,32(sp)
   21340:	03010113          	addi	sp,sp,48
   21344:	00008067          	ret
   21348:	fc010113          	addi	sp,sp,-64
   2134c:	02113c23          	sd	ra,56(sp)
   21350:	02813823          	sd	s0,48(sp)
   21354:	04010413          	addi	s0,sp,64
   21358:	fca43423          	sd	a0,-56(s0)
   2135c:	fe042623          	sw	zero,-20(s0)
   21360:	0300006f          	j	21390 <payload_bin+0x130>
   21364:	00002717          	auipc	a4,0x2
   21368:	2b470713          	addi	a4,a4,692 # 23618 <payload_bin+0x23b8>
   2136c:	fec42783          	lw	a5,-20(s0)
   21370:	00379793          	slli	a5,a5,0x3
   21374:	00f707b3          	add	a5,a4,a5
   21378:	0007b783          	ld	a5,0(a5)
   2137c:	fc843703          	ld	a4,-56(s0)
   21380:	02f70663          	beq	a4,a5,213ac <payload_bin+0x14c>
   21384:	fec42783          	lw	a5,-20(s0)
   21388:	0017879b          	addiw	a5,a5,1
   2138c:	fef42623          	sw	a5,-20(s0)
   21390:	fec42703          	lw	a4,-20(s0)
   21394:	00002797          	auipc	a5,0x2
   21398:	2b478793          	addi	a5,a5,692 # 23648 <payload_bin+0x23e8>
   2139c:	0007b783          	ld	a5,0(a5)
   213a0:	fcf762e3          	bltu	a4,a5,21364 <payload_bin+0x104>
   213a4:	00000793          	li	a5,0
   213a8:	0880006f          	j	21430 <payload_bin+0x1d0>
   213ac:	00000013          	nop
   213b0:	00002797          	auipc	a5,0x2
   213b4:	28078793          	addi	a5,a5,640 # 23630 <payload_bin+0x23d0>
   213b8:	fef43023          	sd	a5,-32(s0)
   213bc:	fec42783          	lw	a5,-20(s0)
   213c0:	0007879b          	sext.w	a5,a5
   213c4:	00079863          	bnez	a5,213d4 <payload_bin+0x174>
   213c8:	fe043783          	ld	a5,-32(s0)
   213cc:	fcf43c23          	sd	a5,-40(s0)
   213d0:	0480006f          	j	21418 <payload_bin+0x1b8>
   213d4:	fe043783          	ld	a5,-32(s0)
   213d8:	00178793          	addi	a5,a5,1
   213dc:	fef43023          	sd	a5,-32(s0)
   213e0:	fe043783          	ld	a5,-32(s0)
   213e4:	0007c783          	lbu	a5,0(a5)
   213e8:	00079863          	bnez	a5,213f8 <payload_bin+0x198>
   213ec:	fec42783          	lw	a5,-20(s0)
   213f0:	fff7879b          	addiw	a5,a5,-1
   213f4:	fef42623          	sw	a5,-20(s0)
   213f8:	fec42783          	lw	a5,-20(s0)
   213fc:	0007879b          	sext.w	a5,a5
   21400:	fc079ae3          	bnez	a5,213d4 <payload_bin+0x174>
   21404:	fe043783          	ld	a5,-32(s0)
   21408:	00178793          	addi	a5,a5,1
   2140c:	fef43023          	sd	a5,-32(s0)
   21410:	fe043783          	ld	a5,-32(s0)
   21414:	fcf43c23          	sd	a5,-40(s0)
   21418:	fd843603          	ld	a2,-40(s0)
   2141c:	fc843583          	ld	a1,-56(s0)
   21420:	00002517          	auipc	a0,0x2
   21424:	39850513          	addi	a0,a0,920 # 237b8 <payload_bin+0x2558>
   21428:	698010ef          	jal	ra,22ac0 <payload_bin+0x1860>
   2142c:	00000793          	li	a5,0
   21430:	00078513          	mv	a0,a5
   21434:	03813083          	ld	ra,56(sp)
   21438:	03013403          	ld	s0,48(sp)
   2143c:	04010113          	addi	sp,sp,64
   21440:	00008067          	ret
   21444:	fc010113          	addi	sp,sp,-64
   21448:	02813c23          	sd	s0,56(sp)
   2144c:	04010413          	addi	s0,sp,64
   21450:	fca43c23          	sd	a0,-40(s0)
   21454:	fcb43823          	sd	a1,-48(s0)
   21458:	fcc43423          	sd	a2,-56(s0)
   2145c:	fe043423          	sd	zero,-24(s0)
   21460:	fd843703          	ld	a4,-40(s0)
   21464:	fc843783          	ld	a5,-56(s0)
   21468:	00f707b3          	add	a5,a4,a5
   2146c:	fef43023          	sd	a5,-32(s0)
   21470:	fe043603          	ld	a2,-32(s0)
   21474:	fd043683          	ld	a3,-48(s0)
   21478:	fe843703          	ld	a4,-24(s0)
   2147c:	fd843783          	ld	a5,-40(s0)
   21480:	0007b703          	ld	a4,0(a5)
   21484:	00e6b023          	sd	a4,0(a3)
   21488:	00868693          	addi	a3,a3,8
   2148c:	00878793          	addi	a5,a5,8
   21490:	fec7c8e3          	blt	a5,a2,21480 <payload_bin+0x220>
   21494:	fcd43823          	sd	a3,-48(s0)
   21498:	fee43423          	sd	a4,-24(s0)
   2149c:	fcf43c23          	sd	a5,-40(s0)
   214a0:	00000013          	nop
   214a4:	03813403          	ld	s0,56(sp)
   214a8:	04010113          	addi	sp,sp,64
   214ac:	00008067          	ret
   214b0:	fc010113          	addi	sp,sp,-64
   214b4:	02813c23          	sd	s0,56(sp)
   214b8:	04010413          	addi	s0,sp,64
   214bc:	fca43c23          	sd	a0,-40(s0)
   214c0:	fcb43823          	sd	a1,-48(s0)
   214c4:	fcc43423          	sd	a2,-56(s0)
   214c8:	fe043423          	sd	zero,-24(s0)
   214cc:	fd843703          	ld	a4,-40(s0)
   214d0:	fc843783          	ld	a5,-56(s0)
   214d4:	00f707b3          	add	a5,a4,a5
   214d8:	fef43023          	sd	a5,-32(s0)
   214dc:	fe043603          	ld	a2,-32(s0)
   214e0:	fd043683          	ld	a3,-48(s0)
   214e4:	fe843703          	ld	a4,-24(s0)
   214e8:	fd843783          	ld	a5,-40(s0)
   214ec:	0007b703          	ld	a4,0(a5)
   214f0:	00e6b023          	sd	a4,0(a3)
   214f4:	00868693          	addi	a3,a3,8
   214f8:	00878793          	addi	a5,a5,8
   214fc:	fec7c8e3          	blt	a5,a2,214ec <payload_bin+0x28c>
   21500:	fcd43823          	sd	a3,-48(s0)
   21504:	fee43423          	sd	a4,-24(s0)
   21508:	fcf43c23          	sd	a5,-40(s0)
   2150c:	00000013          	nop
   21510:	03813403          	ld	s0,56(sp)
   21514:	04010113          	addi	sp,sp,64
   21518:	00008067          	ret
   2151c:	fd010113          	addi	sp,sp,-48
   21520:	02813423          	sd	s0,40(sp)
   21524:	03010413          	addi	s0,sp,48
   21528:	fca43c23          	sd	a0,-40(s0)
   2152c:	fcb43823          	sd	a1,-48(s0)
   21530:	fe043423          	sd	zero,-24(s0)
   21534:	fd843683          	ld	a3,-40(s0)
   21538:	fd043703          	ld	a4,-48(s0)
   2153c:	fe843783          	ld	a5,-24(s0)
   21540:	00073783          	ld	a5,0(a4)
   21544:	00d7e7b3          	or	a5,a5,a3
   21548:	00f73023          	sd	a5,0(a4)
   2154c:	fce43823          	sd	a4,-48(s0)
   21550:	fef43423          	sd	a5,-24(s0)
   21554:	00000013          	nop
   21558:	02813403          	ld	s0,40(sp)
   2155c:	03010113          	addi	sp,sp,48
   21560:	00008067          	ret
   21564:	fd010113          	addi	sp,sp,-48
   21568:	02813423          	sd	s0,40(sp)
   2156c:	03010413          	addi	s0,sp,48
   21570:	fca43c23          	sd	a0,-40(s0)
   21574:	fcb43823          	sd	a1,-48(s0)
   21578:	fe043423          	sd	zero,-24(s0)
   2157c:	fd843683          	ld	a3,-40(s0)
   21580:	fd043703          	ld	a4,-48(s0)
   21584:	fe843783          	ld	a5,-24(s0)
   21588:	00073783          	ld	a5,0(a4)
   2158c:	00d7f7b3          	and	a5,a5,a3
   21590:	00f73023          	sd	a5,0(a4)
   21594:	fce43823          	sd	a4,-48(s0)
   21598:	fef43423          	sd	a5,-24(s0)
   2159c:	00000013          	nop
   215a0:	02813403          	ld	s0,40(sp)
   215a4:	03010113          	addi	sp,sp,48
   215a8:	00008067          	ret
   215ac:	fd010113          	addi	sp,sp,-48
   215b0:	02813423          	sd	s0,40(sp)
   215b4:	03010413          	addi	s0,sp,48
   215b8:	fca43c23          	sd	a0,-40(s0)
   215bc:	fcb43823          	sd	a1,-48(s0)
   215c0:	fe043423          	sd	zero,-24(s0)
   215c4:	fd843683          	ld	a3,-40(s0)
   215c8:	fd043703          	ld	a4,-48(s0)
   215cc:	fe843783          	ld	a5,-24(s0)
   215d0:	00073783          	ld	a5,0(a4)
   215d4:	00d787b3          	add	a5,a5,a3
   215d8:	00f73023          	sd	a5,0(a4)
   215dc:	fce43823          	sd	a4,-48(s0)
   215e0:	fef43423          	sd	a5,-24(s0)
   215e4:	00000013          	nop
   215e8:	02813403          	ld	s0,40(sp)
   215ec:	03010113          	addi	sp,sp,48
   215f0:	00008067          	ret
   215f4:	fe010113          	addi	sp,sp,-32
   215f8:	00113c23          	sd	ra,24(sp)
   215fc:	00813823          	sd	s0,16(sp)
   21600:	02010413          	addi	s0,sp,32
   21604:	00f00793          	li	a5,15
   21608:	fef43423          	sd	a5,-24(s0)
   2160c:	fe840793          	addi	a5,s0,-24
   21610:	00078593          	mv	a1,a5
   21614:	00200513          	li	a0,2
   21618:	f4dff0ef          	jal	ra,21564 <payload_bin+0x304>
   2161c:	fe843783          	ld	a5,-24(s0)
   21620:	00078593          	mv	a1,a5
   21624:	00002517          	auipc	a0,0x2
   21628:	1a450513          	addi	a0,a0,420 # 237c8 <payload_bin+0x2568>
   2162c:	494010ef          	jal	ra,22ac0 <payload_bin+0x1860>
   21630:	08000793          	li	a5,128
   21634:	fef43423          	sd	a5,-24(s0)
   21638:	fe840793          	addi	a5,s0,-24
   2163c:	00078593          	mv	a1,a5
   21640:	00300513          	li	a0,3
   21644:	ed9ff0ef          	jal	ra,2151c <payload_bin+0x2bc>
   21648:	fe843783          	ld	a5,-24(s0)
   2164c:	00078593          	mv	a1,a5
   21650:	00002517          	auipc	a0,0x2
   21654:	19050513          	addi	a0,a0,400 # 237e0 <payload_bin+0x2580>
   21658:	468010ef          	jal	ra,22ac0 <payload_bin+0x1860>
   2165c:	00300793          	li	a5,3
   21660:	fef43423          	sd	a5,-24(s0)
   21664:	fe840793          	addi	a5,s0,-24
   21668:	00078593          	mv	a1,a5
   2166c:	00200513          	li	a0,2
   21670:	f3dff0ef          	jal	ra,215ac <payload_bin+0x34c>
   21674:	fe843783          	ld	a5,-24(s0)
   21678:	00078593          	mv	a1,a5
   2167c:	00002517          	auipc	a0,0x2
   21680:	17c50513          	addi	a0,a0,380 # 237f8 <payload_bin+0x2598>
   21684:	43c010ef          	jal	ra,22ac0 <payload_bin+0x1860>
   21688:	00000013          	nop
   2168c:	01813083          	ld	ra,24(sp)
   21690:	01013403          	ld	s0,16(sp)
   21694:	02010113          	addi	sp,sp,32
   21698:	00008067          	ret
   2169c:	fe010113          	addi	sp,sp,-32
   216a0:	00113c23          	sd	ra,24(sp)
   216a4:	00813823          	sd	s0,16(sp)
   216a8:	02010413          	addi	s0,sp,32
   216ac:	100027f3          	csrr	a5,sstatus
   216b0:	00078093          	mv	ra,a5
   216b4:	00008793          	mv	a5,ra
   216b8:	fef43423          	sd	a5,-24(s0)
   216bc:	fe843583          	ld	a1,-24(s0)
   216c0:	00002517          	auipc	a0,0x2
   216c4:	15050513          	addi	a0,a0,336 # 23810 <payload_bin+0x25b0>
   216c8:	3f8010ef          	jal	ra,22ac0 <payload_bin+0x1860>
   216cc:	00000013          	nop
   216d0:	01813083          	ld	ra,24(sp)
   216d4:	01013403          	ld	s0,16(sp)
   216d8:	02010113          	addi	sp,sp,32
   216dc:	00008067          	ret
   216e0:	fe010113          	addi	sp,sp,-32
   216e4:	00113c23          	sd	ra,24(sp)
   216e8:	00813823          	sd	s0,16(sp)
   216ec:	02010413          	addi	s0,sp,32
   216f0:	00050793          	mv	a5,a0
   216f4:	fef42623          	sw	a5,-20(s0)
   216f8:	fec42783          	lw	a5,-20(s0)
   216fc:	fff78793          	addi	a5,a5,-1
   21700:	00078663          	beqz	a5,2170c <payload_bin+0x4ac>
   21704:	00000793          	li	a5,0
   21708:	0240006f          	j	2172c <payload_bin+0x4cc>
   2170c:	fec42783          	lw	a5,-20(s0)
   21710:	00078613          	mv	a2,a5
   21714:	00002597          	auipc	a1,0x2
   21718:	2fc58593          	addi	a1,a1,764 # 23a10 <payload_bin+0x27b0>
   2171c:	00002517          	auipc	a0,0x2
   21720:	10450513          	addi	a0,a0,260 # 23820 <payload_bin+0x25c0>
   21724:	39c010ef          	jal	ra,22ac0 <payload_bin+0x1860>
   21728:	00100793          	li	a5,1
   2172c:	00078513          	mv	a0,a5
   21730:	01813083          	ld	ra,24(sp)
   21734:	01013403          	ld	s0,16(sp)
   21738:	02010113          	addi	sp,sp,32
   2173c:	00008067          	ret
   21740:	fe010113          	addi	sp,sp,-32
   21744:	00113c23          	sd	ra,24(sp)
   21748:	00813823          	sd	s0,16(sp)
   2174c:	02010413          	addi	s0,sp,32
   21750:	02000613          	li	a2,32
   21754:	0002a5b7          	lui	a1,0x2a
   21758:	00020537          	lui	a0,0x20
   2175c:	ce9ff0ef          	jal	ra,21444 <payload_bin+0x1e4>
   21760:	02000613          	li	a2,32
   21764:	0002a5b7          	lui	a1,0x2a
   21768:	00020537          	lui	a0,0x20
   2176c:	d45ff0ef          	jal	ra,214b0 <payload_bin+0x250>
   21770:	03000613          	li	a2,48
   21774:	05500593          	li	a1,85
   21778:	0002a7b7          	lui	a5,0x2a
   2177c:	00278513          	addi	a0,a5,2 # 2a002 <bss_begin+0x3002>
   21780:	5d4000ef          	jal	ra,21d54 <payload_bin+0xaf4>
   21784:	e71ff0ef          	jal	ra,215f4 <payload_bin+0x394>
   21788:	f15ff0ef          	jal	ra,2169c <payload_bin+0x43c>
   2178c:	00100793          	li	a5,1
   21790:	fef42623          	sw	a5,-20(s0)
   21794:	fec42783          	lw	a5,-20(s0)
   21798:	00078513          	mv	a0,a5
   2179c:	f45ff0ef          	jal	ra,216e0 <payload_bin+0x480>
   217a0:	00050793          	mv	a5,a0
   217a4:	00078713          	mv	a4,a5
   217a8:	00100793          	li	a5,1
   217ac:	00f71863          	bne	a4,a5,217bc <payload_bin+0x55c>
   217b0:	00002517          	auipc	a0,0x2
   217b4:	08050513          	addi	a0,a0,128 # 23830 <payload_bin+0x25d0>
   217b8:	308010ef          	jal	ra,22ac0 <payload_bin+0x1860>
   217bc:	fe042423          	sw	zero,-24(s0)
   217c0:	fe842783          	lw	a5,-24(s0)
   217c4:	00078513          	mv	a0,a5
   217c8:	f19ff0ef          	jal	ra,216e0 <payload_bin+0x480>
   217cc:	00050793          	mv	a5,a0
   217d0:	00079863          	bnez	a5,217e0 <payload_bin+0x580>
   217d4:	00002517          	auipc	a0,0x2
   217d8:	07450513          	addi	a0,a0,116 # 23848 <payload_bin+0x25e8>
   217dc:	2e4010ef          	jal	ra,22ac0 <payload_bin+0x1860>
   217e0:	00000013          	nop
   217e4:	01813083          	ld	ra,24(sp)
   217e8:	01013403          	ld	s0,16(sp)
   217ec:	02010113          	addi	sp,sp,32
   217f0:	00008067          	ret
   217f4:	fe010113          	addi	sp,sp,-32
   217f8:	00113c23          	sd	ra,24(sp)
   217fc:	00813823          	sd	s0,16(sp)
   21800:	02010413          	addi	s0,sp,32
   21804:	4b5010ef          	jal	ra,234b8 <payload_bin+0x2258>
   21808:	4e5010ef          	jal	ra,234ec <payload_bin+0x228c>
   2180c:	529010ef          	jal	ra,23534 <payload_bin+0x22d4>
   21810:	575010ef          	jal	ra,23584 <payload_bin+0x2324>
   21814:	595010ef          	jal	ra,235a8 <payload_bin+0x2348>
   21818:	02800613          	li	a2,40
   2181c:	05500593          	li	a1,85
   21820:	0002a537          	lui	a0,0x2a
   21824:	530000ef          	jal	ra,21d54 <payload_bin+0xaf4>
   21828:	00900593          	li	a1,9
   2182c:	00a00513          	li	a0,10
   21830:	59d010ef          	jal	ra,235cc <payload_bin+0x236c>
   21834:	fea43423          	sd	a0,-24(s0)
   21838:	fe843783          	ld	a5,-24(s0)
   2183c:	00079863          	bnez	a5,2184c <payload_bin+0x5ec>
   21840:	00002517          	auipc	a0,0x2
   21844:	02050513          	addi	a0,a0,32 # 23860 <payload_bin+0x2600>
   21848:	278010ef          	jal	ra,22ac0 <payload_bin+0x1860>
   2184c:	00a00593          	li	a1,10
   21850:	00900513          	li	a0,9
   21854:	579010ef          	jal	ra,235cc <payload_bin+0x236c>
   21858:	fea43023          	sd	a0,-32(s0)
   2185c:	fe043703          	ld	a4,-32(s0)
   21860:	fff00793          	li	a5,-1
   21864:	00f71863          	bne	a4,a5,21874 <payload_bin+0x614>
   21868:	00002517          	auipc	a0,0x2
   2186c:	ff850513          	addi	a0,a0,-8 # 23860 <payload_bin+0x2600>
   21870:	250010ef          	jal	ra,22ac0 <payload_bin+0x1860>
   21874:	00900593          	li	a1,9
   21878:	00000513          	li	a0,0
   2187c:	569010ef          	jal	ra,235e4 <payload_bin+0x2384>
   21880:	fea43423          	sd	a0,-24(s0)
   21884:	00200593          	li	a1,2
   21888:	00500513          	li	a0,5
   2188c:	559010ef          	jal	ra,235e4 <payload_bin+0x2384>
   21890:	fea43023          	sd	a0,-32(s0)
   21894:	569010ef          	jal	ra,235fc <payload_bin+0x239c>
   21898:	00002517          	auipc	a0,0x2
   2189c:	fe850513          	addi	a0,a0,-24 # 23880 <payload_bin+0x2620>
   218a0:	220010ef          	jal	ra,22ac0 <payload_bin+0x1860>
   218a4:	00500593          	li	a1,5
   218a8:	00500513          	li	a0,5
   218ac:	5b5010ef          	jal	ra,23660 <payload_bin+0x2400>
   218b0:	fea43423          	sd	a0,-24(s0)
   218b4:	fe843703          	ld	a4,-24(s0)
   218b8:	00a00793          	li	a5,10
   218bc:	00f71863          	bne	a4,a5,218cc <payload_bin+0x66c>
   218c0:	00002517          	auipc	a0,0x2
   218c4:	fd850513          	addi	a0,a0,-40 # 23898 <payload_bin+0x2638>
   218c8:	1f8010ef          	jal	ra,22ac0 <payload_bin+0x1860>
   218cc:	00500593          	li	a1,5
   218d0:	00500513          	li	a0,5
   218d4:	5b5010ef          	jal	ra,23688 <payload_bin+0x2428>
   218d8:	fea43023          	sd	a0,-32(s0)
   218dc:	fe043783          	ld	a5,-32(s0)
   218e0:	00079863          	bnez	a5,218f0 <payload_bin+0x690>
   218e4:	00002517          	auipc	a0,0x2
   218e8:	fd450513          	addi	a0,a0,-44 # 238b8 <payload_bin+0x2658>
   218ec:	1d4010ef          	jal	ra,22ac0 <payload_bin+0x1860>
   218f0:	00000013          	nop
   218f4:	01813083          	ld	ra,24(sp)
   218f8:	01013403          	ld	s0,16(sp)
   218fc:	02010113          	addi	sp,sp,32
   21900:	00008067          	ret
   21904:	ff010113          	addi	sp,sp,-16
   21908:	00113423          	sd	ra,8(sp)
   2190c:	00813023          	sd	s0,0(sp)
   21910:	01010413          	addi	s0,sp,16
   21914:	00002517          	auipc	a0,0x2
   21918:	fc450513          	addi	a0,a0,-60 # 238d8 <payload_bin+0x2678>
   2191c:	1a4010ef          	jal	ra,22ac0 <payload_bin+0x1860>
   21920:	00000597          	auipc	a1,0x0
   21924:	94058593          	addi	a1,a1,-1728 # 21260 <payload_bin>
   21928:	00000617          	auipc	a2,0x0
   2192c:	97460613          	addi	a2,a2,-1676 # 2129c <payload_bin+0x3c>
   21930:	00000717          	auipc	a4,0x0
   21934:	96c70713          	addi	a4,a4,-1684 # 2129c <payload_bin+0x3c>
   21938:	00000797          	auipc	a5,0x0
   2193c:	92878793          	addi	a5,a5,-1752 # 21260 <payload_bin>
   21940:	40f707b3          	sub	a5,a4,a5
   21944:	00078693          	mv	a3,a5
   21948:	00002517          	auipc	a0,0x2
   2194c:	fa850513          	addi	a0,a0,-88 # 238f0 <payload_bin+0x2690>
   21950:	170010ef          	jal	ra,22ac0 <payload_bin+0x1860>
   21954:	00000597          	auipc	a1,0x0
   21958:	94858593          	addi	a1,a1,-1720 # 2129c <payload_bin+0x3c>
   2195c:	00002617          	auipc	a2,0x2
   21960:	e5860613          	addi	a2,a2,-424 # 237b4 <payload_bin+0x2554>
   21964:	00002717          	auipc	a4,0x2
   21968:	e5070713          	addi	a4,a4,-432 # 237b4 <payload_bin+0x2554>
   2196c:	00000797          	auipc	a5,0x0
   21970:	93078793          	addi	a5,a5,-1744 # 2129c <payload_bin+0x3c>
   21974:	40f707b3          	sub	a5,a4,a5
   21978:	00078693          	mv	a3,a5
   2197c:	00002517          	auipc	a0,0x2
   21980:	fa450513          	addi	a0,a0,-92 # 23920 <payload_bin+0x26c0>
   21984:	13c010ef          	jal	ra,22ac0 <payload_bin+0x1860>
   21988:	00002597          	auipc	a1,0x2
   2198c:	e2c58593          	addi	a1,a1,-468 # 237b4 <payload_bin+0x2554>
   21990:	00002617          	auipc	a2,0x2
   21994:	1c360613          	addi	a2,a2,451 # 23b53 <payload_bin+0x28f3>
   21998:	00002717          	auipc	a4,0x2
   2199c:	1bb70713          	addi	a4,a4,443 # 23b53 <payload_bin+0x28f3>
   219a0:	00002797          	auipc	a5,0x2
   219a4:	e1478793          	addi	a5,a5,-492 # 237b4 <payload_bin+0x2554>
   219a8:	40f707b3          	sub	a5,a4,a5
   219ac:	00078693          	mv	a3,a5
   219b0:	00002517          	auipc	a0,0x2
   219b4:	fa050513          	addi	a0,a0,-96 # 23950 <payload_bin+0x26f0>
   219b8:	108010ef          	jal	ra,22ac0 <payload_bin+0x1860>
   219bc:	00002597          	auipc	a1,0x2
   219c0:	19758593          	addi	a1,a1,407 # 23b53 <payload_bin+0x28f3>
   219c4:	00004617          	auipc	a2,0x4
   219c8:	89c60613          	addi	a2,a2,-1892 # 25260 <payload_bin+0x4000>
   219cc:	00004717          	auipc	a4,0x4
   219d0:	89470713          	addi	a4,a4,-1900 # 25260 <payload_bin+0x4000>
   219d4:	00002797          	auipc	a5,0x2
   219d8:	17f78793          	addi	a5,a5,383 # 23b53 <payload_bin+0x28f3>
   219dc:	40f707b3          	sub	a5,a4,a5
   219e0:	00078693          	mv	a3,a5
   219e4:	00002517          	auipc	a0,0x2
   219e8:	f9c50513          	addi	a0,a0,-100 # 23980 <payload_bin+0x2720>
   219ec:	0d4010ef          	jal	ra,22ac0 <payload_bin+0x1860>
   219f0:	00004597          	auipc	a1,0x4
   219f4:	87858593          	addi	a1,a1,-1928 # 25268 <payload_bin+0x4008>
   219f8:	00004617          	auipc	a2,0x4
   219fc:	a8060613          	addi	a2,a2,-1408 # 25478 <payload_bin+0x4218>
   21a00:	00004717          	auipc	a4,0x4
   21a04:	a7870713          	addi	a4,a4,-1416 # 25478 <payload_bin+0x4218>
   21a08:	00004797          	auipc	a5,0x4
   21a0c:	86078793          	addi	a5,a5,-1952 # 25268 <payload_bin+0x4008>
   21a10:	40f707b3          	sub	a5,a4,a5
   21a14:	00078693          	mv	a3,a5
   21a18:	00002517          	auipc	a0,0x2
   21a1c:	f9850513          	addi	a0,a0,-104 # 239b0 <payload_bin+0x2750>
   21a20:	0a0010ef          	jal	ra,22ac0 <payload_bin+0x1860>
   21a24:	00000013          	nop
   21a28:	00813083          	ld	ra,8(sp)
   21a2c:	00013403          	ld	s0,0(sp)
   21a30:	01010113          	addi	sp,sp,16
   21a34:	00008067          	ret
   21a38:	fd010113          	addi	sp,sp,-48
   21a3c:	02113423          	sd	ra,40(sp)
   21a40:	02813023          	sd	s0,32(sp)
   21a44:	03010413          	addi	s0,sp,48
   21a48:	00004797          	auipc	a5,0x4
   21a4c:	82078793          	addi	a5,a5,-2016 # 25268 <payload_bin+0x4008>
   21a50:	fef43423          	sd	a5,-24(s0)
   21a54:	00004797          	auipc	a5,0x4
   21a58:	a2478793          	addi	a5,a5,-1500 # 25478 <payload_bin+0x4218>
   21a5c:	fef43023          	sd	a5,-32(s0)
   21a60:	fe043783          	ld	a5,-32(s0)
   21a64:	0007871b          	sext.w	a4,a5
   21a68:	fe843783          	ld	a5,-24(s0)
   21a6c:	0007879b          	sext.w	a5,a5
   21a70:	40f707bb          	subw	a5,a4,a5
   21a74:	fcf42e23          	sw	a5,-36(s0)
   21a78:	fe843783          	ld	a5,-24(s0)
   21a7c:	fdc46703          	lwu	a4,-36(s0)
   21a80:	00070613          	mv	a2,a4
   21a84:	00000593          	li	a1,0
   21a88:	00078513          	mv	a0,a5
   21a8c:	2c8000ef          	jal	ra,21d54 <payload_bin+0xaf4>
   21a90:	00000013          	nop
   21a94:	02813083          	ld	ra,40(sp)
   21a98:	02013403          	ld	s0,32(sp)
   21a9c:	03010113          	addi	sp,sp,48
   21aa0:	00008067          	ret
   21aa4:	ff010113          	addi	sp,sp,-16
   21aa8:	00113423          	sd	ra,8(sp)
   21aac:	00813023          	sd	s0,0(sp)
   21ab0:	01010413          	addi	s0,sp,16
   21ab4:	f85ff0ef          	jal	ra,21a38 <payload_bin+0x7d8>
   21ab8:	00002517          	auipc	a0,0x2
   21abc:	f2850513          	addi	a0,a0,-216 # 239e0 <payload_bin+0x2780>
   21ac0:	81dff0ef          	jal	ra,212dc <payload_bin+0x7c>
   21ac4:	765000ef          	jal	ra,22a28 <payload_bin+0x17c8>
   21ac8:	00002517          	auipc	a0,0x2
   21acc:	f3050513          	addi	a0,a0,-208 # 239f8 <payload_bin+0x2798>
   21ad0:	7f1000ef          	jal	ra,22ac0 <payload_bin+0x1860>
   21ad4:	d21ff0ef          	jal	ra,217f4 <payload_bin+0x594>
   21ad8:	c69ff0ef          	jal	ra,21740 <payload_bin+0x4e0>
   21adc:	008017b7          	lui	a5,0x801
   21ae0:	88078513          	addi	a0,a5,-1920 # 800880 <bss_begin+0x7d9880>
   21ae4:	865ff0ef          	jal	ra,21348 <payload_bin+0xe8>
   21ae8:	008017b7          	lui	a5,0x801
   21aec:	86078513          	addi	a0,a5,-1952 # 800860 <bss_begin+0x7d9860>
   21af0:	859ff0ef          	jal	ra,21348 <payload_bin+0xe8>
   21af4:	008017b7          	lui	a5,0x801
   21af8:	80078513          	addi	a0,a5,-2048 # 800800 <bss_begin+0x7d9800>
   21afc:	84dff0ef          	jal	ra,21348 <payload_bin+0xe8>
   21b00:	e05ff0ef          	jal	ra,21904 <payload_bin+0x6a4>
   21b04:	0000006f          	j	21b04 <payload_bin+0x8a4>
   21b08:	fc010113          	addi	sp,sp,-64
   21b0c:	02813c23          	sd	s0,56(sp)
   21b10:	04010413          	addi	s0,sp,64
   21b14:	fca43c23          	sd	a0,-40(s0)
   21b18:	fcb43823          	sd	a1,-48(s0)
   21b1c:	00060793          	mv	a5,a2
   21b20:	fcf42623          	sw	a5,-52(s0)
   21b24:	fe042623          	sw	zero,-20(s0)
   21b28:	fd043603          	ld	a2,-48(s0)
   21b2c:	fd843683          	ld	a3,-40(s0)
   21b30:	fcc42703          	lw	a4,-52(s0)
   21b34:	fec42783          	lw	a5,-20(s0)
   21b38:	00c6b023          	sd	a2,0(a3)
   21b3c:	00c6b423          	sd	a2,8(a3)
   21b40:	01078793          	addi	a5,a5,16
   21b44:	fee7cae3          	blt	a5,a4,21b38 <payload_bin+0x8d8>
   21b48:	fcd43c23          	sd	a3,-40(s0)
   21b4c:	fce42623          	sw	a4,-52(s0)
   21b50:	fef42623          	sw	a5,-20(s0)
   21b54:	00000013          	nop
   21b58:	03813403          	ld	s0,56(sp)
   21b5c:	04010113          	addi	sp,sp,64
   21b60:	00008067          	ret
   21b64:	fc010113          	addi	sp,sp,-64
   21b68:	02813c23          	sd	s0,56(sp)
   21b6c:	04010413          	addi	s0,sp,64
   21b70:	fca43c23          	sd	a0,-40(s0)
   21b74:	00058793          	mv	a5,a1
   21b78:	fcc43423          	sd	a2,-56(s0)
   21b7c:	fcf42a23          	sw	a5,-44(s0)
   21b80:	fd843783          	ld	a5,-40(s0)
   21b84:	fef43423          	sd	a5,-24(s0)
   21b88:	01c0006f          	j	21ba4 <payload_bin+0x944>
   21b8c:	fe843783          	ld	a5,-24(s0)
   21b90:	00178713          	addi	a4,a5,1
   21b94:	fee43423          	sd	a4,-24(s0)
   21b98:	fd442703          	lw	a4,-44(s0)
   21b9c:	0ff77713          	andi	a4,a4,255
   21ba0:	00e78023          	sb	a4,0(a5)
   21ba4:	fc843783          	ld	a5,-56(s0)
   21ba8:	fff78713          	addi	a4,a5,-1
   21bac:	fce43423          	sd	a4,-56(s0)
   21bb0:	fc079ee3          	bnez	a5,21b8c <payload_bin+0x92c>
   21bb4:	fd843783          	ld	a5,-40(s0)
   21bb8:	00078513          	mv	a0,a5
   21bbc:	03813403          	ld	s0,56(sp)
   21bc0:	04010113          	addi	sp,sp,64
   21bc4:	00008067          	ret
   21bc8:	f9010113          	addi	sp,sp,-112
   21bcc:	06113423          	sd	ra,104(sp)
   21bd0:	06813023          	sd	s0,96(sp)
   21bd4:	07010413          	addi	s0,sp,112
   21bd8:	faa43423          	sd	a0,-88(s0)
   21bdc:	00058793          	mv	a5,a1
   21be0:	f8c43c23          	sd	a2,-104(s0)
   21be4:	faf42223          	sw	a5,-92(s0)
   21be8:	fa843783          	ld	a5,-88(s0)
   21bec:	fef43423          	sd	a5,-24(s0)
   21bf0:	01000793          	li	a5,16
   21bf4:	fcf43423          	sd	a5,-56(s0)
   21bf8:	f9843783          	ld	a5,-104(s0)
   21bfc:	fef43023          	sd	a5,-32(s0)
   21c00:	fe843783          	ld	a5,-24(s0)
   21c04:	fcf43023          	sd	a5,-64(s0)
   21c08:	fc043823          	sd	zero,-48(s0)
   21c0c:	fc042e23          	sw	zero,-36(s0)
   21c10:	0340006f          	j	21c44 <payload_bin+0x9e4>
   21c14:	fa442783          	lw	a5,-92(s0)
   21c18:	0ff7f793          	andi	a5,a5,255
   21c1c:	fdc42703          	lw	a4,-36(s0)
   21c20:	0037171b          	slliw	a4,a4,0x3
   21c24:	0007071b          	sext.w	a4,a4
   21c28:	00e797b3          	sll	a5,a5,a4
   21c2c:	fd043703          	ld	a4,-48(s0)
   21c30:	00f767b3          	or	a5,a4,a5
   21c34:	fcf43823          	sd	a5,-48(s0)
   21c38:	fdc42783          	lw	a5,-36(s0)
   21c3c:	0017879b          	addiw	a5,a5,1
   21c40:	fcf42e23          	sw	a5,-36(s0)
   21c44:	fdc42783          	lw	a5,-36(s0)
   21c48:	0007871b          	sext.w	a4,a5
   21c4c:	00700793          	li	a5,7
   21c50:	fce7d2e3          	bge	a5,a4,21c14 <payload_bin+0x9b4>
   21c54:	fc843783          	ld	a5,-56(s0)
   21c58:	fff78713          	addi	a4,a5,-1
   21c5c:	fc043783          	ld	a5,-64(s0)
   21c60:	00f777b3          	and	a5,a4,a5
   21c64:	04078e63          	beqz	a5,21cc0 <payload_bin+0xa60>
   21c68:	fc843783          	ld	a5,-56(s0)
   21c6c:	fff78793          	addi	a5,a5,-1
   21c70:	fc043703          	ld	a4,-64(s0)
   21c74:	00f777b3          	and	a5,a4,a5
   21c78:	faf43c23          	sd	a5,-72(s0)
   21c7c:	fc843703          	ld	a4,-56(s0)
   21c80:	fb843783          	ld	a5,-72(s0)
   21c84:	40f707b3          	sub	a5,a4,a5
   21c88:	faf43c23          	sd	a5,-72(s0)
   21c8c:	fa442783          	lw	a5,-92(s0)
   21c90:	fb843603          	ld	a2,-72(s0)
   21c94:	00078593          	mv	a1,a5
   21c98:	fe843503          	ld	a0,-24(s0)
   21c9c:	ec9ff0ef          	jal	ra,21b64 <payload_bin+0x904>
   21ca0:	fe843703          	ld	a4,-24(s0)
   21ca4:	fb843783          	ld	a5,-72(s0)
   21ca8:	00f707b3          	add	a5,a4,a5
   21cac:	fef43423          	sd	a5,-24(s0)
   21cb0:	f9843703          	ld	a4,-104(s0)
   21cb4:	fb843783          	ld	a5,-72(s0)
   21cb8:	40f707b3          	sub	a5,a4,a5
   21cbc:	fef43023          	sd	a5,-32(s0)
   21cc0:	fe043703          	ld	a4,-32(s0)
   21cc4:	fc843783          	ld	a5,-56(s0)
   21cc8:	06e7fa63          	bgeu	a5,a4,21d3c <payload_bin+0xadc>
   21ccc:	fe043703          	ld	a4,-32(s0)
   21cd0:	fc843783          	ld	a5,-56(s0)
   21cd4:	02f757b3          	divu	a5,a4,a5
   21cd8:	faf42a23          	sw	a5,-76(s0)
   21cdc:	fe043703          	ld	a4,-32(s0)
   21ce0:	fc843783          	ld	a5,-56(s0)
   21ce4:	02f777b3          	remu	a5,a4,a5
   21ce8:	fef43023          	sd	a5,-32(s0)
   21cec:	fb442783          	lw	a5,-76(s0)
   21cf0:	0047979b          	slliw	a5,a5,0x4
   21cf4:	0007879b          	sext.w	a5,a5
   21cf8:	00078613          	mv	a2,a5
   21cfc:	fd043583          	ld	a1,-48(s0)
   21d00:	fe843503          	ld	a0,-24(s0)
   21d04:	e05ff0ef          	jal	ra,21b08 <payload_bin+0x8a8>
   21d08:	fe043783          	ld	a5,-32(s0)
   21d0c:	02078863          	beqz	a5,21d3c <payload_bin+0xadc>
   21d10:	fb442783          	lw	a5,-76(s0)
   21d14:	0047979b          	slliw	a5,a5,0x4
   21d18:	0007879b          	sext.w	a5,a5
   21d1c:	00078713          	mv	a4,a5
   21d20:	fe843783          	ld	a5,-24(s0)
   21d24:	00e787b3          	add	a5,a5,a4
   21d28:	fa442703          	lw	a4,-92(s0)
   21d2c:	fe043603          	ld	a2,-32(s0)
   21d30:	00070593          	mv	a1,a4
   21d34:	00078513          	mv	a0,a5
   21d38:	e2dff0ef          	jal	ra,21b64 <payload_bin+0x904>
   21d3c:	fa843783          	ld	a5,-88(s0)
   21d40:	00078513          	mv	a0,a5
   21d44:	06813083          	ld	ra,104(sp)
   21d48:	06013403          	ld	s0,96(sp)
   21d4c:	07010113          	addi	sp,sp,112
   21d50:	00008067          	ret
   21d54:	fd010113          	addi	sp,sp,-48
   21d58:	02113423          	sd	ra,40(sp)
   21d5c:	02813023          	sd	s0,32(sp)
   21d60:	03010413          	addi	s0,sp,48
   21d64:	fea43423          	sd	a0,-24(s0)
   21d68:	00058793          	mv	a5,a1
   21d6c:	fcc43c23          	sd	a2,-40(s0)
   21d70:	fef42223          	sw	a5,-28(s0)
   21d74:	fe442783          	lw	a5,-28(s0)
   21d78:	fd843603          	ld	a2,-40(s0)
   21d7c:	00078593          	mv	a1,a5
   21d80:	fe843503          	ld	a0,-24(s0)
   21d84:	e45ff0ef          	jal	ra,21bc8 <payload_bin+0x968>
   21d88:	00050793          	mv	a5,a0
   21d8c:	00078513          	mv	a0,a5
   21d90:	02813083          	ld	ra,40(sp)
   21d94:	02013403          	ld	s0,32(sp)
   21d98:	03010113          	addi	sp,sp,48
   21d9c:	00008067          	ret
   21da0:	fe010113          	addi	sp,sp,-32
   21da4:	00813c23          	sd	s0,24(sp)
   21da8:	02010413          	addi	s0,sp,32
   21dac:	00050793          	mv	a5,a0
   21db0:	fef407a3          	sb	a5,-17(s0)
   21db4:	fef44783          	lbu	a5,-17(s0)
   21db8:	00078513          	mv	a0,a5
   21dbc:	00000593          	li	a1,0
   21dc0:	00000613          	li	a2,0
   21dc4:	00100893          	li	a7,1
   21dc8:	00000073          	ecall
   21dcc:	00000013          	nop
   21dd0:	01813403          	ld	s0,24(sp)
   21dd4:	02010113          	addi	sp,sp,32
   21dd8:	00008067          	ret
   21ddc:	fd010113          	addi	sp,sp,-48
   21de0:	02813423          	sd	s0,40(sp)
   21de4:	03010413          	addi	s0,sp,48
   21de8:	fca43c23          	sd	a0,-40(s0)
   21dec:	fcb43823          	sd	a1,-48(s0)
   21df0:	fe042623          	sw	zero,-20(s0)
   21df4:	0440006f          	j	21e38 <payload_bin+0xbd8>
   21df8:	fec42703          	lw	a4,-20(s0)
   21dfc:	00070793          	mv	a5,a4
   21e00:	0027979b          	slliw	a5,a5,0x2
   21e04:	00e787bb          	addw	a5,a5,a4
   21e08:	0017979b          	slliw	a5,a5,0x1
   21e0c:	fef42623          	sw	a5,-20(s0)
   21e10:	fd843783          	ld	a5,-40(s0)
   21e14:	00178713          	addi	a4,a5,1
   21e18:	fce43c23          	sd	a4,-40(s0)
   21e1c:	0007c783          	lbu	a5,0(a5)
   21e20:	0007879b          	sext.w	a5,a5
   21e24:	fd07879b          	addiw	a5,a5,-48
   21e28:	0007879b          	sext.w	a5,a5
   21e2c:	fec42703          	lw	a4,-20(s0)
   21e30:	00f707bb          	addw	a5,a4,a5
   21e34:	fef42623          	sw	a5,-20(s0)
   21e38:	fd843783          	ld	a5,-40(s0)
   21e3c:	0007c783          	lbu	a5,0(a5)
   21e40:	00078713          	mv	a4,a5
   21e44:	02f00793          	li	a5,47
   21e48:	00e7fc63          	bgeu	a5,a4,21e60 <payload_bin+0xc00>
   21e4c:	fd843783          	ld	a5,-40(s0)
   21e50:	0007c783          	lbu	a5,0(a5)
   21e54:	00078713          	mv	a4,a5
   21e58:	03900793          	li	a5,57
   21e5c:	f8e7fee3          	bgeu	a5,a4,21df8 <payload_bin+0xb98>
   21e60:	fd043783          	ld	a5,-48(s0)
   21e64:	fec42703          	lw	a4,-20(s0)
   21e68:	00e7a023          	sw	a4,0(a5)
   21e6c:	fd843783          	ld	a5,-40(s0)
   21e70:	00078513          	mv	a0,a5
   21e74:	02813403          	ld	s0,40(sp)
   21e78:	03010113          	addi	sp,sp,48
   21e7c:	00008067          	ret
   21e80:	f2010113          	addi	sp,sp,-224
   21e84:	0c813c23          	sd	s0,216(sp)
   21e88:	0e010413          	addi	s0,sp,224
   21e8c:	f2a43c23          	sd	a0,-200(s0)
   21e90:	f2b43823          	sd	a1,-208(s0)
   21e94:	00060593          	mv	a1,a2
   21e98:	00068613          	mv	a2,a3
   21e9c:	00070693          	mv	a3,a4
   21ea0:	00078713          	mv	a4,a5
   21ea4:	00058793          	mv	a5,a1
   21ea8:	f2f42623          	sw	a5,-212(s0)
   21eac:	00060793          	mv	a5,a2
   21eb0:	f2f42423          	sw	a5,-216(s0)
   21eb4:	00068793          	mv	a5,a3
   21eb8:	f2f42223          	sw	a5,-220(s0)
   21ebc:	00070793          	mv	a5,a4
   21ec0:	f2f42023          	sw	a5,-224(s0)
   21ec4:	fe0407a3          	sb	zero,-17(s0)
   21ec8:	00002797          	auipc	a5,0x2
   21ecc:	b5878793          	addi	a5,a5,-1192 # 23a20 <payload_bin+0x27c0>
   21ed0:	fef43023          	sd	a5,-32(s0)
   21ed4:	f2042783          	lw	a5,-224(s0)
   21ed8:	0407f793          	andi	a5,a5,64
   21edc:	0007879b          	sext.w	a5,a5
   21ee0:	00078863          	beqz	a5,21ef0 <payload_bin+0xc90>
   21ee4:	00002797          	auipc	a5,0x2
   21ee8:	b6478793          	addi	a5,a5,-1180 # 23a48 <payload_bin+0x27e8>
   21eec:	fef43023          	sd	a5,-32(s0)
   21ef0:	f2042783          	lw	a5,-224(s0)
   21ef4:	0107f793          	andi	a5,a5,16
   21ef8:	0007879b          	sext.w	a5,a5
   21efc:	00078863          	beqz	a5,21f0c <payload_bin+0xcac>
   21f00:	f2042783          	lw	a5,-224(s0)
   21f04:	ffe7f793          	andi	a5,a5,-2
   21f08:	f2f42023          	sw	a5,-224(s0)
   21f0c:	f2c42783          	lw	a5,-212(s0)
   21f10:	0007871b          	sext.w	a4,a5
   21f14:	00100793          	li	a5,1
   21f18:	00e7da63          	bge	a5,a4,21f2c <payload_bin+0xccc>
   21f1c:	f2c42783          	lw	a5,-212(s0)
   21f20:	0007871b          	sext.w	a4,a5
   21f24:	02400793          	li	a5,36
   21f28:	00e7d663          	bge	a5,a4,21f34 <payload_bin+0xcd4>
   21f2c:	00000793          	li	a5,0
   21f30:	3400006f          	j	22270 <payload_bin+0x1010>
   21f34:	f2042783          	lw	a5,-224(s0)
   21f38:	0017f793          	andi	a5,a5,1
   21f3c:	0007879b          	sext.w	a5,a5
   21f40:	00078663          	beqz	a5,21f4c <payload_bin+0xcec>
   21f44:	03000793          	li	a5,48
   21f48:	0080006f          	j	21f50 <payload_bin+0xcf0>
   21f4c:	02000793          	li	a5,32
   21f50:	fcf40da3          	sb	a5,-37(s0)
   21f54:	f2042783          	lw	a5,-224(s0)
   21f58:	0027f793          	andi	a5,a5,2
   21f5c:	0007879b          	sext.w	a5,a5
   21f60:	06078c63          	beqz	a5,21fd8 <payload_bin+0xd78>
   21f64:	f3043783          	ld	a5,-208(s0)
   21f68:	fcf43823          	sd	a5,-48(s0)
   21f6c:	fd043783          	ld	a5,-48(s0)
   21f70:	0007de63          	bgez	a5,21f8c <payload_bin+0xd2c>
   21f74:	02d00793          	li	a5,45
   21f78:	fef407a3          	sb	a5,-17(s0)
   21f7c:	fd043783          	ld	a5,-48(s0)
   21f80:	40f007b3          	neg	a5,a5
   21f84:	f2f43823          	sd	a5,-208(s0)
   21f88:	0500006f          	j	21fd8 <payload_bin+0xd78>
   21f8c:	f2042783          	lw	a5,-224(s0)
   21f90:	0047f793          	andi	a5,a5,4
   21f94:	0007879b          	sext.w	a5,a5
   21f98:	00078e63          	beqz	a5,21fb4 <payload_bin+0xd54>
   21f9c:	02b00793          	li	a5,43
   21fa0:	fef407a3          	sb	a5,-17(s0)
   21fa4:	f2842783          	lw	a5,-216(s0)
   21fa8:	fff7879b          	addiw	a5,a5,-1
   21fac:	f2f42423          	sw	a5,-216(s0)
   21fb0:	0280006f          	j	21fd8 <payload_bin+0xd78>
   21fb4:	f2042783          	lw	a5,-224(s0)
   21fb8:	0087f793          	andi	a5,a5,8
   21fbc:	0007879b          	sext.w	a5,a5
   21fc0:	00078c63          	beqz	a5,21fd8 <payload_bin+0xd78>
   21fc4:	02000793          	li	a5,32
   21fc8:	fef407a3          	sb	a5,-17(s0)
   21fcc:	f2842783          	lw	a5,-216(s0)
   21fd0:	fff7879b          	addiw	a5,a5,-1
   21fd4:	f2f42423          	sw	a5,-216(s0)
   21fd8:	f2042783          	lw	a5,-224(s0)
   21fdc:	0207f793          	andi	a5,a5,32
   21fe0:	0007879b          	sext.w	a5,a5
   21fe4:	04078063          	beqz	a5,22024 <payload_bin+0xdc4>
   21fe8:	f2c42783          	lw	a5,-212(s0)
   21fec:	0007871b          	sext.w	a4,a5
   21ff0:	01000793          	li	a5,16
   21ff4:	00f71a63          	bne	a4,a5,22008 <payload_bin+0xda8>
   21ff8:	f2842783          	lw	a5,-216(s0)
   21ffc:	ffe7879b          	addiw	a5,a5,-2
   22000:	f2f42423          	sw	a5,-216(s0)
   22004:	0200006f          	j	22024 <payload_bin+0xdc4>
   22008:	f2c42783          	lw	a5,-212(s0)
   2200c:	0007871b          	sext.w	a4,a5
   22010:	00800793          	li	a5,8
   22014:	00f71863          	bne	a4,a5,22024 <payload_bin+0xdc4>
   22018:	f2842783          	lw	a5,-216(s0)
   2201c:	fff7879b          	addiw	a5,a5,-1
   22020:	f2f42423          	sw	a5,-216(s0)
   22024:	fc042e23          	sw	zero,-36(s0)
   22028:	f3043783          	ld	a5,-208(s0)
   2202c:	06079e63          	bnez	a5,220a8 <payload_bin+0xe48>
   22030:	fdc42783          	lw	a5,-36(s0)
   22034:	0017871b          	addiw	a4,a5,1
   22038:	fce42e23          	sw	a4,-36(s0)
   2203c:	ff040713          	addi	a4,s0,-16
   22040:	00f707b3          	add	a5,a4,a5
   22044:	03000713          	li	a4,48
   22048:	f4e78c23          	sb	a4,-168(a5)
   2204c:	0640006f          	j	220b0 <payload_bin+0xe50>
   22050:	f2c42783          	lw	a5,-212(s0)
   22054:	fcf42623          	sw	a5,-52(s0)
   22058:	fcc46783          	lwu	a5,-52(s0)
   2205c:	f3043703          	ld	a4,-208(s0)
   22060:	02f777b3          	remu	a5,a4,a5
   22064:	fcf42423          	sw	a5,-56(s0)
   22068:	fcc46783          	lwu	a5,-52(s0)
   2206c:	f3043703          	ld	a4,-208(s0)
   22070:	02f757b3          	divu	a5,a4,a5
   22074:	f2f43823          	sd	a5,-208(s0)
   22078:	fc842783          	lw	a5,-56(s0)
   2207c:	02079793          	slli	a5,a5,0x20
   22080:	0207d793          	srli	a5,a5,0x20
   22084:	fe043703          	ld	a4,-32(s0)
   22088:	00f70733          	add	a4,a4,a5
   2208c:	fdc42783          	lw	a5,-36(s0)
   22090:	0017869b          	addiw	a3,a5,1
   22094:	fcd42e23          	sw	a3,-36(s0)
   22098:	00074703          	lbu	a4,0(a4)
   2209c:	ff040693          	addi	a3,s0,-16
   220a0:	00f687b3          	add	a5,a3,a5
   220a4:	f4e78c23          	sb	a4,-168(a5)
   220a8:	f3043783          	ld	a5,-208(s0)
   220ac:	fa0792e3          	bnez	a5,22050 <payload_bin+0xdf0>
   220b0:	fdc42703          	lw	a4,-36(s0)
   220b4:	f2442783          	lw	a5,-220(s0)
   220b8:	0007071b          	sext.w	a4,a4
   220bc:	0007879b          	sext.w	a5,a5
   220c0:	00e7d663          	bge	a5,a4,220cc <payload_bin+0xe6c>
   220c4:	fdc42783          	lw	a5,-36(s0)
   220c8:	f2f42223          	sw	a5,-220(s0)
   220cc:	f2842703          	lw	a4,-216(s0)
   220d0:	f2442783          	lw	a5,-220(s0)
   220d4:	40f707bb          	subw	a5,a4,a5
   220d8:	f2f42423          	sw	a5,-216(s0)
   220dc:	f2042783          	lw	a5,-224(s0)
   220e0:	0117f793          	andi	a5,a5,17
   220e4:	0007879b          	sext.w	a5,a5
   220e8:	02079663          	bnez	a5,22114 <payload_bin+0xeb4>
   220ec:	0180006f          	j	22104 <payload_bin+0xea4>
   220f0:	f3843783          	ld	a5,-200(s0)
   220f4:	00178713          	addi	a4,a5,1
   220f8:	f2e43c23          	sd	a4,-200(s0)
   220fc:	02000713          	li	a4,32
   22100:	00e78023          	sb	a4,0(a5)
   22104:	f2842783          	lw	a5,-216(s0)
   22108:	fff7871b          	addiw	a4,a5,-1
   2210c:	f2e42423          	sw	a4,-216(s0)
   22110:	fef040e3          	bgtz	a5,220f0 <payload_bin+0xe90>
   22114:	fef44783          	lbu	a5,-17(s0)
   22118:	0ff7f793          	andi	a5,a5,255
   2211c:	00078c63          	beqz	a5,22134 <payload_bin+0xed4>
   22120:	f3843783          	ld	a5,-200(s0)
   22124:	00178713          	addi	a4,a5,1
   22128:	f2e43c23          	sd	a4,-200(s0)
   2212c:	fef44703          	lbu	a4,-17(s0)
   22130:	00e78023          	sb	a4,0(a5)
   22134:	f2042783          	lw	a5,-224(s0)
   22138:	0207f793          	andi	a5,a5,32
   2213c:	0007879b          	sext.w	a5,a5
   22140:	06078463          	beqz	a5,221a8 <payload_bin+0xf48>
   22144:	f2c42783          	lw	a5,-212(s0)
   22148:	0007871b          	sext.w	a4,a5
   2214c:	00800793          	li	a5,8
   22150:	00f71e63          	bne	a4,a5,2216c <payload_bin+0xf0c>
   22154:	f3843783          	ld	a5,-200(s0)
   22158:	00178713          	addi	a4,a5,1
   2215c:	f2e43c23          	sd	a4,-200(s0)
   22160:	03000713          	li	a4,48
   22164:	00e78023          	sb	a4,0(a5)
   22168:	0400006f          	j	221a8 <payload_bin+0xf48>
   2216c:	f2c42783          	lw	a5,-212(s0)
   22170:	0007871b          	sext.w	a4,a5
   22174:	01000793          	li	a5,16
   22178:	02f71863          	bne	a4,a5,221a8 <payload_bin+0xf48>
   2217c:	f3843783          	ld	a5,-200(s0)
   22180:	00178713          	addi	a4,a5,1
   22184:	f2e43c23          	sd	a4,-200(s0)
   22188:	03000713          	li	a4,48
   2218c:	00e78023          	sb	a4,0(a5)
   22190:	f3843783          	ld	a5,-200(s0)
   22194:	00178713          	addi	a4,a5,1
   22198:	f2e43c23          	sd	a4,-200(s0)
   2219c:	fe043703          	ld	a4,-32(s0)
   221a0:	02174703          	lbu	a4,33(a4)
   221a4:	00e78023          	sb	a4,0(a5)
   221a8:	f2042783          	lw	a5,-224(s0)
   221ac:	0107f793          	andi	a5,a5,16
   221b0:	0007879b          	sext.w	a5,a5
   221b4:	04079263          	bnez	a5,221f8 <payload_bin+0xf98>
   221b8:	0180006f          	j	221d0 <payload_bin+0xf70>
   221bc:	f3843783          	ld	a5,-200(s0)
   221c0:	00178713          	addi	a4,a5,1
   221c4:	f2e43c23          	sd	a4,-200(s0)
   221c8:	fdb44703          	lbu	a4,-37(s0)
   221cc:	00e78023          	sb	a4,0(a5)
   221d0:	f2842783          	lw	a5,-216(s0)
   221d4:	fff7871b          	addiw	a4,a5,-1
   221d8:	f2e42423          	sw	a4,-216(s0)
   221dc:	fef040e3          	bgtz	a5,221bc <payload_bin+0xf5c>
   221e0:	0180006f          	j	221f8 <payload_bin+0xf98>
   221e4:	f3843783          	ld	a5,-200(s0)
   221e8:	00178713          	addi	a4,a5,1
   221ec:	f2e43c23          	sd	a4,-200(s0)
   221f0:	03000713          	li	a4,48
   221f4:	00e78023          	sb	a4,0(a5)
   221f8:	f2442783          	lw	a5,-220(s0)
   221fc:	fff7871b          	addiw	a4,a5,-1
   22200:	f2e42223          	sw	a4,-220(s0)
   22204:	fdc42703          	lw	a4,-36(s0)
   22208:	0007071b          	sext.w	a4,a4
   2220c:	fcf74ce3          	blt	a4,a5,221e4 <payload_bin+0xf84>
   22210:	0240006f          	j	22234 <payload_bin+0xfd4>
   22214:	f3843783          	ld	a5,-200(s0)
   22218:	00178713          	addi	a4,a5,1
   2221c:	f2e43c23          	sd	a4,-200(s0)
   22220:	fdc42703          	lw	a4,-36(s0)
   22224:	ff040693          	addi	a3,s0,-16
   22228:	00e68733          	add	a4,a3,a4
   2222c:	f5874703          	lbu	a4,-168(a4)
   22230:	00e78023          	sb	a4,0(a5)
   22234:	fdc42783          	lw	a5,-36(s0)
   22238:	fff7871b          	addiw	a4,a5,-1
   2223c:	fce42e23          	sw	a4,-36(s0)
   22240:	fcf04ae3          	bgtz	a5,22214 <payload_bin+0xfb4>
   22244:	0180006f          	j	2225c <payload_bin+0xffc>
   22248:	f3843783          	ld	a5,-200(s0)
   2224c:	00178713          	addi	a4,a5,1
   22250:	f2e43c23          	sd	a4,-200(s0)
   22254:	02000713          	li	a4,32
   22258:	00e78023          	sb	a4,0(a5)
   2225c:	f2842783          	lw	a5,-216(s0)
   22260:	fff7871b          	addiw	a4,a5,-1
   22264:	f2e42423          	sw	a4,-216(s0)
   22268:	fef040e3          	bgtz	a5,22248 <payload_bin+0xfe8>
   2226c:	f3843783          	ld	a5,-200(s0)
   22270:	00078513          	mv	a0,a5
   22274:	0d813403          	ld	s0,216(sp)
   22278:	0e010113          	addi	sp,sp,224
   2227c:	00008067          	ret
   22280:	f9010113          	addi	sp,sp,-112
   22284:	06113423          	sd	ra,104(sp)
   22288:	06813023          	sd	s0,96(sp)
   2228c:	07010413          	addi	s0,sp,112
   22290:	faa43423          	sd	a0,-88(s0)
   22294:	00058793          	mv	a5,a1
   22298:	f8c43c23          	sd	a2,-104(s0)
   2229c:	f8d43823          	sd	a3,-112(s0)
   222a0:	faf42223          	sw	a5,-92(s0)
   222a4:	fa843783          	ld	a5,-88(s0)
   222a8:	fef43423          	sd	a5,-24(s0)
   222ac:	7440006f          	j	229f0 <payload_bin+0x1790>
   222b0:	f9843783          	ld	a5,-104(s0)
   222b4:	0007c783          	lbu	a5,0(a5)
   222b8:	00078713          	mv	a4,a5
   222bc:	02500793          	li	a5,37
   222c0:	02f70063          	beq	a4,a5,222e0 <payload_bin+0x1080>
   222c4:	fe843783          	ld	a5,-24(s0)
   222c8:	00178713          	addi	a4,a5,1
   222cc:	fee43423          	sd	a4,-24(s0)
   222d0:	f9843703          	ld	a4,-104(s0)
   222d4:	00074703          	lbu	a4,0(a4)
   222d8:	00e78023          	sb	a4,0(a5)
   222dc:	7080006f          	j	229e4 <payload_bin+0x1784>
   222e0:	fe042223          	sw	zero,-28(s0)
   222e4:	f9843783          	ld	a5,-104(s0)
   222e8:	00178793          	addi	a5,a5,1
   222ec:	f8f43c23          	sd	a5,-104(s0)
   222f0:	f9843783          	ld	a5,-104(s0)
   222f4:	0007c783          	lbu	a5,0(a5)
   222f8:	0007879b          	sext.w	a5,a5
   222fc:	fe07869b          	addiw	a3,a5,-32
   22300:	0006871b          	sext.w	a4,a3
   22304:	01000793          	li	a5,16
   22308:	08e7e263          	bltu	a5,a4,2238c <payload_bin+0x112c>
   2230c:	02069793          	slli	a5,a3,0x20
   22310:	0207d793          	srli	a5,a5,0x20
   22314:	00279713          	slli	a4,a5,0x2
   22318:	00001797          	auipc	a5,0x1
   2231c:	76078793          	addi	a5,a5,1888 # 23a78 <payload_bin+0x2818>
   22320:	00f707b3          	add	a5,a4,a5
   22324:	0007a783          	lw	a5,0(a5)
   22328:	0007871b          	sext.w	a4,a5
   2232c:	00001797          	auipc	a5,0x1
   22330:	74c78793          	addi	a5,a5,1868 # 23a78 <payload_bin+0x2818>
   22334:	00f707b3          	add	a5,a4,a5
   22338:	00078067          	jr	a5
   2233c:	fe442783          	lw	a5,-28(s0)
   22340:	0107e793          	ori	a5,a5,16
   22344:	fef42223          	sw	a5,-28(s0)
   22348:	f9dff06f          	j	222e4 <payload_bin+0x1084>
   2234c:	fe442783          	lw	a5,-28(s0)
   22350:	0047e793          	ori	a5,a5,4
   22354:	fef42223          	sw	a5,-28(s0)
   22358:	f8dff06f          	j	222e4 <payload_bin+0x1084>
   2235c:	fe442783          	lw	a5,-28(s0)
   22360:	0087e793          	ori	a5,a5,8
   22364:	fef42223          	sw	a5,-28(s0)
   22368:	f7dff06f          	j	222e4 <payload_bin+0x1084>
   2236c:	fe442783          	lw	a5,-28(s0)
   22370:	0207e793          	ori	a5,a5,32
   22374:	fef42223          	sw	a5,-28(s0)
   22378:	f6dff06f          	j	222e4 <payload_bin+0x1084>
   2237c:	fe442783          	lw	a5,-28(s0)
   22380:	0017e793          	ori	a5,a5,1
   22384:	fef42223          	sw	a5,-28(s0)
   22388:	f5dff06f          	j	222e4 <payload_bin+0x1084>
   2238c:	fff00793          	li	a5,-1
   22390:	faf42a23          	sw	a5,-76(s0)
   22394:	f9843783          	ld	a5,-104(s0)
   22398:	0007c783          	lbu	a5,0(a5)
   2239c:	00078713          	mv	a4,a5
   223a0:	02f00793          	li	a5,47
   223a4:	02e7f863          	bgeu	a5,a4,223d4 <payload_bin+0x1174>
   223a8:	f9843783          	ld	a5,-104(s0)
   223ac:	0007c783          	lbu	a5,0(a5)
   223b0:	00078713          	mv	a4,a5
   223b4:	03900793          	li	a5,57
   223b8:	00e7ee63          	bltu	a5,a4,223d4 <payload_bin+0x1174>
   223bc:	fb440793          	addi	a5,s0,-76
   223c0:	00078593          	mv	a1,a5
   223c4:	f9843503          	ld	a0,-104(s0)
   223c8:	a15ff0ef          	jal	ra,21ddc <payload_bin+0xb7c>
   223cc:	f8a43c23          	sd	a0,-104(s0)
   223d0:	0500006f          	j	22420 <payload_bin+0x11c0>
   223d4:	f9843783          	ld	a5,-104(s0)
   223d8:	0007c783          	lbu	a5,0(a5)
   223dc:	00078713          	mv	a4,a5
   223e0:	02a00793          	li	a5,42
   223e4:	02f71e63          	bne	a4,a5,22420 <payload_bin+0x11c0>
   223e8:	f9043783          	ld	a5,-112(s0)
   223ec:	00878713          	addi	a4,a5,8
   223f0:	f8e43823          	sd	a4,-112(s0)
   223f4:	0007a783          	lw	a5,0(a5)
   223f8:	faf42a23          	sw	a5,-76(s0)
   223fc:	fb442783          	lw	a5,-76(s0)
   22400:	0207d063          	bgez	a5,22420 <payload_bin+0x11c0>
   22404:	fb442783          	lw	a5,-76(s0)
   22408:	40f007bb          	negw	a5,a5
   2240c:	0007879b          	sext.w	a5,a5
   22410:	faf42a23          	sw	a5,-76(s0)
   22414:	fe442783          	lw	a5,-28(s0)
   22418:	0107e793          	ori	a5,a5,16
   2241c:	fef42223          	sw	a5,-28(s0)
   22420:	fff00793          	li	a5,-1
   22424:	faf42823          	sw	a5,-80(s0)
   22428:	f9843783          	ld	a5,-104(s0)
   2242c:	0007c783          	lbu	a5,0(a5)
   22430:	00078713          	mv	a4,a5
   22434:	02e00793          	li	a5,46
   22438:	08f71263          	bne	a4,a5,224bc <payload_bin+0x125c>
   2243c:	f9843783          	ld	a5,-104(s0)
   22440:	00178793          	addi	a5,a5,1
   22444:	f8f43c23          	sd	a5,-104(s0)
   22448:	f9843783          	ld	a5,-104(s0)
   2244c:	0007c783          	lbu	a5,0(a5)
   22450:	00078713          	mv	a4,a5
   22454:	02f00793          	li	a5,47
   22458:	02e7f863          	bgeu	a5,a4,22488 <payload_bin+0x1228>
   2245c:	f9843783          	ld	a5,-104(s0)
   22460:	0007c783          	lbu	a5,0(a5)
   22464:	00078713          	mv	a4,a5
   22468:	03900793          	li	a5,57
   2246c:	00e7ee63          	bltu	a5,a4,22488 <payload_bin+0x1228>
   22470:	fb040793          	addi	a5,s0,-80
   22474:	00078593          	mv	a1,a5
   22478:	f9843503          	ld	a0,-104(s0)
   2247c:	961ff0ef          	jal	ra,21ddc <payload_bin+0xb7c>
   22480:	f8a43c23          	sd	a0,-104(s0)
   22484:	02c0006f          	j	224b0 <payload_bin+0x1250>
   22488:	f9843783          	ld	a5,-104(s0)
   2248c:	0007c783          	lbu	a5,0(a5)
   22490:	00078713          	mv	a4,a5
   22494:	02a00793          	li	a5,42
   22498:	00f71c63          	bne	a4,a5,224b0 <payload_bin+0x1250>
   2249c:	f9043783          	ld	a5,-112(s0)
   224a0:	00878713          	addi	a4,a5,8
   224a4:	f8e43823          	sd	a4,-112(s0)
   224a8:	0007a783          	lw	a5,0(a5)
   224ac:	faf42823          	sw	a5,-80(s0)
   224b0:	fb042783          	lw	a5,-80(s0)
   224b4:	0007d463          	bgez	a5,224bc <payload_bin+0x125c>
   224b8:	fa042823          	sw	zero,-80(s0)
   224bc:	fff00793          	li	a5,-1
   224c0:	fef42023          	sw	a5,-32(s0)
   224c4:	f9843783          	ld	a5,-104(s0)
   224c8:	0007c783          	lbu	a5,0(a5)
   224cc:	00078713          	mv	a4,a5
   224d0:	06800793          	li	a5,104
   224d4:	02f70663          	beq	a4,a5,22500 <payload_bin+0x12a0>
   224d8:	f9843783          	ld	a5,-104(s0)
   224dc:	0007c783          	lbu	a5,0(a5)
   224e0:	00078713          	mv	a4,a5
   224e4:	06c00793          	li	a5,108
   224e8:	00f70c63          	beq	a4,a5,22500 <payload_bin+0x12a0>
   224ec:	f9843783          	ld	a5,-104(s0)
   224f0:	0007c783          	lbu	a5,0(a5)
   224f4:	00078713          	mv	a4,a5
   224f8:	04c00793          	li	a5,76
   224fc:	04f71a63          	bne	a4,a5,22550 <payload_bin+0x12f0>
   22500:	f9843783          	ld	a5,-104(s0)
   22504:	0007c783          	lbu	a5,0(a5)
   22508:	fef42023          	sw	a5,-32(s0)
   2250c:	f9843783          	ld	a5,-104(s0)
   22510:	00178793          	addi	a5,a5,1
   22514:	f8f43c23          	sd	a5,-104(s0)
   22518:	fe042783          	lw	a5,-32(s0)
   2251c:	0007871b          	sext.w	a4,a5
   22520:	06c00793          	li	a5,108
   22524:	02f71663          	bne	a4,a5,22550 <payload_bin+0x12f0>
   22528:	f9843783          	ld	a5,-104(s0)
   2252c:	0007c783          	lbu	a5,0(a5)
   22530:	00078713          	mv	a4,a5
   22534:	06c00793          	li	a5,108
   22538:	00f71c63          	bne	a4,a5,22550 <payload_bin+0x12f0>
   2253c:	04c00793          	li	a5,76
   22540:	fef42023          	sw	a5,-32(s0)
   22544:	f9843783          	ld	a5,-104(s0)
   22548:	00178793          	addi	a5,a5,1
   2254c:	f8f43c23          	sd	a5,-104(s0)
   22550:	f9843783          	ld	a5,-104(s0)
   22554:	0007c783          	lbu	a5,0(a5)
   22558:	0007879b          	sext.w	a5,a5
   2255c:	fa87869b          	addiw	a3,a5,-88
   22560:	0006871b          	sext.w	a4,a3
   22564:	02000793          	li	a5,32
   22568:	2ae7ec63          	bltu	a5,a4,22820 <payload_bin+0x15c0>
   2256c:	02069793          	slli	a5,a3,0x20
   22570:	0207d793          	srli	a5,a5,0x20
   22574:	00279713          	slli	a4,a5,0x2
   22578:	00001797          	auipc	a5,0x1
   2257c:	54478793          	addi	a5,a5,1348 # 23abc <payload_bin+0x285c>
   22580:	00f707b3          	add	a5,a4,a5
   22584:	0007a783          	lw	a5,0(a5)
   22588:	0007871b          	sext.w	a4,a5
   2258c:	00001797          	auipc	a5,0x1
   22590:	53078793          	addi	a5,a5,1328 # 23abc <payload_bin+0x285c>
   22594:	00f707b3          	add	a5,a4,a5
   22598:	00078067          	jr	a5
   2259c:	fe442783          	lw	a5,-28(s0)
   225a0:	0107f793          	andi	a5,a5,16
   225a4:	0007879b          	sext.w	a5,a5
   225a8:	02079a63          	bnez	a5,225dc <payload_bin+0x137c>
   225ac:	0180006f          	j	225c4 <payload_bin+0x1364>
   225b0:	fe843783          	ld	a5,-24(s0)
   225b4:	00178713          	addi	a4,a5,1
   225b8:	fee43423          	sd	a4,-24(s0)
   225bc:	02000713          	li	a4,32
   225c0:	00e78023          	sb	a4,0(a5)
   225c4:	fb442783          	lw	a5,-76(s0)
   225c8:	fff7879b          	addiw	a5,a5,-1
   225cc:	0007879b          	sext.w	a5,a5
   225d0:	faf42a23          	sw	a5,-76(s0)
   225d4:	fb442783          	lw	a5,-76(s0)
   225d8:	fcf04ce3          	bgtz	a5,225b0 <payload_bin+0x1350>
   225dc:	f9043783          	ld	a5,-112(s0)
   225e0:	00878713          	addi	a4,a5,8
   225e4:	f8e43823          	sd	a4,-112(s0)
   225e8:	0007a683          	lw	a3,0(a5)
   225ec:	fe843783          	ld	a5,-24(s0)
   225f0:	00178713          	addi	a4,a5,1
   225f4:	fee43423          	sd	a4,-24(s0)
   225f8:	0ff6f713          	andi	a4,a3,255
   225fc:	00e78023          	sb	a4,0(a5)
   22600:	0180006f          	j	22618 <payload_bin+0x13b8>
   22604:	fe843783          	ld	a5,-24(s0)
   22608:	00178713          	addi	a4,a5,1
   2260c:	fee43423          	sd	a4,-24(s0)
   22610:	02000713          	li	a4,32
   22614:	00e78023          	sb	a4,0(a5)
   22618:	fb442783          	lw	a5,-76(s0)
   2261c:	fff7879b          	addiw	a5,a5,-1
   22620:	0007879b          	sext.w	a5,a5
   22624:	faf42a23          	sw	a5,-76(s0)
   22628:	fb442783          	lw	a5,-76(s0)
   2262c:	fcf04ce3          	bgtz	a5,22604 <payload_bin+0x13a4>
   22630:	3b40006f          	j	229e4 <payload_bin+0x1784>
   22634:	f9043783          	ld	a5,-112(s0)
   22638:	00878713          	addi	a4,a5,8
   2263c:	f8e43823          	sd	a4,-112(s0)
   22640:	0007b783          	ld	a5,0(a5)
   22644:	fcf43c23          	sd	a5,-40(s0)
   22648:	fd843783          	ld	a5,-40(s0)
   2264c:	00079863          	bnez	a5,2265c <payload_bin+0x13fc>
   22650:	00001797          	auipc	a5,0x1
   22654:	42078793          	addi	a5,a5,1056 # 23a70 <payload_bin+0x2810>
   22658:	fcf43c23          	sd	a5,-40(s0)
   2265c:	fd843503          	ld	a0,-40(s0)
   22660:	5dc000ef          	jal	ra,22c3c <payload_bin+0x19dc>
   22664:	00050793          	mv	a5,a0
   22668:	fcf42823          	sw	a5,-48(s0)
   2266c:	fb042783          	lw	a5,-80(s0)
   22670:	0007d863          	bgez	a5,22680 <payload_bin+0x1420>
   22674:	fd042783          	lw	a5,-48(s0)
   22678:	faf42823          	sw	a5,-80(s0)
   2267c:	01c0006f          	j	22698 <payload_bin+0x1438>
   22680:	fb042703          	lw	a4,-80(s0)
   22684:	fd042783          	lw	a5,-48(s0)
   22688:	0007879b          	sext.w	a5,a5
   2268c:	00f75663          	bge	a4,a5,22698 <payload_bin+0x1438>
   22690:	fb042783          	lw	a5,-80(s0)
   22694:	fcf42823          	sw	a5,-48(s0)
   22698:	fe442783          	lw	a5,-28(s0)
   2269c:	0107f793          	andi	a5,a5,16
   226a0:	0007879b          	sext.w	a5,a5
   226a4:	02079c63          	bnez	a5,226dc <payload_bin+0x147c>
   226a8:	0180006f          	j	226c0 <payload_bin+0x1460>
   226ac:	fe843783          	ld	a5,-24(s0)
   226b0:	00178713          	addi	a4,a5,1
   226b4:	fee43423          	sd	a4,-24(s0)
   226b8:	02000713          	li	a4,32
   226bc:	00e78023          	sb	a4,0(a5)
   226c0:	fb442783          	lw	a5,-76(s0)
   226c4:	fff7871b          	addiw	a4,a5,-1
   226c8:	0007071b          	sext.w	a4,a4
   226cc:	fae42a23          	sw	a4,-76(s0)
   226d0:	fd042703          	lw	a4,-48(s0)
   226d4:	0007071b          	sext.w	a4,a4
   226d8:	fcf74ae3          	blt	a4,a5,226ac <payload_bin+0x144c>
   226dc:	fc042a23          	sw	zero,-44(s0)
   226e0:	0300006f          	j	22710 <payload_bin+0x14b0>
   226e4:	fd843703          	ld	a4,-40(s0)
   226e8:	00170793          	addi	a5,a4,1
   226ec:	fcf43c23          	sd	a5,-40(s0)
   226f0:	fe843783          	ld	a5,-24(s0)
   226f4:	00178693          	addi	a3,a5,1
   226f8:	fed43423          	sd	a3,-24(s0)
   226fc:	00074703          	lbu	a4,0(a4)
   22700:	00e78023          	sb	a4,0(a5)
   22704:	fd442783          	lw	a5,-44(s0)
   22708:	0017879b          	addiw	a5,a5,1
   2270c:	fcf42a23          	sw	a5,-44(s0)
   22710:	fd442703          	lw	a4,-44(s0)
   22714:	fd042783          	lw	a5,-48(s0)
   22718:	0007071b          	sext.w	a4,a4
   2271c:	0007879b          	sext.w	a5,a5
   22720:	fcf742e3          	blt	a4,a5,226e4 <payload_bin+0x1484>
   22724:	0180006f          	j	2273c <payload_bin+0x14dc>
   22728:	fe843783          	ld	a5,-24(s0)
   2272c:	00178713          	addi	a4,a5,1
   22730:	fee43423          	sd	a4,-24(s0)
   22734:	02000713          	li	a4,32
   22738:	00e78023          	sb	a4,0(a5)
   2273c:	fb442783          	lw	a5,-76(s0)
   22740:	fff7871b          	addiw	a4,a5,-1
   22744:	0007071b          	sext.w	a4,a4
   22748:	fae42a23          	sw	a4,-76(s0)
   2274c:	fd042703          	lw	a4,-48(s0)
   22750:	0007071b          	sext.w	a4,a4
   22754:	fcf74ae3          	blt	a4,a5,22728 <payload_bin+0x14c8>
   22758:	28c0006f          	j	229e4 <payload_bin+0x1784>
   2275c:	f9043783          	ld	a5,-112(s0)
   22760:	00878713          	addi	a4,a5,8
   22764:	f8e43823          	sd	a4,-112(s0)
   22768:	0007b783          	ld	a5,0(a5)
   2276c:	faf43c23          	sd	a5,-72(s0)
   22770:	fe843703          	ld	a4,-24(s0)
   22774:	fa843783          	ld	a5,-88(s0)
   22778:	40f707b3          	sub	a5,a4,a5
   2277c:	0ff7f713          	andi	a4,a5,255
   22780:	fb843783          	ld	a5,-72(s0)
   22784:	00e78023          	sb	a4,0(a5)
   22788:	25c0006f          	j	229e4 <payload_bin+0x1784>
   2278c:	fb442783          	lw	a5,-76(s0)
   22790:	00078713          	mv	a4,a5
   22794:	fff00793          	li	a5,-1
   22798:	00f71c63          	bne	a4,a5,227b0 <payload_bin+0x1550>
   2279c:	01000793          	li	a5,16
   227a0:	faf42a23          	sw	a5,-76(s0)
   227a4:	fe442783          	lw	a5,-28(s0)
   227a8:	0017e793          	ori	a5,a5,1
   227ac:	fef42223          	sw	a5,-28(s0)
   227b0:	f9043783          	ld	a5,-112(s0)
   227b4:	00878713          	addi	a4,a5,8
   227b8:	f8e43823          	sd	a4,-112(s0)
   227bc:	0007b783          	ld	a5,0(a5)
   227c0:	00078593          	mv	a1,a5
   227c4:	fb442683          	lw	a3,-76(s0)
   227c8:	fb042703          	lw	a4,-80(s0)
   227cc:	fe442783          	lw	a5,-28(s0)
   227d0:	01000613          	li	a2,16
   227d4:	fe843503          	ld	a0,-24(s0)
   227d8:	ea8ff0ef          	jal	ra,21e80 <payload_bin+0xc20>
   227dc:	fea43423          	sd	a0,-24(s0)
   227e0:	2040006f          	j	229e4 <payload_bin+0x1784>
   227e4:	00800793          	li	a5,8
   227e8:	fcf42223          	sw	a5,-60(s0)
   227ec:	0940006f          	j	22880 <payload_bin+0x1620>
   227f0:	fe442783          	lw	a5,-28(s0)
   227f4:	0407e793          	ori	a5,a5,64
   227f8:	fef42223          	sw	a5,-28(s0)
   227fc:	01000793          	li	a5,16
   22800:	fcf42223          	sw	a5,-60(s0)
   22804:	07c0006f          	j	22880 <payload_bin+0x1620>
   22808:	fe442783          	lw	a5,-28(s0)
   2280c:	0027e793          	ori	a5,a5,2
   22810:	fef42223          	sw	a5,-28(s0)
   22814:	00a00793          	li	a5,10
   22818:	fcf42223          	sw	a5,-60(s0)
   2281c:	0640006f          	j	22880 <payload_bin+0x1620>
   22820:	f9843783          	ld	a5,-104(s0)
   22824:	0007c783          	lbu	a5,0(a5)
   22828:	00078713          	mv	a4,a5
   2282c:	02500793          	li	a5,37
   22830:	00f70c63          	beq	a4,a5,22848 <payload_bin+0x15e8>
   22834:	fe843783          	ld	a5,-24(s0)
   22838:	00178713          	addi	a4,a5,1
   2283c:	fee43423          	sd	a4,-24(s0)
   22840:	02500713          	li	a4,37
   22844:	00e78023          	sb	a4,0(a5)
   22848:	f9843783          	ld	a5,-104(s0)
   2284c:	0007c783          	lbu	a5,0(a5)
   22850:	02078063          	beqz	a5,22870 <payload_bin+0x1610>
   22854:	fe843783          	ld	a5,-24(s0)
   22858:	00178713          	addi	a4,a5,1
   2285c:	fee43423          	sd	a4,-24(s0)
   22860:	f9843703          	ld	a4,-104(s0)
   22864:	00074703          	lbu	a4,0(a4)
   22868:	00e78023          	sb	a4,0(a5)
   2286c:	0100006f          	j	2287c <payload_bin+0x161c>
   22870:	f9843783          	ld	a5,-104(s0)
   22874:	fff78793          	addi	a5,a5,-1
   22878:	f8f43c23          	sd	a5,-104(s0)
   2287c:	00000013          	nop
   22880:	fe042783          	lw	a5,-32(s0)
   22884:	0007871b          	sext.w	a4,a5
   22888:	04c00793          	li	a5,76
   2288c:	04f71263          	bne	a4,a5,228d0 <payload_bin+0x1670>
   22890:	fe442783          	lw	a5,-28(s0)
   22894:	0027f793          	andi	a5,a5,2
   22898:	0007879b          	sext.w	a5,a5
   2289c:	00078e63          	beqz	a5,228b8 <payload_bin+0x1658>
   228a0:	f9043783          	ld	a5,-112(s0)
   228a4:	00878713          	addi	a4,a5,8
   228a8:	f8e43823          	sd	a4,-112(s0)
   228ac:	0007b783          	ld	a5,0(a5)
   228b0:	fcf43423          	sd	a5,-56(s0)
   228b4:	1100006f          	j	229c4 <payload_bin+0x1764>
   228b8:	f9043783          	ld	a5,-112(s0)
   228bc:	00878713          	addi	a4,a5,8
   228c0:	f8e43823          	sd	a4,-112(s0)
   228c4:	0007b783          	ld	a5,0(a5)
   228c8:	fcf43423          	sd	a5,-56(s0)
   228cc:	0f80006f          	j	229c4 <payload_bin+0x1764>
   228d0:	fe042783          	lw	a5,-32(s0)
   228d4:	0007871b          	sext.w	a4,a5
   228d8:	06800793          	li	a5,104
   228dc:	04f71a63          	bne	a4,a5,22930 <payload_bin+0x16d0>
   228e0:	fe442783          	lw	a5,-28(s0)
   228e4:	0027f793          	andi	a5,a5,2
   228e8:	0007879b          	sext.w	a5,a5
   228ec:	02078263          	beqz	a5,22910 <payload_bin+0x16b0>
   228f0:	f9043783          	ld	a5,-112(s0)
   228f4:	00878713          	addi	a4,a5,8
   228f8:	f8e43823          	sd	a4,-112(s0)
   228fc:	0007a783          	lw	a5,0(a5)
   22900:	0107979b          	slliw	a5,a5,0x10
   22904:	4107d79b          	sraiw	a5,a5,0x10
   22908:	fcf43423          	sd	a5,-56(s0)
   2290c:	0b80006f          	j	229c4 <payload_bin+0x1764>
   22910:	f9043783          	ld	a5,-112(s0)
   22914:	00878713          	addi	a4,a5,8
   22918:	f8e43823          	sd	a4,-112(s0)
   2291c:	0007a783          	lw	a5,0(a5)
   22920:	03079793          	slli	a5,a5,0x30
   22924:	0307d793          	srli	a5,a5,0x30
   22928:	fcf43423          	sd	a5,-56(s0)
   2292c:	0980006f          	j	229c4 <payload_bin+0x1764>
   22930:	fe042783          	lw	a5,-32(s0)
   22934:	0007871b          	sext.w	a4,a5
   22938:	06c00793          	li	a5,108
   2293c:	04f71263          	bne	a4,a5,22980 <payload_bin+0x1720>
   22940:	fe442783          	lw	a5,-28(s0)
   22944:	0027f793          	andi	a5,a5,2
   22948:	0007879b          	sext.w	a5,a5
   2294c:	00078e63          	beqz	a5,22968 <payload_bin+0x1708>
   22950:	f9043783          	ld	a5,-112(s0)
   22954:	00878713          	addi	a4,a5,8
   22958:	f8e43823          	sd	a4,-112(s0)
   2295c:	0007b783          	ld	a5,0(a5)
   22960:	fcf43423          	sd	a5,-56(s0)
   22964:	0600006f          	j	229c4 <payload_bin+0x1764>
   22968:	f9043783          	ld	a5,-112(s0)
   2296c:	00878713          	addi	a4,a5,8
   22970:	f8e43823          	sd	a4,-112(s0)
   22974:	0007b783          	ld	a5,0(a5)
   22978:	fcf43423          	sd	a5,-56(s0)
   2297c:	0480006f          	j	229c4 <payload_bin+0x1764>
   22980:	fe442783          	lw	a5,-28(s0)
   22984:	0027f793          	andi	a5,a5,2
   22988:	0007879b          	sext.w	a5,a5
   2298c:	00078e63          	beqz	a5,229a8 <payload_bin+0x1748>
   22990:	f9043783          	ld	a5,-112(s0)
   22994:	00878713          	addi	a4,a5,8
   22998:	f8e43823          	sd	a4,-112(s0)
   2299c:	0007a783          	lw	a5,0(a5)
   229a0:	fcf43423          	sd	a5,-56(s0)
   229a4:	0200006f          	j	229c4 <payload_bin+0x1764>
   229a8:	f9043783          	ld	a5,-112(s0)
   229ac:	00878713          	addi	a4,a5,8
   229b0:	f8e43823          	sd	a4,-112(s0)
   229b4:	0007a783          	lw	a5,0(a5)
   229b8:	02079793          	slli	a5,a5,0x20
   229bc:	0207d793          	srli	a5,a5,0x20
   229c0:	fcf43423          	sd	a5,-56(s0)
   229c4:	fb442683          	lw	a3,-76(s0)
   229c8:	fb042703          	lw	a4,-80(s0)
   229cc:	fe442783          	lw	a5,-28(s0)
   229d0:	fc442603          	lw	a2,-60(s0)
   229d4:	fc843583          	ld	a1,-56(s0)
   229d8:	fe843503          	ld	a0,-24(s0)
   229dc:	ca4ff0ef          	jal	ra,21e80 <payload_bin+0xc20>
   229e0:	fea43423          	sd	a0,-24(s0)
   229e4:	f9843783          	ld	a5,-104(s0)
   229e8:	00178793          	addi	a5,a5,1
   229ec:	f8f43c23          	sd	a5,-104(s0)
   229f0:	f9843783          	ld	a5,-104(s0)
   229f4:	0007c783          	lbu	a5,0(a5)
   229f8:	8a079ce3          	bnez	a5,222b0 <payload_bin+0x1050>
   229fc:	fe843783          	ld	a5,-24(s0)
   22a00:	00078023          	sb	zero,0(a5)
   22a04:	fe843703          	ld	a4,-24(s0)
   22a08:	fa843783          	ld	a5,-88(s0)
   22a0c:	40f707b3          	sub	a5,a4,a5
   22a10:	0007879b          	sext.w	a5,a5
   22a14:	00078513          	mv	a0,a5
   22a18:	06813083          	ld	ra,104(sp)
   22a1c:	06013403          	ld	s0,96(sp)
   22a20:	07010113          	addi	sp,sp,112
   22a24:	00008067          	ret
   22a28:	fe010113          	addi	sp,sp,-32
   22a2c:	00113c23          	sd	ra,24(sp)
   22a30:	00813823          	sd	s0,16(sp)
   22a34:	02010413          	addi	s0,sp,32
   22a38:	00003797          	auipc	a5,0x3
   22a3c:	a3078793          	addi	a5,a5,-1488 # 25468 <payload_bin+0x4208>
   22a40:	00100713          	li	a4,1
   22a44:	00e7a023          	sw	a4,0(a5)
   22a48:	fe043423          	sd	zero,-24(s0)
   22a4c:	02c0006f          	j	22a78 <payload_bin+0x1818>
   22a50:	00003717          	auipc	a4,0x3
   22a54:	91870713          	addi	a4,a4,-1768 # 25368 <payload_bin+0x4108>
   22a58:	fe843783          	ld	a5,-24(s0)
   22a5c:	00f707b3          	add	a5,a4,a5
   22a60:	0007c783          	lbu	a5,0(a5)
   22a64:	00078513          	mv	a0,a5
   22a68:	b38ff0ef          	jal	ra,21da0 <payload_bin+0xb40>
   22a6c:	fe843783          	ld	a5,-24(s0)
   22a70:	00178793          	addi	a5,a5,1
   22a74:	fef43423          	sd	a5,-24(s0)
   22a78:	00003797          	auipc	a5,0x3
   22a7c:	9f878793          	addi	a5,a5,-1544 # 25470 <payload_bin+0x4210>
   22a80:	0007b783          	ld	a5,0(a5)
   22a84:	fe843703          	ld	a4,-24(s0)
   22a88:	fcf764e3          	bltu	a4,a5,22a50 <payload_bin+0x17f0>
   22a8c:	00002797          	auipc	a5,0x2
   22a90:	7d478793          	addi	a5,a5,2004 # 25260 <payload_bin+0x4000>
   22a94:	00003717          	auipc	a4,0x3
   22a98:	8d470713          	addi	a4,a4,-1836 # 25368 <payload_bin+0x4108>
   22a9c:	00e7b023          	sd	a4,0(a5)
   22aa0:	00003797          	auipc	a5,0x3
   22aa4:	9d078793          	addi	a5,a5,-1584 # 25470 <payload_bin+0x4210>
   22aa8:	0007b023          	sd	zero,0(a5)
   22aac:	00000013          	nop
   22ab0:	01813083          	ld	ra,24(sp)
   22ab4:	01013403          	ld	s0,16(sp)
   22ab8:	02010113          	addi	sp,sp,32
   22abc:	00008067          	ret
   22ac0:	f9010113          	addi	sp,sp,-112
   22ac4:	02113423          	sd	ra,40(sp)
   22ac8:	02813023          	sd	s0,32(sp)
   22acc:	03010413          	addi	s0,sp,48
   22ad0:	fca43c23          	sd	a0,-40(s0)
   22ad4:	00b43423          	sd	a1,8(s0)
   22ad8:	00c43823          	sd	a2,16(s0)
   22adc:	00d43c23          	sd	a3,24(s0)
   22ae0:	02e43023          	sd	a4,32(s0)
   22ae4:	02f43423          	sd	a5,40(s0)
   22ae8:	03043823          	sd	a6,48(s0)
   22aec:	03143c23          	sd	a7,56(s0)
   22af0:	04040793          	addi	a5,s0,64
   22af4:	fcf43823          	sd	a5,-48(s0)
   22af8:	fd043783          	ld	a5,-48(s0)
   22afc:	fc878793          	addi	a5,a5,-56
   22b00:	fef43023          	sd	a5,-32(s0)
   22b04:	fe043783          	ld	a5,-32(s0)
   22b08:	00078693          	mv	a3,a5
   22b0c:	fd843603          	ld	a2,-40(s0)
   22b10:	10000593          	li	a1,256
   22b14:	00002517          	auipc	a0,0x2
   22b18:	75450513          	addi	a0,a0,1876 # 25268 <payload_bin+0x4008>
   22b1c:	f64ff0ef          	jal	ra,22280 <payload_bin+0x1020>
   22b20:	00050793          	mv	a5,a0
   22b24:	fef42423          	sw	a5,-24(s0)
   22b28:	00003797          	auipc	a5,0x3
   22b2c:	94078793          	addi	a5,a5,-1728 # 25468 <payload_bin+0x4208>
   22b30:	0007a783          	lw	a5,0(a5)
   22b34:	06079663          	bnez	a5,22ba0 <payload_bin+0x1940>
   22b38:	00002797          	auipc	a5,0x2
   22b3c:	72878793          	addi	a5,a5,1832 # 25260 <payload_bin+0x4000>
   22b40:	0007b783          	ld	a5,0(a5)
   22b44:	fe842703          	lw	a4,-24(s0)
   22b48:	00070613          	mv	a2,a4
   22b4c:	00002597          	auipc	a1,0x2
   22b50:	71c58593          	addi	a1,a1,1820 # 25268 <payload_bin+0x4008>
   22b54:	00078513          	mv	a0,a5
   22b58:	134000ef          	jal	ra,22c8c <payload_bin+0x1a2c>
   22b5c:	fe842703          	lw	a4,-24(s0)
   22b60:	00003797          	auipc	a5,0x3
   22b64:	80878793          	addi	a5,a5,-2040 # 25368 <payload_bin+0x4108>
   22b68:	00f70733          	add	a4,a4,a5
   22b6c:	00002797          	auipc	a5,0x2
   22b70:	6f478793          	addi	a5,a5,1780 # 25260 <payload_bin+0x4000>
   22b74:	00e7b023          	sd	a4,0(a5)
   22b78:	fe842703          	lw	a4,-24(s0)
   22b7c:	00003797          	auipc	a5,0x3
   22b80:	8f478793          	addi	a5,a5,-1804 # 25470 <payload_bin+0x4210>
   22b84:	0007b783          	ld	a5,0(a5)
   22b88:	00f70733          	add	a4,a4,a5
   22b8c:	00003797          	auipc	a5,0x3
   22b90:	8e478793          	addi	a5,a5,-1820 # 25470 <payload_bin+0x4210>
   22b94:	00e7b023          	sd	a4,0(a5)
   22b98:	00000793          	li	a5,0
   22b9c:	08c0006f          	j	22c28 <payload_bin+0x19c8>
   22ba0:	fe042623          	sw	zero,-20(s0)
   22ba4:	0640006f          	j	22c08 <payload_bin+0x19a8>
   22ba8:	00002717          	auipc	a4,0x2
   22bac:	6c070713          	addi	a4,a4,1728 # 25268 <payload_bin+0x4008>
   22bb0:	fec42783          	lw	a5,-20(s0)
   22bb4:	00f707b3          	add	a5,a4,a5
   22bb8:	0007c783          	lbu	a5,0(a5)
   22bbc:	00078713          	mv	a4,a5
   22bc0:	00a00793          	li	a5,10
   22bc4:	00f71663          	bne	a4,a5,22bd0 <payload_bin+0x1970>
   22bc8:	00d00513          	li	a0,13
   22bcc:	9d4ff0ef          	jal	ra,21da0 <payload_bin+0xb40>
   22bd0:	00002717          	auipc	a4,0x2
   22bd4:	69870713          	addi	a4,a4,1688 # 25268 <payload_bin+0x4008>
   22bd8:	fec42783          	lw	a5,-20(s0)
   22bdc:	00f707b3          	add	a5,a4,a5
   22be0:	0007c783          	lbu	a5,0(a5)
   22be4:	00078513          	mv	a0,a5
   22be8:	9b8ff0ef          	jal	ra,21da0 <payload_bin+0xb40>
   22bec:	fec42783          	lw	a5,-20(s0)
   22bf0:	00078713          	mv	a4,a5
   22bf4:	10000793          	li	a5,256
   22bf8:	02e7e463          	bltu	a5,a4,22c20 <payload_bin+0x19c0>
   22bfc:	fec42783          	lw	a5,-20(s0)
   22c00:	0017879b          	addiw	a5,a5,1
   22c04:	fef42623          	sw	a5,-20(s0)
   22c08:	fec42703          	lw	a4,-20(s0)
   22c0c:	fe842783          	lw	a5,-24(s0)
   22c10:	0007071b          	sext.w	a4,a4
   22c14:	0007879b          	sext.w	a5,a5
   22c18:	f8f748e3          	blt	a4,a5,22ba8 <payload_bin+0x1948>
   22c1c:	0080006f          	j	22c24 <payload_bin+0x19c4>
   22c20:	00000013          	nop
   22c24:	fe842783          	lw	a5,-24(s0)
   22c28:	00078513          	mv	a0,a5
   22c2c:	02813083          	ld	ra,40(sp)
   22c30:	02013403          	ld	s0,32(sp)
   22c34:	07010113          	addi	sp,sp,112
   22c38:	00008067          	ret
   22c3c:	fd010113          	addi	sp,sp,-48
   22c40:	02813423          	sd	s0,40(sp)
   22c44:	03010413          	addi	s0,sp,48
   22c48:	fca43c23          	sd	a0,-40(s0)
   22c4c:	fd843783          	ld	a5,-40(s0)
   22c50:	fef43423          	sd	a5,-24(s0)
   22c54:	0100006f          	j	22c64 <payload_bin+0x1a04>
   22c58:	fe843783          	ld	a5,-24(s0)
   22c5c:	00178793          	addi	a5,a5,1
   22c60:	fef43423          	sd	a5,-24(s0)
   22c64:	fe843783          	ld	a5,-24(s0)
   22c68:	0007c783          	lbu	a5,0(a5)
   22c6c:	fe0796e3          	bnez	a5,22c58 <payload_bin+0x19f8>
   22c70:	fe843703          	ld	a4,-24(s0)
   22c74:	fd843783          	ld	a5,-40(s0)
   22c78:	40f707b3          	sub	a5,a4,a5
   22c7c:	00078513          	mv	a0,a5
   22c80:	02813403          	ld	s0,40(sp)
   22c84:	03010113          	addi	sp,sp,48
   22c88:	00008067          	ret
   22c8c:	fc010113          	addi	sp,sp,-64
   22c90:	02813c23          	sd	s0,56(sp)
   22c94:	04010413          	addi	s0,sp,64
   22c98:	fca43c23          	sd	a0,-40(s0)
   22c9c:	fcb43823          	sd	a1,-48(s0)
   22ca0:	fcc43423          	sd	a2,-56(s0)
   22ca4:	fd843783          	ld	a5,-40(s0)
   22ca8:	fef43423          	sd	a5,-24(s0)
   22cac:	fd043783          	ld	a5,-48(s0)
   22cb0:	fef43023          	sd	a5,-32(s0)
   22cb4:	0240006f          	j	22cd8 <payload_bin+0x1a78>
   22cb8:	fe043703          	ld	a4,-32(s0)
   22cbc:	00170793          	addi	a5,a4,1
   22cc0:	fef43023          	sd	a5,-32(s0)
   22cc4:	fe843783          	ld	a5,-24(s0)
   22cc8:	00178693          	addi	a3,a5,1
   22ccc:	fed43423          	sd	a3,-24(s0)
   22cd0:	00074703          	lbu	a4,0(a4)
   22cd4:	00e78023          	sb	a4,0(a5)
   22cd8:	fc843783          	ld	a5,-56(s0)
   22cdc:	fff78713          	addi	a4,a5,-1
   22ce0:	fce43423          	sd	a4,-56(s0)
   22ce4:	fc079ae3          	bnez	a5,22cb8 <payload_bin+0x1a58>
   22ce8:	fd843783          	ld	a5,-40(s0)
   22cec:	00078513          	mv	a0,a5
   22cf0:	03813403          	ld	s0,56(sp)
   22cf4:	04010113          	addi	sp,sp,64
   22cf8:	00008067          	ret
   22cfc:	fe010113          	addi	sp,sp,-32
   22d00:	00813c23          	sd	s0,24(sp)
   22d04:	02010413          	addi	s0,sp,32
   22d08:	fea43423          	sd	a0,-24(s0)
   22d0c:	fe843783          	ld	a5,-24(s0)
   22d10:	0007a783          	lw	a5,0(a5)
   22d14:	0007879b          	sext.w	a5,a5
   22d18:	00078513          	mv	a0,a5
   22d1c:	01813403          	ld	s0,24(sp)
   22d20:	02010113          	addi	sp,sp,32
   22d24:	00008067          	ret
   22d28:	fe010113          	addi	sp,sp,-32
   22d2c:	00813c23          	sd	s0,24(sp)
   22d30:	02010413          	addi	s0,sp,32
   22d34:	fea43423          	sd	a0,-24(s0)
   22d38:	00058793          	mv	a5,a1
   22d3c:	fef42223          	sw	a5,-28(s0)
   22d40:	fe843783          	ld	a5,-24(s0)
   22d44:	fe442703          	lw	a4,-28(s0)
   22d48:	00e7a023          	sw	a4,0(a5)
   22d4c:	00000013          	nop
   22d50:	01813403          	ld	s0,24(sp)
   22d54:	02010113          	addi	sp,sp,32
   22d58:	00008067          	ret
   22d5c:	fe010113          	addi	sp,sp,-32
   22d60:	00813c23          	sd	s0,24(sp)
   22d64:	02010413          	addi	s0,sp,32
   22d68:	fea43423          	sd	a0,-24(s0)
   22d6c:	fe843783          	ld	a5,-24(s0)
   22d70:	00a79793          	slli	a5,a5,0xa
   22d74:	fef43423          	sd	a5,-24(s0)
   22d78:	00000013          	nop
   22d7c:	fe843783          	ld	a5,-24(s0)
   22d80:	fff78713          	addi	a4,a5,-1
   22d84:	fee43423          	sd	a4,-24(s0)
   22d88:	fe079ae3          	bnez	a5,22d7c <payload_bin+0x1b1c>
   22d8c:	00000013          	nop
   22d90:	00000013          	nop
   22d94:	01813403          	ld	s0,24(sp)
   22d98:	02010113          	addi	sp,sp,32
   22d9c:	00008067          	ret
   22da0:	fe010113          	addi	sp,sp,-32
   22da4:	00113c23          	sd	ra,24(sp)
   22da8:	00813823          	sd	s0,16(sp)
   22dac:	02010413          	addi	s0,sp,32
   22db0:	30100593          	li	a1,769
   22db4:	020027b7          	lui	a5,0x2002
   22db8:	d0078513          	addi	a0,a5,-768 # 2001d00 <bss_begin+0x1fdad00>
   22dbc:	f6dff0ef          	jal	ra,22d28 <payload_bin+0x1ac8>
   22dc0:	00100513          	li	a0,1
   22dc4:	f99ff0ef          	jal	ra,22d5c <payload_bin+0x1afc>
   22dc8:	02001537          	lui	a0,0x2001
   22dcc:	f31ff0ef          	jal	ra,22cfc <payload_bin+0x1a9c>
   22dd0:	00050793          	mv	a5,a0
   22dd4:	fef42623          	sw	a5,-20(s0)
   22dd8:	fec42703          	lw	a4,-20(s0)
   22ddc:	f80007b7          	lui	a5,0xf8000
   22de0:	fff78793          	addi	a5,a5,-1 # fffffffff7ffffff <bss_begin+0xfffffffff7fd8fff>
   22de4:	00f777b3          	and	a5,a4,a5
   22de8:	fef42623          	sw	a5,-20(s0)
   22dec:	fec42783          	lw	a5,-20(s0)
   22df0:	00078593          	mv	a1,a5
   22df4:	02001537          	lui	a0,0x2001
   22df8:	f31ff0ef          	jal	ra,22d28 <payload_bin+0x1ac8>
   22dfc:	02001537          	lui	a0,0x2001
   22e00:	efdff0ef          	jal	ra,22cfc <payload_bin+0x1a9c>
   22e04:	00050793          	mv	a5,a0
   22e08:	fef42623          	sw	a5,-20(s0)
   22e0c:	fec42703          	lw	a4,-20(s0)
   22e10:	400007b7          	lui	a5,0x40000
   22e14:	00f767b3          	or	a5,a4,a5
   22e18:	fef42623          	sw	a5,-20(s0)
   22e1c:	fec42783          	lw	a5,-20(s0)
   22e20:	00078593          	mv	a1,a5
   22e24:	02001537          	lui	a0,0x2001
   22e28:	f01ff0ef          	jal	ra,22d28 <payload_bin+0x1ac8>
   22e2c:	00500513          	li	a0,5
   22e30:	f2dff0ef          	jal	ra,22d5c <payload_bin+0x1afc>
   22e34:	02001537          	lui	a0,0x2001
   22e38:	ec5ff0ef          	jal	ra,22cfc <payload_bin+0x1a9c>
   22e3c:	00050793          	mv	a5,a0
   22e40:	fef42623          	sw	a5,-20(s0)
   22e44:	fec42703          	lw	a4,-20(s0)
   22e48:	fffc07b7          	lui	a5,0xfffc0
   22e4c:	0fc78793          	addi	a5,a5,252 # fffffffffffc00fc <bss_begin+0xfffffffffff990fc>
   22e50:	00f777b3          	and	a5,a4,a5
   22e54:	fef42623          	sw	a5,-20(s0)
   22e58:	fec42703          	lw	a4,-20(s0)
   22e5c:	000037b7          	lui	a5,0x3
   22e60:	90078793          	addi	a5,a5,-1792 # 2900 <__bin_size-0x4700>
   22e64:	00f767b3          	or	a5,a4,a5
   22e68:	fef42623          	sw	a5,-20(s0)
   22e6c:	fec42783          	lw	a5,-20(s0)
   22e70:	00078593          	mv	a1,a5
   22e74:	02001537          	lui	a0,0x2001
   22e78:	eb1ff0ef          	jal	ra,22d28 <payload_bin+0x1ac8>
   22e7c:	02001537          	lui	a0,0x2001
   22e80:	e7dff0ef          	jal	ra,22cfc <payload_bin+0x1a9c>
   22e84:	00050793          	mv	a5,a0
   22e88:	fef42623          	sw	a5,-20(s0)
   22e8c:	fec42703          	lw	a4,-20(s0)
   22e90:	200007b7          	lui	a5,0x20000
   22e94:	00f767b3          	or	a5,a4,a5
   22e98:	fef42623          	sw	a5,-20(s0)
   22e9c:	fec42783          	lw	a5,-20(s0)
   22ea0:	00078593          	mv	a1,a5
   22ea4:	02001537          	lui	a0,0x2001
   22ea8:	e81ff0ef          	jal	ra,22d28 <payload_bin+0x1ac8>
   22eac:	02001537          	lui	a0,0x2001
   22eb0:	e4dff0ef          	jal	ra,22cfc <payload_bin+0x1a9c>
   22eb4:	00050793          	mv	a5,a0
   22eb8:	fef42623          	sw	a5,-20(s0)
   22ebc:	fec42703          	lw	a4,-20(s0)
   22ec0:	800007b7          	lui	a5,0x80000
   22ec4:	00f767b3          	or	a5,a4,a5
   22ec8:	fef42623          	sw	a5,-20(s0)
   22ecc:	fec42783          	lw	a5,-20(s0)
   22ed0:	00078593          	mv	a1,a5
   22ed4:	02001537          	lui	a0,0x2001
   22ed8:	e51ff0ef          	jal	ra,22d28 <payload_bin+0x1ac8>
   22edc:	00000013          	nop
   22ee0:	02001537          	lui	a0,0x2001
   22ee4:	e19ff0ef          	jal	ra,22cfc <payload_bin+0x1a9c>
   22ee8:	00050793          	mv	a5,a0
   22eec:	0007879b          	sext.w	a5,a5
   22ef0:	00078713          	mv	a4,a5
   22ef4:	100007b7          	lui	a5,0x10000
   22ef8:	00f777b3          	and	a5,a4,a5
   22efc:	0007879b          	sext.w	a5,a5
   22f00:	fe0780e3          	beqz	a5,22ee0 <payload_bin+0x1c80>
   22f04:	01400513          	li	a0,20
   22f08:	e55ff0ef          	jal	ra,22d5c <payload_bin+0x1afc>
   22f0c:	02001537          	lui	a0,0x2001
   22f10:	dedff0ef          	jal	ra,22cfc <payload_bin+0x1a9c>
   22f14:	00050793          	mv	a5,a0
   22f18:	fef42623          	sw	a5,-20(s0)
   22f1c:	fec42703          	lw	a4,-20(s0)
   22f20:	080007b7          	lui	a5,0x8000
   22f24:	00f767b3          	or	a5,a4,a5
   22f28:	fef42623          	sw	a5,-20(s0)
   22f2c:	fec42783          	lw	a5,-20(s0)
   22f30:	00078593          	mv	a1,a5
   22f34:	02001537          	lui	a0,0x2001
   22f38:	df1ff0ef          	jal	ra,22d28 <payload_bin+0x1ac8>
   22f3c:	02001537          	lui	a0,0x2001
   22f40:	dbdff0ef          	jal	ra,22cfc <payload_bin+0x1a9c>
   22f44:	00050793          	mv	a5,a0
   22f48:	fef42623          	sw	a5,-20(s0)
   22f4c:	fec42703          	lw	a4,-20(s0)
   22f50:	e00007b7          	lui	a5,0xe0000
   22f54:	fff78793          	addi	a5,a5,-1 # ffffffffdfffffff <bss_begin+0xffffffffdffd8fff>
   22f58:	00f777b3          	and	a5,a4,a5
   22f5c:	fef42623          	sw	a5,-20(s0)
   22f60:	fec42783          	lw	a5,-20(s0)
   22f64:	00078593          	mv	a1,a5
   22f68:	02001537          	lui	a0,0x2001
   22f6c:	dbdff0ef          	jal	ra,22d28 <payload_bin+0x1ac8>
   22f70:	00100513          	li	a0,1
   22f74:	de9ff0ef          	jal	ra,22d5c <payload_bin+0x1afc>
   22f78:	020027b7          	lui	a5,0x2002
   22f7c:	d0078513          	addi	a0,a5,-768 # 2001d00 <bss_begin+0x1fdad00>
   22f80:	d7dff0ef          	jal	ra,22cfc <payload_bin+0x1a9c>
   22f84:	00050793          	mv	a5,a0
   22f88:	fef42623          	sw	a5,-20(s0)
   22f8c:	fec42703          	lw	a4,-20(s0)
   22f90:	f90007b7          	lui	a5,0xf9000
   22f94:	cf078793          	addi	a5,a5,-784 # fffffffff8fffcf0 <bss_begin+0xfffffffff8fd8cf0>
   22f98:	00f777b3          	and	a5,a4,a5
   22f9c:	fef42623          	sw	a5,-20(s0)
   22fa0:	fec42703          	lw	a4,-20(s0)
   22fa4:	050007b7          	lui	a5,0x5000
   22fa8:	10078793          	addi	a5,a5,256 # 5000100 <bss_begin+0x4fd9100>
   22fac:	00f767b3          	or	a5,a4,a5
   22fb0:	fef42623          	sw	a5,-20(s0)
   22fb4:	fec42783          	lw	a5,-20(s0)
   22fb8:	00078593          	mv	a1,a5
   22fbc:	020027b7          	lui	a5,0x2002
   22fc0:	d0078513          	addi	a0,a5,-768 # 2001d00 <bss_begin+0x1fdad00>
   22fc4:	d65ff0ef          	jal	ra,22d28 <payload_bin+0x1ac8>
   22fc8:	00100513          	li	a0,1
   22fcc:	d91ff0ef          	jal	ra,22d5c <payload_bin+0x1afc>
   22fd0:	00000013          	nop
   22fd4:	01813083          	ld	ra,24(sp)
   22fd8:	01013403          	ld	s0,16(sp)
   22fdc:	02010113          	addi	sp,sp,32
   22fe0:	00008067          	ret
   22fe4:	fe010113          	addi	sp,sp,-32
   22fe8:	00113c23          	sd	ra,24(sp)
   22fec:	00813823          	sd	s0,16(sp)
   22ff0:	02010413          	addi	s0,sp,32
   22ff4:	020017b7          	lui	a5,0x2001
   22ff8:	02078513          	addi	a0,a5,32 # 2001020 <bss_begin+0x1fda020>
   22ffc:	d01ff0ef          	jal	ra,22cfc <payload_bin+0x1a9c>
   23000:	00050793          	mv	a5,a0
   23004:	0007879b          	sext.w	a5,a5
   23008:	0007879b          	sext.w	a5,a5
   2300c:	1207cc63          	bltz	a5,23144 <payload_bin+0x1ee4>
   23010:	020017b7          	lui	a5,0x2001
   23014:	51078513          	addi	a0,a5,1296 # 2001510 <bss_begin+0x1fda510>
   23018:	ce5ff0ef          	jal	ra,22cfc <payload_bin+0x1a9c>
   2301c:	00050793          	mv	a5,a0
   23020:	fef42623          	sw	a5,-20(s0)
   23024:	fec42703          	lw	a4,-20(s0)
   23028:	fd0007b7          	lui	a5,0xfd000
   2302c:	fff78793          	addi	a5,a5,-1 # fffffffffcffffff <bss_begin+0xfffffffffcfd8fff>
   23030:	00f777b3          	and	a5,a4,a5
   23034:	fef42623          	sw	a5,-20(s0)
   23038:	fec46703          	lwu	a4,-20(s0)
   2303c:	020017b7          	lui	a5,0x2001
   23040:	51078593          	addi	a1,a5,1296 # 2001510 <bss_begin+0x1fda510>
   23044:	00070513          	mv	a0,a4
   23048:	ce1ff0ef          	jal	ra,22d28 <payload_bin+0x1ac8>
   2304c:	000067b7          	lui	a5,0x6
   23050:	30078593          	addi	a1,a5,768 # 6300 <__bin_size-0xd00>
   23054:	020017b7          	lui	a5,0x2001
   23058:	02078513          	addi	a0,a5,32 # 2001020 <bss_begin+0x1fda020>
   2305c:	ccdff0ef          	jal	ra,22d28 <payload_bin+0x1ac8>
   23060:	020017b7          	lui	a5,0x2001
   23064:	02078513          	addi	a0,a5,32 # 2001020 <bss_begin+0x1fda020>
   23068:	c95ff0ef          	jal	ra,22cfc <payload_bin+0x1a9c>
   2306c:	00050793          	mv	a5,a0
   23070:	fef42623          	sw	a5,-20(s0)
   23074:	fec42703          	lw	a4,-20(s0)
   23078:	200007b7          	lui	a5,0x20000
   2307c:	00f767b3          	or	a5,a4,a5
   23080:	fef42623          	sw	a5,-20(s0)
   23084:	fec42783          	lw	a5,-20(s0)
   23088:	00078593          	mv	a1,a5
   2308c:	020017b7          	lui	a5,0x2001
   23090:	02078513          	addi	a0,a5,32 # 2001020 <bss_begin+0x1fda020>
   23094:	c95ff0ef          	jal	ra,22d28 <payload_bin+0x1ac8>
   23098:	020017b7          	lui	a5,0x2001
   2309c:	02078513          	addi	a0,a5,32 # 2001020 <bss_begin+0x1fda020>
   230a0:	c5dff0ef          	jal	ra,22cfc <payload_bin+0x1a9c>
   230a4:	00050793          	mv	a5,a0
   230a8:	fef42623          	sw	a5,-20(s0)
   230ac:	fec42703          	lw	a4,-20(s0)
   230b0:	800007b7          	lui	a5,0x80000
   230b4:	00f767b3          	or	a5,a4,a5
   230b8:	fef42623          	sw	a5,-20(s0)
   230bc:	fec42783          	lw	a5,-20(s0)
   230c0:	00078593          	mv	a1,a5
   230c4:	020017b7          	lui	a5,0x2001
   230c8:	02078513          	addi	a0,a5,32 # 2001020 <bss_begin+0x1fda020>
   230cc:	c5dff0ef          	jal	ra,22d28 <payload_bin+0x1ac8>
   230d0:	00000013          	nop
   230d4:	020017b7          	lui	a5,0x2001
   230d8:	02078513          	addi	a0,a5,32 # 2001020 <bss_begin+0x1fda020>
   230dc:	c21ff0ef          	jal	ra,22cfc <payload_bin+0x1a9c>
   230e0:	00050793          	mv	a5,a0
   230e4:	0007879b          	sext.w	a5,a5
   230e8:	00078713          	mv	a4,a5
   230ec:	100007b7          	lui	a5,0x10000
   230f0:	00f777b3          	and	a5,a4,a5
   230f4:	0007879b          	sext.w	a5,a5
   230f8:	fc078ee3          	beqz	a5,230d4 <payload_bin+0x1e74>
   230fc:	01400513          	li	a0,20
   23100:	c5dff0ef          	jal	ra,22d5c <payload_bin+0x1afc>
   23104:	020017b7          	lui	a5,0x2001
   23108:	02078513          	addi	a0,a5,32 # 2001020 <bss_begin+0x1fda020>
   2310c:	bf1ff0ef          	jal	ra,22cfc <payload_bin+0x1a9c>
   23110:	00050793          	mv	a5,a0
   23114:	fef42623          	sw	a5,-20(s0)
   23118:	fec42703          	lw	a4,-20(s0)
   2311c:	e00007b7          	lui	a5,0xe0000
   23120:	fff78793          	addi	a5,a5,-1 # ffffffffdfffffff <bss_begin+0xffffffffdffd8fff>
   23124:	00f777b3          	and	a5,a4,a5
   23128:	fef42623          	sw	a5,-20(s0)
   2312c:	fec42783          	lw	a5,-20(s0)
   23130:	00078593          	mv	a1,a5
   23134:	020017b7          	lui	a5,0x2001
   23138:	02078513          	addi	a0,a5,32 # 2001020 <bss_begin+0x1fda020>
   2313c:	bedff0ef          	jal	ra,22d28 <payload_bin+0x1ac8>
   23140:	0080006f          	j	23148 <payload_bin+0x1ee8>
   23144:	00000013          	nop
   23148:	01813083          	ld	ra,24(sp)
   2314c:	01013403          	ld	s0,16(sp)
   23150:	02010113          	addi	sp,sp,32
   23154:	00008067          	ret
   23158:	ff010113          	addi	sp,sp,-16
   2315c:	00113423          	sd	ra,8(sp)
   23160:	00813023          	sd	s0,0(sp)
   23164:	01010413          	addi	s0,sp,16
   23168:	00200593          	li	a1,2
   2316c:	020017b7          	lui	a5,0x2001
   23170:	51078513          	addi	a0,a5,1296 # 2001510 <bss_begin+0x1fda510>
   23174:	bb5ff0ef          	jal	ra,22d28 <payload_bin+0x1ac8>
   23178:	020017b7          	lui	a5,0x2001
   2317c:	51078513          	addi	a0,a5,1296 # 2001510 <bss_begin+0x1fda510>
   23180:	b7dff0ef          	jal	ra,22cfc <payload_bin+0x1a9c>
   23184:	00050793          	mv	a5,a0
   23188:	0007879b          	sext.w	a5,a5
   2318c:	00078713          	mv	a4,a5
   23190:	030007b7          	lui	a5,0x3000
   23194:	00f767b3          	or	a5,a4,a5
   23198:	0007879b          	sext.w	a5,a5
   2319c:	00078593          	mv	a1,a5
   231a0:	020017b7          	lui	a5,0x2001
   231a4:	51078513          	addi	a0,a5,1296 # 2001510 <bss_begin+0x1fda510>
   231a8:	b81ff0ef          	jal	ra,22d28 <payload_bin+0x1ac8>
   231ac:	00100513          	li	a0,1
   231b0:	badff0ef          	jal	ra,22d5c <payload_bin+0x1afc>
   231b4:	00000013          	nop
   231b8:	00813083          	ld	ra,8(sp)
   231bc:	00013403          	ld	s0,0(sp)
   231c0:	01010113          	addi	sp,sp,16
   231c4:	00008067          	ret
   231c8:	ff010113          	addi	sp,sp,-16
   231cc:	00113423          	sd	ra,8(sp)
   231d0:	00813023          	sd	s0,0(sp)
   231d4:	01010413          	addi	s0,sp,16
   231d8:	10200593          	li	a1,258
   231dc:	020017b7          	lui	a5,0x2001
   231e0:	52078513          	addi	a0,a5,1312 # 2001520 <bss_begin+0x1fda520>
   231e4:	b45ff0ef          	jal	ra,22d28 <payload_bin+0x1ac8>
   231e8:	020017b7          	lui	a5,0x2001
   231ec:	52078513          	addi	a0,a5,1312 # 2001520 <bss_begin+0x1fda520>
   231f0:	b0dff0ef          	jal	ra,22cfc <payload_bin+0x1a9c>
   231f4:	00050793          	mv	a5,a0
   231f8:	0007879b          	sext.w	a5,a5
   231fc:	00078713          	mv	a4,a5
   23200:	030007b7          	lui	a5,0x3000
   23204:	00f767b3          	or	a5,a4,a5
   23208:	0007879b          	sext.w	a5,a5
   2320c:	00078593          	mv	a1,a5
   23210:	020017b7          	lui	a5,0x2001
   23214:	52078513          	addi	a0,a5,1312 # 2001520 <bss_begin+0x1fda520>
   23218:	b11ff0ef          	jal	ra,22d28 <payload_bin+0x1ac8>
   2321c:	00100513          	li	a0,1
   23220:	b3dff0ef          	jal	ra,22d5c <payload_bin+0x1afc>
   23224:	00000013          	nop
   23228:	00813083          	ld	ra,8(sp)
   2322c:	00013403          	ld	s0,0(sp)
   23230:	01010113          	addi	sp,sp,16
   23234:	00008067          	ret
   23238:	ff010113          	addi	sp,sp,-16
   2323c:	00113423          	sd	ra,8(sp)
   23240:	00813023          	sd	s0,0(sp)
   23244:	01010413          	addi	s0,sp,16
   23248:	020017b7          	lui	a5,0x2001
   2324c:	70c78513          	addi	a0,a5,1804 # 200170c <bss_begin+0x1fda70c>
   23250:	aadff0ef          	jal	ra,22cfc <payload_bin+0x1a9c>
   23254:	00050793          	mv	a5,a0
   23258:	0007879b          	sext.w	a5,a5
   2325c:	00078713          	mv	a4,a5
   23260:	000107b7          	lui	a5,0x10
   23264:	00f767b3          	or	a5,a4,a5
   23268:	0007879b          	sext.w	a5,a5
   2326c:	00078593          	mv	a1,a5
   23270:	020017b7          	lui	a5,0x2001
   23274:	70c78513          	addi	a0,a5,1804 # 200170c <bss_begin+0x1fda70c>
   23278:	ab1ff0ef          	jal	ra,22d28 <payload_bin+0x1ac8>
   2327c:	01400513          	li	a0,20
   23280:	addff0ef          	jal	ra,22d5c <payload_bin+0x1afc>
   23284:	020017b7          	lui	a5,0x2001
   23288:	70c78513          	addi	a0,a5,1804 # 200170c <bss_begin+0x1fda70c>
   2328c:	a71ff0ef          	jal	ra,22cfc <payload_bin+0x1a9c>
   23290:	00050793          	mv	a5,a0
   23294:	0007879b          	sext.w	a5,a5
   23298:	0017e793          	ori	a5,a5,1
   2329c:	0007879b          	sext.w	a5,a5
   232a0:	00078593          	mv	a1,a5
   232a4:	020017b7          	lui	a5,0x2001
   232a8:	70c78513          	addi	a0,a5,1804 # 200170c <bss_begin+0x1fda70c>
   232ac:	a7dff0ef          	jal	ra,22d28 <payload_bin+0x1ac8>
   232b0:	00000013          	nop
   232b4:	00813083          	ld	ra,8(sp)
   232b8:	00013403          	ld	s0,0(sp)
   232bc:	01010113          	addi	sp,sp,16
   232c0:	00008067          	ret
   232c4:	fe010113          	addi	sp,sp,-32
   232c8:	00113c23          	sd	ra,24(sp)
   232cc:	00813823          	sd	s0,16(sp)
   232d0:	02010413          	addi	s0,sp,32
   232d4:	020017b7          	lui	a5,0x2001
   232d8:	54078513          	addi	a0,a5,1344 # 2001540 <bss_begin+0x1fda540>
   232dc:	a21ff0ef          	jal	ra,22cfc <payload_bin+0x1a9c>
   232e0:	00050793          	mv	a5,a0
   232e4:	fef42623          	sw	a5,-20(s0)
   232e8:	fec42703          	lw	a4,-20(s0)
   232ec:	400007b7          	lui	a5,0x40000
   232f0:	00f767b3          	or	a5,a4,a5
   232f4:	fef42623          	sw	a5,-20(s0)
   232f8:	fec42783          	lw	a5,-20(s0)
   232fc:	00078593          	mv	a1,a5
   23300:	020017b7          	lui	a5,0x2001
   23304:	54078513          	addi	a0,a5,1344 # 2001540 <bss_begin+0x1fda540>
   23308:	a21ff0ef          	jal	ra,22d28 <payload_bin+0x1ac8>
   2330c:	00100513          	li	a0,1
   23310:	a4dff0ef          	jal	ra,22d5c <payload_bin+0x1afc>
   23314:	00000013          	nop
   23318:	01813083          	ld	ra,24(sp)
   2331c:	01013403          	ld	s0,16(sp)
   23320:	02010113          	addi	sp,sp,32
   23324:	00008067          	ret
   23328:	fd010113          	addi	sp,sp,-48
   2332c:	02113423          	sd	ra,40(sp)
   23330:	02813023          	sd	s0,32(sp)
   23334:	03010413          	addi	s0,sp,48
   23338:	fca43c23          	sd	a0,-40(s0)
   2333c:	fd843503          	ld	a0,-40(s0)
   23340:	9bdff0ef          	jal	ra,22cfc <payload_bin+0x1a9c>
   23344:	00050793          	mv	a5,a0
   23348:	0007879b          	sext.w	a5,a5
   2334c:	0007879b          	sext.w	a5,a5
   23350:	0c07c263          	bltz	a5,23414 <payload_bin+0x21b4>
   23354:	fd843503          	ld	a0,-40(s0)
   23358:	9a5ff0ef          	jal	ra,22cfc <payload_bin+0x1a9c>
   2335c:	00050793          	mv	a5,a0
   23360:	fef42623          	sw	a5,-20(s0)
   23364:	fec42703          	lw	a4,-20(s0)
   23368:	c00007b7          	lui	a5,0xc0000
   2336c:	00f767b3          	or	a5,a4,a5
   23370:	0007879b          	sext.w	a5,a5
   23374:	00078593          	mv	a1,a5
   23378:	fd843503          	ld	a0,-40(s0)
   2337c:	9adff0ef          	jal	ra,22d28 <payload_bin+0x1ac8>
   23380:	fd843503          	ld	a0,-40(s0)
   23384:	979ff0ef          	jal	ra,22cfc <payload_bin+0x1a9c>
   23388:	00050793          	mv	a5,a0
   2338c:	fef42623          	sw	a5,-20(s0)
   23390:	fec42703          	lw	a4,-20(s0)
   23394:	200007b7          	lui	a5,0x20000
   23398:	00f767b3          	or	a5,a4,a5
   2339c:	fef42623          	sw	a5,-20(s0)
   233a0:	fec42783          	lw	a5,-20(s0)
   233a4:	00078593          	mv	a1,a5
   233a8:	fd843503          	ld	a0,-40(s0)
   233ac:	97dff0ef          	jal	ra,22d28 <payload_bin+0x1ac8>
   233b0:	00000013          	nop
   233b4:	fd843503          	ld	a0,-40(s0)
   233b8:	945ff0ef          	jal	ra,22cfc <payload_bin+0x1a9c>
   233bc:	00050793          	mv	a5,a0
   233c0:	0007879b          	sext.w	a5,a5
   233c4:	00078713          	mv	a4,a5
   233c8:	100007b7          	lui	a5,0x10000
   233cc:	00f777b3          	and	a5,a4,a5
   233d0:	0007879b          	sext.w	a5,a5
   233d4:	fe0780e3          	beqz	a5,233b4 <payload_bin+0x2154>
   233d8:	01400513          	li	a0,20
   233dc:	981ff0ef          	jal	ra,22d5c <payload_bin+0x1afc>
   233e0:	fd843503          	ld	a0,-40(s0)
   233e4:	919ff0ef          	jal	ra,22cfc <payload_bin+0x1a9c>
   233e8:	00050793          	mv	a5,a0
   233ec:	fef42623          	sw	a5,-20(s0)
   233f0:	fec42703          	lw	a4,-20(s0)
   233f4:	e00007b7          	lui	a5,0xe0000
   233f8:	fff78793          	addi	a5,a5,-1 # ffffffffdfffffff <bss_begin+0xffffffffdffd8fff>
   233fc:	00f777b3          	and	a5,a4,a5
   23400:	fef42623          	sw	a5,-20(s0)
   23404:	fec42783          	lw	a5,-20(s0)
   23408:	00078593          	mv	a1,a5
   2340c:	fd843503          	ld	a0,-40(s0)
   23410:	919ff0ef          	jal	ra,22d28 <payload_bin+0x1ac8>
   23414:	00000013          	nop
   23418:	02813083          	ld	ra,40(sp)
   2341c:	02013403          	ld	s0,32(sp)
   23420:	03010113          	addi	sp,sp,48
   23424:	00008067          	ret
   23428:	ff010113          	addi	sp,sp,-16
   2342c:	00113423          	sd	ra,8(sp)
   23430:	00813023          	sd	s0,0(sp)
   23434:	01010413          	addi	s0,sp,16
   23438:	969ff0ef          	jal	ra,22da0 <payload_bin+0x1b40>
   2343c:	ba9ff0ef          	jal	ra,22fe4 <payload_bin+0x1d84>
   23440:	d19ff0ef          	jal	ra,23158 <payload_bin+0x1ef8>
   23444:	d85ff0ef          	jal	ra,231c8 <payload_bin+0x1f68>
   23448:	df1ff0ef          	jal	ra,23238 <payload_bin+0x1fd8>
   2344c:	e79ff0ef          	jal	ra,232c4 <payload_bin+0x2064>
   23450:	020017b7          	lui	a5,0x2001
   23454:	02078513          	addi	a0,a5,32 # 2001020 <bss_begin+0x1fda020>
   23458:	ed1ff0ef          	jal	ra,23328 <payload_bin+0x20c8>
   2345c:	020017b7          	lui	a5,0x2001
   23460:	04078513          	addi	a0,a5,64 # 2001040 <bss_begin+0x1fda040>
   23464:	ec5ff0ef          	jal	ra,23328 <payload_bin+0x20c8>
   23468:	020017b7          	lui	a5,0x2001
   2346c:	04878513          	addi	a0,a5,72 # 2001048 <bss_begin+0x1fda048>
   23470:	eb9ff0ef          	jal	ra,23328 <payload_bin+0x20c8>
   23474:	020017b7          	lui	a5,0x2001
   23478:	05878513          	addi	a0,a5,88 # 2001058 <bss_begin+0x1fda058>
   2347c:	eadff0ef          	jal	ra,23328 <payload_bin+0x20c8>
   23480:	020017b7          	lui	a5,0x2001
   23484:	07878513          	addi	a0,a5,120 # 2001078 <bss_begin+0x1fda078>
   23488:	ea1ff0ef          	jal	ra,23328 <payload_bin+0x20c8>
   2348c:	020017b7          	lui	a5,0x2001
   23490:	08078513          	addi	a0,a5,128 # 2001080 <bss_begin+0x1fda080>
   23494:	e95ff0ef          	jal	ra,23328 <payload_bin+0x20c8>
   23498:	00000013          	nop
   2349c:	00813083          	ld	ra,8(sp)
   234a0:	00013403          	ld	s0,0(sp)
   234a4:	01010113          	addi	sp,sp,16
   234a8:	00008067          	ret
   234ac:	0000                	unimp
   234ae:	0000                	unimp
   234b0:	abcd                	j	23aa2 <payload_bin+0x2842>
   234b2:	abcd                	j	23aa4 <payload_bin+0x2844>
   234b4:	5678                	lw	a4,108(a2)
   234b6:	1234                	addi	a3,sp,296
   234b8:	000212b7          	lui	t0,0x21
   234bc:	00028303          	lb	t1,0(t0) # 21000 <sys_uart_printf+0xc>
   234c0:	00428303          	lb	t1,4(t0)
   234c4:	ffc28303          	lb	t1,-4(t0)
   234c8:	0002b303          	ld	t1,0(t0)
   234cc:	00428303          	lb	t1,4(t0)
   234d0:	00000297          	auipc	t0,0x0
   234d4:	fe028293          	addi	t0,t0,-32 # 234b0 <payload_bin+0x2250>
   234d8:	00000317          	auipc	t1,0x0
   234dc:	fd830313          	addi	t1,t1,-40 # 234b0 <payload_bin+0x2250>
   234e0:	802002b7          	lui	t0,0x80200
   234e4:	40200337          	lui	t1,0x40200
   234e8:	00008067          	ret
   234ec:	c00002b7          	lui	t0,0xc0000
   234f0:	0452829b          	addiw	t0,t0,69
   234f4:	02129293          	slli	t0,t0,0x21
   234f8:	4012d593          	srai	a1,t0,0x1
   234fc:	0012d313          	srli	t1,t0,0x1
   23500:	0250029b          	addiw	t0,zero,37
   23504:	01f29293          	slli	t0,t0,0x1f
   23508:	08a28293          	addi	t0,t0,138 # ffffffffc000008a <bss_begin+0xffffffffbffd908a>
   2350c:	4012d61b          	sraiw	a2,t0,0x1
   23510:	0012d31b          	srliw	t1,t0,0x1
   23514:	0012969b          	slliw	a3,t0,0x1
   23518:	0490029b          	addiw	t0,zero,73
   2351c:	01e29293          	slli	t0,t0,0x1e
   23520:	08a28293          	addi	t0,t0,138
   23524:	4012d61b          	sraiw	a2,t0,0x1
   23528:	0012d31b          	srliw	t1,t0,0x1
   2352c:	0012971b          	slliw	a4,t0,0x1
   23530:	00008067          	ret
   23534:	80028593          	addi	a1,t0,-2048
   23538:	000012b7          	lui	t0,0x1
   2353c:	a012829b          	addiw	t0,t0,-1535
   23540:	01529293          	slli	t0,t0,0x15
   23544:	40000337          	lui	t1,0x40000
   23548:	70028593          	addi	a1,t0,1792 # 1700 <__bin_size-0x5900>
   2354c:	80028593          	addi	a1,t0,-2048
   23550:	0802861b          	addiw	a2,t0,128
   23554:	006286b3          	add	a3,t0,t1
   23558:	0062873b          	addw	a4,t0,t1
   2355c:	000012b7          	lui	t0,0x1
   23560:	c012829b          	addiw	t0,t0,-1023
   23564:	01529293          	slli	t0,t0,0x15
   23568:	00200337          	lui	t1,0x200
   2356c:	40628533          	sub	a0,t0,t1
   23570:	406285bb          	subw	a1,t0,t1
   23574:	00008067          	ret
   23578:	00b50533          	add	a0,a0,a1
   2357c:	00000013          	nop
   23580:	00008067          	ret
   23584:	ff810113          	addi	sp,sp,-8
   23588:	00113023          	sd	ra,0(sp)
   2358c:	00100513          	li	a0,1
   23590:	00200593          	li	a1,2
   23594:	fe5ff0ef          	jal	ra,23578 <payload_bin+0x2318>
   23598:	00000013          	nop
   2359c:	00013083          	ld	ra,0(sp)
   235a0:	00810113          	addi	sp,sp,8
   235a4:	00008067          	ret
   235a8:	000202b7          	lui	t0,0x20
   235ac:	00021337          	lui	t1,0x21
   235b0:	02028393          	addi	t2,t0,32 # 20020 <_start+0x20>
   235b4:	0002be03          	ld	t3,0(t0)
   235b8:	01c33023          	sd	t3,0(t1) # 21000 <sys_uart_printf+0xc>
   235bc:	00828293          	addi	t0,t0,8
   235c0:	00830313          	addi	t1,t1,8
   235c4:	fe72c8e3          	blt	t0,t2,235b4 <payload_bin+0x2354>
   235c8:	00008067          	ret
   235cc:	00b56663          	bltu	a0,a1,235d8 <payload_bin+0x2378>
   235d0:	00000793          	li	a5,0
   235d4:	0080006f          	j	235dc <payload_bin+0x237c>
   235d8:	fff00793          	li	a5,-1
   235dc:	00078513          	mv	a0,a5
   235e0:	00008067          	ret
   235e4:	00050663          	beqz	a0,235f0 <payload_bin+0x2390>
   235e8:	fff58793          	addi	a5,a1,-1
   235ec:	0080006f          	j	235f4 <payload_bin+0x2394>
   235f0:	00258793          	addi	a5,a1,2
   235f4:	00078513          	mv	a0,a5
   235f8:	00008067          	ret
   235fc:	ff010113          	addi	sp,sp,-16
   23600:	00113423          	sd	ra,8(sp)
   23604:	fe1ff0ef          	jal	ra,235e4 <payload_bin+0x2384>
   23608:	00813083          	ld	ra,8(sp)
   2360c:	01010113          	addi	sp,sp,16
   23610:	00008067          	ret
   23614:	00000013          	nop
   23618:	0800                	addi	s0,sp,16
   2361a:	0080                	addi	s0,sp,64
   2361c:	0000                	unimp
   2361e:	0000                	unimp
   23620:	0860                	addi	s0,sp,28
   23622:	0080                	addi	s0,sp,64
   23624:	0000                	unimp
   23626:	0000                	unimp
   23628:	0880                	addi	s0,sp,80
   2362a:	0080                	addi	s0,sp,64
   2362c:	0000                	unimp
   2362e:	0000                	unimp
   23630:	7566                	ld	a0,120(sp)
   23632:	636e                	ld	t1,216(sp)
   23634:	615f 6600 6e75      	0x6e756600615f
   2363a:	00625f63          	bge	tp,t1,23658 <payload_bin+0x23f8>
   2363e:	7566                	ld	a0,120(sp)
   23640:	636e                	ld	t1,216(sp)
   23642:	635f 0100 0000      	0x100635f
   23648:	00000003          	lb	zero,0(zero) # 0 <__bin_size-0x7000>
   2364c:	0000                	unimp
   2364e:	0000                	unimp
   23650:	00b50533          	add	a0,a0,a1
   23654:	00008067          	ret
   23658:	40b50533          	sub	a0,a0,a1
   2365c:	00008067          	ret
   23660:	ff010113          	addi	sp,sp,-16
   23664:	00113423          	sd	ra,8(sp)
   23668:	00050293          	mv	t0,a0
   2366c:	00058313          	mv	t1,a1
   23670:	00028513          	mv	a0,t0
   23674:	00030593          	mv	a1,t1
   23678:	fd9ff0ef          	jal	ra,23650 <payload_bin+0x23f0>
   2367c:	00813083          	ld	ra,8(sp)
   23680:	01010113          	addi	sp,sp,16
   23684:	00008067          	ret
   23688:	ff010113          	addi	sp,sp,-16
   2368c:	00113423          	sd	ra,8(sp)
   23690:	00050293          	mv	t0,a0
   23694:	00058313          	mv	t1,a1
   23698:	00028513          	mv	a0,t0
   2369c:	00030593          	mv	a1,t1
   236a0:	fb9ff0ef          	jal	ra,23658 <payload_bin+0x23f8>
   236a4:	00813083          	ld	ra,8(sp)
   236a8:	01010113          	addi	sp,sp,16
   236ac:	00008067          	ret
	...
   236b8:	020002b7          	lui	t0,0x2000
   236bc:	0f02829b          	addiw	t0,t0,240
   236c0:	0002a303          	lw	t1,0(t0) # 2000000 <bss_begin+0x1fd9000>
   236c4:	fff0f3b7          	lui	t2,0xfff0f
   236c8:	0ff3839b          	addiw	t2,t2,255
   236cc:	00737333          	and	t1,t1,t2
   236d0:	000303b7          	lui	t2,0x30
   236d4:	3003839b          	addiw	t2,t2,768
   236d8:	00736333          	or	t1,t1,t2
   236dc:	0062a023          	sw	t1,0(t0)
   236e0:	020022b7          	lui	t0,0x2002
   236e4:	90c2829b          	addiw	t0,t0,-1780
   236e8:	0002a303          	lw	t1,0(t0) # 2002000 <bss_begin+0x1fdb000>
   236ec:	00136313          	ori	t1,t1,1
   236f0:	0062a023          	sw	t1,0(t0)
   236f4:	020022b7          	lui	t0,0x2002
   236f8:	90c2829b          	addiw	t0,t0,-1780
   236fc:	0002a303          	lw	t1,0(t0) # 2002000 <bss_begin+0x1fdb000>
   23700:	000103b7          	lui	t2,0x10
   23704:	00736333          	or	t1,t1,t2
   23708:	0062a023          	sw	t1,0(t0)
   2370c:	025002b7          	lui	t0,0x2500
   23710:	0002a223          	sw	zero,4(t0) # 2500004 <bss_begin+0x24d9004>
   23714:	0f700313          	li	t1,247
   23718:	0062a423          	sw	t1,8(t0)
   2371c:	0002a823          	sw	zero,16(t0)
   23720:	00c2a303          	lw	t1,12(t0)
   23724:	08036313          	ori	t1,t1,128
   23728:	0062a623          	sw	t1,12(t0)
   2372c:	00d00393          	li	t2,13
   23730:	0072a023          	sw	t2,0(t0)
   23734:	00000393          	li	t2,0
   23738:	0072a223          	sw	t2,4(t0)
   2373c:	08034313          	xori	t1,t1,128
   23740:	0062a623          	sw	t1,12(t0)
   23744:	00c2a303          	lw	t1,12(t0)
   23748:	ff000393          	li	t2,-16
   2374c:	00737333          	and	t1,t1,t2
   23750:	00300393          	li	t2,3
   23754:	00736333          	or	t1,t1,t2
   23758:	0062a623          	sw	t1,12(t0)
   2375c:	00008067          	ret
   23760:	025002b7          	lui	t0,0x2500
   23764:	07c2a303          	lw	t1,124(t0) # 250007c <bss_begin+0x24d907c>
   23768:	00237313          	andi	t1,t1,2
   2376c:	fe030ce3          	beqz	t1,23764 <payload_bin+0x2504>
   23770:	00a28023          	sb	a0,0(t0)
   23774:	00008067          	ret
   23778:	00008c13          	mv	s8,ra
   2377c:	00050793          	mv	a5,a0
   23780:	0007c503          	lbu	a0,0(a5)
   23784:	00050863          	beqz	a0,23794 <payload_bin+0x2534>
   23788:	fd9ff0ef          	jal	ra,23760 <payload_bin+0x2500>
   2378c:	00178793          	addi	a5,a5,1
   23790:	ff1ff06f          	j	23780 <payload_bin+0x2520>
   23794:	000c0093          	mv	ra,s8
   23798:	00008067          	ret
   2379c:	00000293          	li	t0,0
   237a0:	00b53023          	sd	a1,0(a0) # 2001000 <bss_begin+0x1fda000>
   237a4:	00b53423          	sd	a1,8(a0)
   237a8:	01028293          	addi	t0,t0,16
   237ac:	fec2cae3          	blt	t0,a2,237a0 <payload_bin+0x2540>
   237b0:	00008067          	ret
   237b4:	0000                	unimp
   237b6:	0000                	unimp
   237b8:	303c                	fld	fa5,96(s0)
   237ba:	2578                	fld	fa4,200(a0)
   237bc:	786c                	ld	a1,240(s0)
   237be:	203e                	fld	ft0,456(sp)
   237c0:	7325                	lui	t1,0xfffe9
   237c2:	000a                	c.slli	zero,0x2
   237c4:	0000                	unimp
   237c6:	0000                	unimp
   237c8:	6574                	ld	a3,200(a0)
   237ca:	61207473          	csrrci	s0,0x612,0
   237ce:	646e                	ld	s0,216(sp)
   237d0:	203a                	fld	ft0,392(sp)
   237d2:	3d70                	fld	fa2,248(a0)
   237d4:	7830                	ld	a2,112(s0)
   237d6:	7825                	lui	a6,0xfffe9
   237d8:	000a                	c.slli	zero,0x2
   237da:	0000                	unimp
   237dc:	0000                	unimp
   237de:	0000                	unimp
   237e0:	6574                	ld	a3,200(a0)
   237e2:	6f207473          	csrrci	s0,0x6f2,0
   237e6:	7272                	ld	tp,312(sp)
   237e8:	203a                	fld	ft0,392(sp)
   237ea:	3d70                	fld	fa2,248(a0)
   237ec:	7830                	ld	a2,112(s0)
   237ee:	7825                	lui	a6,0xfffe9
   237f0:	000a                	c.slli	zero,0x2
   237f2:	0000                	unimp
   237f4:	0000                	unimp
   237f6:	0000                	unimp
   237f8:	6574                	ld	a3,200(a0)
   237fa:	61207473          	csrrci	s0,0x612,0
   237fe:	6464                	ld	s1,200(s0)
   23800:	203a                	fld	ft0,392(sp)
   23802:	3d70                	fld	fa2,248(a0)
   23804:	7830                	ld	a2,112(s0)
   23806:	7825                	lui	a6,0xfffe9
   23808:	000a                	c.slli	zero,0x2
   2380a:	0000                	unimp
   2380c:	0000                	unimp
   2380e:	0000                	unimp
   23810:	61747373          	csrrci	t1,0x617,8
   23814:	7574                	ld	a3,232(a0)
   23816:	303d2073          	csrs	mideleg,s10
   2381a:	2578                	fld	fa4,200(a0)
   2381c:	0a78                	addi	a4,sp,284
   2381e:	0000                	unimp
   23820:	7325                	lui	t1,0xfffe9
   23822:	203a                	fld	ft0,392(sp)
   23824:	2061                	0x2061
   23826:	203d                	0x203d
   23828:	6425                	lui	s0,0x9
   2382a:	000a                	c.slli	zero,0x2
   2382c:	0000                	unimp
   2382e:	0000                	unimp
   23830:	7361                	lui	t1,0xffff8
   23832:	5f6d                	li	t5,-5
   23834:	6f746f67          	0x6f746f67
   23838:	203a                	fld	ft0,392(sp)
   2383a:	6572                	ld	a0,280(sp)
   2383c:	7574                	ld	a3,232(a0)
   2383e:	6e72                	ld	t3,280(sp)
   23840:	3120                	fld	fs0,96(a0)
   23842:	000a                	c.slli	zero,0x2
   23844:	0000                	unimp
   23846:	0000                	unimp
   23848:	7361                	lui	t1,0xffff8
   2384a:	5f6d                	li	t5,-5
   2384c:	6f746f67          	0x6f746f67
   23850:	203a                	fld	ft0,392(sp)
   23852:	2062                	fld	ft0,24(sp)
   23854:	7369                	lui	t1,0xffffa
   23856:	6e20                	ld	s0,88(a2)
   23858:	3120746f          	jal	s0,2ab6a <bss_begin+0x3b6a>
   2385c:	000a                	c.slli	zero,0x2
   2385e:	0000                	unimp
   23860:	616c                	ld	a1,192(a0)
   23862:	3362                	fld	ft6,56(sp)
   23864:	352d                	addiw	a0,a0,-21
   23866:	203a                	fld	ft0,392(sp)
   23868:	706d6f63          	bltu	s10,t1,23f86 <payload_bin+0x2d26>
   2386c:	7261                	lui	tp,0xffff8
   2386e:	5f65                	li	t5,-7
   23870:	6e61                	lui	t3,0x18
   23872:	5f64                	lw	s1,124(a4)
   23874:	6572                	ld	a0,280(sp)
   23876:	7574                	ld	a3,232(a0)
   23878:	6e72                	ld	t3,280(sp)
   2387a:	6f20                	ld	s0,88(a4)
   2387c:	00000a6b          	0xa6b
   23880:	616c                	ld	a1,192(a0)
   23882:	3362                	fld	ft6,56(sp)
   23884:	372d                	addiw	a4,a4,-21
   23886:	203a                	fld	ft0,392(sp)
   23888:	7262                	ld	tp,56(sp)
   2388a:	6e61                	lui	t3,0x18
   2388c:	74206863          	bltu	zero,sp,23fdc <payload_bin+0x2d7c>
   23890:	7365                	lui	t1,0xffff9
   23892:	2074                	fld	fa3,192(s0)
   23894:	000a6b6f          	jal	s6,c9894 <bss_begin+0xa2894>
   23898:	616c                	ld	a1,192(a0)
   2389a:	3562                	fld	fa0,56(sp)
   2389c:	352d                	addiw	a0,a0,-21
   2389e:	203a                	fld	ft0,392(sp)
   238a0:	616d                	addi	sp,sp,240
   238a2:	5f6f7263          	bgeu	t5,s6,23e86 <payload_bin+0x2c26>
   238a6:	6574                	ld	a3,200(a0)
   238a8:	315f7473          	csrrci	s0,0x315,30
   238ac:	6f20                	ld	s0,88(a4)
   238ae:	00000a6b          	0xa6b
   238b2:	0000                	unimp
   238b4:	0000                	unimp
   238b6:	0000                	unimp
   238b8:	616c                	ld	a1,192(a0)
   238ba:	3562                	fld	fa0,56(sp)
   238bc:	352d                	addiw	a0,a0,-21
   238be:	203a                	fld	ft0,392(sp)
   238c0:	616d                	addi	sp,sp,240
   238c2:	5f6f7263          	bgeu	t5,s6,23ea6 <payload_bin+0x2c46>
   238c6:	6574                	ld	a3,200(a0)
   238c8:	325f7473          	csrrci	s0,mhpmevent5,30
   238cc:	6f20                	ld	s0,88(a4)
   238ce:	00000a6b          	0xa6b
   238d2:	0000                	unimp
   238d4:	0000                	unimp
   238d6:	0000                	unimp
   238d8:	6542                	ld	a0,16(sp)
   238da:	4f6e                	lw	t5,216(sp)
   238dc:	6d692053          	0x6d692053
   238e0:	6761                	lui	a4,0x18
   238e2:	2065                	0x2065
   238e4:	616c                	ld	a1,192(a0)
   238e6:	6f79                	lui	t5,0x1e
   238e8:	7475                	lui	s0,0xffffd
   238ea:	0a3a                	slli	s4,s4,0xe
   238ec:	0000                	unimp
   238ee:	0000                	unimp
   238f0:	2020                	fld	fs0,64(s0)
   238f2:	742e                	ld	s0,232(sp)
   238f4:	7865                	lui	a6,0xffff9
   238f6:	2e74                	fld	fa3,216(a2)
   238f8:	6f62                	ld	t5,24(sp)
   238fa:	203a746f          	jal	s0,cb2fc <bss_begin+0xa42fc>
   238fe:	7830                	ld	a2,112(s0)
   23900:	3025                	0x3025
   23902:	6c38                	ld	a4,88(s0)
   23904:	2078                	fld	fa4,192(s0)
   23906:	202d                	0x202d
   23908:	7830                	ld	a2,112(s0)
   2390a:	3025                	0x3025
   2390c:	6c38                	ld	a4,88(s0)
   2390e:	2078                	fld	fa4,192(s0)
   23910:	2528                	fld	fa0,72(a0)
   23912:	6c36                	ld	s8,328(sp)
   23914:	2064                	fld	fs1,192(s0)
   23916:	2942                	fld	fs2,16(sp)
   23918:	000a                	c.slli	zero,0x2
   2391a:	0000                	unimp
   2391c:	0000                	unimp
   2391e:	0000                	unimp
   23920:	2020                	fld	fs0,64(s0)
   23922:	2020                	fld	fs0,64(s0)
   23924:	2020                	fld	fs0,64(s0)
   23926:	2e20                	fld	fs0,88(a2)
   23928:	6574                	ld	a3,200(a0)
   2392a:	7478                	ld	a4,232(s0)
   2392c:	203a                	fld	ft0,392(sp)
   2392e:	7830                	ld	a2,112(s0)
   23930:	3025                	0x3025
   23932:	6c38                	ld	a4,88(s0)
   23934:	2078                	fld	fa4,192(s0)
   23936:	202d                	0x202d
   23938:	7830                	ld	a2,112(s0)
   2393a:	3025                	0x3025
   2393c:	6c38                	ld	a4,88(s0)
   2393e:	2078                	fld	fa4,192(s0)
   23940:	2528                	fld	fa0,72(a0)
   23942:	6c36                	ld	s8,328(sp)
   23944:	2064                	fld	fs1,192(s0)
   23946:	2942                	fld	fs2,16(sp)
   23948:	000a                	c.slli	zero,0x2
   2394a:	0000                	unimp
   2394c:	0000                	unimp
   2394e:	0000                	unimp
   23950:	2020                	fld	fs0,64(s0)
   23952:	2020                	fld	fs0,64(s0)
   23954:	2e20                	fld	fs0,88(a2)
   23956:	6f72                	ld	t5,280(sp)
   23958:	6164                	ld	s1,192(a0)
   2395a:	6174                	ld	a3,192(a0)
   2395c:	203a                	fld	ft0,392(sp)
   2395e:	7830                	ld	a2,112(s0)
   23960:	3025                	0x3025
   23962:	6c38                	ld	a4,88(s0)
   23964:	2078                	fld	fa4,192(s0)
   23966:	202d                	0x202d
   23968:	7830                	ld	a2,112(s0)
   2396a:	3025                	0x3025
   2396c:	6c38                	ld	a4,88(s0)
   2396e:	2078                	fld	fa4,192(s0)
   23970:	2528                	fld	fa0,72(a0)
   23972:	6c36                	ld	s8,328(sp)
   23974:	2064                	fld	fs1,192(s0)
   23976:	2942                	fld	fs2,16(sp)
   23978:	000a                	c.slli	zero,0x2
   2397a:	0000                	unimp
   2397c:	0000                	unimp
   2397e:	0000                	unimp
   23980:	2020                	fld	fs0,64(s0)
   23982:	2020                	fld	fs0,64(s0)
   23984:	2020                	fld	fs0,64(s0)
   23986:	2e20                	fld	fs0,88(a2)
   23988:	6164                	ld	s1,192(a0)
   2398a:	6174                	ld	a3,192(a0)
   2398c:	203a                	fld	ft0,392(sp)
   2398e:	7830                	ld	a2,112(s0)
   23990:	3025                	0x3025
   23992:	6c38                	ld	a4,88(s0)
   23994:	2078                	fld	fa4,192(s0)
   23996:	202d                	0x202d
   23998:	7830                	ld	a2,112(s0)
   2399a:	3025                	0x3025
   2399c:	6c38                	ld	a4,88(s0)
   2399e:	2078                	fld	fa4,192(s0)
   239a0:	2528                	fld	fa0,72(a0)
   239a2:	6c36                	ld	s8,328(sp)
   239a4:	2064                	fld	fs1,192(s0)
   239a6:	2942                	fld	fs2,16(sp)
   239a8:	000a                	c.slli	zero,0x2
   239aa:	0000                	unimp
   239ac:	0000                	unimp
   239ae:	0000                	unimp
   239b0:	2020                	fld	fs0,64(s0)
   239b2:	2020                	fld	fs0,64(s0)
   239b4:	2020                	fld	fs0,64(s0)
   239b6:	2020                	fld	fs0,64(s0)
   239b8:	622e                	ld	tp,200(sp)
   239ba:	203a7373          	csrrci	t1,0x203,20
   239be:	7830                	ld	a2,112(s0)
   239c0:	3025                	0x3025
   239c2:	6c38                	ld	a4,88(s0)
   239c4:	2078                	fld	fa4,192(s0)
   239c6:	202d                	0x202d
   239c8:	7830                	ld	a2,112(s0)
   239ca:	3025                	0x3025
   239cc:	6c38                	ld	a4,88(s0)
   239ce:	2078                	fld	fa4,192(s0)
   239d0:	2528                	fld	fa0,72(a0)
   239d2:	6c36                	ld	s8,328(sp)
   239d4:	2064                	fld	fs1,192(s0)
   239d6:	2942                	fld	fs2,16(sp)
   239d8:	000a                	c.slli	zero,0x2
   239da:	0000                	unimp
   239dc:	0000                	unimp
   239de:	0000                	unimp
   239e0:	636c6557          	0x636c6557
   239e4:	20656d6f          	jal	s10,79bea <bss_begin+0x52bea>
   239e8:	4952                	lw	s2,20(sp)
   239ea:	562d4353          	0x562d4353
   239ee:	0d21                	addi	s10,s10,8
   239f0:	000a                	c.slli	zero,0x2
   239f2:	0000                	unimp
   239f4:	0000                	unimp
   239f6:	0000                	unimp
   239f8:	7270                	ld	a2,224(a2)
   239fa:	6e69                	lui	t3,0x1a
   239fc:	6b74                	ld	a3,208(a4)
   239fe:	6920                	ld	s0,80(a0)
   23a00:	696e                	ld	s2,216(sp)
   23a02:	2074                	fld	fa3,192(s0)
   23a04:	6f64                	ld	s1,216(a4)
   23a06:	656e                	ld	a0,216(sp)
   23a08:	000a                	c.slli	zero,0x2
   23a0a:	0000                	unimp
   23a0c:	0000                	unimp
   23a0e:	0000                	unimp
   23a10:	6574                	ld	a3,200(a0)
   23a12:	615f7473          	csrrci	s0,0x615,30
   23a16:	675f6d73          	csrrsi	s10,0x675,30
   23a1a:	006f746f          	jal	s0,11aa20 <bss_begin+0xf3a20>
   23a1e:	0000                	unimp
   23a20:	3130                	fld	fa2,96(a0)
   23a22:	3332                	fld	ft6,296(sp)
   23a24:	3534                	fld	fa3,104(a0)
   23a26:	3736                	fld	fa4,360(sp)
   23a28:	3938                	fld	fa4,112(a0)
   23a2a:	4241                	li	tp,16
   23a2c:	46454443          	fmadd.q	fs0,fa0,ft4,fs0,rmm
   23a30:	4a494847          	fmsub.d	fa6,fs2,ft4,fs1,rmm
   23a34:	4e4d4c4b          	fnmsub.q	fs8,fs10,ft4,fs1,rmm
   23a38:	5251504f          	fnmadd.d	ft0,ft2,ft5,fa0,unknown
   23a3c:	56555453          	0x56555453
   23a40:	5a595857          	0x5a595857
   23a44:	0000                	unimp
   23a46:	0000                	unimp
   23a48:	3130                	fld	fa2,96(a0)
   23a4a:	3332                	fld	ft6,296(sp)
   23a4c:	3534                	fld	fa3,104(a0)
   23a4e:	3736                	fld	fa4,360(sp)
   23a50:	3938                	fld	fa4,112(a0)
   23a52:	6261                	lui	tp,0x18
   23a54:	66656463          	bltu	a0,t1,240bc <payload_bin+0x2e5c>
   23a58:	6a696867          	0x6a696867
   23a5c:	6e6d6c6b          	0x6e6d6c6b
   23a60:	7271706f          	j	3b986 <bss_begin+0x14986>
   23a64:	76757473          	csrrci	s0,0x767,10
   23a68:	7a797877          	0x7a797877
   23a6c:	0000                	unimp
   23a6e:	0000                	unimp
   23a70:	4e3c                	lw	a5,88(a2)
   23a72:	4c55                	li	s8,21
   23a74:	3e4c                	fld	fa1,184(a2)
   23a76:	0000                	unimp
   23a78:	e8e4                	sd	s1,208(s1)
   23a7a:	e914ffff          	0xe914ffff
   23a7e:	e914ffff          	0xe914ffff
   23a82:	e8f4ffff          	0xe8f4ffff
   23a86:	e914ffff          	0xe914ffff
   23a8a:	e914ffff          	0xe914ffff
   23a8e:	e914ffff          	0xe914ffff
   23a92:	e914ffff          	0xe914ffff
   23a96:	e914ffff          	0xe914ffff
   23a9a:	e914ffff          	0xe914ffff
   23a9e:	e914ffff          	0xe914ffff
   23aa2:	e8d4ffff          	0xe8d4ffff
   23aa6:	e914ffff          	0xe914ffff
   23aaa:	e8c4ffff          	0xe8c4ffff
   23aae:	e914ffff          	0xe914ffff
   23ab2:	e914ffff          	0xe914ffff
   23ab6:	e904ffff          	0xe904ffff
   23aba:	ed40ffff          	0xed40ffff
   23abe:	ed64ffff          	0xed64ffff
   23ac2:	ed64ffff          	0xed64ffff
   23ac6:	ed64ffff          	0xed64ffff
   23aca:	ed64ffff          	0xed64ffff
   23ace:	ed64ffff          	0xed64ffff
   23ad2:	ed64ffff          	0xed64ffff
   23ad6:	ed64ffff          	0xed64ffff
   23ada:	ed64ffff          	0xed64ffff
   23ade:	ed64ffff          	0xed64ffff
   23ae2:	ed64ffff          	0xed64ffff
   23ae6:	eae0ffff          	0xeae0ffff
   23aea:	ed4cffff          	0xed4cffff
   23aee:	ed64ffff          	0xed64ffff
   23af2:	ed64ffff          	0xed64ffff
   23af6:	ed64ffff          	0xed64ffff
   23afa:	ed64ffff          	0xed64ffff
   23afe:	ed4cffff          	0xed4cffff
   23b02:	ed64ffff          	0xed64ffff
   23b06:	ed64ffff          	0xed64ffff
   23b0a:	ed64ffff          	0xed64ffff
   23b0e:	ed64ffff          	0xed64ffff
   23b12:	eca0ffff          	0xeca0ffff
   23b16:	ed28ffff          	0xed28ffff
   23b1a:	ecd0ffff          	0xecd0ffff
   23b1e:	ed64ffff          	0xed64ffff
   23b22:	ed64ffff          	0xed64ffff
   23b26:	eb78ffff          	0xeb78ffff
   23b2a:	ed64ffff          	0xed64ffff
   23b2e:	ed58ffff          	0xed58ffff
   23b32:	ed64ffff          	0xed64ffff
   23b36:	ed64ffff          	0xed64ffff
   23b3a:	ed34ffff          	0xed34ffff
   23b3e:	0a0dffff          	0xa0dffff
   23b42:	6f42                	ld	t5,16(sp)
   23b44:	6e69746f          	jal	s0,bb22a <bss_begin+0x9422a>
   23b48:	74612067          	0x74612067
   23b4c:	6120                	ld	s0,64(a0)
   23b4e:	0a0d6d73          	csrrsi	s10,0xa0,26
	...
   2525e:	0000                	unimp
   25260:	7108                	ld	a0,32(a0)
   25262:	0002                	c.slli64	zero
   25264:	0000                	unimp
	...

Disassembly of section .rodata:

0000000000025268 <.rodata>:
   25268:	ae48                	fsd	fa0,152(a2)
   2526a:	aefcffff          	0xaefcffff
   2526e:	aefcffff          	0xaefcffff
   25272:	aefcffff          	0xaefcffff
   25276:	aefcffff          	0xaefcffff
   2527a:	aefcffff          	0xaefcffff
   2527e:	aefcffff          	0xaefcffff
   25282:	aefcffff          	0xaefcffff
   25286:	aefcffff          	0xaefcffff
   2528a:	aefcffff          	0xaefcffff
   2528e:	aefcffff          	0xaefcffff
   25292:	aefcffff          	0xaefcffff
   25296:	aefcffff          	0xaefcffff
   2529a:	aefcffff          	0xaefcffff
   2529e:	aefcffff          	0xaefcffff
   252a2:	aefcffff          	0xaefcffff
   252a6:	ae5cffff          	0xae5cffff
   252aa:	ae70ffff          	0xae70ffff
   252ae:	ae84ffff          	0xae84ffff
   252b2:	ae98ffff          	0xae98ffff
   252b6:	aeacffff          	0xaeacffff
   252ba:	aec0ffff          	0xaec0ffff
   252be:	aed4ffff          	0xaed4ffff
   252c2:	aee8ffff          	0xaee8ffff
   252c6:	af14ffff          	0xaf14ffff
   252ca:	afc8ffff          	0xafc8ffff
   252ce:	afc8ffff          	0xafc8ffff
   252d2:	afc8ffff          	0xafc8ffff
   252d6:	afc8ffff          	0xafc8ffff
   252da:	afc8ffff          	0xafc8ffff
   252de:	afc8ffff          	0xafc8ffff
   252e2:	afc8ffff          	0xafc8ffff
   252e6:	afc8ffff          	0xafc8ffff
   252ea:	afc8ffff          	0xafc8ffff
   252ee:	afc8ffff          	0xafc8ffff
   252f2:	afc8ffff          	0xafc8ffff
   252f6:	afc8ffff          	0xafc8ffff
   252fa:	afc8ffff          	0xafc8ffff
   252fe:	afc8ffff          	0xafc8ffff
   25302:	afc8ffff          	0xafc8ffff
   25306:	af28ffff          	0xaf28ffff
   2530a:	af3cffff          	0xaf3cffff
   2530e:	af50ffff          	0xaf50ffff
   25312:	af64ffff          	0xaf64ffff
   25316:	af78ffff          	0xaf78ffff
   2531a:	af8cffff          	0xaf8cffff
   2531e:	afa0ffff          	0xafa0ffff
   25322:	afb4ffff          	0xafb4ffff
   25326:	          	0xffff

Disassembly of section .data:

0000000000026000 <stacks_start>:
	...

Disassembly of section .debug_info:

0000000000000000 <.debug_info>:
   0:	0000037f          	0x37f
   4:	0004                	0x4
   6:	0000                	unimp
   8:	0000                	unimp
   a:	0108                	addi	a0,sp,128
   c:	001a                	c.slli	zero,0x6
   e:	0000                	unimp
  10:	000c                	0xc
  12:	0000                	unimp
  14:	8a00                	0x8a00
  16:	0000                	unimp
  18:	5000                	lw	s0,32(s0)
  1a:	0200                	addi	s0,sp,256
  1c:	0000                	unimp
  1e:	0000                	unimp
  20:	bc00                	fsd	fs0,56(s0)
  22:	0002                	c.slli64	zero
	...
  2c:	0200                	addi	s0,sp,256
  2e:	000e                	c.slli	zero,0x3
  30:	0000                	unimp
  32:	5001                	c.li	zero,-32
  34:	00006c0f          	0x6c0f
  38:	a400                	fsd	fs0,8(s0)
  3a:	0202                	c.slli64	tp
  3c:	0000                	unimp
  3e:	0000                	unimp
  40:	6800                	ld	s0,16(s0)
  42:	0000                	unimp
  44:	0000                	unimp
  46:	0000                	unimp
  48:	0100                	addi	s0,sp,128
  4a:	6c9c                	ld	a5,24(s1)
  4c:	0000                	unimp
  4e:	0300                	addi	s0,sp,384
  50:	0078                	addi	a4,sp,12
  52:	5001                	c.li	zero,-32
  54:	6c29                	lui	s8,0xa
  56:	0000                	unimp
  58:	0200                	addi	s0,sp,256
  5a:	5891                	li	a7,-28
  5c:	7204                	ld	s1,32(a2)
  5e:	7465                	lui	s0,0xffff9
  60:	0100                	addi	s0,sp,128
  62:	1052                	c.slli	zero,0x34
  64:	006c                	addi	a1,sp,12
  66:	0000                	unimp
  68:	9102                	jalr	sp
  6a:	0068                	addi	a0,sp,12
  6c:	0805                	addi	a6,a6,1
  6e:	00027e07          	vle64.v	v28,(tp),v0.t
  72:	0600                	addi	s0,sp,768
  74:	00de                	slli	ra,ra,0x17
  76:	0000                	unimp
  78:	2d01                	sext.w	s10,s10
  7a:	8006                	c.mv	zero,ra
  7c:	0201                	addi	tp,tp,0
  7e:	0000                	unimp
  80:	0000                	unimp
  82:	2400                	fld	fs0,8(s0)
  84:	0001                	nop
  86:	0000                	unimp
  88:	0000                	unimp
  8a:	0100                	addi	s0,sp,128
  8c:	fe9c                	sd	a5,56(a3)
  8e:	0001                	nop
  90:	0700                	addi	s0,sp,896
  92:	0082                	c.slli64	ra
  94:	0000                	unimp
  96:	2d01                	sext.w	s10,s10
  98:	fe18                	sd	a4,56(a2)
  9a:	0001                	nop
  9c:	0300                	addi	s0,sp,384
  9e:	9c91                	subw	s1,s1,a2
  a0:	6176037f          	0x6176037f
  a4:	006c                	addi	a1,sp,12
  a6:	2d01                	sext.w	s10,s10
  a8:	00006c2f          	vamoaddei32.v	zero,(zero),v0,v24,v0.t
  ac:	0300                	addi	s0,sp,384
  ae:	9091                	srli	s1,s1,0x24
  b0:	01dc087f          	0x1dc087f
  b4:	0002                	c.slli64	zero
  b6:	0000                	unimp
  b8:	0000                	unimp
  ba:	0010                	0x10
  bc:	0000                	unimp
  be:	0000                	unimp
  c0:	0000                	unimp
  c2:	000000d7          	vadd.vv	v1,v0,v0,v0.t
  c6:	5f04                	lw	s1,56(a4)
  c8:	765f 0100 1431      	0x14310100765f
  ce:	006c                	addi	a1,sp,12
  d0:	0000                	unimp
  d2:	7fa89103          	lh	sp,2042(a7)
  d6:	0800                	addi	s0,sp,16
  d8:	01f0                	addi	a2,sp,204
  da:	0002                	c.slli64	zero
  dc:	0000                	unimp
  de:	0000                	unimp
  e0:	0010                	0x10
  e2:	0000                	unimp
  e4:	0000                	unimp
  e6:	0000                	unimp
  e8:	00fd                	addi	ra,ra,31
  ea:	0000                	unimp
  ec:	5f04                	lw	s1,56(a4)
  ee:	765f 0100 1434      	0x14340100765f
  f4:	006c                	addi	a1,sp,12
  f6:	0000                	unimp
  f8:	7fb09103          	lh	sp,2043(ra)
  fc:	0800                	addi	s0,sp,16
  fe:	0204                	addi	s1,sp,256
 100:	0002                	c.slli64	zero
 102:	0000                	unimp
 104:	0000                	unimp
 106:	0010                	0x10
 108:	0000                	unimp
 10a:	0000                	unimp
 10c:	0000                	unimp
 10e:	00000123          	sb	zero,2(zero) # 2 <__bin_size-0x6ffe>
 112:	5f04                	lw	s1,56(a4)
 114:	765f 0100 1437      	0x14370100765f
 11a:	006c                	addi	a1,sp,12
 11c:	0000                	unimp
 11e:	7fb89103          	lh	sp,2043(a7)
 122:	0800                	addi	s0,sp,16
 124:	0218                	addi	a4,sp,256
 126:	0002                	c.slli64	zero
 128:	0000                	unimp
 12a:	0000                	unimp
 12c:	0010                	0x10
 12e:	0000                	unimp
 130:	0000                	unimp
 132:	0000                	unimp
 134:	0148                	addi	a0,sp,132
 136:	0000                	unimp
 138:	5f04                	lw	s1,56(a4)
 13a:	765f 0100 143a      	0x143a0100765f
 140:	006c                	addi	a1,sp,12
 142:	0000                	unimp
 144:	9102                	jalr	sp
 146:	0040                	addi	s0,sp,4
 148:	2c08                	fld	fa0,24(s0)
 14a:	0202                	c.slli64	tp
 14c:	0000                	unimp
 14e:	0000                	unimp
 150:	1000                	addi	s0,sp,32
 152:	0000                	unimp
 154:	0000                	unimp
 156:	0000                	unimp
 158:	6d00                	ld	s0,24(a0)
 15a:	0001                	nop
 15c:	0400                	addi	s0,sp,512
 15e:	5f5f 0076 3d01      	0x3d0100765f5f
 164:	6c14                	ld	a3,24(s0)
 166:	0000                	unimp
 168:	0200                	addi	s0,sp,256
 16a:	4891                	li	a7,4
 16c:	0800                	addi	s0,sp,16
 16e:	0240                	addi	s0,sp,260
 170:	0002                	c.slli64	zero
 172:	0000                	unimp
 174:	0000                	unimp
 176:	0010                	0x10
 178:	0000                	unimp
 17a:	0000                	unimp
 17c:	0000                	unimp
 17e:	0192                	slli	gp,gp,0x4
 180:	0000                	unimp
 182:	5f04                	lw	s1,56(a4)
 184:	765f 0100 1440      	0x14400100765f
 18a:	006c                	addi	a1,sp,12
 18c:	0000                	unimp
 18e:	9102                	jalr	sp
 190:	0050                	addi	a2,sp,4
 192:	5408                	lw	a0,40(s0)
 194:	0202                	c.slli64	tp
 196:	0000                	unimp
 198:	0000                	unimp
 19a:	1000                	addi	s0,sp,32
 19c:	0000                	unimp
 19e:	0000                	unimp
 1a0:	0000                	unimp
 1a2:	b700                	fsd	fs0,40(a4)
 1a4:	0001                	nop
 1a6:	0400                	addi	s0,sp,512
 1a8:	5f5f 0076 4301      	0x430100765f5f
 1ae:	6c14                	ld	a3,24(s0)
 1b0:	0000                	unimp
 1b2:	0200                	addi	s0,sp,256
 1b4:	5891                	li	a7,-28
 1b6:	0800                	addi	s0,sp,16
 1b8:	0268                	addi	a0,sp,268
 1ba:	0002                	c.slli64	zero
 1bc:	0000                	unimp
 1be:	0000                	unimp
 1c0:	0010                	0x10
 1c2:	0000                	unimp
 1c4:	0000                	unimp
 1c6:	0000                	unimp
 1c8:	01dc                	addi	a5,sp,196
 1ca:	0000                	unimp
 1cc:	5f04                	lw	s1,56(a4)
 1ce:	765f 0100 1446      	0x14460100765f
 1d4:	006c                	addi	a1,sp,12
 1d6:	0000                	unimp
 1d8:	9102                	jalr	sp
 1da:	0060                	addi	s0,sp,12
 1dc:	7c09                	lui	s8,0xfffe2
 1de:	0202                	c.slli64	tp
 1e0:	0000                	unimp
 1e2:	0000                	unimp
 1e4:	1000                	addi	s0,sp,32
 1e6:	0000                	unimp
 1e8:	0000                	unimp
 1ea:	0000                	unimp
 1ec:	0400                	addi	s0,sp,512
 1ee:	5f5f 0076 4901      	0x490100765f5f
 1f4:	6c14                	ld	a3,24(s0)
 1f6:	0000                	unimp
 1f8:	0200                	addi	s0,sp,256
 1fa:	6891                	lui	a7,0x4
 1fc:	0000                	unimp
 1fe:	040a                	slli	s0,s0,0x2
 200:	6905                	lui	s2,0x1
 202:	746e                	ld	s0,248(sp)
 204:	0b00                	addi	s0,sp,400
 206:	007d                	c.nop	31
 208:	0000                	unimp
 20a:	0601                	addi	a2,a2,0
 20c:	00006c0f          	0x6c0f
 210:	5000                	lw	s0,32(s0)
 212:	0200                	addi	s0,sp,256
 214:	0000                	unimp
 216:	0000                	unimp
 218:	3000                	fld	fs0,32(s0)
 21a:	0001                	nop
 21c:	0000                	unimp
 21e:	0000                	unimp
 220:	0100                	addi	s0,sp,128
 222:	079c                	addi	a5,sp,960
 224:	0082                	c.slli64	ra
 226:	0000                	unimp
 228:	0601                	addi	a2,a2,0
 22a:	fe20                	sd	s0,120(a2)
 22c:	0001                	nop
 22e:	0200                	addi	s0,sp,256
 230:	5c91                	li	s9,-28
 232:	7204                	ld	s1,32(a2)
 234:	7465                	lui	s0,0xffff9
 236:	0100                	addi	s0,sp,128
 238:	1008                	addi	a0,sp,32
 23a:	006c                	addi	a1,sp,12
 23c:	0000                	unimp
 23e:	9102                	jalr	sp
 240:	0868                	addi	a0,sp,28
 242:	00b0                	addi	a2,sp,72
 244:	0002                	c.slli64	zero
 246:	0000                	unimp
 248:	0000                	unimp
 24a:	000c                	0xc
 24c:	0000                	unimp
 24e:	0000                	unimp
 250:	0000                	unimp
 252:	0265                	addi	tp,tp,25
 254:	0000                	unimp
 256:	5f04                	lw	s1,56(a4)
 258:	765f 0100 230c      	0x230c0100765f
 25e:	006c                	addi	a1,sp,12
 260:	0000                	unimp
 262:	5901                	li	s2,-32
 264:	0800                	addi	s0,sp,16
 266:	00c4                	addi	s1,sp,68
 268:	0002                	c.slli64	zero
 26a:	0000                	unimp
 26c:	0000                	unimp
 26e:	000c                	0xc
 270:	0000                	unimp
 272:	0000                	unimp
 274:	0000                	unimp
 276:	0289                	addi	t0,t0,2
 278:	0000                	unimp
 27a:	5f04                	lw	s1,56(a4)
 27c:	765f 0100 230f      	0x230f0100765f
 282:	006c                	addi	a1,sp,12
 284:	0000                	unimp
 286:	5901                	li	s2,-32
 288:	0800                	addi	s0,sp,16
 28a:	00d8                	addi	a4,sp,68
 28c:	0002                	c.slli64	zero
 28e:	0000                	unimp
 290:	0000                	unimp
 292:	000c                	0xc
 294:	0000                	unimp
 296:	0000                	unimp
 298:	0000                	unimp
 29a:	02ad                	addi	t0,t0,11
 29c:	0000                	unimp
 29e:	5f04                	lw	s1,56(a4)
 2a0:	765f 0100 2312      	0x23120100765f
 2a6:	006c                	addi	a1,sp,12
 2a8:	0000                	unimp
 2aa:	5901                	li	s2,-32
 2ac:	0800                	addi	s0,sp,16
 2ae:	00ec                	addi	a1,sp,76
 2b0:	0002                	c.slli64	zero
 2b2:	0000                	unimp
 2b4:	0000                	unimp
 2b6:	000c                	0xc
 2b8:	0000                	unimp
 2ba:	0000                	unimp
 2bc:	0000                	unimp
 2be:	02d1                	addi	t0,t0,20
 2c0:	0000                	unimp
 2c2:	5f04                	lw	s1,56(a4)
 2c4:	765f 0100 2315      	0x23150100765f
 2ca:	006c                	addi	a1,sp,12
 2cc:	0000                	unimp
 2ce:	5901                	li	s2,-32
 2d0:	0800                	addi	s0,sp,16
 2d2:	0100                	addi	s0,sp,128
 2d4:	0002                	c.slli64	zero
 2d6:	0000                	unimp
 2d8:	0000                	unimp
 2da:	000c                	0xc
 2dc:	0000                	unimp
 2de:	0000                	unimp
 2e0:	0000                	unimp
 2e2:	02f5                	addi	t0,t0,29
 2e4:	0000                	unimp
 2e6:	5f04                	lw	s1,56(a4)
 2e8:	765f 0100 2318      	0x23180100765f
 2ee:	006c                	addi	a1,sp,12
 2f0:	0000                	unimp
 2f2:	5901                	li	s2,-32
 2f4:	0800                	addi	s0,sp,16
 2f6:	0114                	addi	a3,sp,128
 2f8:	0002                	c.slli64	zero
 2fa:	0000                	unimp
 2fc:	0000                	unimp
 2fe:	000c                	0xc
 300:	0000                	unimp
 302:	0000                	unimp
 304:	0000                	unimp
 306:	0319                	addi	t1,t1,6
 308:	0000                	unimp
 30a:	5f04                	lw	s1,56(a4)
 30c:	765f 0100 231b      	0x231b0100765f
 312:	006c                	addi	a1,sp,12
 314:	0000                	unimp
 316:	5901                	li	s2,-32
 318:	0800                	addi	s0,sp,16
 31a:	0128                	addi	a0,sp,136
 31c:	0002                	c.slli64	zero
 31e:	0000                	unimp
 320:	0000                	unimp
 322:	000c                	0xc
 324:	0000                	unimp
 326:	0000                	unimp
 328:	0000                	unimp
 32a:	033d                	addi	t1,t1,15
 32c:	0000                	unimp
 32e:	5f04                	lw	s1,56(a4)
 330:	765f 0100 231e      	0x231e0100765f
 336:	006c                	addi	a1,sp,12
 338:	0000                	unimp
 33a:	5901                	li	s2,-32
 33c:	0800                	addi	s0,sp,16
 33e:	013c                	addi	a5,sp,136
 340:	0002                	c.slli64	zero
 342:	0000                	unimp
 344:	0000                	unimp
 346:	000c                	0xc
 348:	0000                	unimp
 34a:	0000                	unimp
 34c:	0000                	unimp
 34e:	0361                	addi	t1,t1,24
 350:	0000                	unimp
 352:	5f04                	lw	s1,56(a4)
 354:	765f 0100 2321      	0x23210100765f
 35a:	006c                	addi	a1,sp,12
 35c:	0000                	unimp
 35e:	5901                	li	s2,-32
 360:	0900                	addi	s0,sp,144
 362:	0150                	addi	a2,sp,132
 364:	0002                	c.slli64	zero
 366:	0000                	unimp
 368:	0000                	unimp
 36a:	000c                	0xc
 36c:	0000                	unimp
 36e:	0000                	unimp
 370:	0000                	unimp
 372:	5f04                	lw	s1,56(a4)
 374:	765f 0100 2324      	0x23240100765f
 37a:	006c                	addi	a1,sp,12
 37c:	0000                	unimp
 37e:	5901                	li	s2,-32
 380:	0000                	unimp
 382:	1c00                	addi	s0,sp,560
 384:	0002                	c.slli64	zero
 386:	0400                	addi	s0,sp,512
 388:	c700                	sw	s0,8(a4)
 38a:	0000                	unimp
 38c:	0800                	addi	s0,sp,16
 38e:	1a01                	addi	s4,s4,-32
 390:	0000                	unimp
 392:	0c00                	addi	s0,sp,528
 394:	0105                	addi	sp,sp,1
 396:	0000                	unimp
 398:	008a                	slli	ra,ra,0x2
 39a:	0000                	unimp
 39c:	030c                	addi	a1,sp,384
 39e:	0002                	c.slli64	zero
 3a0:	0000                	unimp
 3a2:	0000                	unimp
 3a4:	02b0                	addi	a2,sp,328
 3a6:	0000                	unimp
 3a8:	0000                	unimp
 3aa:	0000                	unimp
 3ac:	02b8                	addi	a4,sp,328
 3ae:	0000                	unimp
 3b0:	0802                	c.slli64	a6
 3b2:	00027e07          	vle64.v	v28,(tp),v0.t
 3b6:	0300                	addi	s0,sp,384
 3b8:	0152                	slli	sp,sp,0x14
 3ba:	0000                	unimp
 3bc:	4e01                	li	t3,0
 3be:	ec06                	sd	ra,24(sp)
 3c0:	0204                	addi	s1,sp,256
 3c2:	0000                	unimp
 3c4:	0000                	unimp
 3c6:	d000                	sw	s0,32(s0)
 3c8:	0000                	unimp
 3ca:	0000                	unimp
 3cc:	0000                	unimp
 3ce:	0100                	addi	s0,sp,128
 3d0:	3d9c                	fld	fa5,56(a1)
 3d2:	0001                	nop
 3d4:	0400                	addi	s0,sp,512
 3d6:	6176                	ld	sp,344(sp)
 3d8:	006c                	addi	a1,sp,12
 3da:	5001                	c.li	zero,-32
 3dc:	2d10                	fld	fa2,24(a0)
 3de:	0000                	unimp
 3e0:	0200                	addi	s0,sp,256
 3e2:	5891                	li	a7,-28
 3e4:	1c05                	addi	s8,s8,-31
 3e6:	0205                	addi	tp,tp,1
 3e8:	0000                	unimp
 3ea:	0000                	unimp
 3ec:	0c00                	addi	s0,sp,528
 3ee:	0000                	unimp
 3f0:	0000                	unimp
 3f2:	0000                	unimp
 3f4:	8500                	0x8500
 3f6:	0000                	unimp
 3f8:	0400                	addi	s0,sp,512
 3fa:	5f5f 0076 5c01      	0x5c0100765f5f
 400:	2d22                	fld	fs10,8(sp)
 402:	0000                	unimp
 404:	0100                	addi	s0,sp,128
 406:	0059                	c.nop	22
 408:	5805                	li	a6,-31
 40a:	0205                	addi	tp,tp,1
 40c:	0000                	unimp
 40e:	0000                	unimp
 410:	1000                	addi	s0,sp,32
 412:	0000                	unimp
 414:	0000                	unimp
 416:	0000                	unimp
 418:	aa00                	fsd	fs0,16(a2)
 41a:	0000                	unimp
 41c:	0400                	addi	s0,sp,512
 41e:	5f5f 0076 5f01      	0x5f0100765f5f
 424:	00002d13          	slti	s10,zero,0
 428:	0200                	addi	s0,sp,256
 42a:	5091                	li	ra,-28
 42c:	0500                	addi	s0,sp,640
 42e:	0568                	addi	a0,sp,652
 430:	0002                	c.slli64	zero
 432:	0000                	unimp
 434:	0000                	unimp
 436:	0010                	0x10
 438:	0000                	unimp
 43a:	0000                	unimp
 43c:	0000                	unimp
 43e:	000000cf          	fnmadd.s	ft1,ft0,ft0,ft0,rne
 442:	5f04                	lw	s1,56(a4)
 444:	765f 0100 1362      	0x13620100765f
 44a:	002d                	c.nop	11
 44c:	0000                	unimp
 44e:	9102                	jalr	sp
 450:	0048                	addi	a0,sp,4
 452:	7805                	lui	a6,0xfffe1
 454:	0205                	addi	tp,tp,1
 456:	0000                	unimp
 458:	0000                	unimp
 45a:	1000                	addi	s0,sp,32
 45c:	0000                	unimp
 45e:	0000                	unimp
 460:	0000                	unimp
 462:	f400                	sd	s0,40(s0)
 464:	0000                	unimp
 466:	0400                	addi	s0,sp,512
 468:	5f5f 0076 6401      	0x640100765f5f
 46e:	00002d13          	slti	s10,zero,0
 472:	0200                	addi	s0,sp,256
 474:	4091                	li	ra,4
 476:	0500                	addi	s0,sp,640
 478:	0588                	addi	a0,sp,704
 47a:	0002                	c.slli64	zero
 47c:	0000                	unimp
 47e:	0000                	unimp
 480:	000c                	0xc
 482:	0000                	unimp
 484:	0000                	unimp
 486:	0000                	unimp
 488:	011a                	slli	sp,sp,0x6
 48a:	0000                	unimp
 48c:	5f04                	lw	s1,56(a4)
 48e:	765f 0100 1367      	0x13670100765f
 494:	002d                	c.nop	11
 496:	0000                	unimp
 498:	7fb89103          	lh	sp,2043(a7) # 47fb <__bin_size-0x2805>
 49c:	0600                	addi	s0,sp,768
 49e:	0594                	addi	a3,sp,704
 4a0:	0002                	c.slli64	zero
 4a2:	0000                	unimp
 4a4:	0000                	unimp
 4a6:	000c                	0xc
 4a8:	0000                	unimp
 4aa:	0000                	unimp
 4ac:	0000                	unimp
 4ae:	5f04                	lw	s1,56(a4)
 4b0:	765f 0100 1369      	0x13690100765f
 4b6:	002d                	c.nop	11
 4b8:	0000                	unimp
 4ba:	7fb09103          	lh	sp,2043(ra)
 4be:	0000                	unimp
 4c0:	00012e07          	flw	ft8,0(sp)
 4c4:	0100                	addi	s0,sp,128
 4c6:	050e                	slli	a0,a0,0x3
 4c8:	0218                	addi	a4,sp,256
 4ca:	0000                	unimp
 4cc:	030c                	addi	a1,sp,384
 4ce:	0002                	c.slli64	zero
 4d0:	0000                	unimp
 4d2:	0000                	unimp
 4d4:	01e0                	addi	s0,sp,204
 4d6:	0000                	unimp
 4d8:	0000                	unimp
 4da:	0000                	unimp
 4dc:	9c01                	subw	s0,s0,s0
 4de:	0218                	addi	a4,sp,256
 4e0:	0000                	unimp
 4e2:	1e08                	addi	a0,sp,816
 4e4:	0001                	nop
 4e6:	0100                	addi	s0,sp,128
 4e8:	150e                	slli	a0,a0,0x23
 4ea:	0218                	addi	a4,sp,256
 4ec:	0000                	unimp
 4ee:	7fbc9103          	lh	sp,2043(s9)
 4f2:	f208                	sd	a0,32(a2)
 4f4:	0000                	unimp
 4f6:	0100                	addi	s0,sp,128
 4f8:	2c0e                	fld	fs8,192(sp)
 4fa:	002d                	c.nop	11
 4fc:	0000                	unimp
 4fe:	7fb09103          	lh	sp,2043(ra)
 502:	1908                	addi	a0,sp,176
 504:	0001                	nop
 506:	0100                	addi	s0,sp,128
 508:	410e                	lw	sp,192(sp)
 50a:	002d                	c.nop	11
 50c:	0000                	unimp
 50e:	7fa89103          	lh	sp,2042(a7)
 512:	1408                	addi	a0,sp,544
 514:	0001                	nop
 516:	0100                	addi	s0,sp,128
 518:	550e                	lw	a0,224(sp)
 51a:	002d                	c.nop	11
 51c:	0000                	unimp
 51e:	7fa09103          	lh	sp,2042(ra)
 522:	ec09                	bnez	s0,53c <__bin_size-0x6ac4>
 524:	0000                	unimp
 526:	0100                	addi	s0,sp,128
 528:	0610                	addi	a2,sp,768
 52a:	0218                	addi	a4,sp,256
 52c:	0000                	unimp
 52e:	9102                	jalr	sp
 530:	0964                	addi	s1,sp,156
 532:	0000015b          	0x15b
 536:	1101                	addi	sp,sp,-32
 538:	1806                	slli	a6,a6,0x21
 53a:	0002                	c.slli64	zero
 53c:	0200                	addi	s0,sp,256
 53e:	6091                	lui	ra,0x4
 540:	f809                	bnez	s0,452 <__bin_size-0x6bae>
 542:	0000                	unimp
 544:	0100                	addi	s0,sp,128
 546:	1211                	addi	tp,tp,-28
 548:	0218                	addi	a4,sp,256
 54a:	0000                	unimp
 54c:	9102                	jalr	sp
 54e:	095c                	addi	a5,sp,148
 550:	0166                	slli	sp,sp,0x19
 552:	0000                	unimp
 554:	1101                	addi	sp,sp,-32
 556:	1820                	addi	s0,sp,56
 558:	0002                	c.slli64	zero
 55a:	0200                	addi	s0,sp,256
 55c:	5891                	li	a7,-28
 55e:	2609                	addiw	a2,a2,2
 560:	0001                	nop
 562:	0100                	addi	s0,sp,128
 564:	1012                	c.slli	zero,0x24
 566:	002d                	c.nop	11
 568:	0000                	unimp
 56a:	9102                	jalr	sp
 56c:	0950                	addi	a2,sp,148
 56e:	0000014b          	fnmsub.s	ft2,ft0,ft0,ft0,rne
 572:	1201                	addi	tp,tp,-32
 574:	2d19                	addiw	s10,s10,6
 576:	0000                	unimp
 578:	0200                	addi	s0,sp,256
 57a:	4891                	li	a7,4
 57c:	3a09                	addiw	s4,s4,-30
 57e:	0001                	nop
 580:	0100                	addi	s0,sp,128
 582:	002d1013          	slli	zero,s10,0x2
 586:	0000                	unimp
 588:	9102                	jalr	sp
 58a:	0940                	addi	s0,sp,148
 58c:	00000143          	fmadd.s	ft2,ft0,ft0,ft0,rne
 590:	1301                	addi	t1,t1,-32
 592:	2d1a                	fld	fs10,384(sp)
 594:	0000                	unimp
 596:	0200                	addi	s0,sp,256
 598:	6891                	lui	a7,0x4
 59a:	0a00                	addi	s0,sp,272
 59c:	0504                	addi	s1,sp,640
 59e:	6e69                	lui	t3,0x1a
 5a0:	0074                	addi	a3,sp,12
 5a2:	0500                	addi	s0,sp,640
 5a4:	04000003          	lb	zero,64(zero) # 40 <__bin_size-0x6fc0>
 5a8:	7200                	ld	s0,32(a2)
 5aa:	0001                	nop
 5ac:	0800                	addi	s0,sp,16
 5ae:	1a01                	addi	s4,s4,-32
 5b0:	0000                	unimp
 5b2:	0c00                	addi	s0,sp,528
 5b4:	01a1                	addi	gp,gp,8
 5b6:	0000                	unimp
 5b8:	008a                	slli	ra,ra,0x2
 5ba:	0000                	unimp
 5bc:	05bc                	addi	a5,sp,712
 5be:	0002                	c.slli64	zero
 5c0:	0000                	unimp
 5c2:	0000                	unimp
 5c4:	0134                	addi	a3,sp,136
 5c6:	0000                	unimp
 5c8:	0000                	unimp
 5ca:	0000                	unimp
 5cc:	050d                	addi	a0,a0,3
 5ce:	0000                	unimp
 5d0:	9302                	jalr	t1
 5d2:	0001                	nop
 5d4:	0800                	addi	s0,sp,16
 5d6:	0201                	addi	tp,tp,0
 5d8:	080d                	addi	a6,a6,3
 5da:	01cd                	addi	gp,gp,19
 5dc:	0000                	unimp
 5de:	0001b003          	ld	zero,0(gp)
 5e2:	0200                	addi	s0,sp,256
 5e4:	01cd100f          	0x1cd100f
 5e8:	0000                	unimp
 5ea:	0400                	addi	s0,sp,512
 5ec:	6172                	ld	sp,280(sp)
 5ee:	0200                	addi	s0,sp,256
 5f0:	1010                	addi	a2,sp,32
 5f2:	01cd                	addi	gp,gp,19
 5f4:	0000                	unimp
 5f6:	0408                	addi	a0,sp,512
 5f8:	02007073          	csrci	0x20,0
 5fc:	1011                	c.nop	-28
 5fe:	01cd                	addi	gp,gp,19
 600:	0000                	unimp
 602:	0410                	addi	a2,sp,512
 604:	02007067          	0x2007067
 608:	1012                	c.slli	zero,0x24
 60a:	01cd                	addi	gp,gp,19
 60c:	0000                	unimp
 60e:	0418                	addi	a4,sp,512
 610:	7074                	ld	a3,224(s0)
 612:	0200                	addi	s0,sp,256
 614:	01cd1013          	slli	zero,s10,0x1c
 618:	0000                	unimp
 61a:	0420                	addi	s0,sp,520
 61c:	3074                	fld	fa3,224(s0)
 61e:	0200                	addi	s0,sp,256
 620:	1014                	addi	a3,sp,32
 622:	01cd                	addi	gp,gp,19
 624:	0000                	unimp
 626:	0428                	addi	a0,sp,520
 628:	3174                	fld	fa3,224(a0)
 62a:	0200                	addi	s0,sp,256
 62c:	1015                	c.nop	-27
 62e:	01cd                	addi	gp,gp,19
 630:	0000                	unimp
 632:	0430                	addi	a2,sp,520
 634:	3274                	fld	fa3,224(a2)
 636:	0200                	addi	s0,sp,256
 638:	1016                	c.slli	zero,0x25
 63a:	01cd                	addi	gp,gp,19
 63c:	0000                	unimp
 63e:	0438                	addi	a4,sp,520
 640:	02003073          	csrc	0x20,zero
 644:	01cd1017          	auipc	zero,0x1cd1
 648:	0000                	unimp
 64a:	0440                	addi	s0,sp,516
 64c:	02003173          	csrrc	sp,0x20,zero
 650:	1018                	addi	a4,sp,32
 652:	01cd                	addi	gp,gp,19
 654:	0000                	unimp
 656:	0448                	addi	a0,sp,516
 658:	3061                	0x3061
 65a:	0200                	addi	s0,sp,256
 65c:	1019                	c.nop	-26
 65e:	01cd                	addi	gp,gp,19
 660:	0000                	unimp
 662:	0450                	addi	a2,sp,516
 664:	3161                	addiw	sp,sp,-8
 666:	0200                	addi	s0,sp,256
 668:	101a                	c.slli	zero,0x26
 66a:	01cd                	addi	gp,gp,19
 66c:	0000                	unimp
 66e:	0458                	addi	a4,sp,516
 670:	3261                	addiw	tp,tp,-8
 672:	0200                	addi	s0,sp,256
 674:	01cd101b          	slliw	zero,s10,0x1c
 678:	0000                	unimp
 67a:	0460                	addi	s0,sp,524
 67c:	3361                	addiw	t1,t1,-8
 67e:	0200                	addi	s0,sp,256
 680:	101c                	addi	a5,sp,32
 682:	01cd                	addi	gp,gp,19
 684:	0000                	unimp
 686:	0468                	addi	a0,sp,524
 688:	3461                	addiw	s0,s0,-8
 68a:	0200                	addi	s0,sp,256
 68c:	101d                	c.nop	-25
 68e:	01cd                	addi	gp,gp,19
 690:	0000                	unimp
 692:	0470                	addi	a2,sp,524
 694:	3561                	addiw	a0,a0,-8
 696:	0200                	addi	s0,sp,256
 698:	101e                	c.slli	zero,0x27
 69a:	01cd                	addi	gp,gp,19
 69c:	0000                	unimp
 69e:	0478                	addi	a4,sp,524
 6a0:	3661                	addiw	a2,a2,-8
 6a2:	0200                	addi	s0,sp,256
 6a4:	101f 01cd 0000      	0x1cd101f
 6aa:	0480                	addi	s0,sp,576
 6ac:	3761                	addiw	a4,a4,-8
 6ae:	0200                	addi	s0,sp,256
 6b0:	1020                	addi	s0,sp,40
 6b2:	01cd                	addi	gp,gp,19
 6b4:	0000                	unimp
 6b6:	0488                	addi	a0,sp,576
 6b8:	02003273          	csrrc	tp,0x20,zero
 6bc:	1021                	c.nop	-24
 6be:	01cd                	addi	gp,gp,19
 6c0:	0000                	unimp
 6c2:	0490                	addi	a2,sp,576
 6c4:	02003373          	csrrc	t1,0x20,zero
 6c8:	1022                	c.slli	zero,0x28
 6ca:	01cd                	addi	gp,gp,19
 6cc:	0000                	unimp
 6ce:	0498                	addi	a4,sp,576
 6d0:	02003473          	csrrc	s0,0x20,zero
 6d4:	01cd1023          	sh	t3,0(s10)
 6d8:	0000                	unimp
 6da:	04a0                	addi	s0,sp,584
 6dc:	02003573          	csrrc	a0,0x20,zero
 6e0:	1024                	addi	s1,sp,40
 6e2:	01cd                	addi	gp,gp,19
 6e4:	0000                	unimp
 6e6:	04a8                	addi	a0,sp,584
 6e8:	02003673          	csrrc	a2,0x20,zero
 6ec:	1025                	c.nop	-23
 6ee:	01cd                	addi	gp,gp,19
 6f0:	0000                	unimp
 6f2:	04b0                	addi	a2,sp,584
 6f4:	02003773          	csrrc	a4,0x20,zero
 6f8:	1026                	c.slli	zero,0x29
 6fa:	01cd                	addi	gp,gp,19
 6fc:	0000                	unimp
 6fe:	04b8                	addi	a4,sp,584
 700:	02003873          	csrrc	a6,0x20,zero
 704:	01cd1027          	fsh	ft8,0(s10)
 708:	0000                	unimp
 70a:	04c0                	addi	s0,sp,580
 70c:	02003973          	csrrc	s2,0x20,zero
 710:	1028                	addi	a0,sp,40
 712:	01cd                	addi	gp,gp,19
 714:	0000                	unimp
 716:	04c8                	addi	a0,sp,580
 718:	00303173          	csrrc	sp,fcsr,zero
 71c:	2902                	fld	fs2,0(sp)
 71e:	cd10                	sw	a2,24(a0)
 720:	0001                	nop
 722:	d000                	sw	s0,32(s0)
 724:	7304                	ld	s1,32(a4)
 726:	3131                	addiw	sp,sp,-20
 728:	0200                	addi	s0,sp,256
 72a:	102a                	c.slli	zero,0x2a
 72c:	01cd                	addi	gp,gp,19
 72e:	0000                	unimp
 730:	04d8                	addi	a4,sp,580
 732:	3374                	fld	fa3,224(a4)
 734:	0200                	addi	s0,sp,256
 736:	01cd102b          	0x1cd102b
 73a:	0000                	unimp
 73c:	04e0                	addi	s0,sp,588
 73e:	3474                	fld	fa3,232(s0)
 740:	0200                	addi	s0,sp,256
 742:	102c                	addi	a1,sp,40
 744:	01cd                	addi	gp,gp,19
 746:	0000                	unimp
 748:	04e8                	addi	a0,sp,588
 74a:	3574                	fld	fa3,232(a0)
 74c:	0200                	addi	s0,sp,256
 74e:	102d                	c.nop	-21
 750:	01cd                	addi	gp,gp,19
 752:	0000                	unimp
 754:	04f0                	addi	a2,sp,588
 756:	3674                	fld	fa3,232(a2)
 758:	0200                	addi	s0,sp,256
 75a:	102e                	c.slli	zero,0x2b
 75c:	01cd                	addi	gp,gp,19
 75e:	0000                	unimp
 760:	05f8                	addi	a4,sp,716
 762:	01d4                	addi	a3,sp,196
 764:	0000                	unimp
 766:	3002                	fld	ft0,32(sp)
 768:	cd10                	sw	a2,24(a0)
 76a:	0001                	nop
 76c:	0000                	unimp
 76e:	0001                	nop
 770:	0806                	slli	a6,a6,0x1
 772:	00027e07          	vle64.v	v28,(tp),v0.t
 776:	0700                	addi	s0,sp,896
 778:	01b5                	addi	gp,gp,13
 77a:	0000                	unimp
 77c:	2901                	sext.w	s2,s2
 77e:	b406                	fsd	ft1,40(sp)
 780:	0206                	slli	tp,tp,0x1
 782:	0000                	unimp
 784:	0000                	unimp
 786:	3c00                	fld	fs0,56(s0)
 788:	0000                	unimp
 78a:	0000                	unimp
 78c:	0000                	unimp
 78e:	0100                	addi	s0,sp,128
 790:	399c                	fld	fa5,48(a1)
 792:	0002                	c.slli64	zero
 794:	0800                	addi	s0,sp,16
 796:	06c0                	addi	s0,sp,836
 798:	0002                	c.slli64	zero
 79a:	0000                	unimp
 79c:	0000                	unimp
 79e:	0014                	0x14
 7a0:	0000                	unimp
 7a2:	0000                	unimp
 7a4:	0000                	unimp
 7a6:	00000217          	auipc	tp,0x0
 7aa:	5f09                	li	t5,-30
 7ac:	765f 0100 132c      	0x132c0100765f
 7b2:	01cd                	addi	gp,gp,19
 7b4:	0000                	unimp
 7b6:	9102                	jalr	sp
 7b8:	0068                	addi	a0,sp,12
 7ba:	d40a                	sw	sp,40(sp)
 7bc:	0206                	slli	tp,tp,0x1
 7be:	0000                	unimp
 7c0:	0000                	unimp
 7c2:	0c00                	addi	s0,sp,528
 7c4:	0000                	unimp
 7c6:	0000                	unimp
 7c8:	0000                	unimp
 7ca:	0900                	addi	s0,sp,144
 7cc:	5f5f 0076 2e01      	0x2e0100765f5f
 7d2:	0001cd13          	xori	s10,gp,0
 7d6:	0200                	addi	s0,sp,256
 7d8:	6091                	lui	ra,0x4
 7da:	0000                	unimp
 7dc:	0001c30b          	lrb	t1,gp,zero,0
 7e0:	0100                	addi	s0,sp,128
 7e2:	0619                	addi	a2,a2,6
 7e4:	0640                	addi	s0,sp,772
 7e6:	0002                	c.slli64	zero
 7e8:	0000                	unimp
 7ea:	0000                	unimp
 7ec:	0074                	addi	a3,sp,12
 7ee:	0000                	unimp
 7f0:	0000                	unimp
 7f2:	0000                	unimp
 7f4:	9c01                	subw	s0,s0,s0
 7f6:	02a5                	addi	t0,t0,9
 7f8:	0000                	unimp
 7fa:	9c0c                	0x9c0c
 7fc:	0001                	nop
 7fe:	0100                	addi	s0,sp,128
 800:	2d19                	addiw	s10,s10,6
 802:	02a5                	addi	t0,t0,9
 804:	0000                	unimp
 806:	9102                	jalr	sp
 808:	0d48                	addi	a0,sp,660
 80a:	018c                	addi	a1,sp,192
 80c:	0000                	unimp
 80e:	1b01                	addi	s6,s6,-32
 810:	cd10                	sw	a2,24(a0)
 812:	0001                	nop
 814:	0200                	addi	s0,sp,256
 816:	5891                	li	a7,-28
 818:	830d                	srli	a4,a4,0x3
 81a:	0001                	nop
 81c:	0100                	addi	s0,sp,128
 81e:	101c                	addi	a5,sp,32
 820:	01cd                	addi	gp,gp,19
 822:	0000                	unimp
 824:	9102                	jalr	sp
 826:	0a50                	addi	a2,sp,276
 828:	0658                	addi	a4,sp,772
 82a:	0002                	c.slli64	zero
 82c:	0000                	unimp
 82e:	0000                	unimp
 830:	000c                	0xc
 832:	0000                	unimp
 834:	0000                	unimp
 836:	0000                	unimp
 838:	5f09                	li	t5,-30
 83a:	765f 0100 331b      	0x331b0100765f
 840:	01cd                	addi	gp,gp,19
 842:	0000                	unimp
 844:	5901                	li	s2,-32
 846:	0000                	unimp
 848:	080e                	slli	a6,a6,0x3
 84a:	002d                	c.nop	11
 84c:	0000                	unimp
 84e:	0001720f          	0x1720f
 852:	0100                	addi	s0,sp,128
 854:	02fa0c07          	0x2fa0c07
 858:	0000                	unimp
 85a:	05bc                	addi	a5,sp,712
 85c:	0002                	c.slli64	zero
 85e:	0000                	unimp
 860:	0000                	unimp
 862:	0084                	addi	s1,sp,64
 864:	0000                	unimp
 866:	0000                	unimp
 868:	0000                	unimp
 86a:	9c01                	subw	s0,s0,s0
 86c:	02fa                	slli	t0,t0,0x1e
 86e:	0000                	unimp
 870:	6910                	ld	a2,16(a0)
 872:	0064                	addi	s1,sp,12
 874:	0701                	addi	a4,a4,0
 876:	012a                	slli	sp,sp,0xa
 878:	02000003          	lb	zero,32(zero) # 20 <__bin_size-0x6fe0>
 87c:	5c91                	li	s9,-28
 87e:	9c0c                	0x9c0c
 880:	0001                	nop
 882:	0100                	addi	s0,sp,128
 884:	02a54407          	flq	fs0,42(a0)
 888:	0000                	unimp
 88a:	9102                	jalr	sp
 88c:	0950                	addi	a2,sp,148
 88e:	6572                	ld	a0,280(sp)
 890:	0074                	addi	a3,sp,12
 892:	0901                	addi	s2,s2,0
 894:	fa06                	sd	ra,304(sp)
 896:	0002                	c.slli64	zero
 898:	0200                	addi	s0,sp,256
 89a:	6c91                	lui	s9,0x4
 89c:	1100                	addi	s0,sp,160
 89e:	0504                	addi	s1,sp,640
 8a0:	6e69                	lui	t3,0x1a
 8a2:	0074                	addi	a3,sp,12
 8a4:	0406                	slli	s0,s0,0x1
 8a6:	00028307          	vle8.v	v6,(t0),v0.t
 8aa:	0000                	unimp
 8ac:	04f5                	addi	s1,s1,29
 8ae:	0000                	unimp
 8b0:	0004                	0x4
 8b2:	0295                	addi	t0,t0,5
 8b4:	0000                	unimp
 8b6:	0108                	addi	a0,sp,128
 8b8:	001a                	c.slli	zero,0x6
 8ba:	0000                	unimp
 8bc:	130c                	addi	a1,sp,416
 8be:	0002                	c.slli64	zero
 8c0:	8a00                	0x8a00
 8c2:	0000                	unimp
 8c4:	f000                	sd	s0,32(s0)
 8c6:	0206                	slli	tp,tp,0x1
 8c8:	0000                	unimp
 8ca:	0000                	unimp
 8cc:	4000                	lw	s0,0(s0)
 8ce:	000a                	c.slli	zero,0x2
 8d0:	0000                	unimp
 8d2:	0000                	unimp
 8d4:	2900                	fld	fs0,16(a0)
 8d6:	0006                	c.slli	zero,0x1
 8d8:	0200                	addi	s0,sp,256
 8da:	0601                	addi	a2,a2,0
 8dc:	0200                	addi	s0,sp,256
 8de:	0000                	unimp
 8e0:	00029803          	lh	a6,0(t0)
 8e4:	0300                	addi	s0,sp,384
 8e6:	1709                	addi	a4,a4,-30
 8e8:	0040                	addi	s0,sp,4
 8ea:	0000                	unimp
 8ec:	0102                	c.slli64	sp
 8ee:	fe08                	sd	a0,56(a2)
 8f0:	0001                	nop
 8f2:	0200                	addi	s0,sp,256
 8f4:	0502                	c.slli64	a0
 8f6:	02dc                	addi	a5,sp,324
 8f8:	0000                	unimp
 8fa:	0202                	c.slli64	tp
 8fc:	00022207          	flw	ft4,0(tp) # 7a6 <__bin_size-0x685a>
 900:	0400                	addi	s0,sp,512
 902:	0504                	addi	s1,sp,640
 904:	6e69                	lui	t3,0x1a
 906:	0074                	addi	a3,sp,12
 908:	00026e03          	lwu	t3,0(tp) # 0 <__bin_size-0x7000>
 90c:	0300                	addi	s0,sp,384
 90e:	0068160f          	0x68160f
 912:	0000                	unimp
 914:	0402                	c.slli64	s0
 916:	00028307          	vle8.v	v6,(t0),v0.t
 91a:	0200                	addi	s0,sp,256
 91c:	0508                	addi	a0,sp,640
 91e:	000002b7          	lui	t0,0x0
 922:	0802                	c.slli64	a6
 924:	00027907          	vle64.v	v18,(tp),v0.t
 928:	0200                	addi	s0,sp,256
 92a:	0508                	addi	a0,sp,640
 92c:	02bc                	addi	a5,sp,328
 92e:	0000                	unimp
 930:	0802                	c.slli64	a6
 932:	00027e07          	vle64.v	v28,(tp),v0.t
 936:	0300                	addi	s0,sp,384
 938:	0000023f 761c2403 	0x761c24030000023f
 940:	0000                	unimp
 942:	0300                	addi	s0,sp,384
 944:	01e6                	slli	gp,gp,0x19
 946:	0000                	unimp
 948:	0804                	addi	s1,sp,16
 94a:	0000a31b          	0xa31b
 94e:	0500                	addi	s0,sp,640
 950:	dc08                	sw	a0,56(s0)
 952:	0001                	nop
 954:	0300                	addi	s0,sp,384
 956:	000002fb          	0x2fb
 95a:	1105                	addi	sp,sp,-31
 95c:	00005c0f          	0x5c0f
 960:	0600                	addi	s0,sp,768
 962:	0235                	addi	tp,tp,13
 964:	0000                	unimp
 966:	e702                	sd	zero,392(sp)
 968:	6006                	0x6006
 96a:	0210                	addi	a2,sp,256
 96c:	0000                	unimp
 96e:	0000                	unimp
 970:	d000                	sw	s0,32(s0)
 972:	0000                	unimp
 974:	0000                	unimp
 976:	0000                	unimp
 978:	0100                	addi	s0,sp,128
 97a:	ff9c                	sd	a5,56(a5)
 97c:	0000                	unimp
 97e:	0700                	addi	s0,sp,896
 980:	6176                	ld	sp,344(sp)
 982:	006c                	addi	a1,sp,12
 984:	e702                	sd	zero,392(sp)
 986:	681d                	lui	a6,0x7
 988:	0000                	unimp
 98a:	0200                	addi	s0,sp,256
 98c:	5c91                	li	s9,-28
 98e:	6908                	ld	a0,16(a0)
 990:	0200                	addi	s0,sp,256
 992:	09e9                	addi	s3,s3,26
 994:	0055                	c.nop	21
 996:	0000                	unimp
 998:	9102                	jalr	sp
 99a:	096c                	addi	a1,sp,156
 99c:	02cd                	addi	t0,t0,19
 99e:	0000                	unimp
 9a0:	ea02                	sd	zero,272(sp)
 9a2:	5509                	li	a0,-30
 9a4:	0000                	unimp
 9a6:	0200                	addi	s0,sp,256
 9a8:	6891                	lui	a7,0x4
 9aa:	0a00                	addi	s0,sp,272
 9ac:	000002a7          	vse8.v	v5,(zero),v0.t
 9b0:	da02                	sw	zero,52(sp)
 9b2:	5505                	li	a0,-31
 9b4:	0000                	unimp
 9b6:	f400                	sd	s0,40(s0)
 9b8:	0000020f          	0x20f
 9bc:	0000                	unimp
 9be:	6c00                	ld	s0,24(s0)
 9c0:	0000                	unimp
 9c2:	0000                	unimp
 9c4:	0000                	unimp
 9c6:	0100                	addi	s0,sp,128
 9c8:	429c                	lw	a5,0(a3)
 9ca:	0001                	nop
 9cc:	0700                	addi	s0,sp,896
 9ce:	6d66                	ld	s10,88(sp)
 9d0:	0074                	addi	a3,sp,12
 9d2:	da02                	sw	zero,52(sp)
 9d4:	4222                	lw	tp,8(sp)
 9d6:	0001                	nop
 9d8:	0300                	addi	s0,sp,384
 9da:	9891                	andi	s1,s1,-28
 9dc:	76080b7f          	0x76080b7f
 9e0:	0061                	c.nop	24
 9e2:	dd02                	sw	zero,184(sp)
 9e4:	970a                	add	a4,a4,sp
 9e6:	0000                	unimp
 9e8:	0300                	addi	s0,sp,384
 9ea:	a891                	j	a3e <__bin_size-0x65c2>
 9ec:	080c007f          	0x80c007f
 9f0:	0000014f          	fnmadd.s	ft2,ft0,ft0,ft0,rne
 9f4:	0102                	c.slli64	sp
 9f6:	0708                	addi	a0,sp,896
 9f8:	0002                	c.slli64	zero
 9fa:	0d00                	addi	s0,sp,656
 9fc:	0148                	addi	a0,sp,132
 9fe:	0000                	unimp
 a00:	760e                	ld	a2,224(sp)
 a02:	6670                	ld	a2,200(a2)
 a04:	0200                	addi	s0,sp,256
 a06:	0cb5                	addi	s9,s9,13
 a08:	0055                	c.nop	21
 a0a:	0000                	unimp
 a0c:	0e20                	addi	s0,sp,792
 a0e:	0002                	c.slli64	zero
 a10:	0000                	unimp
 a12:	0000                	unimp
 a14:	01d4                	addi	a3,sp,196
 a16:	0000                	unimp
 a18:	0000                	unimp
 a1a:	0000                	unimp
 a1c:	9c01                	subw	s0,s0,s0
 a1e:	0000020f          	0x20f
 a22:	746d6607          	0x746d6607
 a26:	0200                	addi	s0,sp,256
 a28:	1db5                	addi	s11,s11,-19
 a2a:	0142                	slli	sp,sp,0x10
 a2c:	0000                	unimp
 a2e:	7fb89103          	lh	sp,2043(a7) # 47fb <__bin_size-0x2805>
 a32:	00617607          	0x617607
 a36:	b502                	fsd	ft0,168(sp)
 a38:	972a                	add	a4,a4,a0
 a3a:	0000                	unimp
 a3c:	0300                	addi	s0,sp,384
 a3e:	b091                	j	282 <__bin_size-0x6d7e>
 a40:	0070087f          	0x70087f
 a44:	b702                	fsd	ft0,424(sp)
 a46:	0001420f          	0x1420f
 a4a:	0200                	addi	s0,sp,256
 a4c:	6891                	lui	a7,0x4
 a4e:	7108                	ld	a0,32(a0)
 a50:	0200                	addi	s0,sp,256
 a52:	014214b7          	lui	s1,0x1421
 a56:	0000                	unimp
 a58:	9102                	jalr	sp
 a5a:	0860                	addi	s0,sp,28
 a5c:	0066                	c.slli	zero,0x19
 a5e:	b802                	fsd	ft0,48(sp)
 a60:	5506                	lw	a0,96(sp)
 a62:	0000                	unimp
 a64:	0200                	addi	s0,sp,256
 a66:	5c91                	li	s9,-28
 a68:	6308                	ld	a0,0(a4)
 a6a:	0200                	addi	s0,sp,256
 a6c:	09b8                	addi	a4,sp,216
 a6e:	0055                	c.nop	21
 a70:	0000                	unimp
 a72:	9102                	jalr	sp
 a74:	0850                	addi	a2,sp,20
 a76:	6176                	ld	sp,344(sp)
 a78:	0069                	c.nop	26
 a7a:	b802                	fsd	ft0,48(sp)
 a7c:	550c                	lw	a1,40(a0)
 a7e:	0000                	unimp
 a80:	0200                	addi	s0,sp,256
 a82:	4891                	li	a7,4
 a84:	7008                	ld	a0,32(s0)
 a86:	006c                	addi	a1,sp,12
 a88:	b802                	fsd	ft0,48(sp)
 a8a:	5511                	li	a0,-28
 a8c:	0000                	unimp
 a8e:	0200                	addi	s0,sp,256
 a90:	4491                	li	s1,4
 a92:	7008                	ld	a0,32(s0)
 a94:	b8020063          	beqz	tp,fffffffffffffe14 <bss_begin+0xfffffffffffd8e14>
 a98:	5515                	li	a0,-27
 a9a:	0000                	unimp
 a9c:	0200                	addi	s0,sp,256
 a9e:	5491                	li	s1,-28
 aa0:	6908                	ld	a0,16(a0)
 aa2:	0200                	addi	s0,sp,256
 aa4:	19b8                	addi	a4,sp,248
 aa6:	0055                	c.nop	21
 aa8:	0000                	unimp
 aaa:	9102                	jalr	sp
 aac:	0858                	addi	a4,sp,20
 aae:	0074                	addi	a3,sp,12
 ab0:	b902                	fsd	ft0,176(sp)
 ab2:	4010                	lw	a2,0(s0)
 ab4:	0000                	unimp
 ab6:	0200                	addi	s0,sp,256
 ab8:	4f91                	li	t6,4
 aba:	0f00                	addi	s0,sp,912
 abc:	02e6                	slli	t0,t0,0x19
 abe:	0000                	unimp
 ac0:	9102                	jalr	sp
 ac2:	580d                	li	a6,-29
 ac4:	020c                	addi	a1,sp,256
 ac6:	0000                	unimp
 ac8:	0000                	unimp
 aca:	c800                	sw	s0,16(s0)
 acc:	0001                	nop
 ace:	0000                	unimp
 ad0:	0000                	unimp
 ad2:	0100                	addi	s0,sp,128
 ad4:	b19c                	fsd	fa5,32(a1)
 ad6:	0002                	c.slli64	zero
 ad8:	0700                	addi	s0,sp,896
 ada:	0061                	c.nop	24
 adc:	9102                	jalr	sp
 ade:	a925                	j	f16 <__bin_size-0x60ea>
 ae0:	0000                	unimp
 ae2:	0300                	addi	s0,sp,384
 ae4:	bc91                	j	538 <__bin_size-0x6ac8>
 ae6:	7369077f          	0x7369077f
 aea:	0068                	addi	a0,sp,12
 aec:	9102                	jalr	sp
 aee:	552c                	lw	a1,104(a0)
 af0:	0000                	unimp
 af2:	0300                	addi	s0,sp,384
 af4:	b891                	j	348 <__bin_size-0x6cb8>
 af6:	6c70077f          	0x6c70077f
 afa:	0200                	addi	s0,sp,256
 afc:	3591                	addiw	a1,a1,-28
 afe:	0055                	c.nop	21
 b00:	0000                	unimp
 b02:	7fb49103          	lh	sp,2043(s1) # 14217fb <bss_begin+0x13fa7fb>
 b06:	00637007          	0x637007
 b0a:	9102                	jalr	sp
 b0c:	553d                	li	a0,-17
 b0e:	0000                	unimp
 b10:	0300                	addi	s0,sp,384
 b12:	b091                	j	356 <__bin_size-0x6caa>
 b14:	7562087f          	0x7562087f
 b18:	0066                	c.slli	zero,0x19
 b1a:	9302                	jalr	t1
 b1c:	0002b107          	fld	ft2,0(t0) # 0 <__bin_size-0x7000>
 b20:	0200                	addi	s0,sp,256
 b22:	4091                	li	ra,4
 b24:	7409                	lui	s0,0xfffe2
 b26:	0002                	c.slli64	zero
 b28:	0200                	addi	s0,sp,256
 b2a:	0b94                	addi	a3,sp,464
 b2c:	00a9                	addi	ra,ra,10
 b2e:	0000                	unimp
 b30:	9102                	jalr	sp
 b32:	086c                	addi	a1,sp,28
 b34:	6469                	lui	s0,0x1a
 b36:	0078                	addi	a4,sp,12
 b38:	9502                	jalr	a0
 b3a:	5506                	lw	a0,96(sp)
 b3c:	0000                	unimp
 b3e:	0200                	addi	s0,sp,256
 b40:	6891                	lui	a7,0x4
 b42:	6908                	ld	a0,16(a0)
 b44:	0200                	addi	s0,sp,256
 b46:	0b95                	addi	s7,s7,5
 b48:	0055                	c.nop	21
 b4a:	0000                	unimp
 b4c:	9102                	jalr	sp
 b4e:	0864                	addi	s1,sp,28
 b50:	0074                	addi	a3,sp,12
 b52:	9502                	jalr	a0
 b54:	550e                	lw	a0,224(sp)
 b56:	0000                	unimp
 b58:	0200                	addi	s0,sp,256
 b5a:	6091                	lui	ra,0x4
 b5c:	1000                	addi	s0,sp,32
 b5e:	0148                	addi	a0,sp,132
 b60:	0000                	unimp
 b62:	02c1                	addi	t0,t0,16
 b64:	0000                	unimp
 b66:	8411                	srai	s0,s0,0x4
 b68:	0000                	unimp
 b6a:	1f00                	addi	s0,sp,944
 b6c:	1200                	addi	s0,sp,288
 b6e:	025f 0000 7e02      	0x7e020000025f
 b74:	550c                	lw	a1,40(a0)
 b76:	0000                	unimp
 b78:	6800                	ld	s0,16(s0)
 b7a:	0000020b          	0x20b
 b7e:	0000                	unimp
 b80:	f000                	sd	s0,32(s0)
 b82:	0000                	unimp
 b84:	0000                	unimp
 b86:	0000                	unimp
 b88:	0100                	addi	s0,sp,128
 b8a:	3a9c                	fld	fa5,48(a3)
 b8c:	07000003          	lb	zero,112(zero) # 70 <__bin_size-0x6f90>
 b90:	6d66                	ld	s10,88(sp)
 b92:	0074                	addi	a3,sp,12
 b94:	7e02                	ld	t3,32(sp)
 b96:	4228                	lw	a0,64(a2)
 b98:	0001                	nop
 b9a:	0200                	addi	s0,sp,256
 b9c:	4891                	li	a7,4
 b9e:	6d756e07          	vloxseg4ei32.v	v28,(a0),v23,v0.t
 ba2:	0200                	addi	s0,sp,256
 ba4:	337e                	fld	ft6,504(sp)
 ba6:	033a                	slli	t1,t1,0xe
 ba8:	0000                	unimp
 baa:	9102                	jalr	sp
 bac:	0840                	addi	s0,sp,20
 bae:	0070                	addi	a2,sp,12
 bb0:	8002                	0x8002
 bb2:	0001420f          	0x1420f
 bb6:	0200                	addi	s0,sp,256
 bb8:	6891                	lui	a7,0x4
 bba:	7208                	ld	a0,32(a2)
 bbc:	7365                	lui	t1,0xffff9
 bbe:	0200                	addi	s0,sp,256
 bc0:	0681                	addi	a3,a3,0
 bc2:	0055                	c.nop	21
 bc4:	0000                	unimp
 bc6:	9102                	jalr	sp
 bc8:	0864                	addi	s1,sp,28
 bca:	0064                	addi	s1,sp,12
 bcc:	8102                	jr	sp
 bce:	0000550b          	srb	a0,zero,zero,0
 bd2:	0200                	addi	s0,sp,256
 bd4:	5c91                	li	s9,-28
 bd6:	6908                	ld	a0,16(a0)
 bd8:	02006473          	csrrsi	s0,0x20,0
 bdc:	0e81                	addi	t4,t4,0
 bde:	0055                	c.nop	21
 be0:	0000                	unimp
 be2:	9102                	jalr	sp
 be4:	0060                	addi	s0,sp,12
 be6:	080c                	addi	a1,sp,16
 be8:	0055                	c.nop	21
 bea:	0000                	unimp
 bec:	4e06                	lw	t3,64(sp)
 bee:	0002                	c.slli64	zero
 bf0:	0200                	addi	s0,sp,256
 bf2:	0672                	slli	a2,a2,0x1c
 bf4:	0ad8                	addi	a4,sp,340
 bf6:	0002                	c.slli64	zero
 bf8:	0000                	unimp
 bfa:	0000                	unimp
 bfc:	0090                	addi	a2,sp,64
 bfe:	0000                	unimp
 c00:	0000                	unimp
 c02:	0000                	unimp
 c04:	9c01                	subw	s0,s0,s0
 c06:	0000037b          	0x37b
 c0a:	72747307          	0x72747307
 c0e:	0200                	addi	s0,sp,256
 c10:	1d72                	slli	s10,s10,0x3c
 c12:	0000037b          	0x37b
 c16:	9102                	jalr	sp
 c18:	0858                	addi	a4,sp,20
 c1a:	0069                	c.nop	26
 c1c:	7402                	ld	s0,32(sp)
 c1e:	5509                	li	a0,-30
 c20:	0000                	unimp
 c22:	0200                	addi	s0,sp,256
 c24:	6c91                	lui	s9,0x4
 c26:	0c00                	addi	s0,sp,528
 c28:	4808                	lw	a0,16(s0)
 c2a:	0001                	nop
 c2c:	0a00                	addi	s0,sp,272
 c2e:	029d                	addi	t0,t0,7
 c30:	0000                	unimp
 c32:	6a02                	ld	s4,0(sp)
 c34:	4806                	lw	a6,64(sp)
 c36:	0001                	nop
 c38:	7800                	ld	s0,48(s0)
 c3a:	020a                	slli	tp,tp,0x2
 c3c:	0000                	unimp
 c3e:	0000                	unimp
 c40:	6000                	ld	s0,0(s0)
 c42:	0000                	unimp
 c44:	0000                	unimp
 c46:	0000                	unimp
 c48:	0100                	addi	s0,sp,128
 c4a:	b39c                	fsd	fa5,32(a5)
 c4c:	09000003          	lb	zero,144(zero) # 90 <__bin_size-0x6f70>
 c50:	0146                	slli	sp,sp,0x11
 c52:	0000                	unimp
 c54:	6c02                	ld	s8,0(sp)
 c56:	8b11                	andi	a4,a4,4
 c58:	0000                	unimp
 c5a:	0200                	addi	s0,sp,256
 c5c:	6891                	lui	a7,0x4
 c5e:	0a00                	addi	s0,sp,272
 c60:	0290                	addi	a2,sp,320
 c62:	0000                	unimp
 c64:	6402                	ld	s0,0(sp)
 c66:	5505                	li	a0,-31
 c68:	0000                	unimp
 c6a:	3800                	fld	fs0,48(s0)
 c6c:	020a                	slli	tp,tp,0x2
 c6e:	0000                	unimp
 c70:	0000                	unimp
 c72:	4000                	lw	s0,0(s0)
 c74:	0000                	unimp
 c76:	0000                	unimp
 c78:	0000                	unimp
 c7a:	0100                	addi	s0,sp,128
 c7c:	e39c                	sd	a5,0(a5)
 c7e:	07000003          	lb	zero,112(zero) # 70 <__bin_size-0x6f90>
 c82:	64020063          	beqz	tp,12c2 <__bin_size-0x5d3e>
 c86:	5511                	li	a0,-28
 c88:	0000                	unimp
 c8a:	0200                	addi	s0,sp,256
 c8c:	6c91                	lui	s9,0x4
 c8e:	0600                	addi	s0,sp,768
 c90:	02d2                	slli	t0,t0,0x14
 c92:	0000                	unimp
 c94:	5c02                	lw	s8,32(sp)
 c96:	c806                	sw	ra,16(sp)
 c98:	0209                	addi	tp,tp,2
 c9a:	0000                	unimp
 c9c:	0000                	unimp
 c9e:	7000                	ld	s0,32(s0)
 ca0:	0000                	unimp
 ca2:	0000                	unimp
 ca4:	0000                	unimp
 ca6:	0100                	addi	s0,sp,128
 ca8:	1e9c                	addi	a5,sp,880
 caa:	0004                	0x4
 cac:	0700                	addi	s0,sp,896
 cae:	5c020063          	beqz	tp,126e <__bin_size-0x5d92>
 cb2:	4815                	li	a6,5
 cb4:	0001                	nop
 cb6:	0200                	addi	s0,sp,256
 cb8:	5f91                	li	t6,-28
 cba:	4609                	li	a2,2
 cbc:	0001                	nop
 cbe:	0200                	addi	s0,sp,256
 cc0:	115e                	slli	sp,sp,0x37
 cc2:	0000008b          	0x8b
 cc6:	9102                	jalr	sp
 cc8:	0068                	addi	a0,sp,12
 cca:	f406                	sd	ra,40(sp)
 ccc:	0001                	nop
 cce:	0200                	addi	s0,sp,256
 cd0:	061f 077c 0002      	0x2077c061f
 cd6:	0000                	unimp
 cd8:	0000                	unimp
 cda:	024c                	addi	a1,sp,260
 cdc:	0000                	unimp
 cde:	0000                	unimp
 ce0:	0000                	unimp
 ce2:	9c01                	subw	s0,s0,s0
 ce4:	0000045b          	0x45b
 ce8:	4609                	li	a2,2
 cea:	0001                	nop
 cec:	0200                	addi	s0,sp,256
 cee:	1121                	addi	sp,sp,-24
 cf0:	0000008b          	0x8b
 cf4:	9102                	jalr	sp
 cf6:	0868                	addi	a0,sp,28
 cf8:	6176                	ld	sp,344(sp)
 cfa:	006c                	addi	a1,sp,12
 cfc:	2202                	fld	ft4,0(sp)
 cfe:	5c08                	lw	a0,56(s0)
 d00:	0000                	unimp
 d02:	0200                	addi	s0,sp,256
 d04:	6491                	lui	s1,0x4
 d06:	1300                	addi	s0,sp,416
 d08:	02c5                	addi	t0,t0,17
 d0a:	0000                	unimp
 d0c:	2801                	sext.w	a6,a6
 d0e:	4814                	lw	a3,16(s0)
 d10:	00000207          	vle8.v	v4,(zero),v0.t
 d14:	0000                	unimp
 d16:	3400                	fld	fs0,40(s0)
 d18:	0000                	unimp
 d1a:	0000                	unimp
 d1c:	0000                	unimp
 d1e:	0100                	addi	s0,sp,128
 d20:	989c                	0x989c
 d22:	0004                	0x4
 d24:	1400                	addi	s0,sp,544
 d26:	0146                	slli	sp,sp,0x11
 d28:	0000                	unimp
 d2a:	2801                	sext.w	a6,a6
 d2c:	00008b2b          	0x8b2b
 d30:	0200                	addi	s0,sp,256
 d32:	6891                	lui	a7,0x4
 d34:	ee14                	sd	a3,24(a2)
 d36:	0001                	nop
 d38:	0100                	addi	s0,sp,128
 d3a:	3728                	fld	fa0,104(a4)
 d3c:	005c                	addi	a5,sp,4
 d3e:	0000                	unimp
 d40:	9102                	jalr	sp
 d42:	0064                	addi	s1,sp,12
 d44:	0c12                	slli	s8,s8,0x4
 d46:	0002                	c.slli64	zero
 d48:	0100                	addi	s0,sp,128
 d4a:	1514                	addi	a3,sp,672
 d4c:	005c                	addi	a5,sp,4
 d4e:	0000                	unimp
 d50:	071c                	addi	a5,sp,896
 d52:	0002                	c.slli64	zero
 d54:	0000                	unimp
 d56:	0000                	unimp
 d58:	002c                	addi	a1,sp,8
 d5a:	0000                	unimp
 d5c:	0000                	unimp
 d5e:	0000                	unimp
 d60:	9c01                	subw	s0,s0,s0
 d62:	04ca                	slli	s1,s1,0x12
 d64:	0000                	unimp
 d66:	4614                	lw	a3,8(a2)
 d68:	0001                	nop
 d6a:	0100                	addi	s0,sp,128
 d6c:	2b14                	fld	fa3,16(a4)
 d6e:	0000008b          	0x8b
 d72:	9102                	jalr	sp
 d74:	0068                	addi	a0,sp,12
 d76:	f515                	bnez	a0,ca2 <__bin_size-0x635e>
 d78:	0002                	c.slli64	zero
 d7a:	0100                	addi	s0,sp,128
 d7c:	140a                	slli	s0,s0,0x22
 d7e:	0034                	addi	a3,sp,8
 d80:	0000                	unimp
 d82:	06f0                	addi	a2,sp,844
 d84:	0002                	c.slli64	zero
 d86:	0000                	unimp
 d88:	0000                	unimp
 d8a:	002c                	addi	a1,sp,8
 d8c:	0000                	unimp
 d8e:	0000                	unimp
 d90:	0000                	unimp
 d92:	9c01                	subw	s0,s0,s0
 d94:	4614                	lw	a3,8(a2)
 d96:	0001                	nop
 d98:	0100                	addi	s0,sp,128
 d9a:	290a                	fld	fs2,128(sp)
 d9c:	0000008b          	0x8b
 da0:	9102                	jalr	sp
 da2:	0068                	addi	a0,sp,12
 da4:	2a00                	fld	fs0,16(a2)
 da6:	0000                	unimp
 da8:	0200                	addi	s0,sp,256
 daa:	0200                	addi	s0,sp,256
 dac:	0004                	0x4
 dae:	0800                	addi	s0,sp,16
 db0:	6901                	0x6901
 db2:	000d                	c.nop	3
 db4:	0000                	unimp
 db6:	0200                	addi	s0,sp,256
 db8:	0000                	unimp
 dba:	0000                	unimp
 dbc:	4c00                	lw	s0,24(s0)
 dbe:	0200                	addi	s0,sp,256
 dc0:	0000                	unimp
 dc2:	0000                	unimp
 dc4:	0400                	addi	s0,sp,512
 dc6:	13000003          	lb	zero,304(zero) # 130 <__bin_size-0x6ed0>
 dca:	62000003          	lb	zero,1568(zero) # 620 <__bin_size-0x69e0>
 dce:	01000003          	lb	zero,16(zero) # 10 <__bin_size-0x6ff0>
 dd2:	2a80                	fld	fs0,16(a3)
 dd4:	0000                	unimp
 dd6:	0200                	addi	s0,sp,256
 dd8:	1600                	addi	s0,sp,800
 dda:	0004                	0x4
 ddc:	0800                	addi	s0,sp,16
 dde:	ca01                	beqz	a2,dee <__bin_size-0x6212>
 de0:	000d                	c.nop	3
 de2:	3000                	fld	fs0,32(s0)
 de4:	0211                	addi	tp,tp,4
 de6:	0000                	unimp
 de8:	0000                	unimp
 dea:	5c00                	lw	s0,56(s0)
 dec:	0212                	slli	tp,tp,0x4
 dee:	0000                	unimp
 df0:	0000                	unimp
 df2:	6e00                	ld	s0,24(a2)
 df4:	13000003          	lb	zero,304(zero) # 130 <__bin_size-0x6ed0>
 df8:	62000003          	lb	zero,1568(zero) # 620 <__bin_size-0x69e0>
 dfc:	01000003          	lb	zero,16(zero) # 10 <__bin_size-0x6ff0>
 e00:	80              	Address 0x0000000000000e00 is out of bounds.


Disassembly of section .debug_abbrev:

0000000000000000 <.debug_abbrev>:
   0:	1101                	addi	sp,sp,-32
   2:	2501                	sext.w	a0,a0
   4:	130e                	slli	t1,t1,0x23
   6:	1b0e030b          	0x1b0e030b
   a:	110e                	slli	sp,sp,0x23
   c:	1201                	addi	tp,tp,-32
   e:	00171007          	flh	ft0,1(a4) # 18001 <__bin_size+0x11001>
  12:	0200                	addi	s0,sp,256
  14:	012e                	slli	sp,sp,0xb
  16:	0e03193f 0b3b0b3a 	0xb3b0b3a0e03193f
  1e:	0b39                	addi	s6,s6,14
  20:	13491927          	fsh	fs4,306(s2) # 1132 <__bin_size-0x5ece>
  24:	0111                	addi	sp,sp,4
  26:	0712                	slli	a4,a4,0x4
  28:	1840                	addi	s0,sp,52
  2a:	01194297          	auipc	t0,0x1194
  2e:	03000013          	li	zero,48
  32:	0005                	c.nop	1
  34:	0b3a0803          	lb	a6,179(s4)
  38:	0b390b3b          	0xb390b3b
  3c:	1349                	addi	t1,t1,-14
  3e:	1802                	slli	a6,a6,0x20
  40:	0000                	unimp
  42:	3404                	fld	fs1,40(s0)
  44:	0300                	addi	s0,sp,384
  46:	3a08                	fld	fa0,48(a2)
  48:	390b3b0b          	extu	s6,s6,14,16
  4c:	0213490b          	lrb	s2,t1,ra,1
  50:	0018                	0x18
  52:	0500                	addi	s0,sp,640
  54:	0024                	addi	s1,sp,8
  56:	0b3e0b0b          	0xb3e0b0b
  5a:	00000e03          	lb	t3,0(zero) # 0 <__bin_size-0x7000>
  5e:	2e06                	fld	ft8,64(sp)
  60:	3f01                	addiw	t5,t5,-32
  62:	0319                	addi	t1,t1,6
  64:	3a0e                	fld	fs4,224(sp)
  66:	390b3b0b          	extu	s6,s6,14,16
  6a:	1119270b          	ext	a4,s2,4,17
  6e:	1201                	addi	tp,tp,-32
  70:	97184007          	flq	ft0,-1679(a6) # 6971 <__bin_size-0x68f>
  74:	1942                	slli	s2,s2,0x30
  76:	1301                	addi	t1,t1,-32
  78:	0000                	unimp
  7a:	03000507          	vle8ff.v	v10,(zero)
  7e:	3a0e                	fld	fs4,224(sp)
  80:	390b3b0b          	extu	s6,s6,14,16
  84:	0213490b          	lrb	s2,t1,ra,1
  88:	0018                	0x18
  8a:	0800                	addi	s0,sp,16
  8c:	0111010b          	0x111010b
  90:	0712                	slli	a4,a4,0x4
  92:	1301                	addi	t1,t1,-32
  94:	0000                	unimp
  96:	0b09                	addi	s6,s6,2
  98:	1101                	addi	sp,sp,-32
  9a:	1201                	addi	tp,tp,-32
  9c:	0a000007          	vlse8.v	v0,(zero),zero
  a0:	0024                	addi	s1,sp,8
  a2:	0b3e0b0b          	0xb3e0b0b
  a6:	00000803          	lb	a6,0(zero) # 0 <__bin_size-0x7000>
  aa:	3f012e0b          	ext	t3,sp,15,48
  ae:	0319                	addi	t1,t1,6
  b0:	3a0e                	fld	fs4,224(sp)
  b2:	390b3b0b          	extu	s6,s6,14,16
  b6:	4919270b          	ext	a4,s2,18,17
  ba:	12011113          	0x12011113
  be:	97184007          	flq	ft0,-1679(a6)
  c2:	1942                	slli	s2,s2,0x30
  c4:	0000                	unimp
  c6:	0100                	addi	s0,sp,128
  c8:	0111                	addi	sp,sp,4
  ca:	0e25                	addi	t3,t3,9
  cc:	0e030b13          	addi	s6,t1,224 # ffffffffffff90e0 <bss_begin+0xfffffffffffd20e0>
  d0:	01110e1b          	addiw	t3,sp,17
  d4:	0712                	slli	a4,a4,0x4
  d6:	1710                	addi	a2,sp,928
  d8:	0000                	unimp
  da:	2402                	fld	fs0,0(sp)
  dc:	0b00                	addi	s0,sp,400
  de:	030b3e0b          	extu	t3,s6,0,48
  e2:	000e                	c.slli	zero,0x3
  e4:	0300                	addi	s0,sp,384
  e6:	012e                	slli	sp,sp,0xb
  e8:	0e03193f 0b3b0b3a 	0xb3b0b3a0e03193f
  f0:	0b39                	addi	s6,s6,14
  f2:	01111927          	fsh	fa7,18(sp)
  f6:	0712                	slli	a4,a4,0x4
  f8:	1840                	addi	s0,sp,52
  fa:	4296                	lw	t0,68(sp)
  fc:	0119                	addi	sp,sp,6
  fe:	04000013          	li	zero,64
 102:	0034                	addi	a3,sp,8
 104:	0b3a0803          	lb	a6,179(s4)
 108:	0b390b3b          	0xb390b3b
 10c:	1349                	addi	t1,t1,-14
 10e:	1802                	slli	a6,a6,0x20
 110:	0000                	unimp
 112:	0b05                	addi	s6,s6,1
 114:	1101                	addi	sp,sp,-32
 116:	1201                	addi	tp,tp,-32
 118:	00130107          	0x130107
 11c:	0600                	addi	s0,sp,768
 11e:	0111010b          	0x111010b
 122:	0712                	slli	a4,a4,0x4
 124:	0000                	unimp
 126:	3f012e07          	flw	ft8,1008(sp)
 12a:	0319                	addi	t1,t1,6
 12c:	3a0e                	fld	fs4,224(sp)
 12e:	390b3b0b          	extu	s6,s6,14,16
 132:	4919270b          	ext	a4,s2,18,17
 136:	12011113          	0x12011113
 13a:	96184007          	flq	ft0,-1695(a6)
 13e:	1942                	slli	s2,s2,0x30
 140:	1301                	addi	t1,t1,-32
 142:	0000                	unimp
 144:	0508                	addi	a0,sp,640
 146:	0300                	addi	s0,sp,384
 148:	3a0e                	fld	fs4,224(sp)
 14a:	390b3b0b          	extu	s6,s6,14,16
 14e:	0213490b          	lrb	s2,t1,ra,1
 152:	0018                	0x18
 154:	0900                	addi	s0,sp,144
 156:	0034                	addi	a3,sp,8
 158:	0b3a0e03          	lb	t3,179(s4)
 15c:	0b390b3b          	0xb390b3b
 160:	1349                	addi	t1,t1,-14
 162:	1802                	slli	a6,a6,0x20
 164:	0000                	unimp
 166:	240a                	fld	fs0,128(sp)
 168:	0b00                	addi	s0,sp,400
 16a:	030b3e0b          	extu	t3,s6,0,48
 16e:	0008                	0x8
 170:	0000                	unimp
 172:	1101                	addi	sp,sp,-32
 174:	2501                	sext.w	a0,a0
 176:	130e                	slli	t1,t1,0x23
 178:	1b0e030b          	0x1b0e030b
 17c:	110e                	slli	sp,sp,0x23
 17e:	1201                	addi	tp,tp,-32
 180:	00171007          	flh	ft0,1(a4)
 184:	0200                	addi	s0,sp,256
 186:	0e030113          	addi	sp,t1,224
 18a:	0b3a050b          	0xb3a050b
 18e:	0b390b3b          	0xb390b3b
 192:	1301                	addi	t1,t1,-32
 194:	0000                	unimp
 196:	03000d03          	lb	s10,48(zero) # 30 <__bin_size-0x6fd0>
 19a:	3a0e                	fld	fs4,224(sp)
 19c:	390b3b0b          	extu	s6,s6,14,16
 1a0:	3813490b          	lhia	s2,(t1),1,0
 1a4:	0400000b          	sfence.vmas	zero,zero
 1a8:	000d                	c.nop	3
 1aa:	0b3a0803          	lb	a6,179(s4)
 1ae:	0b390b3b          	0xb390b3b
 1b2:	1349                	addi	t1,t1,-14
 1b4:	0b38                	addi	a4,sp,408
 1b6:	0000                	unimp
 1b8:	0d05                	addi	s10,s10,1
 1ba:	0300                	addi	s0,sp,384
 1bc:	3a0e                	fld	fs4,224(sp)
 1be:	390b3b0b          	extu	s6,s6,14,16
 1c2:	3813490b          	lhia	s2,(t1),1,0
 1c6:	0005                	c.nop	1
 1c8:	0600                	addi	s0,sp,768
 1ca:	0024                	addi	s1,sp,8
 1cc:	0b3e0b0b          	0xb3e0b0b
 1d0:	00000e03          	lb	t3,0(zero) # 0 <__bin_size-0x7000>
 1d4:	3f012e07          	flw	ft8,1008(sp)
 1d8:	0319                	addi	t1,t1,6
 1da:	3a0e                	fld	fs4,224(sp)
 1dc:	390b3b0b          	extu	s6,s6,14,16
 1e0:	1119270b          	ext	a4,s2,4,17
 1e4:	1201                	addi	tp,tp,-32
 1e6:	97184007          	flq	ft0,-1679(a6)
 1ea:	1942                	slli	s2,s2,0x30
 1ec:	1301                	addi	t1,t1,-32
 1ee:	0000                	unimp
 1f0:	0b08                	addi	a0,sp,400
 1f2:	1101                	addi	sp,sp,-32
 1f4:	1201                	addi	tp,tp,-32
 1f6:	00130107          	0x130107
 1fa:	0900                	addi	s0,sp,144
 1fc:	0034                	addi	a3,sp,8
 1fe:	0b3a0803          	lb	a6,179(s4)
 202:	0b390b3b          	0xb390b3b
 206:	1349                	addi	t1,t1,-14
 208:	1802                	slli	a6,a6,0x20
 20a:	0000                	unimp
 20c:	0b0a                	slli	s6,s6,0x2
 20e:	1101                	addi	sp,sp,-32
 210:	1201                	addi	tp,tp,-32
 212:	0b000007          	vlse8.v	v0,(zero),a6
 216:	012e                	slli	sp,sp,0xb
 218:	0e03193f 0b3b0b3a 	0xb3b0b3a0e03193f
 220:	0b39                	addi	s6,s6,14
 222:	01111927          	fsh	fa7,18(sp)
 226:	0712                	slli	a4,a4,0x4
 228:	1840                	addi	s0,sp,52
 22a:	4296                	lw	t0,68(sp)
 22c:	0119                	addi	sp,sp,6
 22e:	0c000013          	li	zero,192
 232:	0005                	c.nop	1
 234:	0b3a0e03          	lb	t3,179(s4)
 238:	0b390b3b          	0xb390b3b
 23c:	1349                	addi	t1,t1,-14
 23e:	1802                	slli	a6,a6,0x20
 240:	0000                	unimp
 242:	340d                	addiw	s0,s0,-29
 244:	0300                	addi	s0,sp,384
 246:	3a0e                	fld	fs4,224(sp)
 248:	390b3b0b          	extu	s6,s6,14,16
 24c:	0213490b          	lrb	s2,t1,ra,1
 250:	0018                	0x18
 252:	0e00                	addi	s0,sp,784
 254:	0b0b000f          	0xb0b000f
 258:	1349                	addi	t1,t1,-14
 25a:	0000                	unimp
 25c:	03012e0f          	0x3012e0f
 260:	3a0e                	fld	fs4,224(sp)
 262:	390b3b0b          	extu	s6,s6,14,16
 266:	4919270b          	ext	a4,s2,18,17
 26a:	12011113          	0x12011113
 26e:	96184007          	flq	ft0,-1695(a6)
 272:	1942                	slli	s2,s2,0x30
 274:	1301                	addi	t1,t1,-32
 276:	0000                	unimp
 278:	0510                	addi	a2,sp,640
 27a:	0300                	addi	s0,sp,384
 27c:	3a08                	fld	fa0,48(a2)
 27e:	390b3b0b          	extu	s6,s6,14,16
 282:	0213490b          	lrb	s2,t1,ra,1
 286:	0018                	0x18
 288:	1100                	addi	s0,sp,160
 28a:	0024                	addi	s1,sp,8
 28c:	0b3e0b0b          	0xb3e0b0b
 290:	00000803          	lb	a6,0(zero) # 0 <__bin_size-0x7000>
 294:	0100                	addi	s0,sp,128
 296:	0111                	addi	sp,sp,4
 298:	0e25                	addi	t3,t3,9
 29a:	0e030b13          	addi	s6,t1,224
 29e:	01110e1b          	addiw	t3,sp,17
 2a2:	0712                	slli	a4,a4,0x4
 2a4:	1710                	addi	a2,sp,928
 2a6:	0000                	unimp
 2a8:	2402                	fld	fs0,0(sp)
 2aa:	0b00                	addi	s0,sp,400
 2ac:	030b3e0b          	extu	t3,s6,0,48
 2b0:	000e                	c.slli	zero,0x3
 2b2:	0300                	addi	s0,sp,384
 2b4:	0016                	c.slli	zero,0x5
 2b6:	0b3a0e03          	lb	t3,179(s4)
 2ba:	0b390b3b          	0xb390b3b
 2be:	1349                	addi	t1,t1,-14
 2c0:	0000                	unimp
 2c2:	2404                	fld	fs1,8(s0)
 2c4:	0b00                	addi	s0,sp,400
 2c6:	030b3e0b          	extu	t3,s6,0,48
 2ca:	0008                	0x8
 2cc:	0500                	addi	s0,sp,640
 2ce:	0b0b000f          	0xb0b000f
 2d2:	00000e03          	lb	t3,0(zero) # 0 <__bin_size-0x7000>
 2d6:	2e06                	fld	ft8,64(sp)
 2d8:	3f01                	addiw	t5,t5,-32
 2da:	0319                	addi	t1,t1,6
 2dc:	3a0e                	fld	fs4,224(sp)
 2de:	390b3b0b          	extu	s6,s6,14,16
 2e2:	1119270b          	ext	a4,s2,4,17
 2e6:	1201                	addi	tp,tp,-32
 2e8:	96184007          	flq	ft0,-1695(a6)
 2ec:	1942                	slli	s2,s2,0x30
 2ee:	1301                	addi	t1,t1,-32
 2f0:	0000                	unimp
 2f2:	03000507          	vle8ff.v	v10,(zero)
 2f6:	3a08                	fld	fa0,48(a2)
 2f8:	390b3b0b          	extu	s6,s6,14,16
 2fc:	0213490b          	lrb	s2,t1,ra,1
 300:	0018                	0x18
 302:	0800                	addi	s0,sp,16
 304:	0034                	addi	a3,sp,8
 306:	0b3a0803          	lb	a6,179(s4)
 30a:	0b390b3b          	0xb390b3b
 30e:	1349                	addi	t1,t1,-14
 310:	1802                	slli	a6,a6,0x20
 312:	0000                	unimp
 314:	3409                	addiw	s0,s0,-30
 316:	0300                	addi	s0,sp,384
 318:	3a0e                	fld	fs4,224(sp)
 31a:	390b3b0b          	extu	s6,s6,14,16
 31e:	0213490b          	lrb	s2,t1,ra,1
 322:	0018                	0x18
 324:	0a00                	addi	s0,sp,272
 326:	012e                	slli	sp,sp,0xb
 328:	0e03193f 0b3b0b3a 	0xb3b0b3a0e03193f
 330:	0b39                	addi	s6,s6,14
 332:	13491927          	fsh	fs4,306(s2)
 336:	0111                	addi	sp,sp,4
 338:	0712                	slli	a4,a4,0x4
 33a:	1840                	addi	s0,sp,52
 33c:	4296                	lw	t0,68(sp)
 33e:	0119                	addi	sp,sp,6
 340:	0b000013          	li	zero,176
 344:	0018                	0x18
 346:	0000                	unimp
 348:	0f0c                	addi	a1,sp,912
 34a:	0b00                	addi	s0,sp,400
 34c:	0013490b          	lrb	s2,t1,ra,0
 350:	0d00                	addi	s0,sp,656
 352:	0026                	c.slli	zero,0x9
 354:	1349                	addi	t1,t1,-14
 356:	0000                	unimp
 358:	2e0e                	fld	ft8,192(sp)
 35a:	0301                	addi	t1,t1,0
 35c:	3a08                	fld	fa0,48(a2)
 35e:	390b3b0b          	extu	s6,s6,14,16
 362:	4919270b          	ext	a4,s2,18,17
 366:	12011113          	0x12011113
 36a:	96184007          	flq	ft0,-1695(a6)
 36e:	1942                	slli	s2,s2,0x30
 370:	1301                	addi	t1,t1,-32
 372:	0000                	unimp
 374:	03012e0f          	0x3012e0f
 378:	3a0e                	fld	fs4,224(sp)
 37a:	390b3b0b          	extu	s6,s6,14,16
 37e:	1119270b          	ext	a4,s2,4,17
 382:	1201                	addi	tp,tp,-32
 384:	96184007          	flq	ft0,-1695(a6)
 388:	1942                	slli	s2,s2,0x30
 38a:	1301                	addi	t1,t1,-32
 38c:	0000                	unimp
 38e:	0110                	addi	a2,sp,128
 390:	4901                	li	s2,0
 392:	00130113          	addi	sp,t1,1
 396:	1100                	addi	s0,sp,160
 398:	0021                	c.nop	8
 39a:	1349                	addi	t1,t1,-14
 39c:	00000b2f          	vamoaddei8.v	zero,(zero),v0,v22,v0.t
 3a0:	2e12                	fld	ft8,256(sp)
 3a2:	0301                	addi	t1,t1,0
 3a4:	3a0e                	fld	fs4,224(sp)
 3a6:	390b3b0b          	extu	s6,s6,14,16
 3aa:	4919270b          	ext	a4,s2,18,17
 3ae:	12011113          	0x12011113
 3b2:	97184007          	flq	ft0,-1679(a6)
 3b6:	1942                	slli	s2,s2,0x30
 3b8:	1301                	addi	t1,t1,-32
 3ba:	0000                	unimp
 3bc:	03012e13          	slti	t3,sp,48
 3c0:	3a0e                	fld	fs4,224(sp)
 3c2:	390b3b0b          	extu	s6,s6,14,16
 3c6:	1119270b          	ext	a4,s2,4,17
 3ca:	1201                	addi	tp,tp,-32
 3cc:	97184007          	flq	ft0,-1679(a6)
 3d0:	1942                	slli	s2,s2,0x30
 3d2:	1301                	addi	t1,t1,-32
 3d4:	0000                	unimp
 3d6:	0514                	addi	a3,sp,640
 3d8:	0300                	addi	s0,sp,384
 3da:	3a0e                	fld	fs4,224(sp)
 3dc:	390b3b0b          	extu	s6,s6,14,16
 3e0:	0213490b          	lrb	s2,t1,ra,1
 3e4:	0018                	0x18
 3e6:	1500                	addi	s0,sp,672
 3e8:	012e                	slli	sp,sp,0xb
 3ea:	0b3a0e03          	lb	t3,179(s4)
 3ee:	0b390b3b          	0xb390b3b
 3f2:	13491927          	fsh	fs4,306(s2)
 3f6:	0111                	addi	sp,sp,4
 3f8:	0712                	slli	a4,a4,0x4
 3fa:	1840                	addi	s0,sp,52
 3fc:	00194297          	auipc	t0,0x194
 400:	0000                	unimp
 402:	1101                	addi	sp,sp,-32
 404:	1000                	addi	s0,sp,32
 406:	1106                	slli	sp,sp,0x21
 408:	1201                	addi	tp,tp,-32
 40a:	0301                	addi	t1,t1,0
 40c:	1b0e                	slli	s6,s6,0x23
 40e:	250e                	fld	fa0,192(sp)
 410:	130e                	slli	t1,t1,0x23
 412:	0005                	c.nop	1
 414:	0000                	unimp
 416:	1101                	addi	sp,sp,-32
 418:	1000                	addi	s0,sp,32
 41a:	1106                	slli	sp,sp,0x21
 41c:	1201                	addi	tp,tp,-32
 41e:	0301                	addi	t1,t1,0
 420:	1b0e                	slli	s6,s6,0x23
 422:	250e                	fld	fa0,192(sp)
 424:	130e                	slli	t1,t1,0x23
 426:	0005                	c.nop	1
	...

Disassembly of section .debug_aranges:

0000000000000000 <.debug_aranges>:
   0:	002c                	addi	a1,sp,8
   2:	0000                	unimp
   4:	0002                	c.slli64	zero
   6:	0000                	unimp
   8:	0000                	unimp
   a:	0008                	0x8
   c:	0000                	unimp
   e:	0000                	unimp
  10:	0050                	addi	a2,sp,4
  12:	0002                	c.slli64	zero
  14:	0000                	unimp
  16:	0000                	unimp
  18:	02bc                	addi	a5,sp,328
	...
  2e:	0000                	unimp
  30:	002c                	addi	a1,sp,8
  32:	0000                	unimp
  34:	0002                	c.slli64	zero
  36:	00000383          	lb	t2,0(zero) # 0 <__bin_size-0x7000>
  3a:	0008                	0x8
  3c:	0000                	unimp
  3e:	0000                	unimp
  40:	030c                	addi	a1,sp,384
  42:	0002                	c.slli64	zero
  44:	0000                	unimp
  46:	0000                	unimp
  48:	02b0                	addi	a2,sp,328
	...
  5e:	0000                	unimp
  60:	002c                	addi	a1,sp,8
  62:	0000                	unimp
  64:	0002                	c.slli64	zero
  66:	000005a3          	sb	zero,11(zero) # b <__bin_size-0x6ff5>
  6a:	0008                	0x8
  6c:	0000                	unimp
  6e:	0000                	unimp
  70:	05bc                	addi	a5,sp,712
  72:	0002                	c.slli64	zero
  74:	0000                	unimp
  76:	0000                	unimp
  78:	0134                	addi	a3,sp,136
	...
  8e:	0000                	unimp
  90:	002c                	addi	a1,sp,8
  92:	0000                	unimp
  94:	0002                	c.slli64	zero
  96:	08ac                	addi	a1,sp,88
  98:	0000                	unimp
  9a:	0008                	0x8
  9c:	0000                	unimp
  9e:	0000                	unimp
  a0:	06f0                	addi	a2,sp,844
  a2:	0002                	c.slli64	zero
  a4:	0000                	unimp
  a6:	0000                	unimp
  a8:	0a40                	addi	s0,sp,276
	...
  be:	0000                	unimp
  c0:	002c                	addi	a1,sp,8
  c2:	0000                	unimp
  c4:	0002                	c.slli64	zero
  c6:	0da5                	addi	s11,s11,9
  c8:	0000                	unimp
  ca:	0008                	0x8
  cc:	0000                	unimp
  ce:	0000                	unimp
  d0:	0000                	unimp
  d2:	0002                	c.slli64	zero
  d4:	0000                	unimp
  d6:	0000                	unimp
  d8:	004c                	addi	a1,sp,4
	...
  ee:	0000                	unimp
  f0:	002c                	addi	a1,sp,8
  f2:	0000                	unimp
  f4:	0002                	c.slli64	zero
  f6:	00000dd3          	fadd.s	fs11,ft0,ft0,rne
  fa:	0008                	0x8
  fc:	0000                	unimp
  fe:	0000                	unimp
 100:	1130                	addi	a2,sp,168
 102:	0002                	c.slli64	zero
 104:	0000                	unimp
 106:	0000                	unimp
 108:	012c                	addi	a1,sp,136
	...

Disassembly of section .debug_line:

0000000000000000 <.debug_line>:
   0:	02b4                	addi	a3,sp,328
   2:	0000                	unimp
   4:	00240003          	lb	zero,2(s0) # 1a002 <__bin_size+0x13002>
   8:	0000                	unimp
   a:	0101                	addi	sp,sp,0
   c:	000d0efb          	0xd0efb
  10:	0101                	addi	sp,sp,0
  12:	0101                	addi	sp,sp,0
  14:	0000                	unimp
  16:	0100                	addi	s0,sp,128
  18:	0000                	unimp
  1a:	7301                	lui	t1,0xfffe0
  1c:	6962                	ld	s2,24(sp)
  1e:	0000                	unimp
  20:	5f696273          	csrrsi	tp,shpmcounter22,18
  24:	696c                	ld	a1,208(a0)
  26:	2e62                	fld	ft8,24(sp)
  28:	00010063          	beqz	sp,28 <__bin_size-0x6fd8>
  2c:	0000                	unimp
  2e:	0105                	addi	sp,sp,1
  30:	0900                	addi	s0,sp,144
  32:	5002                	0x5002
  34:	0200                	addi	s0,sp,256
  36:	0000                	unimp
  38:	0000                	unimp
  3a:	1800                	addi	s0,sp,48
  3c:	1005                	c.nop	-31
  3e:	18090103          	lb	sp,384(s2)
  42:	0100                	addi	s0,sp,128
  44:	2805                	addiw	a6,a6,1
  46:	48090403          	lb	s0,1152(s2)
  4a:	0100                	addi	s0,sp,128
  4c:	6e05                	lui	t3,0x1
  4e:	08090003          	lb	zero,128(s2)
  52:	0100                	addi	s0,sp,128
  54:	0705                	addi	a4,a4,1
  56:	04090003          	lb	zero,64(s2)
  5a:	0100                	addi	s0,sp,128
  5c:	0305                	addi	t1,t1,1
  5e:	04090103          	lb	sp,64(s2)
  62:	0100                	addi	s0,sp,128
  64:	2805                	addiw	a6,a6,1
  66:	04090203          	lb	tp,64(s2)
  6a:	0100                	addi	s0,sp,128
  6c:	6e05                	lui	t3,0x1
  6e:	08090003          	lb	zero,128(s2)
  72:	0100                	addi	s0,sp,128
  74:	0705                	addi	a4,a4,1
  76:	04090003          	lb	zero,64(s2)
  7a:	0100                	addi	s0,sp,128
  7c:	0305                	addi	t1,t1,1
  7e:	04090103          	lb	sp,64(s2)
  82:	0100                	addi	s0,sp,128
  84:	2805                	addiw	a6,a6,1
  86:	04090203          	lb	tp,64(s2)
  8a:	0100                	addi	s0,sp,128
  8c:	6e05                	lui	t3,0x1
  8e:	08090003          	lb	zero,128(s2)
  92:	0100                	addi	s0,sp,128
  94:	0705                	addi	a4,a4,1
  96:	04090003          	lb	zero,64(s2)
  9a:	0100                	addi	s0,sp,128
  9c:	0305                	addi	t1,t1,1
  9e:	04090103          	lb	sp,64(s2)
  a2:	0100                	addi	s0,sp,128
  a4:	2805                	addiw	a6,a6,1
  a6:	04090203          	lb	tp,64(s2)
  aa:	0100                	addi	s0,sp,128
  ac:	6e05                	lui	t3,0x1
  ae:	08090003          	lb	zero,128(s2)
  b2:	0100                	addi	s0,sp,128
  b4:	0705                	addi	a4,a4,1
  b6:	04090003          	lb	zero,64(s2)
  ba:	0100                	addi	s0,sp,128
  bc:	0305                	addi	t1,t1,1
  be:	04090103          	lb	sp,64(s2)
  c2:	0100                	addi	s0,sp,128
  c4:	2805                	addiw	a6,a6,1
  c6:	04090203          	lb	tp,64(s2)
  ca:	0100                	addi	s0,sp,128
  cc:	6e05                	lui	t3,0x1
  ce:	08090003          	lb	zero,128(s2)
  d2:	0100                	addi	s0,sp,128
  d4:	0705                	addi	a4,a4,1
  d6:	04090003          	lb	zero,64(s2)
  da:	0100                	addi	s0,sp,128
  dc:	0305                	addi	t1,t1,1
  de:	04090103          	lb	sp,64(s2)
  e2:	0100                	addi	s0,sp,128
  e4:	2805                	addiw	a6,a6,1
  e6:	04090203          	lb	tp,64(s2)
  ea:	0100                	addi	s0,sp,128
  ec:	6e05                	lui	t3,0x1
  ee:	08090003          	lb	zero,128(s2)
  f2:	0100                	addi	s0,sp,128
  f4:	0705                	addi	a4,a4,1
  f6:	04090003          	lb	zero,64(s2)
  fa:	0100                	addi	s0,sp,128
  fc:	0305                	addi	t1,t1,1
  fe:	04090103          	lb	sp,64(s2)
 102:	0100                	addi	s0,sp,128
 104:	2805                	addiw	a6,a6,1
 106:	04090203          	lb	tp,64(s2)
 10a:	0100                	addi	s0,sp,128
 10c:	6e05                	lui	t3,0x1
 10e:	08090003          	lb	zero,128(s2)
 112:	0100                	addi	s0,sp,128
 114:	0705                	addi	a4,a4,1
 116:	04090003          	lb	zero,64(s2)
 11a:	0100                	addi	s0,sp,128
 11c:	0305                	addi	t1,t1,1
 11e:	04090103          	lb	sp,64(s2)
 122:	0100                	addi	s0,sp,128
 124:	2805                	addiw	a6,a6,1
 126:	04090203          	lb	tp,64(s2)
 12a:	0100                	addi	s0,sp,128
 12c:	6e05                	lui	t3,0x1
 12e:	08090003          	lb	zero,128(s2)
 132:	0100                	addi	s0,sp,128
 134:	0705                	addi	a4,a4,1
 136:	04090003          	lb	zero,64(s2)
 13a:	0100                	addi	s0,sp,128
 13c:	0305                	addi	t1,t1,1
 13e:	04090103          	lb	sp,64(s2)
 142:	0100                	addi	s0,sp,128
 144:	2805                	addiw	a6,a6,1
 146:	04090203          	lb	tp,64(s2)
 14a:	0100                	addi	s0,sp,128
 14c:	6e05                	lui	t3,0x1
 14e:	08090003          	lb	zero,128(s2)
 152:	0100                	addi	s0,sp,128
 154:	0705                	addi	a4,a4,1
 156:	04090003          	lb	zero,64(s2)
 15a:	0100                	addi	s0,sp,128
 15c:	0305                	addi	t1,t1,1
 15e:	04090103          	lb	sp,64(s2)
 162:	0100                	addi	s0,sp,128
 164:	04090203          	lb	tp,64(s2)
 168:	0100                	addi	s0,sp,128
 16a:	0905                	addi	s2,s2,1
 16c:	04090303          	lb	t1,64(s2)
 170:	0100                	addi	s0,sp,128
 172:	0105                	addi	sp,sp,1
 174:	04090103          	lb	sp,64(s2)
 178:	0100                	addi	s0,sp,128
 17a:	14090303          	lb	t1,320(s2)
 17e:	0100                	addi	s0,sp,128
 180:	1405                	addi	s0,s0,-31
 182:	5c090303          	lb	t1,1472(s2)
 186:	0100                	addi	s0,sp,128
 188:	3005                	0x3005
 18a:	08090003          	lb	zero,128(s2)
 18e:	0100                	addi	s0,sp,128
 190:	0305                	addi	t1,t1,1
 192:	08090103          	lb	sp,128(s2)
 196:	0100                	addi	s0,sp,128
 198:	1405                	addi	s0,s0,-31
 19a:	04090203          	lb	tp,64(s2)
 19e:	0100                	addi	s0,sp,128
 1a0:	3005                	0x3005
 1a2:	08090003          	lb	zero,128(s2)
 1a6:	0100                	addi	s0,sp,128
 1a8:	0305                	addi	t1,t1,1
 1aa:	08090103          	lb	sp,128(s2)
 1ae:	0100                	addi	s0,sp,128
 1b0:	1405                	addi	s0,s0,-31
 1b2:	04090203          	lb	tp,64(s2)
 1b6:	0100                	addi	s0,sp,128
 1b8:	3005                	0x3005
 1ba:	08090003          	lb	zero,128(s2)
 1be:	0100                	addi	s0,sp,128
 1c0:	0305                	addi	t1,t1,1
 1c2:	08090103          	lb	sp,128(s2)
 1c6:	0100                	addi	s0,sp,128
 1c8:	1405                	addi	s0,s0,-31
 1ca:	04090203          	lb	tp,64(s2)
 1ce:	0100                	addi	s0,sp,128
 1d0:	3005                	0x3005
 1d2:	08090003          	lb	zero,128(s2)
 1d6:	0100                	addi	s0,sp,128
 1d8:	0305                	addi	t1,t1,1
 1da:	08090103          	lb	sp,128(s2)
 1de:	0100                	addi	s0,sp,128
 1e0:	1405                	addi	s0,s0,-31
 1e2:	04090203          	lb	tp,64(s2)
 1e6:	0100                	addi	s0,sp,128
 1e8:	3005                	0x3005
 1ea:	08090003          	lb	zero,128(s2)
 1ee:	0100                	addi	s0,sp,128
 1f0:	0305                	addi	t1,t1,1
 1f2:	08090103          	lb	sp,128(s2)
 1f6:	0100                	addi	s0,sp,128
 1f8:	1405                	addi	s0,s0,-31
 1fa:	04090203          	lb	tp,64(s2)
 1fe:	0100                	addi	s0,sp,128
 200:	3005                	0x3005
 202:	08090003          	lb	zero,128(s2)
 206:	0100                	addi	s0,sp,128
 208:	0305                	addi	t1,t1,1
 20a:	08090103          	lb	sp,128(s2)
 20e:	0100                	addi	s0,sp,128
 210:	1405                	addi	s0,s0,-31
 212:	04090203          	lb	tp,64(s2)
 216:	0100                	addi	s0,sp,128
 218:	3005                	0x3005
 21a:	08090003          	lb	zero,128(s2)
 21e:	0100                	addi	s0,sp,128
 220:	0305                	addi	t1,t1,1
 222:	08090103          	lb	sp,128(s2)
 226:	0100                	addi	s0,sp,128
 228:	1405                	addi	s0,s0,-31
 22a:	04090203          	lb	tp,64(s2)
 22e:	0100                	addi	s0,sp,128
 230:	3005                	0x3005
 232:	08090003          	lb	zero,128(s2)
 236:	0100                	addi	s0,sp,128
 238:	0305                	addi	t1,t1,1
 23a:	08090103          	lb	sp,128(s2)
 23e:	0100                	addi	s0,sp,128
 240:	1405                	addi	s0,s0,-31
 242:	04090203          	lb	tp,64(s2)
 246:	0100                	addi	s0,sp,128
 248:	3005                	0x3005
 24a:	08090003          	lb	zero,128(s2)
 24e:	0100                	addi	s0,sp,128
 250:	0305                	addi	t1,t1,1
 252:	08090103          	lb	sp,128(s2)
 256:	0100                	addi	s0,sp,128
 258:	04090203          	lb	tp,64(s2)
 25c:	0100                	addi	s0,sp,128
 25e:	0105                	addi	sp,sp,1
 260:	04090203          	lb	tp,64(s2)
 264:	0100                	addi	s0,sp,128
 266:	10090303          	lb	t1,256(s2)
 26a:	0100                	addi	s0,sp,128
 26c:	1005                	c.nop	-31
 26e:	10090103          	lb	sp,256(s2)
 272:	0100                	addi	s0,sp,128
 274:	0805                	addi	a6,a6,1
 276:	04090203          	lb	tp,64(s2)
 27a:	0100                	addi	s0,sp,128
 27c:	1105                	addi	sp,sp,-31
 27e:	04090103          	lb	sp,64(s2)
 282:	0100                	addi	s0,sp,128
 284:	0605                	addi	a2,a2,1
 286:	14090003          	lb	zero,320(s2)
 28a:	0100                	addi	s0,sp,128
 28c:	08090203          	lb	tp,128(s2)
 290:	0100                	addi	s0,sp,128
 292:	0805                	addi	a6,a6,1
 294:	0c097d03          	0xc097d03
 298:	0100                	addi	s0,sp,128
 29a:	0405                	addi	s0,s0,1
 29c:	10090203          	lb	tp,256(s2)
 2a0:	0100                	addi	s0,sp,128
 2a2:	0905                	addi	s2,s2,1
 2a4:	04090403          	lb	s0,64(s2)
 2a8:	0100                	addi	s0,sp,128
 2aa:	0105                	addi	sp,sp,1
 2ac:	04090103          	lb	sp,64(s2)
 2b0:	0100                	addi	s0,sp,128
 2b2:	1009                	c.nop	-30
 2b4:	0000                	unimp
 2b6:	0101                	addi	sp,sp,0
 2b8:	0251                	addi	tp,tp,20
 2ba:	0000                	unimp
 2bc:	00250003          	lb	zero,2(a0)
 2c0:	0000                	unimp
 2c2:	0101                	addi	sp,sp,0
 2c4:	000d0efb          	0xd0efb
 2c8:	0101                	addi	sp,sp,0
 2ca:	0101                	addi	sp,sp,0
 2cc:	0000                	unimp
 2ce:	0100                	addi	s0,sp,128
 2d0:	0000                	unimp
 2d2:	7301                	lui	t1,0xfffe0
 2d4:	6962                	ld	s2,24(sp)
 2d6:	0000                	unimp
 2d8:	5f696273          	csrrsi	tp,shpmcounter22,18
 2dc:	616d                	addi	sp,sp,240
 2de:	6e69                	lui	t3,0x1a
 2e0:	632e                	ld	t1,200(sp)
 2e2:	0100                	addi	s0,sp,128
 2e4:	0000                	unimp
 2e6:	0500                	addi	s0,sp,640
 2e8:	0001                	nop
 2ea:	0209                	addi	tp,tp,2
 2ec:	030c                	addi	a1,sp,384
 2ee:	0002                	c.slli64	zero
 2f0:	0000                	unimp
 2f2:	0000                	unimp
 2f4:	05010e03          	lb	t3,80(sp)
 2f8:	0305                	addi	t1,t1,1
 2fa:	0906                	slli	s2,s2,0x1
 2fc:	0024                	addi	s1,sp,8
 2fe:	0501                	addi	a0,a0,0
 300:	030a                	slli	t1,t1,0x2
 302:	0901                	addi	s2,s2,0
 304:	0010                	0x10
 306:	0301                	addi	t1,t1,0
 308:	0902                	c.slli64	s2
 30a:	0008                	0x8
 30c:	0501                	addi	a0,a0,0
 30e:	0308                	addi	a0,sp,384
 310:	0900                	addi	s0,sp,144
 312:	000c                	0xc
 314:	0501                	addi	a0,a0,0
 316:	0305                	addi	t1,t1,1
 318:	0901                	addi	s2,s2,0
 31a:	0004                	0x4
 31c:	0501                	addi	a0,a0,0
 31e:	030a                	slli	t1,t1,0x2
 320:	0901                	addi	s2,s2,0
 322:	0010                	0x10
 324:	0301                	addi	t1,t1,0
 326:	0902                	c.slli64	s2
 328:	0008                	0x8
 32a:	0501                	addi	a0,a0,0
 32c:	0321                	addi	t1,t1,8
 32e:	000c0903          	lb	s2,0(s8) # fffffffffffe2000 <bss_begin+0xfffffffffffbb000>
 332:	0501                	addi	a0,a0,0
 334:	0316                	slli	t1,t1,0x5
 336:	0900                	addi	s0,sp,144
 338:	000c                	0xc
 33a:	0501                	addi	a0,a0,0
 33c:	030d                	addi	t1,t1,3
 33e:	0900                	addi	s0,sp,144
 340:	0008                	0x8
 342:	0501                	addi	a0,a0,0
 344:	031f 0901 0008      	0x80901031f
 34a:	0501                	addi	a0,a0,0
 34c:	0900030f          	0x900030f
 350:	000c                	0xc
 352:	0501                	addi	a0,a0,0
 354:	030e                	slli	t1,t1,0x3
 356:	0902                	c.slli64	s2
 358:	0008                	0x8
 35a:	0501                	addi	a0,a0,0
 35c:	09030307          	vlse8.v	v6,(t1),a6,v0.t
 360:	000c                	0xc
 362:	0501                	addi	a0,a0,0
 364:	0320                	addi	s0,sp,392
 366:	0901                	addi	s2,s2,0
 368:	000c                	0xc
 36a:	0001                	nop
 36c:	0402                	c.slli64	s0
 36e:	0601                	addi	a2,a2,0
 370:	10090003          	lb	zero,256(s2)
 374:	0100                	addi	s0,sp,128
 376:	0200                	addi	s0,sp,256
 378:	0204                	addi	s1,sp,256
 37a:	08090003          	lb	zero,128(s2)
 37e:	0100                	addi	s0,sp,128
 380:	0705                	addi	a4,a4,1
 382:	0200                	addi	s0,sp,256
 384:	0404                	addi	s1,sp,512
 386:	0306                	slli	t1,t1,0x1
 388:	0900                	addi	s0,sp,144
 38a:	0004                	0x4
 38c:	0501                	addi	a0,a0,0
 38e:	0015                	c.nop	5
 390:	0402                	c.slli64	s0
 392:	0304                	addi	s1,sp,384
 394:	000c0903          	lb	s2,0(s8)
 398:	0501                	addi	a0,a0,0
 39a:	000a                	c.slli	zero,0x2
 39c:	0402                	c.slli64	s0
 39e:	0304                	addi	s1,sp,384
 3a0:	0900                	addi	s0,sp,144
 3a2:	000c                	0xc
 3a4:	0501                	addi	a0,a0,0
 3a6:	000c                	0xc
 3a8:	0402                	c.slli64	s0
 3aa:	0304                	addi	s1,sp,384
 3ac:	0901                	addi	s2,s2,0
 3ae:	0008                	0x8
 3b0:	0501                	addi	a0,a0,0
 3b2:	0009                	c.nop	2
 3b4:	0402                	c.slli64	s0
 3b6:	0304                	addi	s1,sp,384
 3b8:	0900                	addi	s0,sp,144
 3ba:	0010                	0x10
 3bc:	0501                	addi	a0,a0,0
 3be:	04020013          	addi	zero,tp,64 # 40 <__bin_size-0x6fc0>
 3c2:	0304                	addi	s1,sp,384
 3c4:	0901                	addi	s2,s2,0
 3c6:	000c                	0xc
 3c8:	0501                	addi	a0,a0,0
 3ca:	0026                	c.slli	zero,0x9
 3cc:	0402                	c.slli64	s0
 3ce:	0304                	addi	s1,sp,384
 3d0:	0900                	addi	s0,sp,144
 3d2:	000c                	0xc
 3d4:	0501                	addi	a0,a0,0
 3d6:	0024                	addi	s1,sp,8
 3d8:	0402                	c.slli64	s0
 3da:	0304                	addi	s1,sp,384
 3dc:	0900                	addi	s0,sp,144
 3de:	0008                	0x8
 3e0:	0501                	addi	a0,a0,0
 3e2:	0009                	c.nop	2
 3e4:	0402                	c.slli64	s0
 3e6:	0304                	addi	s1,sp,384
 3e8:	0900                	addi	s0,sp,144
 3ea:	0004                	0x4
 3ec:	0501                	addi	a0,a0,0
 3ee:	0005                	c.nop	1
 3f0:	0402                	c.slli64	s0
 3f2:	0304                	addi	s1,sp,384
 3f4:	000c0907          	vle8.v	v18,(s8),v0.t
 3f8:	0501                	addi	a0,a0,0
 3fa:	0306                	slli	t1,t1,0x1
 3fc:	0902                	c.slli64	s2
 3fe:	0010                	0x10
 400:	0501                	addi	a0,a0,0
 402:	030c                	addi	a1,sp,384
 404:	0901                	addi	s2,s2,0
 406:	0010                	0x10
 408:	0501                	addi	a0,a0,0
 40a:	031e                	slli	t1,t1,0x7
 40c:	000c0907          	vle8.v	v18,(s8),v0.t
 410:	0501                	addi	a0,a0,0
 412:	0314                	addi	a3,sp,384
 414:	0900                	addi	s0,sp,144
 416:	000c                	0xc
 418:	0501                	addi	a0,a0,0
 41a:	030d                	addi	t1,t1,3
 41c:	0900                	addi	s0,sp,144
 41e:	000c                	0xc
 420:	0501                	addi	a0,a0,0
 422:	0901030f          	0x901030f
 426:	0008                	0x8
 428:	0501                	addi	a0,a0,0
 42a:	030c                	addi	a1,sp,384
 42c:	0900                	addi	s0,sp,144
 42e:	0008                	0x8
 430:	0501                	addi	a0,a0,0
 432:	0319                	addi	t1,t1,6
 434:	0901                	addi	s2,s2,0
 436:	000c                	0xc
 438:	0501                	addi	a0,a0,0
 43a:	030c                	addi	a1,sp,384
 43c:	0900                	addi	s0,sp,144
 43e:	0008                	0x8
 440:	0501                	addi	a0,a0,0
 442:	0302                	c.slli64	t1
 444:	0906                	slli	s2,s2,0x1
 446:	000c                	0xc
 448:	0301                	addi	t1,t1,0
 44a:	0901                	addi	s2,s2,0
 44c:	0010                	0x10
 44e:	0501                	addi	a0,a0,0
 450:	0309                	addi	t1,t1,2
 452:	0902                	c.slli64	s2
 454:	0010                	0x10
 456:	0501                	addi	a0,a0,0
 458:	0301                	addi	t1,t1,0
 45a:	0901                	addi	s2,s2,0
 45c:	0004                	0x4
 45e:	0301                	addi	t1,t1,0
 460:	00140907          	0x140907
 464:	0501                	addi	a0,a0,0
 466:	0302                	c.slli64	t1
 468:	00140903          	lb	s2,1(s0)
 46c:	0301                	addi	t1,t1,0
 46e:	0901                	addi	s2,s2,0
 470:	0004                	0x4
 472:	0301                	addi	t1,t1,0
 474:	0905                	addi	s2,s2,1
 476:	0004                	0x4
 478:	0501                	addi	a0,a0,0
 47a:	09040327          	vsse8.v	v6,(s0),a6,v0.t
 47e:	0014                	0x14
 480:	0501                	addi	a0,a0,0
 482:	0900036f          	jal	t1,512 <__bin_size-0x6aee>
 486:	0008                	0x8
 488:	0501                	addi	a0,a0,0
 48a:	0306                	slli	t1,t1,0x1
 48c:	0900                	addi	s0,sp,144
 48e:	0004                	0x4
 490:	0501                	addi	a0,a0,0
 492:	0310                	addi	a2,sp,384
 494:	0901                	addi	s2,s2,0
 496:	0004                	0x4
 498:	0501                	addi	a0,a0,0
 49a:	0306                	slli	t1,t1,0x1
 49c:	0900                	addi	s0,sp,144
 49e:	0010                	0x10
 4a0:	0301                	addi	t1,t1,0
 4a2:	0901                	addi	s2,s2,0
 4a4:	0010                	0x10
 4a6:	0501                	addi	a0,a0,0
 4a8:	09010313          	addi	t1,sp,144
 4ac:	000c                	0xc
 4ae:	0501                	addi	a0,a0,0
 4b0:	0900032f          	vamoswapei8.v	zero,(zero),v16,v6,v0.t
 4b4:	0008                	0x8
 4b6:	0501                	addi	a0,a0,0
 4b8:	09030313          	addi	t1,t1,144 # fffffffffffe0090 <bss_begin+0xfffffffffffb9090>
 4bc:	0008                	0x8
 4be:	0501                	addi	a0,a0,0
 4c0:	09000333          	0x9000333
 4c4:	0008                	0x8
 4c6:	0501                	addi	a0,a0,0
 4c8:	09020313          	addi	t1,tp,144 # 90 <__bin_size-0x6f70>
 4cc:	0008                	0x8
 4ce:	0501                	addi	a0,a0,0
 4d0:	09000333          	0x9000333
 4d4:	0008                	0x8
 4d6:	0501                	addi	a0,a0,0
 4d8:	09030313          	addi	t1,t1,144
 4dc:	0008                	0x8
 4de:	0501                	addi	a0,a0,0
 4e0:	032d                	addi	t1,t1,11
 4e2:	0900                	addi	s0,sp,144
 4e4:	0004                	0x4
 4e6:	0501                	addi	a0,a0,0
 4e8:	09020313          	addi	t1,tp,144 # 90 <__bin_size-0x6f70>
 4ec:	0008                	0x8
 4ee:	0501                	addi	a0,a0,0
 4f0:	032d                	addi	t1,t1,11
 4f2:	0900                	addi	s0,sp,144
 4f4:	0004                	0x4
 4f6:	0501                	addi	a0,a0,0
 4f8:	0302                	c.slli64	t1
 4fa:	00080903          	lb	s2,0(a6)
 4fe:	0501                	addi	a0,a0,0
 500:	0301                	addi	t1,t1,0
 502:	0901                	addi	s2,s2,0
 504:	0004                	0x4
 506:	0901                	addi	s2,s2,0
 508:	0018                	0x18
 50a:	0100                	addi	s0,sp,128
 50c:	1801                	addi	a6,a6,-32
 50e:	0001                	nop
 510:	0300                	addi	s0,sp,384
 512:	3800                	fld	fs0,48(s0)
 514:	0000                	unimp
 516:	0100                	addi	s0,sp,128
 518:	fb01                	bnez	a4,428 <__bin_size-0x6bd8>
 51a:	0d0e                	slli	s10,s10,0x3
 51c:	0100                	addi	s0,sp,128
 51e:	0101                	addi	sp,sp,0
 520:	0001                	nop
 522:	0000                	unimp
 524:	0001                	nop
 526:	0100                	addi	s0,sp,128
 528:	00696273          	csrrsi	tp,0x6,18
 52c:	7300                	ld	s0,32(a4)
 52e:	6962                	ld	s2,24(sp)
 530:	745f 6172 2e70      	0x2e706172745f
 536:	00010063          	beqz	sp,536 <__bin_size-0x6aca>
 53a:	7300                	ld	s0,32(a4)
 53c:	6962                	ld	s2,24(sp)
 53e:	745f 6172 5f70      	0x5f706172745f
 544:	6572                	ld	a0,280(sp)
 546:	682e7367          	0x682e7367
 54a:	0100                	addi	s0,sp,128
 54c:	0000                	unimp
 54e:	0500                	addi	s0,sp,640
 550:	0001                	nop
 552:	0209                	addi	tp,tp,2
 554:	05bc                	addi	a5,sp,712
 556:	0002                	c.slli64	zero
 558:	0000                	unimp
 55a:	0000                	unimp
 55c:	0519                	addi	a0,a0,6
 55e:	0306                	slli	t1,t1,0x1
 560:	0901                	addi	s2,s2,0
 562:	001c                	0x1c
 564:	0501                	addi	a0,a0,0
 566:	0302                	c.slli64	t1
 568:	0902                	c.slli64	s2
 56a:	0004                	0x4
 56c:	0501                	addi	a0,a0,0
 56e:	0902030f          	0x902030f
 572:	0010                	0x10
 574:	0501                	addi	a0,a0,0
 576:	09000303          	lb	t1,144(zero) # 90 <__bin_size-0x6f70>
 57a:	0008                	0x8
 57c:	0501                	addi	a0,a0,0
 57e:	09010307          	vlse8.v	v6,(sp),a6,v0.t
 582:	000c                	0xc
 584:	0501                	addi	a0,a0,0
 586:	09010303          	lb	t1,144(sp)
 58a:	0004                	0x4
 58c:	0501                	addi	a0,a0,0
 58e:	0305                	addi	t1,t1,1
 590:	0904                	addi	s1,sp,144
 592:	0004                	0x4
 594:	0501                	addi	a0,a0,0
 596:	030e                	slli	t1,t1,0x3
 598:	0901                	addi	s2,s2,0
 59a:	000c                	0xc
 59c:	0501                	addi	a0,a0,0
 59e:	0309                	addi	t1,t1,2
 5a0:	0902                	c.slli64	s2
 5a2:	0014                	0x14
 5a4:	0501                	addi	a0,a0,0
 5a6:	0301                	addi	t1,t1,0
 5a8:	0901                	addi	s2,s2,0
 5aa:	0004                	0x4
 5ac:	0301                	addi	t1,t1,0
 5ae:	00140903          	lb	s2,1(s0)
 5b2:	0501                	addi	a0,a0,0
 5b4:	0338                	addi	a4,sp,392
 5b6:	0901                	addi	s2,s2,0
 5b8:	0018                	0x18
 5ba:	0501                	addi	a0,a0,0
 5bc:	0900037f          	0x900037f
 5c0:	0008                	0x8
 5c2:	0501                	addi	a0,a0,0
 5c4:	0310                	addi	a2,sp,384
 5c6:	0900                	addi	s0,sp,144
 5c8:	0004                	0x4
 5ca:	0301                	addi	t1,t1,0
 5cc:	0901                	addi	s2,s2,0
 5ce:	0004                	0x4
 5d0:	0501                	addi	a0,a0,0
 5d2:	0302                	c.slli64	t1
 5d4:	0902                	c.slli64	s2
 5d6:	000c                	0xc
 5d8:	0501                	addi	a0,a0,0
 5da:	09020303          	lb	t1,144(tp) # 90 <__bin_size-0x6f70>
 5de:	000c                	0xc
 5e0:	0301                	addi	t1,t1,0
 5e2:	0901                	addi	s2,s2,0
 5e4:	0014                	0x14
 5e6:	0301                	addi	t1,t1,0
 5e8:	0902                	c.slli64	s2
 5ea:	0004                	0x4
 5ec:	0501                	addi	a0,a0,0
 5ee:	0301                	addi	t1,t1,0
 5f0:	0902                	c.slli64	s2
 5f2:	0004                	0x4
 5f4:	0301                	addi	t1,t1,0
 5f6:	0905                	addi	s2,s2,1
 5f8:	0018                	0x18
 5fa:	0501                	addi	a0,a0,0
 5fc:	09020313          	addi	t1,tp,144 # 90 <__bin_size-0x6f70>
 600:	000c                	0xc
 602:	0501                	addi	a0,a0,0
 604:	0340                	addi	s0,sp,388
 606:	0900                	addi	s0,sp,144
 608:	000c                	0xc
 60a:	0501                	addi	a0,a0,0
 60c:	09020313          	addi	t1,tp,144 # 90 <__bin_size-0x6f70>
 610:	0008                	0x8
 612:	0501                	addi	a0,a0,0
 614:	032d                	addi	t1,t1,11
 616:	0900                	addi	s0,sp,144
 618:	0004                	0x4
 61a:	0501                	addi	a0,a0,0
 61c:	0301                	addi	t1,t1,0
 61e:	0901                	addi	s2,s2,0
 620:	0008                	0x8
 622:	0901                	addi	s2,s2,0
 624:	0010                	0x10
 626:	0100                	addi	s0,sp,128
 628:	3c01                	addiw	s8,s8,-32
 62a:	03000007          	vle8ff.v	v0,(zero)
 62e:	5800                	lw	s0,48(s0)
 630:	0000                	unimp
 632:	0100                	addi	s0,sp,128
 634:	fb01                	bnez	a4,544 <__bin_size-0x6abc>
 636:	0d0e                	slli	s10,s10,0x3
 638:	0100                	addi	s0,sp,128
 63a:	0101                	addi	sp,sp,0
 63c:	0001                	nop
 63e:	0000                	unimp
 640:	0001                	nop
 642:	0100                	addi	s0,sp,128
 644:	6e69                	lui	t3,0x1a
 646:	64756c63          	bltu	a0,t2,c9e <__bin_size-0x6362>
 64a:	0065                	c.nop	25
 64c:	00696273          	csrrsi	tp,0x6,18
 650:	6900                	ld	s0,16(a0)
 652:	00682e6f          	jal	t3,82658 <bss_begin+0x5b658>
 656:	0001                	nop
 658:	7300                	ld	s0,32(a4)
 65a:	7379                	lui	t1,0xffffe
 65c:	752d                	lui	a0,0xfffeb
 65e:	7261                	lui	tp,0xffff8
 660:	2e74                	fld	fa3,216(a2)
 662:	00020063          	beqz	tp,662 <__bin_size-0x699e>
 666:	7400                	ld	s0,40(s0)
 668:	7079                	c.lui	zero,0xffffe
 66a:	7365                	lui	t1,0xffff9
 66c:	682e                	ld	a6,200(sp)
 66e:	0100                	addi	s0,sp,128
 670:	0000                	unimp
 672:	61647473          	csrrci	s0,0x616,8
 676:	6772                	ld	a4,280(sp)
 678:	682e                	ld	a6,200(sp)
 67a:	0100                	addi	s0,sp,128
 67c:	0000                	unimp
 67e:	69647473          	csrrci	s0,0x696,8
 682:	746e                	ld	s0,248(sp)
 684:	682e                	ld	a6,200(sp)
 686:	0100                	addi	s0,sp,128
 688:	0000                	unimp
 68a:	0500                	addi	s0,sp,640
 68c:	0001                	nop
 68e:	0209                	addi	tp,tp,2
 690:	06f0                	addi	a2,sp,844
 692:	0002                	c.slli64	zero
 694:	0000                	unimp
 696:	0000                	unimp
 698:	05010a03          	lb	s4,80(sp)
 69c:	030c                	addi	a1,sp,384
 69e:	0901                	addi	s2,s2,0
 6a0:	0010                	0x10
 6a2:	0501                	addi	a0,a0,0
 6a4:	030a                	slli	t1,t1,0x2
 6a6:	0900                	addi	s0,sp,144
 6a8:	0004                	0x4
 6aa:	0501                	addi	a0,a0,0
 6ac:	0301                	addi	t1,t1,0
 6ae:	0901                	addi	s2,s2,0
 6b0:	0008                	0x8
 6b2:	0301                	addi	t1,t1,0
 6b4:	0908                	addi	a0,sp,144
 6b6:	0010                	0x10
 6b8:	0501                	addi	a0,a0,0
 6ba:	030c                	addi	a1,sp,384
 6bc:	0901                	addi	s2,s2,0
 6be:	0010                	0x10
 6c0:	0501                	addi	a0,a0,0
 6c2:	030a                	slli	t1,t1,0x2
 6c4:	0900                	addi	s0,sp,144
 6c6:	0004                	0x4
 6c8:	0501                	addi	a0,a0,0
 6ca:	0301                	addi	t1,t1,0
 6cc:	0901                	addi	s2,s2,0
 6ce:	0008                	0x8
 6d0:	0301                	addi	t1,t1,0
 6d2:	0912                	slli	s2,s2,0x4
 6d4:	0010                	0x10
 6d6:	0501                	addi	a0,a0,0
 6d8:	0304                	addi	s1,sp,384
 6da:	0901                	addi	s2,s2,0
 6dc:	0018                	0x18
 6de:	0501                	addi	a0,a0,0
 6e0:	031e                	slli	t1,t1,0x7
 6e2:	0900                	addi	s0,sp,144
 6e4:	0004                	0x4
 6e6:	0501                	addi	a0,a0,0
 6e8:	0301                	addi	t1,t1,0
 6ea:	0901                	addi	s2,s2,0
 6ec:	0008                	0x8
 6ee:	0401                	addi	s0,s0,0
 6f0:	0302                	c.slli64	t1
 6f2:	0975                	addi	s2,s2,29
 6f4:	0010                	0x10
 6f6:	0501                	addi	a0,a0,0
 6f8:	030e                	slli	t1,t1,0x3
 6fa:	0911                	addi	s2,s2,4
 6fc:	0010                	0x10
 6fe:	0501                	addi	a0,a0,0
 700:	0901030f          	0x901030f
 704:	000c                	0xc
 706:	0501                	addi	a0,a0,0
 708:	030d                	addi	t1,t1,3
 70a:	0901                	addi	s2,s2,0
 70c:	0010                	0x10
 70e:	0301                	addi	t1,t1,0
 710:	0901                	addi	s2,s2,0
 712:	0014                	0x14
 714:	0501                	addi	a0,a0,0
 716:	0309                	addi	t1,t1,2
 718:	0901                	addi	s2,s2,0
 71a:	000c                	0xc
 71c:	0501                	addi	a0,a0,0
 71e:	0902030f          	0x902030f
 722:	0010                	0x10
 724:	0501                	addi	a0,a0,0
 726:	030d                	addi	t1,t1,3
 728:	0901                	addi	s2,s2,0
 72a:	0010                	0x10
 72c:	0301                	addi	t1,t1,0
 72e:	0901                	addi	s2,s2,0
 730:	0014                	0x14
 732:	0501                	addi	a0,a0,0
 734:	0309                	addi	t1,t1,2
 736:	0901                	addi	s2,s2,0
 738:	0010                	0x10
 73a:	0501                	addi	a0,a0,0
 73c:	09030307          	vlse8.v	v6,(t1),a6,v0.t
 740:	0010                	0x10
 742:	0501                	addi	a0,a0,0
 744:	0308                	addi	a0,sp,384
 746:	0901                	addi	s2,s2,0
 748:	000c                	0xc
 74a:	0501                	addi	a0,a0,0
 74c:	0306                	slli	t1,t1,0x1
 74e:	0901                	addi	s2,s2,0
 750:	0010                	0x10
 752:	0501                	addi	a0,a0,0
 754:	0302                	c.slli64	t1
 756:	0901                	addi	s2,s2,0
 758:	000c                	0xc
 75a:	0501                	addi	a0,a0,0
 75c:	09030307          	vlse8.v	v6,(t1),a6,v0.t
 760:	0010                	0x10
 762:	0501                	addi	a0,a0,0
 764:	0308                	addi	a0,sp,384
 766:	0901                	addi	s2,s2,0
 768:	000c                	0xc
 76a:	0501                	addi	a0,a0,0
 76c:	0306                	slli	t1,t1,0x1
 76e:	0901                	addi	s2,s2,0
 770:	0010                	0x10
 772:	0501                	addi	a0,a0,0
 774:	0302                	c.slli64	t1
 776:	0901                	addi	s2,s2,0
 778:	0010                	0x10
 77a:	0501                	addi	a0,a0,0
 77c:	09030307          	vlse8.v	v6,(t1),a6,v0.t
 780:	0010                	0x10
 782:	0501                	addi	a0,a0,0
 784:	0302                	c.slli64	t1
 786:	0901                	addi	s2,s2,0
 788:	0008                	0x8
 78a:	0301                	addi	t1,t1,0
 78c:	0901                	addi	s2,s2,0
 78e:	0014                	0x14
 790:	0301                	addi	t1,t1,0
 792:	0902                	c.slli64	s2
 794:	0014                	0x14
 796:	0501                	addi	a0,a0,0
 798:	0308                	addi	a0,sp,384
 79a:	0901                	addi	s2,s2,0
 79c:	0014                	0x14
 79e:	0501                	addi	a0,a0,0
 7a0:	0306                	slli	t1,t1,0x1
 7a2:	0901                	addi	s2,s2,0
 7a4:	0018                	0x18
 7a6:	0501                	addi	a0,a0,0
 7a8:	0302                	c.slli64	t1
 7aa:	0901                	addi	s2,s2,0
 7ac:	000c                	0xc
 7ae:	0301                	addi	t1,t1,0
 7b0:	0901                	addi	s2,s2,0
 7b2:	0018                	0x18
 7b4:	0301                	addi	t1,t1,0
 7b6:	0901                	addi	s2,s2,0
 7b8:	000c                	0xc
 7ba:	0501                	addi	a0,a0,0
 7bc:	0308                	addi	a0,sp,384
 7be:	0901                	addi	s2,s2,0
 7c0:	0014                	0x14
 7c2:	0501                	addi	a0,a0,0
 7c4:	0306                	slli	t1,t1,0x1
 7c6:	0901                	addi	s2,s2,0
 7c8:	0018                	0x18
 7ca:	0501                	addi	a0,a0,0
 7cc:	0302                	c.slli64	t1
 7ce:	0901                	addi	s2,s2,0
 7d0:	000c                	0xc
 7d2:	0501                	addi	a0,a0,0
 7d4:	0308                	addi	a0,sp,384
 7d6:	0901                	addi	s2,s2,0
 7d8:	0018                	0x18
 7da:	0501                	addi	a0,a0,0
 7dc:	0306                	slli	t1,t1,0x1
 7de:	0901                	addi	s2,s2,0
 7e0:	0018                	0x18
 7e2:	0301                	addi	t1,t1,0
 7e4:	0901                	addi	s2,s2,0
 7e6:	000c                	0xc
 7e8:	0501                	addi	a0,a0,0
 7ea:	0302                	c.slli64	t1
 7ec:	0901                	addi	s2,s2,0
 7ee:	000c                	0xc
 7f0:	0501                	addi	a0,a0,0
 7f2:	0301                	addi	t1,t1,0
 7f4:	0901                	addi	s2,s2,0
 7f6:	0018                	0x18
 7f8:	0301                	addi	t1,t1,0
 7fa:	00140903          	lb	s2,1(s0)
 7fe:	0501                	addi	a0,a0,0
 800:	0311                	addi	t1,t1,4
 802:	0901                	addi	s2,s2,0
 804:	0018                	0x18
 806:	0501                	addi	a0,a0,0
 808:	09020307          	vlse8.v	v6,(tp),a6,v0.t
 80c:	0008                	0x8
 80e:	0501                	addi	a0,a0,0
 810:	0009                	c.nop	2
 812:	0402                	c.slli64	s0
 814:	0301                	addi	t1,t1,0
 816:	0900                	addi	s0,sp,144
 818:	0004                	0x4
 81a:	0501                	addi	a0,a0,0
 81c:	001d                	c.nop	7
 81e:	0402                	c.slli64	s0
 820:	0301                	addi	t1,t1,0
 822:	0900                	addi	s0,sp,144
 824:	0018                	0x18
 826:	0501                	addi	a0,a0,0
 828:	04020007          	vluxei8.v	v0,(tp),v0,v0.t
 82c:	0301                	addi	t1,t1,0
 82e:	0900                	addi	s0,sp,144
 830:	0008                	0x8
 832:	0501                	addi	a0,a0,0
 834:	0302                	c.slli64	t1
 836:	0901                	addi	s2,s2,0
 838:	0004                	0x4
 83a:	0501                	addi	a0,a0,0
 83c:	0301                	addi	t1,t1,0
 83e:	0901                	addi	s2,s2,0
 840:	0014                	0x14
 842:	0301                	addi	t1,t1,0
 844:	00140903          	lb	s2,1(s0)
 848:	0501                	addi	a0,a0,0
 84a:	0302                	c.slli64	t1
 84c:	0901                	addi	s2,s2,0
 84e:	0018                	0x18
 850:	0501                	addi	a0,a0,0
 852:	0309                	addi	t1,t1,2
 854:	0901                	addi	s2,s2,0
 856:	0010                	0x10
 858:	0501                	addi	a0,a0,0
 85a:	0301                	addi	t1,t1,0
 85c:	0901                	addi	s2,s2,0
 85e:	0004                	0x4
 860:	0301                	addi	t1,t1,0
 862:	00140903          	lb	s2,1(s0)
 866:	0501                	addi	a0,a0,0
 868:	0311                	addi	t1,t1,4
 86a:	0901                	addi	s2,s2,0
 86c:	0010                	0x10
 86e:	0501                	addi	a0,a0,0
 870:	09020307          	vlse8.v	v6,(tp),a6,v0.t
 874:	0008                	0x8
 876:	0501                	addi	a0,a0,0
 878:	0009                	c.nop	2
 87a:	0402                	c.slli64	s0
 87c:	0301                	addi	t1,t1,0
 87e:	0900                	addi	s0,sp,144
 880:	0004                	0x4
 882:	0501                	addi	a0,a0,0
 884:	001d                	c.nop	7
 886:	0402                	c.slli64	s0
 888:	0301                	addi	t1,t1,0
 88a:	0900                	addi	s0,sp,144
 88c:	0018                	0x18
 88e:	0501                	addi	a0,a0,0
 890:	04020007          	vluxei8.v	v0,(tp),v0,v0.t
 894:	0301                	addi	t1,t1,0
 896:	0900                	addi	s0,sp,144
 898:	0008                	0x8
 89a:	0501                	addi	a0,a0,0
 89c:	0309                	addi	t1,t1,2
 89e:	0901                	addi	s2,s2,0
 8a0:	0004                	0x4
 8a2:	0501                	addi	a0,a0,0
 8a4:	0301                	addi	t1,t1,0
 8a6:	0901                	addi	s2,s2,0
 8a8:	000c                	0xc
 8aa:	0301                	addi	t1,t1,0
 8ac:	00140903          	lb	s2,1(s0)
 8b0:	0501                	addi	a0,a0,0
 8b2:	030c                	addi	a1,sp,384
 8b4:	00140903          	lb	s2,1(s0)
 8b8:	0501                	addi	a0,a0,0
 8ba:	0305                	addi	t1,t1,1
 8bc:	0900                	addi	s0,sp,144
 8be:	0004                	0x4
 8c0:	0501                	addi	a0,a0,0
 8c2:	0310                	addi	a2,sp,384
 8c4:	0902                	c.slli64	s2
 8c6:	0004                	0x4
 8c8:	0501                	addi	a0,a0,0
 8ca:	030c                	addi	a1,sp,384
 8cc:	0900                	addi	s0,sp,144
 8ce:	0010                	0x10
 8d0:	0501                	addi	a0,a0,0
 8d2:	030d                	addi	t1,t1,3
 8d4:	0901                	addi	s2,s2,0
 8d6:	000c                	0xc
 8d8:	0501                	addi	a0,a0,0
 8da:	001d                	c.nop	7
 8dc:	0402                	c.slli64	s0
 8de:	0302                	c.slli64	t1
 8e0:	0901                	addi	s2,s2,0
 8e2:	0008                	0x8
 8e4:	0501                	addi	a0,a0,0
 8e6:	0009                	c.nop	2
 8e8:	0402                	c.slli64	s0
 8ea:	0302                	c.slli64	t1
 8ec:	0900                	addi	s0,sp,144
 8ee:	000c                	0xc
 8f0:	0501                	addi	a0,a0,0
 8f2:	0022                	c.slli	zero,0x8
 8f4:	0402                	c.slli64	s0
 8f6:	0302                	c.slli64	t1
 8f8:	097c                	addi	a5,sp,156
 8fa:	000c                	0xc
 8fc:	0501                	addi	a0,a0,0
 8fe:	0014                	0x14
 900:	0402                	c.slli64	s0
 902:	0301                	addi	t1,t1,0
 904:	0900                	addi	s0,sp,144
 906:	000c                	0xc
 908:	0501                	addi	a0,a0,0
 90a:	0005                	c.nop	1
 90c:	0402                	c.slli64	s0
 90e:	0301                	addi	t1,t1,0
 910:	0900                	addi	s0,sp,144
 912:	0010                	0x10
 914:	0501                	addi	a0,a0,0
 916:	0301                	addi	t1,t1,0
 918:	0906                	slli	s2,s2,0x1
 91a:	0004                	0x4
 91c:	0301                	addi	t1,t1,0
 91e:	00180903          	lb	s2,1(a6)
 922:	0501                	addi	a0,a0,0
 924:	0306                	slli	t1,t1,0x1
 926:	0904                	addi	s1,sp,144
 928:	0014                	0x14
 92a:	0501                	addi	a0,a0,0
 92c:	0308                	addi	a0,sp,384
 92e:	0901                	addi	s2,s2,0
 930:	0004                	0x4
 932:	0501                	addi	a0,a0,0
 934:	0302                	c.slli64	t1
 936:	0900                	addi	s0,sp,144
 938:	0008                	0x8
 93a:	0501                	addi	a0,a0,0
 93c:	030a                	slli	t1,t1,0x2
 93e:	0902                	c.slli64	s2
 940:	0004                	0x4
 942:	0501                	addi	a0,a0,0
 944:	0314                	addi	a3,sp,384
 946:	0900                	addi	s0,sp,144
 948:	0008                	0x8
 94a:	0501                	addi	a0,a0,0
 94c:	04020017          	auipc	zero,0x4020
 950:	0301                	addi	t1,t1,0
 952:	0900                	addi	s0,sp,144
 954:	000c                	0xc
 956:	0501                	addi	a0,a0,0
 958:	0014                	0x14
 95a:	0402                	c.slli64	s0
 95c:	0301                	addi	t1,t1,0
 95e:	0900                	addi	s0,sp,144
 960:	0008                	0x8
 962:	0001                	nop
 964:	0402                	c.slli64	s0
 966:	00030603          	lb	a2,0(t1) # ffffffffffff9000 <bss_begin+0xfffffffffffd2000>
 96a:	0c09                	addi	s8,s8,2
 96c:	0100                	addi	s0,sp,128
 96e:	0200                	addi	s0,sp,256
 970:	0404                	addi	s1,sp,512
 972:	08090003          	lb	zero,128(s2)
 976:	0100                	addi	s0,sp,128
 978:	0705                	addi	a4,a4,1
 97a:	0200                	addi	s0,sp,256
 97c:	0604                	addi	s1,sp,768
 97e:	0306                	slli	t1,t1,0x1
 980:	0900                	addi	s0,sp,144
 982:	0004                	0x4
 984:	0501                	addi	a0,a0,0
 986:	0005                	c.nop	1
 988:	0402                	c.slli64	s0
 98a:	0306                	slli	t1,t1,0x1
 98c:	0901                	addi	s2,s2,0
 98e:	0004                	0x4
 990:	0501                	addi	a0,a0,0
 992:	04020007          	vluxei8.v	v0,(tp),v0,v0.t
 996:	0302                	c.slli64	t1
 998:	0902                	c.slli64	s2
 99a:	000c                	0xc
 99c:	0501                	addi	a0,a0,0
 99e:	0005                	c.nop	1
 9a0:	0402                	c.slli64	s0
 9a2:	0302                	c.slli64	t1
 9a4:	0900                	addi	s0,sp,144
 9a6:	000c                	0xc
 9a8:	0501                	addi	a0,a0,0
 9aa:	04020007          	vluxei8.v	v0,(tp),v0,v0.t
 9ae:	0302                	c.slli64	t1
 9b0:	0901                	addi	s2,s2,0
 9b2:	0008                	0x8
 9b4:	0001                	nop
 9b6:	0402                	c.slli64	s0
 9b8:	0302                	c.slli64	t1
 9ba:	0901                	addi	s2,s2,0
 9bc:	0018                	0x18
 9be:	0501                	addi	a0,a0,0
 9c0:	001e                	c.slli	zero,0x7
 9c2:	0402                	c.slli64	s0
 9c4:	0302                	c.slli64	t1
 9c6:	0979                	addi	s2,s2,30
 9c8:	0010                	0x10
 9ca:	0501                	addi	a0,a0,0
 9cc:	0402000f          	0x402000f
 9d0:	0301                	addi	t1,t1,0
 9d2:	0900                	addi	s0,sp,144
 9d4:	000c                	0xc
 9d6:	0501                	addi	a0,a0,0
 9d8:	0002                	c.slli64	zero
 9da:	0402                	c.slli64	s0
 9dc:	0301                	addi	t1,t1,0
 9de:	0900                	addi	s0,sp,144
 9e0:	0008                	0x8
 9e2:	0501                	addi	a0,a0,0
 9e4:	0304                	addi	s1,sp,384
 9e6:	0904                	addi	s1,sp,144
 9e8:	0008                	0x8
 9ea:	0501                	addi	a0,a0,0
 9ec:	09050307          	vlse8.v	v6,(a0),a6,v0.t
 9f0:	0004                	0x4
 9f2:	0501                	addi	a0,a0,0
 9f4:	0312                	slli	t1,t1,0x4
 9f6:	0901                	addi	s2,s2,0
 9f8:	000c                	0xc
 9fa:	0501                	addi	a0,a0,0
 9fc:	030a                	slli	t1,t1,0x2
 9fe:	0900                	addi	s0,sp,144
 a00:	000c                	0xc
 a02:	0501                	addi	a0,a0,0
 a04:	0301                	addi	t1,t1,0
 a06:	0901                	addi	s2,s2,0
 a08:	0004                	0x4
 a0a:	0301                	addi	t1,t1,0
 a0c:	00100903          	lb	s2,1(zero) # 1 <__bin_size-0x6fff>
 a10:	0501                	addi	a0,a0,0
 a12:	0308                	addi	a0,sp,384
 a14:	0905                	addi	s2,s2,1
 a16:	0034                	addi	a3,sp,8
 a18:	0501                	addi	a0,a0,0
 a1a:	0302                	c.slli64	t1
 a1c:	0900                	addi	s0,sp,144
 a1e:	0004                	0x4
 a20:	0501                	addi	a0,a0,0
 a22:	000a                	c.slli	zero,0x2
 a24:	0402                	c.slli64	s0
 a26:	09010303          	lb	t1,144(sp)
 a2a:	0004                	0x4
 a2c:	0501                	addi	a0,a0,0
 a2e:	001f 0402 0303      	0x3030402001f
 a34:	0018097f          	0x18097f
 a38:	0501                	addi	a0,a0,0
 a3a:	0402000f          	0x402000f
 a3e:	0301                	addi	t1,t1,0
 a40:	0900                	addi	s0,sp,144
 a42:	000c                	0xc
 a44:	0501                	addi	a0,a0,0
 a46:	0002                	c.slli64	zero
 a48:	0402                	c.slli64	s0
 a4a:	0301                	addi	t1,t1,0
 a4c:	0900                	addi	s0,sp,144
 a4e:	0004                	0x4
 a50:	0501                	addi	a0,a0,0
 a52:	09020307          	vlse8.v	v6,(tp),a6,v0.t
 a56:	000c                	0xc
 a58:	0501                	addi	a0,a0,0
 a5a:	0304                	addi	s1,sp,384
 a5c:	0901                	addi	s2,s2,0
 a5e:	0008                	0x8
 a60:	0501                	addi	a0,a0,0
 a62:	0308                	addi	a0,sp,384
 a64:	0901                	addi	s2,s2,0
 a66:	000c                	0xc
 a68:	0501                	addi	a0,a0,0
 a6a:	0306                	slli	t1,t1,0x1
 a6c:	0902                	c.slli64	s2
 a6e:	0008                	0x8
 a70:	0501                	addi	a0,a0,0
 a72:	0309                	addi	t1,t1,2
 a74:	0902                	c.slli64	s2
 a76:	0004                	0x4
 a78:	0501                	addi	a0,a0,0
 a7a:	0305                	addi	t1,t1,1
 a7c:	0900                	addi	s0,sp,144
 a7e:	0010                	0x10
 a80:	0301                	addi	t1,t1,0
 a82:	0901                	addi	s2,s2,0
 a84:	0004                	0x4
 a86:	0501                	addi	a0,a0,0
 a88:	0316                	slli	t1,t1,0x5
 a8a:	0901                	addi	s2,s2,0
 a8c:	0010                	0x10
 a8e:	0501                	addi	a0,a0,0
 a90:	030d                	addi	t1,t1,3
 a92:	0900                	addi	s0,sp,144
 a94:	0010                	0x10
 a96:	0501                	addi	a0,a0,0
 a98:	0311                	addi	t1,t1,4
 a9a:	0902                	c.slli64	s2
 a9c:	0014                	0x14
 a9e:	0501                	addi	a0,a0,0
 aa0:	030d                	addi	t1,t1,3
 aa2:	0900                	addi	s0,sp,144
 aa4:	0010                	0x10
 aa6:	0501                	addi	a0,a0,0
 aa8:	0305                	addi	t1,t1,1
 aaa:	0901                	addi	s2,s2,0
 aac:	0010                	0x10
 aae:	0501                	addi	a0,a0,0
 ab0:	0306                	slli	t1,t1,0x1
 ab2:	0901                	addi	s2,s2,0
 ab4:	0010                	0x10
 ab6:	0501                	addi	a0,a0,0
 ab8:	0302                	c.slli64	t1
 aba:	0901                	addi	s2,s2,0
 abc:	000c                	0xc
 abe:	0501                	addi	a0,a0,0
 ac0:	0304                	addi	s1,sp,384
 ac2:	0902                	c.slli64	s2
 ac4:	000c                	0xc
 ac6:	0501                	addi	a0,a0,0
 ac8:	0309                	addi	t1,t1,2
 aca:	0902                	c.slli64	s2
 acc:	000c                	0xc
 ace:	0501                	addi	a0,a0,0
 ad0:	0305                	addi	t1,t1,1
 ad2:	0900                	addi	s0,sp,144
 ad4:	0004                	0x4
 ad6:	0501                	addi	a0,a0,0
 ad8:	09010307          	vlse8.v	v6,(sp),a6,v0.t
 adc:	000c                	0xc
 ade:	0501                	addi	a0,a0,0
 ae0:	0305                	addi	t1,t1,1
 ae2:	0901                	addi	s2,s2,0
 ae4:	0008                	0x8
 ae6:	0501                	addi	a0,a0,0
 ae8:	0308                	addi	a0,sp,384
 aea:	0901                	addi	s2,s2,0
 aec:	0014                	0x14
 aee:	0501                	addi	a0,a0,0
 af0:	0902030b          	0x902030b
 af4:	0008                	0x8
 af6:	0501                	addi	a0,a0,0
 af8:	0308                	addi	a0,sp,384
 afa:	0902                	c.slli64	s2
 afc:	0010                	0x10
 afe:	0501                	addi	a0,a0,0
 b00:	0302                	c.slli64	t1
 b02:	0900                	addi	s0,sp,144
 b04:	000c                	0xc
 b06:	0501                	addi	a0,a0,0
 b08:	04020003          	lb	zero,64(tp) # ffffffffffff8040 <bss_begin+0xfffffffffffd1040>
 b0c:	09010303          	lb	t1,144(sp)
 b10:	0004                	0x4
 b12:	0501                	addi	a0,a0,0
 b14:	001c                	0x1c
 b16:	0402                	c.slli64	s0
 b18:	097f0303          	lb	t1,151(t5) # 1e097 <__bin_size+0x17097>
 b1c:	0018                	0x18
 b1e:	0501                	addi	a0,a0,0
 b20:	0002                	c.slli64	zero
 b22:	0402                	c.slli64	s0
 b24:	0301                	addi	t1,t1,0
 b26:	0900                	addi	s0,sp,144
 b28:	000c                	0xc
 b2a:	0501                	addi	a0,a0,0
 b2c:	0301                	addi	t1,t1,0
 b2e:	0902                	c.slli64	s2
 b30:	000c                	0xc
 b32:	0301                	addi	t1,t1,0
 b34:	00180903          	lb	s2,1(a6)
 b38:	0501                	addi	a0,a0,0
 b3a:	0305                	addi	t1,t1,1
 b3c:	0905                	addi	s2,s2,1
 b3e:	0018                	0x18
 b40:	0501                	addi	a0,a0,0
 b42:	0308                	addi	a0,sp,384
 b44:	0901                	addi	s2,s2,0
 b46:	0008                	0x8
 b48:	0501                	addi	a0,a0,0
 b4a:	0302                	c.slli64	t1
 b4c:	0900                	addi	s0,sp,144
 b4e:	0008                	0x8
 b50:	0501                	addi	a0,a0,0
 b52:	0305                	addi	t1,t1,1
 b54:	0902                	c.slli64	s2
 b56:	0004                	0x4
 b58:	0501                	addi	a0,a0,0
 b5a:	0306                	slli	t1,t1,0x1
 b5c:	0901                	addi	s2,s2,0
 b5e:	0004                	0x4
 b60:	0501                	addi	a0,a0,0
 b62:	09010307          	vlse8.v	v6,(sp),a6,v0.t
 b66:	0004                	0x4
 b68:	0501                	addi	a0,a0,0
 b6a:	0305                	addi	t1,t1,1
 b6c:	0900                	addi	s0,sp,144
 b6e:	0008                	0x8
 b70:	0301                	addi	t1,t1,0
 b72:	0901                	addi	s2,s2,0
 b74:	0004                	0x4
 b76:	0501                	addi	a0,a0,0
 b78:	0306                	slli	t1,t1,0x1
 b7a:	0901                	addi	s2,s2,0
 b7c:	0008                	0x8
 b7e:	0501                	addi	a0,a0,0
 b80:	0305                	addi	t1,t1,1
 b82:	0900                	addi	s0,sp,144
 b84:	0008                	0x8
 b86:	0501                	addi	a0,a0,0
 b88:	0306                	slli	t1,t1,0x1
 b8a:	0902                	c.slli64	s2
 b8c:	000c                	0xc
 b8e:	0501                	addi	a0,a0,0
 b90:	0305                	addi	t1,t1,1
 b92:	0901                	addi	s2,s2,0
 b94:	0008                	0x8
 b96:	0501                	addi	a0,a0,0
 b98:	09010307          	vlse8.v	v6,(sp),a6,v0.t
 b9c:	000c                	0xc
 b9e:	0501                	addi	a0,a0,0
 ba0:	0306                	slli	t1,t1,0x1
 ba2:	0900                	addi	s0,sp,144
 ba4:	0008                	0x8
 ba6:	0501                	addi	a0,a0,0
 ba8:	0014                	0x14
 baa:	0402                	c.slli64	s0
 bac:	0301                	addi	t1,t1,0
 bae:	0900                	addi	s0,sp,144
 bb0:	000c                	0xc
 bb2:	0501                	addi	a0,a0,0
 bb4:	0011                	c.nop	4
 bb6:	0402                	c.slli64	s0
 bb8:	0301                	addi	t1,t1,0
 bba:	0900                	addi	s0,sp,144
 bbc:	0008                	0x8
 bbe:	0501                	addi	a0,a0,0
 bc0:	030a                	slli	t1,t1,0x2
 bc2:	0901                	addi	s2,s2,0
 bc4:	000c                	0xc
 bc6:	0501                	addi	a0,a0,0
 bc8:	09000307          	vlse8.v	v6,(zero),a6,v0.t
 bcc:	0018                	0x18
 bce:	0501                	addi	a0,a0,0
 bd0:	0308                	addi	a0,sp,384
 bd2:	0901                	addi	s2,s2,0
 bd4:	000c                	0xc
 bd6:	0501                	addi	a0,a0,0
 bd8:	0306                	slli	t1,t1,0x1
 bda:	0900                	addi	s0,sp,144
 bdc:	0008                	0x8
 bde:	0501                	addi	a0,a0,0
 be0:	0305                	addi	t1,t1,1
 be2:	0902                	c.slli64	s2
 be4:	0004                	0x4
 be6:	0501                	addi	a0,a0,0
 be8:	0011                	c.nop	4
 bea:	0402                	c.slli64	s0
 bec:	0301                	addi	t1,t1,0
 bee:	0900                	addi	s0,sp,144
 bf0:	0010                	0x10
 bf2:	0501                	addi	a0,a0,0
 bf4:	0308                	addi	a0,sp,384
 bf6:	0902                	c.slli64	s2
 bf8:	0010                	0x10
 bfa:	0501                	addi	a0,a0,0
 bfc:	0304                	addi	s1,sp,384
 bfe:	0901                	addi	s2,s2,0
 c00:	0014                	0x14
 c02:	0501                	addi	a0,a0,0
 c04:	030a                	slli	t1,t1,0x2
 c06:	0904                	addi	s1,sp,144
 c08:	0038                	addi	a4,sp,8
 c0a:	0501                	addi	a0,a0,0
 c0c:	0304                	addi	s1,sp,384
 c0e:	0900                	addi	s0,sp,144
 c10:	0004                	0x4
 c12:	0501                	addi	a0,a0,0
 c14:	0010                	0x10
 c16:	0402                	c.slli64	s0
 c18:	09010303          	lb	t1,144(sp)
 c1c:	0004                	0x4
 c1e:	0501                	addi	a0,a0,0
 c20:	0005                	c.nop	1
 c22:	0402                	c.slli64	s0
 c24:	09000303          	lb	t1,144(zero) # 90 <__bin_size-0x6f70>
 c28:	000c                	0xc
 c2a:	0501                	addi	a0,a0,0
 c2c:	001d                	c.nop	7
 c2e:	0402                	c.slli64	s0
 c30:	097f0303          	lb	t1,151(t5)
 c34:	000c                	0xc
 c36:	0501                	addi	a0,a0,0
 c38:	0011                	c.nop	4
 c3a:	0402                	c.slli64	s0
 c3c:	0301                	addi	t1,t1,0
 c3e:	0900                	addi	s0,sp,144
 c40:	000c                	0xc
 c42:	0501                	addi	a0,a0,0
 c44:	0016                	c.slli	zero,0x5
 c46:	0402                	c.slli64	s0
 c48:	0301                	addi	t1,t1,0
 c4a:	0900                	addi	s0,sp,144
 c4c:	0004                	0x4
 c4e:	0501                	addi	a0,a0,0
 c50:	0004                	0x4
 c52:	0402                	c.slli64	s0
 c54:	0301                	addi	t1,t1,0
 c56:	0900                	addi	s0,sp,144
 c58:	000c                	0xc
 c5a:	0501                	addi	a0,a0,0
 c5c:	0308                	addi	a0,sp,384
 c5e:	0902                	c.slli64	s2
 c60:	0004                	0x4
 c62:	0001                	nop
 c64:	0402                	c.slli64	s0
 c66:	0601                	addi	a2,a2,0
 c68:	0c090003          	lb	zero,192(s2)
 c6c:	0100                	addi	s0,sp,128
 c6e:	0200                	addi	s0,sp,256
 c70:	0204                	addi	s1,sp,256
 c72:	0c090003          	lb	zero,192(s2)
 c76:	0100                	addi	s0,sp,128
 c78:	0605                	addi	a2,a2,1
 c7a:	0200                	addi	s0,sp,256
 c7c:	0404                	addi	s1,sp,512
 c7e:	0306                	slli	t1,t1,0x1
 c80:	0900                	addi	s0,sp,144
 c82:	0008                	0x8
 c84:	0501                	addi	a0,a0,0
 c86:	0004                	0x4
 c88:	0402                	c.slli64	s0
 c8a:	0304                	addi	s1,sp,384
 c8c:	0901                	addi	s2,s2,0
 c8e:	0004                	0x4
 c90:	0501                	addi	a0,a0,0
 c92:	001c                	0x1c
 c94:	0402                	c.slli64	s0
 c96:	0302                	c.slli64	t1
 c98:	0968                	addi	a0,sp,156
 c9a:	000c                	0xc
 c9c:	0501                	addi	a0,a0,0
 c9e:	0402000f          	0x402000f
 ca2:	0301                	addi	t1,t1,0
 ca4:	0900                	addi	s0,sp,144
 ca6:	000c                	0xc
 ca8:	0501                	addi	a0,a0,0
 caa:	0002                	c.slli64	zero
 cac:	0402                	c.slli64	s0
 cae:	0301                	addi	t1,t1,0
 cb0:	0900                	addi	s0,sp,144
 cb2:	0008                	0x8
 cb4:	0501                	addi	a0,a0,0
 cb6:	0309                	addi	t1,t1,2
 cb8:	0004091b          	sext.w	s2,s0
 cbc:	0501                	addi	a0,a0,0
 cbe:	0301                	addi	t1,t1,0
 cc0:	0901                	addi	s2,s2,0
 cc2:	0004                	0x4
 cc4:	0301                	addi	t1,t1,0
 cc6:	00140903          	lb	s2,1(s0)
 cca:	0501                	addi	a0,a0,0
 ccc:	0302                	c.slli64	t1
 cce:	0904                	addi	s1,sp,144
 cd0:	0030                	addi	a2,sp,8
 cd2:	0301                	addi	t1,t1,0
 cd4:	0901                	addi	s2,s2,0
 cd6:	0014                	0x14
 cd8:	0501                	addi	a0,a0,0
 cda:	0309                	addi	t1,t1,2
 cdc:	00100903          	lb	s2,1(zero) # 1 <__bin_size-0x6fff>
 ce0:	0501                	addi	a0,a0,0
 ce2:	0301                	addi	t1,t1,0
 ce4:	0901                	addi	s2,s2,0
 ce6:	0004                	0x4
 ce8:	0301                	addi	t1,t1,0
 cea:	0904                	addi	s1,sp,144
 cec:	0014                	0x14
 cee:	0501                	addi	a0,a0,0
 cf0:	0305                	addi	t1,t1,1
 cf2:	0904                	addi	s1,sp,144
 cf4:	0018                	0x18
 cf6:	0301                	addi	t1,t1,0
 cf8:	0901                	addi	s2,s2,0
 cfa:	0008                	0x8
 cfc:	0501                	addi	a0,a0,0
 cfe:	030c                	addi	a1,sp,384
 d00:	0902                	c.slli64	s2
 d02:	0008                	0x8
 d04:	0501                	addi	a0,a0,0
 d06:	0305                	addi	t1,t1,1
 d08:	0900                	addi	s0,sp,144
 d0a:	0008                	0x8
 d0c:	0501                	addi	a0,a0,0
 d0e:	09020317          	auipc	t1,0x9020
 d12:	0004                	0x4
 d14:	0501                	addi	a0,a0,0
 d16:	09000313          	li	t1,144
 d1a:	000c                	0xc
 d1c:	0501                	addi	a0,a0,0
 d1e:	031c                	addi	a5,sp,384
 d20:	0900                	addi	s0,sp,144
 d22:	0010                	0x10
 d24:	0501                	addi	a0,a0,0
 d26:	030e                	slli	t1,t1,0x3
 d28:	0900                	addi	s0,sp,144
 d2a:	0004                	0x4
 d2c:	0501                	addi	a0,a0,0
 d2e:	030c                	addi	a1,sp,384
 d30:	0901                	addi	s2,s2,0
 d32:	0008                	0x8
 d34:	0501                	addi	a0,a0,0
 d36:	030d                	addi	t1,t1,3
 d38:	0901                	addi	s2,s2,0
 d3a:	0010                	0x10
 d3c:	0301                	addi	t1,t1,0
 d3e:	0902                	c.slli64	s2
 d40:	001c                	0x1c
 d42:	0501                	addi	a0,a0,0
 d44:	001a                	c.slli	zero,0x6
 d46:	0402                	c.slli64	s0
 d48:	0302                	c.slli64	t1
 d4a:	097a                	slli	s2,s2,0x1e
 d4c:	0018                	0x18
 d4e:	0501                	addi	a0,a0,0
 d50:	0005                	c.nop	1
 d52:	0402                	c.slli64	s0
 d54:	0301                	addi	t1,t1,0
 d56:	0900                	addi	s0,sp,144
 d58:	000c                	0xc
 d5a:	0501                	addi	a0,a0,0
 d5c:	0301                	addi	t1,t1,0
 d5e:	0908                	addi	a0,sp,144
 d60:	000c                	0xc
 d62:	0901                	addi	s2,s2,0
 d64:	0018                	0x18
 d66:	0100                	addi	s0,sp,128
 d68:	5d01                	li	s10,-32
 d6a:	0000                	unimp
 d6c:	0300                	addi	s0,sp,384
 d6e:	2500                	fld	fs0,8(a0)
 d70:	0000                	unimp
 d72:	0100                	addi	s0,sp,128
 d74:	fb01                	bnez	a4,c84 <__bin_size-0x637c>
 d76:	0d0e                	slli	s10,s10,0x3
 d78:	0100                	addi	s0,sp,128
 d7a:	0101                	addi	sp,sp,0
 d7c:	0001                	nop
 d7e:	0000                	unimp
 d80:	0001                	nop
 d82:	0100                	addi	s0,sp,128
 d84:	00696273          	csrrsi	tp,0x6,18
 d88:	7300                	ld	s0,32(a4)
 d8a:	6962                	ld	s2,24(sp)
 d8c:	625f 6f6f 2e74      	0x2e746f6f625f
 d92:	00010053          	fadd.s	ft0,ft2,ft0,rne
 d96:	0000                	unimp
 d98:	0900                	addi	s0,sp,144
 d9a:	3002                	fld	ft0,32(sp)
 d9c:	0200                	addi	s0,sp,256
 d9e:	0000                	unimp
 da0:	0000                	unimp
 da2:	0300                	addi	s0,sp,384
 da4:	0116                	slli	sp,sp,0x5
 da6:	04090303          	lb	t1,64(s2)
 daa:	0100                	addi	s0,sp,128
 dac:	08090103          	lb	sp,128(s2)
 db0:	0100                	addi	s0,sp,128
 db2:	04090103          	lb	sp,64(s2)
 db6:	0100                	addi	s0,sp,128
 db8:	04090603          	lb	a2,64(s2)
 dbc:	0100                	addi	s0,sp,128
 dbe:	04090303          	lb	t1,64(s2)
 dc2:	0100                	addi	s0,sp,128
 dc4:	0409                	addi	s0,s0,2
 dc6:	0000                	unimp
 dc8:	0101                	addi	sp,sp,0
 dca:	01fc                	addi	a5,sp,204
 dcc:	0000                	unimp
 dce:	00260003          	lb	zero,2(a2)
 dd2:	0000                	unimp
 dd4:	0101                	addi	sp,sp,0
 dd6:	000d0efb          	0xd0efb
 dda:	0101                	addi	sp,sp,0
 ddc:	0101                	addi	sp,sp,0
 dde:	0000                	unimp
 de0:	0100                	addi	s0,sp,128
 de2:	0000                	unimp
 de4:	7301                	lui	t1,0xfffe0
 de6:	6962                	ld	s2,24(sp)
 de8:	0000                	unimp
 dea:	5f696273          	csrrsi	tp,shpmcounter22,18
 dee:	6e65                	lui	t3,0x19
 df0:	7274                	ld	a3,224(a2)
 df2:	2e79                	addiw	t3,t3,30
 df4:	00010053          	fadd.s	ft0,ft2,ft0,rne
 df8:	0000                	unimp
 dfa:	0900                	addi	s0,sp,144
 dfc:	3002                	fld	ft0,32(sp)
 dfe:	0211                	addi	tp,tp,4
 e00:	0000                	unimp
 e02:	0000                	unimp
 e04:	0300                	addi	s0,sp,384
 e06:	0203010b          	0x203010b
 e0a:	0409                	addi	s0,s0,2
 e0c:	0100                	addi	s0,sp,128
 e0e:	04090203          	lb	tp,64(s2)
 e12:	0100                	addi	s0,sp,128
 e14:	04090103          	lb	sp,64(s2)
 e18:	0100                	addi	s0,sp,128
 e1a:	04090103          	lb	sp,64(s2)
 e1e:	0100                	addi	s0,sp,128
 e20:	04090103          	lb	sp,64(s2)
 e24:	0100                	addi	s0,sp,128
 e26:	04090103          	lb	sp,64(s2)
 e2a:	0100                	addi	s0,sp,128
 e2c:	04090103          	lb	sp,64(s2)
 e30:	0100                	addi	s0,sp,128
 e32:	04090103          	lb	sp,64(s2)
 e36:	0100                	addi	s0,sp,128
 e38:	04090103          	lb	sp,64(s2)
 e3c:	0100                	addi	s0,sp,128
 e3e:	04090103          	lb	sp,64(s2)
 e42:	0100                	addi	s0,sp,128
 e44:	04090103          	lb	sp,64(s2)
 e48:	0100                	addi	s0,sp,128
 e4a:	04090103          	lb	sp,64(s2)
 e4e:	0100                	addi	s0,sp,128
 e50:	04090103          	lb	sp,64(s2)
 e54:	0100                	addi	s0,sp,128
 e56:	04090103          	lb	sp,64(s2)
 e5a:	0100                	addi	s0,sp,128
 e5c:	04090103          	lb	sp,64(s2)
 e60:	0100                	addi	s0,sp,128
 e62:	04090103          	lb	sp,64(s2)
 e66:	0100                	addi	s0,sp,128
 e68:	04090103          	lb	sp,64(s2)
 e6c:	0100                	addi	s0,sp,128
 e6e:	04090103          	lb	sp,64(s2)
 e72:	0100                	addi	s0,sp,128
 e74:	04090103          	lb	sp,64(s2)
 e78:	0100                	addi	s0,sp,128
 e7a:	04090103          	lb	sp,64(s2)
 e7e:	0100                	addi	s0,sp,128
 e80:	04090103          	lb	sp,64(s2)
 e84:	0100                	addi	s0,sp,128
 e86:	04090103          	lb	sp,64(s2)
 e8a:	0100                	addi	s0,sp,128
 e8c:	04090103          	lb	sp,64(s2)
 e90:	0100                	addi	s0,sp,128
 e92:	04090103          	lb	sp,64(s2)
 e96:	0100                	addi	s0,sp,128
 e98:	04090103          	lb	sp,64(s2)
 e9c:	0100                	addi	s0,sp,128
 e9e:	04090103          	lb	sp,64(s2)
 ea2:	0100                	addi	s0,sp,128
 ea4:	04090103          	lb	sp,64(s2)
 ea8:	0100                	addi	s0,sp,128
 eaa:	04090103          	lb	sp,64(s2)
 eae:	0100                	addi	s0,sp,128
 eb0:	04090103          	lb	sp,64(s2)
 eb4:	0100                	addi	s0,sp,128
 eb6:	04090103          	lb	sp,64(s2)
 eba:	0100                	addi	s0,sp,128
 ebc:	04090303          	lb	t1,64(s2)
 ec0:	0100                	addi	s0,sp,128
 ec2:	04090103          	lb	sp,64(s2)
 ec6:	0100                	addi	s0,sp,128
 ec8:	04090303          	lb	t1,64(s2)
 ecc:	0100                	addi	s0,sp,128
 ece:	04090103          	lb	sp,64(s2)
 ed2:	0100                	addi	s0,sp,128
 ed4:	04090703          	lb	a4,64(s2)
 ed8:	0100                	addi	s0,sp,128
 eda:	04090203          	lb	tp,64(s2)
 ede:	0100                	addi	s0,sp,128
 ee0:	04090103          	lb	sp,64(s2)
 ee4:	0100                	addi	s0,sp,128
 ee6:	04090303          	lb	t1,64(s2)
 eea:	0100                	addi	s0,sp,128
 eec:	04090103          	lb	sp,64(s2)
 ef0:	0100                	addi	s0,sp,128
 ef2:	04090303          	lb	t1,64(s2)
 ef6:	0100                	addi	s0,sp,128
 ef8:	04090103          	lb	sp,64(s2)
 efc:	0100                	addi	s0,sp,128
 efe:	04090203          	lb	tp,64(s2)
 f02:	0100                	addi	s0,sp,128
 f04:	04090103          	lb	sp,64(s2)
 f08:	0100                	addi	s0,sp,128
 f0a:	04090203          	lb	tp,64(s2)
 f0e:	0100                	addi	s0,sp,128
 f10:	04090103          	lb	sp,64(s2)
 f14:	0100                	addi	s0,sp,128
 f16:	04090103          	lb	sp,64(s2)
 f1a:	0100                	addi	s0,sp,128
 f1c:	04090103          	lb	sp,64(s2)
 f20:	0100                	addi	s0,sp,128
 f22:	04090103          	lb	sp,64(s2)
 f26:	0100                	addi	s0,sp,128
 f28:	04090103          	lb	sp,64(s2)
 f2c:	0100                	addi	s0,sp,128
 f2e:	04090103          	lb	sp,64(s2)
 f32:	0100                	addi	s0,sp,128
 f34:	04090103          	lb	sp,64(s2)
 f38:	0100                	addi	s0,sp,128
 f3a:	04090103          	lb	sp,64(s2)
 f3e:	0100                	addi	s0,sp,128
 f40:	04090103          	lb	sp,64(s2)
 f44:	0100                	addi	s0,sp,128
 f46:	04090103          	lb	sp,64(s2)
 f4a:	0100                	addi	s0,sp,128
 f4c:	04090103          	lb	sp,64(s2)
 f50:	0100                	addi	s0,sp,128
 f52:	04090103          	lb	sp,64(s2)
 f56:	0100                	addi	s0,sp,128
 f58:	04090103          	lb	sp,64(s2)
 f5c:	0100                	addi	s0,sp,128
 f5e:	04090103          	lb	sp,64(s2)
 f62:	0100                	addi	s0,sp,128
 f64:	04090103          	lb	sp,64(s2)
 f68:	0100                	addi	s0,sp,128
 f6a:	04090103          	lb	sp,64(s2)
 f6e:	0100                	addi	s0,sp,128
 f70:	04090103          	lb	sp,64(s2)
 f74:	0100                	addi	s0,sp,128
 f76:	04090103          	lb	sp,64(s2)
 f7a:	0100                	addi	s0,sp,128
 f7c:	04090103          	lb	sp,64(s2)
 f80:	0100                	addi	s0,sp,128
 f82:	04090103          	lb	sp,64(s2)
 f86:	0100                	addi	s0,sp,128
 f88:	04090103          	lb	sp,64(s2)
 f8c:	0100                	addi	s0,sp,128
 f8e:	04090103          	lb	sp,64(s2)
 f92:	0100                	addi	s0,sp,128
 f94:	04090103          	lb	sp,64(s2)
 f98:	0100                	addi	s0,sp,128
 f9a:	04090103          	lb	sp,64(s2)
 f9e:	0100                	addi	s0,sp,128
 fa0:	04090103          	lb	sp,64(s2)
 fa4:	0100                	addi	s0,sp,128
 fa6:	04090103          	lb	sp,64(s2)
 faa:	0100                	addi	s0,sp,128
 fac:	04090103          	lb	sp,64(s2)
 fb0:	0100                	addi	s0,sp,128
 fb2:	04090103          	lb	sp,64(s2)
 fb6:	0100                	addi	s0,sp,128
 fb8:	04090203          	lb	tp,64(s2)
 fbc:	0100                	addi	s0,sp,128
 fbe:	04090103          	lb	sp,64(s2)
 fc2:	0100                	addi	s0,sp,128
 fc4:	0409                	addi	s0,s0,2
 fc6:	0000                	unimp
 fc8:	0101                	addi	sp,sp,0

Disassembly of section .debug_str:

0000000000000000 <.debug_str>:
   0:	2f696273          	csrrsi	tp,0x2f6,18
   4:	5f696273          	csrrsi	tp,shpmcounter22,18
   8:	696c                	ld	a1,208(a0)
   a:	2e62                	fld	ft8,24(sp)
   c:	6f6c0063          	beq	s8,s6,6ec <__bin_size-0x6914>
  10:	6f723267          	0x6f723267
  14:	6e75                	lui	t3,0x1d
  16:	7564                	ld	s1,232(a0)
  18:	0070                	addi	a2,sp,12
  1a:	20554e47          	fmsub.s	ft8,fa0,ft5,ft4,rmm
  1e:	20373143          	fmadd.s	ft2,fa4,ft3,ft4,rup
  22:	3031                	0x3031
  24:	322e                	fld	ft4,232(sp)
  26:	302e                	fld	ft0,232(sp)
  28:	2d20                	fld	fs0,88(a0)
  2a:	636d                	lui	t1,0x1b
  2c:	6f6d                	lui	t5,0x1b
  2e:	6564                	ld	s1,200(a0)
  30:	3d6c                	fld	fa1,248(a0)
  32:	656d                	lui	a0,0x1b
  34:	6164                	ld	s1,192(a0)
  36:	796e                	ld	s2,248(sp)
  38:	2d20                	fld	fs0,88(a0)
  3a:	616d                	addi	sp,sp,240
  3c:	6962                	ld	s2,24(sp)
  3e:	6c3d                	lui	s8,0xf
  40:	3670                	fld	fa2,232(a2)
  42:	2034                	fld	fa3,64(s0)
  44:	6d2d                	lui	s10,0xb
  46:	7261                	lui	tp,0xffff8
  48:	723d6863          	bltu	s10,gp,778 <__bin_size-0x6888>
  4c:	3676                	fld	fa2,376(sp)
  4e:	6934                	ld	a3,80(a0)
  50:	616d                	addi	sp,sp,240
  52:	6466                	ld	s0,88(sp)
  54:	2d20                	fld	fs0,88(a0)
  56:	4f2d2067          	0x4f2d2067
  5a:	2030                	fld	fa2,64(s0)
  5c:	662d                	lui	a2,0xb
  5e:	6f6e                	ld	t5,216(sp)
  60:	502d                	c.li	zero,-21
  62:	4549                	li	a0,18
  64:	2d20                	fld	fs0,88(a0)
  66:	6e66                	ld	t3,88(sp)
  68:	6d6f2d6f          	jal	s10,f273e <bss_begin+0xcb73e>
  6c:	7469                	lui	s0,0xffffa
  6e:	662d                	lui	a2,0xb
  70:	6172                	ld	sp,280(sp)
  72:	656d                	lui	a0,0x1b
  74:	702d                	c.lui	zero,0xfffeb
  76:	746e696f          	jal	s2,e67bc <bss_begin+0xbf7bc>
  7a:	7265                	lui	tp,0xffff9
  7c:	7200                	ld	s0,32(a2)
  7e:	6165                	addi	sp,sp,112
  80:	5f64                	lw	s1,124(a4)
  82:	5f727363          	bgeu	tp,s7,668 <__bin_size-0x6998>
  86:	756e                	ld	a0,248(sp)
  88:	006d                	c.nop	27
  8a:	3a45                	addiw	s4,s4,-15
  8c:	5c5c                	lw	a5,60(s0)
  8e:	3164                	fld	fs1,224(a0)
  90:	72705f73          	csrrwi	t5,0x727,0
  94:	63656a6f          	jal	s4,566ca <bss_begin+0x2f6ca>
  98:	7374                	ld	a3,224(a4)
  9a:	5c5c                	lw	a5,60(s0)
  9c:	6972                	ld	s2,280(sp)
  9e:	5f766373          	csrrsi	t1,shpmcounter23,12
  a2:	7270                	ld	a2,224(a2)
  a4:	6172676f          	jal	a4,26eba <stacks_start+0xeba>
  a8:	6d6d                	lui	s10,0x1b
  aa:	6e69                	lui	t3,0x1a
  ac:	72705f67          	0x72705f67
  b0:	6361                	lui	t1,0x18
  b2:	6974                	ld	a3,208(a0)
  b4:	662d6563          	bltu	s10,sp,71e <__bin_size-0x68e2>
  b8:	642d726f          	jal	tp,d76fa <bss_begin+0xb06fa>
  bc:	73676e6f          	jal	t3,767f2 <bss_begin+0x4f7f2>
  c0:	6168                	ld	a0,192(a0)
  c2:	5c6e                	lw	s8,248(sp)
  c4:	635c                	ld	a5,128(a4)
  c6:	6168                	ld	a0,192(a0)
  c8:	7470                	ld	a2,232(s0)
  ca:	7265                	lui	tp,0xffff9
  cc:	385f 5c5c 616c      	0x616c5c5c385f
  d2:	3862                	fld	fa6,56(sp)
  d4:	312d                	addiw	sp,sp,-21
  d6:	5c5c                	lw	a5,60(s0)
  d8:	6562                	ld	a0,24(sp)
  da:	6f6e                	ld	t5,216(sp)
  dc:	72770073          	0x72770073
  e0:	7469                	lui	s0,0xffffa
  e2:	5f65                	li	t5,-7
  e4:	5f727363          	bgeu	tp,s7,6ca <__bin_size-0x6936>
  e8:	756e                	ld	a0,248(sp)
  ea:	006d                	c.nop	27
  ec:	6564726f          	jal	tp,47742 <bss_begin+0x20742>
  f0:	0072                	c.slli	zero,0x1c
  f2:	72617473          	csrrci	s0,0x726,2
  f6:	0074                	addi	a3,sp,12
  f8:	6d70                	ld	a2,216(a0)
  fa:	6370                	ld	a2,192(a4)
  fc:	6766                	ld	a4,88(sp)
  fe:	735f 6968 7466      	0x74666968735f
 104:	7300                	ld	s0,32(a4)
 106:	6962                	ld	s2,24(sp)
 108:	6962732f          	0x6962732f
 10c:	6d5f 6961 2e6e      	0x2e6e69616d5f
 112:	72700063          	beq	zero,t2,832 <__bin_size-0x67ce>
 116:	7300746f          	jal	s0,7846 <__bin_size+0x846>
 11a:	7a69                	lui	s4,0xffffa
 11c:	0065                	c.nop	25
 11e:	6572                	ld	a0,280(sp)
 120:	64695f67          	0x64695f67
 124:	0078                	addi	a4,sp,12
 126:	6d676663          	bltu	a4,s6,7f2 <__bin_size-0x680e>
 12a:	7361                	lui	t1,0xffff8
 12c:	6273006b          	0x6273006b
 130:	5f69                	li	t5,-6
 132:	5f746573          	csrrsi	a0,shpmcounter23,8
 136:	6d70                	ld	a2,216(a0)
 138:	0070                	addi	a2,sp,12
 13a:	6461                	lui	s0,0x18
 13c:	7264                	ld	s1,224(a2)
 13e:	616d                	addi	sp,sp,240
 140:	70006b73          	csrrsi	s6,0x700,0
 144:	706d                	c.lui	zero,0xffffb
 146:	6461                	lui	s0,0x18
 148:	7264                	ld	s1,224(a2)
 14a:	7000                	ld	s0,32(s0)
 14c:	706d                	c.lui	zero,0xffffb
 14e:	00676663          	bltu	a4,t1,15a <__bin_size-0x6ea6>
 152:	5f696273          	csrrsi	tp,shpmcounter22,18
 156:	616d                	addi	sp,sp,240
 158:	6e69                	lui	t3,0x1a
 15a:	7000                	ld	s0,32(s0)
 15c:	706d                	c.lui	zero,0xffffb
 15e:	5f676663          	bltu	a4,s6,74a <__bin_size-0x68b6>
 162:	00727363          	bgeu	tp,t2,168 <__bin_size-0x6e98>
 166:	6d70                	ld	a2,216(a0)
 168:	6170                	ld	a2,192(a0)
 16a:	6464                	ld	s1,200(s0)
 16c:	5f72                	lw	t5,60(sp)
 16e:	00727363          	bgeu	tp,t2,174 <__bin_size-0x6e8c>
 172:	5f696273          	csrrsi	tp,shpmcounter22,18
 176:	6365                	lui	t1,0x19
 178:	6c61                	lui	s8,0x18
 17a:	5f6c                	lw	a1,124(a4)
 17c:	6168                	ld	a0,192(a0)
 17e:	646e                	ld	s0,216(sp)
 180:	656c                	ld	a1,200(a0)
 182:	6500                	ld	s0,8(a0)
 184:	6c6c6163          	bltu	s8,t1,846 <__bin_size-0x67ba>
 188:	695f 0064 636d      	0x636d0064695f
 18e:	7561                	lui	a0,0xffff8
 190:	73006573          	csrrsi	a0,0x730,0
 194:	6962                	ld	s2,24(sp)
 196:	745f 6172 5f70      	0x5f706172745f
 19c:	6572                	ld	a0,280(sp)
 19e:	73007367          	0x73007367
 1a2:	6962                	ld	s2,24(sp)
 1a4:	6962732f          	0x6962732f
 1a8:	745f 6172 2e70      	0x2e706172745f
 1ae:	656d0063          	beq	s10,s6,7ee <__bin_size-0x6812>
 1b2:	6370                	ld	a2,192(a4)
 1b4:	7300                	ld	s0,32(a4)
 1b6:	6962                	ld	s2,24(sp)
 1b8:	745f 6172 5f70      	0x5f706172745f
 1be:	6e69                	lui	t3,0x1a
 1c0:	7469                	lui	s0,0xffffa
 1c2:	7300                	ld	s0,32(a4)
 1c4:	6962                	ld	s2,24(sp)
 1c6:	745f 6172 5f70      	0x5f706172745f
 1cc:	6168                	ld	a0,192(a0)
 1ce:	646e                	ld	s0,216(sp)
 1d0:	656c                	ld	a1,200(a0)
 1d2:	0072                	c.slli	zero,0x1c
 1d4:	736d                	lui	t1,0xffffb
 1d6:	6174                	ld	a3,192(a0)
 1d8:	7574                	ld	a3,232(a0)
 1da:	5f5f0073          	0x5f5f0073
 1de:	7562                	ld	a0,56(sp)
 1e0:	6c69                	lui	s8,0x1a
 1e2:	6974                	ld	a3,208(a0)
 1e4:	5f6e                	lw	t5,248(sp)
 1e6:	6176                	ld	sp,344(sp)
 1e8:	6c5f 7369 0074      	0x7473696c5f
 1ee:	6176                	ld	sp,344(sp)
 1f0:	756c                	ld	a1,232(a0)
 1f2:	0065                	c.nop	25
 1f4:	6175                	addi	sp,sp,368
 1f6:	7472                	ld	s0,312(sp)
 1f8:	695f 696e 0074      	0x74696e695f
 1fe:	6e75                	lui	t3,0x1d
 200:	6e676973          	csrrsi	s2,0x6e6,14
 204:	6465                	lui	s0,0x19
 206:	6320                	ld	s0,64(a4)
 208:	6168                	ld	a0,192(a0)
 20a:	0072                	c.slli	zero,0x1c
 20c:	6572                	ld	a0,280(sp)
 20e:	6461                	lui	s0,0x18
 210:	73003233          	0x73003233
 214:	6962                	ld	s2,24(sp)
 216:	7379732f          	0x7379732f
 21a:	752d                	lui	a0,0xfffeb
 21c:	7261                	lui	tp,0xffff8
 21e:	2e74                	fld	fa3,216(a2)
 220:	68730063          	beq	t1,t2,8a0 <__bin_size-0x6760>
 224:	2074726f          	jal	tp,47c2a <bss_begin+0x20c2a>
 228:	6e75                	lui	t3,0x1d
 22a:	6e676973          	csrrsi	s2,0x6e6,14
 22e:	6465                	lui	s0,0x19
 230:	6920                	ld	s0,80(a0)
 232:	746e                	ld	s0,248(sp)
 234:	7000                	ld	s0,32(s0)
 236:	6972                	ld	s2,280(sp)
 238:	746e                	ld	s0,248(sp)
 23a:	685f 7865 7600      	0x76007865685f
 240:	7269                	lui	tp,0xffffa
 242:	7574                	ld	a3,232(a0)
 244:	6c61                	lui	s8,0x18
 246:	615f 6464 5f72      	0x5f726464615f
 24c:	0074                	addi	a3,sp,12
 24e:	6175                	addi	sp,sp,368
 250:	7472                	ld	s0,312(sp)
 252:	735f 6e65 5f64      	0x5f646e65735f
 258:	69727473          	csrrci	s0,0x697,4
 25c:	676e                	ld	a4,216(sp)
 25e:	7600                	ld	s0,40(a2)
 260:	6670                	ld	a2,200(a2)
 262:	735f 7274 745f      	0x745f7274735f
 268:	756e5f6f          	jal	t5,e59be <bss_begin+0xbe9be>
 26c:	006d                	c.nop	27
 26e:	3375                	addiw	t1,t1,-3
 270:	5f32                	lw	t5,44(sp)
 272:	0074                	addi	a3,sp,12
 274:	6162                	ld	sp,24(sp)
 276:	6c006573          	csrrsi	a0,0x6c0,0
 27a:	20676e6f          	jal	t3,76480 <bss_begin+0x4f480>
 27e:	6f6c                	ld	a1,216(a4)
 280:	676e                	ld	a4,216(sp)
 282:	7520                	ld	s0,104(a0)
 284:	736e                	ld	t1,248(sp)
 286:	6769                	lui	a4,0x1a
 288:	656e                	ld	a0,216(sp)
 28a:	2064                	fld	fs1,192(s0)
 28c:	6e69                	lui	t3,0x1a
 28e:	0074                	addi	a3,sp,12
 290:	7570                	ld	a2,232(a0)
 292:	6374                	ld	a3,192(a4)
 294:	6168                	ld	a0,192(a0)
 296:	0072                	c.slli	zero,0x1c
 298:	3875                	addiw	a6,a6,-3
 29a:	745f 7500 7261      	0x72617500745f
 2a0:	5f74                	lw	a3,124(a4)
 2a2:	6572                	ld	a0,280(sp)
 2a4:	73007663          	bgeu	zero,a6,9d0 <__bin_size-0x6630>
 2a8:	7379                	lui	t1,0xffffe
 2aa:	755f 7261 5f74      	0x5f747261755f
 2b0:	7270                	ld	a2,224(a2)
 2b2:	6e69                	lui	t3,0x1a
 2b4:	6674                	ld	a3,200(a2)
 2b6:	6c00                	ld	s0,24(s0)
 2b8:	20676e6f          	jal	t3,764be <bss_begin+0x4f4be>
 2bc:	6f6c                	ld	a1,216(a4)
 2be:	676e                	ld	a4,216(sp)
 2c0:	6920                	ld	s0,80(a0)
 2c2:	746e                	ld	s0,248(sp)
 2c4:	7700                	ld	s0,40(a4)
 2c6:	6972                	ld	s2,280(sp)
 2c8:	6574                	ld	a3,200(a0)
 2ca:	62003233          	0x62003233
 2ce:	7469                	lui	s0,0xffffa
 2d0:	61750073          	0x61750073
 2d4:	7472                	ld	s0,312(sp)
 2d6:	735f 6e65 0064      	0x646e65735f
 2dc:	726f6873          	csrrsi	a6,0x726,30
 2e0:	2074                	fld	fa3,192(s0)
 2e2:	6e69                	lui	t3,0x1a
 2e4:	0074                	addi	a3,sp,12
 2e6:	7076                	0x7076
 2e8:	5f66                	lw	t5,120(sp)
 2ea:	756e                	ld	a0,248(sp)
 2ec:	5f6d                	li	t5,-5
 2ee:	6f74                	ld	a3,216(a4)
 2f0:	735f 7274 7200      	0x72007274735f
 2f6:	6165                	addi	sp,sp,112
 2f8:	3864                	fld	fs1,240(s0)
 2fa:	7500                	ld	s0,40(a0)
 2fc:	6e69                	lui	t3,0x1a
 2fe:	3374                	fld	fa3,224(a4)
 300:	5f32                	lw	t5,44(sp)
 302:	0074                	addi	a3,sp,12
 304:	2f696273          	csrrsi	tp,0x2f6,18
 308:	5f696273          	csrrsi	tp,shpmcounter22,18
 30c:	6f62                	ld	t5,24(sp)
 30e:	532e746f          	jal	s0,e7840 <bss_begin+0xc0840>
 312:	4500                	lw	s0,8(a0)
 314:	5c3a                	lw	s8,172(sp)
 316:	3164                	fld	fs1,224(a0)
 318:	72705f73          	csrrwi	t5,0x727,0
 31c:	63656a6f          	jal	s4,56952 <bss_begin+0x2f952>
 320:	7374                	ld	a3,224(a4)
 322:	725c                	ld	a5,160(a2)
 324:	7369                	lui	t1,0xffffa
 326:	705f7663          	bgeu	t5,t0,a32 <__bin_size-0x65ce>
 32a:	6f72                	ld	t5,280(sp)
 32c:	6d617267          	0x6d617267
 330:	696d                	lui	s2,0x1b
 332:	676e                	ld	a4,216(sp)
 334:	705f 6172 7463      	0x74636172705f
 33a:	6369                	lui	t1,0x1a
 33c:	2d65                	addiw	s10,s10,25
 33e:	6f66                	ld	t5,88(sp)
 340:	2d72                	fld	fs10,280(sp)
 342:	6f64                	ld	s1,216(a4)
 344:	676e                	ld	a4,216(sp)
 346:	6e616873          	csrrsi	a6,0x6e6,2
 34a:	635c                	ld	a5,128(a4)
 34c:	6168                	ld	a0,192(a0)
 34e:	7470                	ld	a2,232(s0)
 350:	7265                	lui	tp,0xffff9
 352:	385f 6c5c 6261      	0x62616c5c385f
 358:	2d38                	fld	fa4,88(a0)
 35a:	5c31                	li	s8,-20
 35c:	6562                	ld	a0,24(sp)
 35e:	6f6e                	ld	t5,216(sp)
 360:	4e470073          	0x4e470073
 364:	2055                	0x2055
 366:	5341                	li	t1,-16
 368:	3220                	fld	fs0,96(a2)
 36a:	332e                	fld	ft6,232(sp)
 36c:	0035                	c.nop	13
 36e:	2f696273          	csrrsi	tp,0x2f6,18
 372:	5f696273          	csrrsi	tp,shpmcounter22,18
 376:	6e65                	lui	t3,0x19
 378:	7274                	ld	a3,224(a2)
 37a:	2e79                	addiw	t3,t3,30
 37c:	          	fadd.s	ft0,ft0,ft0,rne

Disassembly of section .comment:

0000000000000000 <.comment>:
   0:	3a434347          	fmsub.d	ft6,ft6,ft4,ft7,rmm
   4:	2820                	fld	fs0,80(s0)
   6:	7558                	ld	a4,168(a0)
   8:	6e61                	lui	t3,0x18
   a:	6974                	ld	a3,208(a0)
   c:	2d65                	addiw	s10,s10,25
   e:	3039                	0x3039
  10:	2030                	fld	fa2,64(s0)
  12:	6c65                	lui	s8,0x19
  14:	2066                	fld	ft0,88(sp)
  16:	656e                	ld	a0,216(sp)
  18:	62696c77          	0x62696c77
  1c:	6720                	ld	s0,72(a4)
  1e:	54206363          	bltu	zero,sp,564 <__bin_size-0x6a9c>
  22:	636c6f6f          	jal	t5,c6658 <bss_begin+0x9f658>
  26:	6168                	ld	a0,192(a0)
  28:	6e69                	lui	t3,0x1a
  2a:	5620                	lw	s0,104(a2)
  2c:	2e32                	fld	ft8,264(sp)
  2e:	2e36                	fld	ft8,328(sp)
  30:	2031                	0x2031
  32:	2d42                	fld	fs10,16(sp)
  34:	3032                	fld	ft0,296(sp)
  36:	3232                	fld	ft4,296(sp)
  38:	3930                	fld	fa2,112(a0)
  3a:	3630                	fld	fa2,104(a2)
  3c:	2029                	0x2029
  3e:	3031                	0x3031
  40:	322e                	fld	ft4,232(sp)
  42:	302e                	fld	ft0,232(sp)
	...

Disassembly of section .riscv.attributes:

0000000000000000 <.riscv.attributes>:
   0:	3341                	addiw	t1,t1,-16
   2:	0000                	unimp
   4:	7200                	ld	s0,32(a2)
   6:	7369                	lui	t1,0xffffa
   8:	01007663          	bgeu	zero,a6,14 <__bin_size-0x6fec>
   c:	0029                	c.nop	10
   e:	0000                	unimp
  10:	1004                	addi	s1,sp,32
  12:	7205                	lui	tp,0xfffe1
  14:	3676                	fld	fa2,376(sp)
  16:	6934                	ld	a3,80(a0)
  18:	7032                	0x7032
  1a:	5f30                	lw	a2,120(a4)
  1c:	326d                	addiw	tp,tp,-5
  1e:	3070                	fld	fa2,224(s0)
  20:	615f 7032 5f30      	0x5f307032615f
  26:	3266                	fld	ft4,120(sp)
  28:	3070                	fld	fa2,224(s0)
  2a:	645f 7032 0030      	0x307032645f
  30:	0108                	addi	a0,sp,128
  32:	0b0a                	slli	s6,s6,0x2

Disassembly of section .debug_frame:

0000000000000000 <.debug_frame>:
   0:	000c                	0xc
   2:	0000                	unimp
   4:	ffffffff          	0xffffffff
   8:	7c010003          	lb	zero,1984(sp)
   c:	0d01                	addi	s10,s10,0
   e:	0002                	c.slli64	zero
  10:	002c                	addi	a1,sp,8
  12:	0000                	unimp
  14:	0000                	unimp
  16:	0000                	unimp
  18:	0050                	addi	a2,sp,4
  1a:	0002                	c.slli64	zero
  1c:	0000                	unimp
  1e:	0000                	unimp
  20:	0130                	addi	a2,sp,136
  22:	0000                	unimp
  24:	0000                	unimp
  26:	0000                	unimp
  28:	0e44                	addi	s1,sp,788
  2a:	4830                	lw	a2,80(s0)
  2c:	0288                	addi	a0,sp,320
  2e:	0489                	addi	s1,s1,2
  30:	0c44                	addi	s1,sp,532
  32:	0008                	0x8
  34:	c8011403          	lh	s0,-896(sp)
  38:	020c                	addi	a1,sp,256
  3a:	4430                	lw	a2,72(s0)
  3c:	44c9                	li	s1,18
  3e:	000e                	c.slli	zero,0x3
  40:	002c                	addi	a1,sp,8
  42:	0000                	unimp
  44:	0000                	unimp
  46:	0000                	unimp
  48:	0180                	addi	s0,sp,192
  4a:	0002                	c.slli64	zero
  4c:	0000                	unimp
  4e:	0000                	unimp
  50:	0124                	addi	s1,sp,136
  52:	0000                	unimp
  54:	0000                	unimp
  56:	0000                	unimp
  58:	0e44                	addi	s1,sp,788
  5a:	4470                	lw	a2,76(s0)
  5c:	0288                	addi	a0,sp,320
  5e:	0c44                	addi	s1,sp,532
  60:	0008                	0x8
  62:	c8011003          	lh	zero,-896(sp)
  66:	020c                	addi	a1,sp,256
  68:	4470                	lw	a2,76(s0)
  6a:	000e                	c.slli	zero,0x3
  6c:	0000                	unimp
  6e:	0000                	unimp
  70:	002c                	addi	a1,sp,8
  72:	0000                	unimp
  74:	0000                	unimp
  76:	0000                	unimp
  78:	02a4                	addi	s1,sp,328
  7a:	0002                	c.slli64	zero
  7c:	0000                	unimp
  7e:	0000                	unimp
  80:	0068                	addi	a0,sp,12
  82:	0000                	unimp
  84:	0000                	unimp
  86:	0000                	unimp
  88:	0e44                	addi	s1,sp,788
  8a:	4430                	lw	a2,72(s0)
  8c:	0288                	addi	a0,sp,320
  8e:	0c44                	addi	s1,sp,532
  90:	0008                	0x8
  92:	5402                	lw	s0,32(sp)
  94:	0cc8                	addi	a0,sp,596
  96:	3002                	fld	ft0,32(sp)
  98:	0e44                	addi	s1,sp,788
  9a:	0000                	unimp
  9c:	0000                	unimp
  9e:	0000                	unimp
  a0:	000c                	0xc
  a2:	0000                	unimp
  a4:	ffffffff          	0xffffffff
  a8:	7c010003          	lb	zero,1984(sp)
  ac:	0d01                	addi	s10,s10,0
  ae:	0002                	c.slli64	zero
  b0:	002c                	addi	a1,sp,8
  b2:	0000                	unimp
  b4:	00a0                	addi	s0,sp,72
  b6:	0000                	unimp
  b8:	030c                	addi	a1,sp,384
  ba:	0002                	c.slli64	zero
  bc:	0000                	unimp
  be:	0000                	unimp
  c0:	01e0                	addi	s0,sp,204
  c2:	0000                	unimp
  c4:	0000                	unimp
  c6:	0000                	unimp
  c8:	0e44                	addi	s1,sp,788
  ca:	4860                	lw	s0,84(s0)
  cc:	0281                	addi	t0,t0,0
  ce:	0488                	addi	a0,sp,576
  d0:	0c44                	addi	s1,sp,532
  d2:	0008                	0x8
  d4:	c101c403          	lbu	s0,-1008(gp)
  d8:	c844                	sw	s1,20(s0)
  da:	020c                	addi	a1,sp,256
  dc:	4460                	lw	s0,76(s0)
  de:	000e                	c.slli	zero,0x3
  e0:	0034                	addi	a3,sp,8
  e2:	0000                	unimp
  e4:	00a0                	addi	s0,sp,72
  e6:	0000                	unimp
  e8:	04ec                	addi	a1,sp,588
  ea:	0002                	c.slli64	zero
  ec:	0000                	unimp
  ee:	0000                	unimp
  f0:	00d0                	addi	a2,sp,68
  f2:	0000                	unimp
  f4:	0000                	unimp
  f6:	0000                	unimp
  f8:	0e44                	addi	s1,sp,788
  fa:	4c50                	lw	a2,28(s0)
  fc:	0281                	addi	t0,t0,0
  fe:	0488                	addi	a0,sp,576
 100:	0689                	addi	a3,a3,2
 102:	0c44                	addi	s1,sp,532
 104:	0008                	0x8
 106:	ac02                	fsd	ft0,24(sp)
 108:	44c1                	li	s1,16
 10a:	0cc8                	addi	a0,sp,596
 10c:	5002                	0x5002
 10e:	c944                	sw	s1,20(a0)
 110:	0e44                	addi	s1,sp,788
 112:	0000                	unimp
 114:	0000                	unimp
 116:	0000                	unimp
 118:	000c                	0xc
 11a:	0000                	unimp
 11c:	ffffffff          	0xffffffff
 120:	7c010003          	lb	zero,1984(sp)
 124:	0d01                	addi	s10,s10,0
 126:	0002                	c.slli64	zero
 128:	002c                	addi	a1,sp,8
 12a:	0000                	unimp
 12c:	0118                	addi	a4,sp,128
 12e:	0000                	unimp
 130:	05bc                	addi	a5,sp,712
 132:	0002                	c.slli64	zero
 134:	0000                	unimp
 136:	0000                	unimp
 138:	0084                	addi	s1,sp,64
 13a:	0000                	unimp
 13c:	0000                	unimp
 13e:	0000                	unimp
 140:	0e44                	addi	s1,sp,788
 142:	4830                	lw	a2,80(s0)
 144:	0281                	addi	t0,t0,0
 146:	0488                	addi	a0,sp,576
 148:	0c44                	addi	s1,sp,532
 14a:	0008                	0x8
 14c:	6802                	ld	a6,0(sp)
 14e:	44c1                	li	s1,16
 150:	0cc8                	addi	a0,sp,596
 152:	3002                	fld	ft0,32(sp)
 154:	0e44                	addi	s1,sp,788
 156:	0000                	unimp
 158:	0034                	addi	a3,sp,8
 15a:	0000                	unimp
 15c:	0118                	addi	a4,sp,128
 15e:	0000                	unimp
 160:	0640                	addi	s0,sp,772
 162:	0002                	c.slli64	zero
 164:	0000                	unimp
 166:	0000                	unimp
 168:	0074                	addi	a3,sp,12
 16a:	0000                	unimp
 16c:	0000                	unimp
 16e:	0000                	unimp
 170:	0e44                	addi	s1,sp,788
 172:	4c40                	lw	s0,28(s0)
 174:	0281                	addi	t0,t0,0
 176:	0488                	addi	a0,sp,576
 178:	0689                	addi	a3,a3,2
 17a:	0c44                	addi	s1,sp,532
 17c:	0008                	0x8
 17e:	5002                	0x5002
 180:	44c1                	li	s1,16
 182:	0cc8                	addi	a0,sp,596
 184:	4002                	0x4002
 186:	c944                	sw	s1,20(a0)
 188:	0e44                	addi	s1,sp,788
 18a:	0000                	unimp
 18c:	0000                	unimp
 18e:	0000                	unimp
 190:	002c                	addi	a1,sp,8
 192:	0000                	unimp
 194:	0118                	addi	a4,sp,128
 196:	0000                	unimp
 198:	06b4                	addi	a3,sp,840
 19a:	0002                	c.slli64	zero
 19c:	0000                	unimp
 19e:	0000                	unimp
 1a0:	003c                	addi	a5,sp,8
 1a2:	0000                	unimp
 1a4:	0000                	unimp
 1a6:	0000                	unimp
 1a8:	0e44                	addi	s1,sp,788
 1aa:	4420                	lw	s0,72(s0)
 1ac:	0288                	addi	a0,sp,320
 1ae:	0c44                	addi	s1,sp,532
 1b0:	0008                	0x8
 1b2:	c868                	sw	a0,84(s0)
 1b4:	020c                	addi	a1,sp,256
 1b6:	4420                	lw	s0,72(s0)
 1b8:	000e                	c.slli	zero,0x3
 1ba:	0000                	unimp
 1bc:	0000                	unimp
 1be:	0000                	unimp
 1c0:	000c                	0xc
 1c2:	0000                	unimp
 1c4:	ffffffff          	0xffffffff
 1c8:	7c010003          	lb	zero,1984(sp)
 1cc:	0d01                	addi	s10,s10,0
 1ce:	0002                	c.slli64	zero
 1d0:	002c                	addi	a1,sp,8
 1d2:	0000                	unimp
 1d4:	01c0                	addi	s0,sp,196
 1d6:	0000                	unimp
 1d8:	06f0                	addi	a2,sp,844
 1da:	0002                	c.slli64	zero
 1dc:	0000                	unimp
 1de:	0000                	unimp
 1e0:	002c                	addi	a1,sp,8
 1e2:	0000                	unimp
 1e4:	0000                	unimp
 1e6:	0000                	unimp
 1e8:	0e44                	addi	s1,sp,788
 1ea:	4420                	lw	s0,72(s0)
 1ec:	0288                	addi	a0,sp,320
 1ee:	0c44                	addi	s1,sp,532
 1f0:	0008                	0x8
 1f2:	c858                	sw	a4,20(s0)
 1f4:	020c                	addi	a1,sp,256
 1f6:	4420                	lw	s0,72(s0)
 1f8:	000e                	c.slli	zero,0x3
 1fa:	0000                	unimp
 1fc:	0000                	unimp
 1fe:	0000                	unimp
 200:	002c                	addi	a1,sp,8
 202:	0000                	unimp
 204:	01c0                	addi	s0,sp,196
 206:	0000                	unimp
 208:	071c                	addi	a5,sp,896
 20a:	0002                	c.slli64	zero
 20c:	0000                	unimp
 20e:	0000                	unimp
 210:	002c                	addi	a1,sp,8
 212:	0000                	unimp
 214:	0000                	unimp
 216:	0000                	unimp
 218:	0e44                	addi	s1,sp,788
 21a:	4420                	lw	s0,72(s0)
 21c:	0288                	addi	a0,sp,320
 21e:	0c44                	addi	s1,sp,532
 220:	0008                	0x8
 222:	c858                	sw	a4,20(s0)
 224:	020c                	addi	a1,sp,256
 226:	4420                	lw	s0,72(s0)
 228:	000e                	c.slli	zero,0x3
 22a:	0000                	unimp
 22c:	0000                	unimp
 22e:	0000                	unimp
 230:	002c                	addi	a1,sp,8
 232:	0000                	unimp
 234:	01c0                	addi	s0,sp,196
 236:	0000                	unimp
 238:	0748                	addi	a0,sp,900
 23a:	0002                	c.slli64	zero
 23c:	0000                	unimp
 23e:	0000                	unimp
 240:	0034                	addi	a3,sp,8
 242:	0000                	unimp
 244:	0000                	unimp
 246:	0000                	unimp
 248:	0e44                	addi	s1,sp,788
 24a:	4420                	lw	s0,72(s0)
 24c:	0288                	addi	a0,sp,320
 24e:	0c44                	addi	s1,sp,532
 250:	0008                	0x8
 252:	c860                	sw	s0,84(s0)
 254:	020c                	addi	a1,sp,256
 256:	4420                	lw	s0,72(s0)
 258:	000e                	c.slli	zero,0x3
 25a:	0000                	unimp
 25c:	0000                	unimp
 25e:	0000                	unimp
 260:	002c                	addi	a1,sp,8
 262:	0000                	unimp
 264:	01c0                	addi	s0,sp,196
 266:	0000                	unimp
 268:	077c                	addi	a5,sp,908
 26a:	0002                	c.slli64	zero
 26c:	0000                	unimp
 26e:	0000                	unimp
 270:	024c                	addi	a1,sp,260
 272:	0000                	unimp
 274:	0000                	unimp
 276:	0000                	unimp
 278:	0e44                	addi	s1,sp,788
 27a:	4820                	lw	s0,80(s0)
 27c:	0281                	addi	t0,t0,0
 27e:	0488                	addi	a0,sp,576
 280:	0c44                	addi	s1,sp,532
 282:	0008                	0x8
 284:	c1023003          	ld	zero,-1008(tp) # fffffffffffe0c10 <bss_begin+0xfffffffffffb9c10>
 288:	c844                	sw	s1,20(s0)
 28a:	020c                	addi	a1,sp,256
 28c:	4420                	lw	s0,72(s0)
 28e:	000e                	c.slli	zero,0x3
 290:	002c                	addi	a1,sp,8
 292:	0000                	unimp
 294:	01c0                	addi	s0,sp,196
 296:	0000                	unimp
 298:	09c8                	addi	a0,sp,212
 29a:	0002                	c.slli64	zero
 29c:	0000                	unimp
 29e:	0000                	unimp
 2a0:	0070                	addi	a2,sp,12
 2a2:	0000                	unimp
 2a4:	0000                	unimp
 2a6:	0000                	unimp
 2a8:	0e44                	addi	s1,sp,788
 2aa:	4830                	lw	a2,80(s0)
 2ac:	0281                	addi	t0,t0,0
 2ae:	0488                	addi	a0,sp,576
 2b0:	0c44                	addi	s1,sp,532
 2b2:	0008                	0x8
 2b4:	5402                	lw	s0,32(sp)
 2b6:	44c1                	li	s1,16
 2b8:	0cc8                	addi	a0,sp,596
 2ba:	3002                	fld	ft0,32(sp)
 2bc:	0e44                	addi	s1,sp,788
 2be:	0000                	unimp
 2c0:	002c                	addi	a1,sp,8
 2c2:	0000                	unimp
 2c4:	01c0                	addi	s0,sp,196
 2c6:	0000                	unimp
 2c8:	0a38                	addi	a4,sp,280
 2ca:	0002                	c.slli64	zero
 2cc:	0000                	unimp
 2ce:	0000                	unimp
 2d0:	0040                	addi	s0,sp,4
 2d2:	0000                	unimp
 2d4:	0000                	unimp
 2d6:	0000                	unimp
 2d8:	0e44                	addi	s1,sp,788
 2da:	4820                	lw	s0,80(s0)
 2dc:	0281                	addi	t0,t0,0
 2de:	0488                	addi	a0,sp,576
 2e0:	0c44                	addi	s1,sp,532
 2e2:	0008                	0x8
 2e4:	c164                	sw	s1,68(a0)
 2e6:	c844                	sw	s1,20(s0)
 2e8:	020c                	addi	a1,sp,256
 2ea:	4420                	lw	s0,72(s0)
 2ec:	000e                	c.slli	zero,0x3
 2ee:	0000                	unimp
 2f0:	002c                	addi	a1,sp,8
 2f2:	0000                	unimp
 2f4:	01c0                	addi	s0,sp,196
 2f6:	0000                	unimp
 2f8:	0a78                	addi	a4,sp,284
 2fa:	0002                	c.slli64	zero
 2fc:	0000                	unimp
 2fe:	0000                	unimp
 300:	0060                	addi	s0,sp,12
 302:	0000                	unimp
 304:	0000                	unimp
 306:	0000                	unimp
 308:	0e44                	addi	s1,sp,788
 30a:	4820                	lw	s0,80(s0)
 30c:	0281                	addi	t0,t0,0
 30e:	0488                	addi	a0,sp,576
 310:	0c44                	addi	s1,sp,532
 312:	0008                	0x8
 314:	4402                	lw	s0,0(sp)
 316:	44c1                	li	s1,16
 318:	0cc8                	addi	a0,sp,596
 31a:	2002                	fld	ft0,0(sp)
 31c:	0e44                	addi	s1,sp,788
 31e:	0000                	unimp
 320:	002c                	addi	a1,sp,8
 322:	0000                	unimp
 324:	01c0                	addi	s0,sp,196
 326:	0000                	unimp
 328:	0ad8                	addi	a4,sp,340
 32a:	0002                	c.slli64	zero
 32c:	0000                	unimp
 32e:	0000                	unimp
 330:	0090                	addi	a2,sp,64
 332:	0000                	unimp
 334:	0000                	unimp
 336:	0000                	unimp
 338:	0e44                	addi	s1,sp,788
 33a:	4830                	lw	a2,80(s0)
 33c:	0281                	addi	t0,t0,0
 33e:	0488                	addi	a0,sp,576
 340:	0c44                	addi	s1,sp,532
 342:	0008                	0x8
 344:	7402                	ld	s0,32(sp)
 346:	44c1                	li	s1,16
 348:	0cc8                	addi	a0,sp,596
 34a:	3002                	fld	ft0,32(sp)
 34c:	0e44                	addi	s1,sp,788
 34e:	0000                	unimp
 350:	002c                	addi	a1,sp,8
 352:	0000                	unimp
 354:	01c0                	addi	s0,sp,196
 356:	0000                	unimp
 358:	0b68                	addi	a0,sp,412
 35a:	0002                	c.slli64	zero
 35c:	0000                	unimp
 35e:	0000                	unimp
 360:	00f0                	addi	a2,sp,76
 362:	0000                	unimp
 364:	0000                	unimp
 366:	0000                	unimp
 368:	0e44                	addi	s1,sp,788
 36a:	4440                	lw	s0,12(s0)
 36c:	0288                	addi	a0,sp,320
 36e:	0c44                	addi	s1,sp,532
 370:	0008                	0x8
 372:	dc02                	sw	zero,56(sp)
 374:	0cc8                	addi	a0,sp,596
 376:	4002                	0x4002
 378:	0e44                	addi	s1,sp,788
 37a:	0000                	unimp
 37c:	0000                	unimp
 37e:	0000                	unimp
 380:	002c                	addi	a1,sp,8
 382:	0000                	unimp
 384:	01c0                	addi	s0,sp,196
 386:	0000                	unimp
 388:	0c58                	addi	a4,sp,532
 38a:	0002                	c.slli64	zero
 38c:	0000                	unimp
 38e:	0000                	unimp
 390:	01c8                	addi	a0,sp,196
 392:	0000                	unimp
 394:	0000                	unimp
 396:	0000                	unimp
 398:	0e44                	addi	s1,sp,788
 39a:	4850                	lw	a2,20(s0)
 39c:	0281                	addi	t0,t0,0
 39e:	0488                	addi	a0,sp,576
 3a0:	0c44                	addi	s1,sp,532
 3a2:	0008                	0x8
 3a4:	c101ac03          	lw	s8,-1008(gp)
 3a8:	c844                	sw	s1,20(s0)
 3aa:	020c                	addi	a1,sp,256
 3ac:	4450                	lw	a2,12(s0)
 3ae:	000e                	c.slli	zero,0x3
 3b0:	002c                	addi	a1,sp,8
 3b2:	0000                	unimp
 3b4:	01c0                	addi	s0,sp,196
 3b6:	0000                	unimp
 3b8:	0e20                	addi	s0,sp,792
 3ba:	0002                	c.slli64	zero
 3bc:	0000                	unimp
 3be:	0000                	unimp
 3c0:	01d4                	addi	a3,sp,196
 3c2:	0000                	unimp
 3c4:	0000                	unimp
 3c6:	0000                	unimp
 3c8:	0e44                	addi	s1,sp,788
 3ca:	4850                	lw	a2,20(s0)
 3cc:	0281                	addi	t0,t0,0
 3ce:	0488                	addi	a0,sp,576
 3d0:	0c44                	addi	s1,sp,532
 3d2:	0008                	0x8
 3d4:	c101b803          	ld	a6,-1008(gp)
 3d8:	c844                	sw	s1,20(s0)
 3da:	020c                	addi	a1,sp,256
 3dc:	4450                	lw	a2,12(s0)
 3de:	000e                	c.slli	zero,0x3
 3e0:	002c                	addi	a1,sp,8
 3e2:	0000                	unimp
 3e4:	01c0                	addi	s0,sp,196
 3e6:	0000                	unimp
 3e8:	0ff4                	addi	a3,sp,988
 3ea:	0002                	c.slli64	zero
 3ec:	0000                	unimp
 3ee:	0000                	unimp
 3f0:	006c                	addi	a1,sp,12
 3f2:	0000                	unimp
 3f4:	0000                	unimp
 3f6:	0000                	unimp
 3f8:	0e44                	addi	s1,sp,788
 3fa:	4870                	lw	a2,84(s0)
 3fc:	1281                	addi	t0,t0,-32
 3fe:	1488                	addi	a0,sp,608
 400:	0c44                	addi	s1,sp,532
 402:	4008                	lw	a0,0(s0)
 404:	5002                	0x5002
 406:	44c1                	li	s1,16
 408:	0cc8                	addi	a0,sp,596
 40a:	7002                	0x7002
 40c:	0e44                	addi	s1,sp,788
 40e:	0000                	unimp
 410:	002c                	addi	a1,sp,8
 412:	0000                	unimp
 414:	01c0                	addi	s0,sp,196
 416:	0000                	unimp
 418:	1060                	addi	s0,sp,44
 41a:	0002                	c.slli64	zero
 41c:	0000                	unimp
 41e:	0000                	unimp
 420:	00d0                	addi	a2,sp,68
 422:	0000                	unimp
 424:	0000                	unimp
 426:	0000                	unimp
 428:	0e44                	addi	s1,sp,788
 42a:	4830                	lw	a2,80(s0)
 42c:	0281                	addi	t0,t0,0
 42e:	0488                	addi	a0,sp,576
 430:	0c44                	addi	s1,sp,532
 432:	0008                	0x8
 434:	b402                	fsd	ft0,40(sp)
 436:	44c1                	li	s1,16
 438:	0cc8                	addi	a0,sp,596
 43a:	3002                	fld	ft0,32(sp)
 43c:	0e44                	addi	s1,sp,788
	...
