
benos_payload.elf:     file format elf64-littleriscv


Disassembly of section .text.boot:

0000000000020000 <_start>:
   20000:	0300006f          	j	20030 <reset>
   20004:	4765                	li	a4,25
   20006:	422e4e4f          	fnmadd.d	ft8,ft8,ft2,fs0,rmm
   2000a:	3054                	fld	fa3,160(s0)
   2000c:	5678                	lw	a4,108(a2)
   2000e:	1234                	addi	a3,sp,296
   20010:	6008                	ld	a0,0(s0)
   20012:	0000                	unimp
   20014:	0030                	addi	a2,sp,8
   20016:	0000                	unimp
   20018:	30303033          	0x30303033
   2001c:	0000                	unimp
   2001e:	0002                	c.slli64	zero
   20020:	0000                	unimp
   20022:	0002                	c.slli64	zero
	...
   2002c:	2e34                	fld	fa3,88(a2)
   2002e:	0030                	addi	a2,sp,8

0000000000020030 <reset>:
   20030:	00001117          	auipc	sp,0x1
   20034:	fd010113          	addi	sp,sp,-48 # 21000 <stacks_start>
   20038:	000012b7          	lui	t0,0x1
   2003c:	00510133          	add	sp,sp,t0
   20040:	4a00006f          	j	204e0 <sbi_main>

Disassembly of section .text:

0000000000020044 <read_csr_num>:
   20044:	fd010113          	addi	sp,sp,-48
   20048:	02813423          	sd	s0,40(sp)
   2004c:	02913023          	sd	s1,32(sp)
   20050:	03010413          	addi	s0,sp,48
   20054:	00050793          	mv	a5,a0
   20058:	fcf42e23          	sw	a5,-36(s0)
   2005c:	fe043423          	sd	zero,-24(s0)
   20060:	fdc42783          	lw	a5,-36(s0)
   20064:	c607869b          	addiw	a3,a5,-928
   20068:	0006871b          	sext.w	a4,a3
   2006c:	01700793          	li	a5,23
   20070:	0ee7e463          	bltu	a5,a4,20158 <read_csr_num+0x114>
   20074:	02069793          	slli	a5,a3,0x20
   20078:	0207d793          	srli	a5,a5,0x20
   2007c:	00279713          	slli	a4,a5,0x2
   20080:	00000797          	auipc	a5,0x0
   20084:	53878793          	addi	a5,a5,1336 # 205b8 <sbi_main+0xd8>
   20088:	00f707b3          	add	a5,a4,a5
   2008c:	0007a783          	lw	a5,0(a5)
   20090:	0007871b          	sext.w	a4,a5
   20094:	00000797          	auipc	a5,0x0
   20098:	52478793          	addi	a5,a5,1316 # 205b8 <sbi_main+0xd8>
   2009c:	00f707b3          	add	a5,a4,a5
   200a0:	00078067          	jr	a5
   200a4:	3a0027f3          	csrr	a5,pmpcfg0
   200a8:	00078493          	mv	s1,a5
   200ac:	00048793          	mv	a5,s1
   200b0:	fef43423          	sd	a5,-24(s0)
   200b4:	0a80006f          	j	2015c <read_csr_num+0x118>
   200b8:	3b0027f3          	csrr	a5,pmpaddr0
   200bc:	00078493          	mv	s1,a5
   200c0:	00048793          	mv	a5,s1
   200c4:	fef43423          	sd	a5,-24(s0)
   200c8:	0940006f          	j	2015c <read_csr_num+0x118>
   200cc:	3b1027f3          	csrr	a5,pmpaddr1
   200d0:	00078493          	mv	s1,a5
   200d4:	00048793          	mv	a5,s1
   200d8:	fef43423          	sd	a5,-24(s0)
   200dc:	0800006f          	j	2015c <read_csr_num+0x118>
   200e0:	3b2027f3          	csrr	a5,pmpaddr2
   200e4:	00078493          	mv	s1,a5
   200e8:	00048793          	mv	a5,s1
   200ec:	fef43423          	sd	a5,-24(s0)
   200f0:	06c0006f          	j	2015c <read_csr_num+0x118>
   200f4:	3b3027f3          	csrr	a5,pmpaddr3
   200f8:	00078493          	mv	s1,a5
   200fc:	00048793          	mv	a5,s1
   20100:	fef43423          	sd	a5,-24(s0)
   20104:	0580006f          	j	2015c <read_csr_num+0x118>
   20108:	3b4027f3          	csrr	a5,pmpaddr4
   2010c:	00078493          	mv	s1,a5
   20110:	00048793          	mv	a5,s1
   20114:	fef43423          	sd	a5,-24(s0)
   20118:	0440006f          	j	2015c <read_csr_num+0x118>
   2011c:	3b5027f3          	csrr	a5,pmpaddr5
   20120:	00078493          	mv	s1,a5
   20124:	00048793          	mv	a5,s1
   20128:	fef43423          	sd	a5,-24(s0)
   2012c:	0300006f          	j	2015c <read_csr_num+0x118>
   20130:	3b6027f3          	csrr	a5,pmpaddr6
   20134:	00078493          	mv	s1,a5
   20138:	00048793          	mv	a5,s1
   2013c:	fef43423          	sd	a5,-24(s0)
   20140:	01c0006f          	j	2015c <read_csr_num+0x118>
   20144:	3b7027f3          	csrr	a5,pmpaddr7
   20148:	00078493          	mv	s1,a5
   2014c:	00048793          	mv	a5,s1
   20150:	fef43423          	sd	a5,-24(s0)
   20154:	0080006f          	j	2015c <read_csr_num+0x118>
   20158:	00000013          	nop
   2015c:	fe843783          	ld	a5,-24(s0)
   20160:	00078513          	mv	a0,a5
   20164:	02813403          	ld	s0,40(sp)
   20168:	02013483          	ld	s1,32(sp)
   2016c:	03010113          	addi	sp,sp,48
   20170:	00008067          	ret

0000000000020174 <write_csr_num>:
   20174:	f9010113          	addi	sp,sp,-112
   20178:	06813423          	sd	s0,104(sp)
   2017c:	07010413          	addi	s0,sp,112
   20180:	00050793          	mv	a5,a0
   20184:	f8b43823          	sd	a1,-112(s0)
   20188:	f8f42e23          	sw	a5,-100(s0)
   2018c:	f9c42783          	lw	a5,-100(s0)
   20190:	c607869b          	addiw	a3,a5,-928
   20194:	0006871b          	sext.w	a4,a3
   20198:	01700793          	li	a5,23
   2019c:	0ee7e463          	bltu	a5,a4,20284 <write_csr_num+0x110>
   201a0:	02069793          	slli	a5,a3,0x20
   201a4:	0207d793          	srli	a5,a5,0x20
   201a8:	00279713          	slli	a4,a5,0x2
   201ac:	00000797          	auipc	a5,0x0
   201b0:	46c78793          	addi	a5,a5,1132 # 20618 <sbi_main+0x138>
   201b4:	00f707b3          	add	a5,a4,a5
   201b8:	0007a783          	lw	a5,0(a5)
   201bc:	0007871b          	sext.w	a4,a5
   201c0:	00000797          	auipc	a5,0x0
   201c4:	45878793          	addi	a5,a5,1112 # 20618 <sbi_main+0x138>
   201c8:	00f707b3          	add	a5,a4,a5
   201cc:	00078067          	jr	a5
   201d0:	f9043783          	ld	a5,-112(s0)
   201d4:	faf43423          	sd	a5,-88(s0)
   201d8:	fa843783          	ld	a5,-88(s0)
   201dc:	3a079073          	csrw	pmpcfg0,a5
   201e0:	0a80006f          	j	20288 <write_csr_num+0x114>
   201e4:	f9043783          	ld	a5,-112(s0)
   201e8:	faf43823          	sd	a5,-80(s0)
   201ec:	fb043783          	ld	a5,-80(s0)
   201f0:	3b079073          	csrw	pmpaddr0,a5
   201f4:	0940006f          	j	20288 <write_csr_num+0x114>
   201f8:	f9043783          	ld	a5,-112(s0)
   201fc:	faf43c23          	sd	a5,-72(s0)
   20200:	fb843783          	ld	a5,-72(s0)
   20204:	3b179073          	csrw	pmpaddr1,a5
   20208:	0800006f          	j	20288 <write_csr_num+0x114>
   2020c:	f9043783          	ld	a5,-112(s0)
   20210:	fcf43023          	sd	a5,-64(s0)
   20214:	fc043783          	ld	a5,-64(s0)
   20218:	3b279073          	csrw	pmpaddr2,a5
   2021c:	06c0006f          	j	20288 <write_csr_num+0x114>
   20220:	f9043783          	ld	a5,-112(s0)
   20224:	fcf43423          	sd	a5,-56(s0)
   20228:	fc843783          	ld	a5,-56(s0)
   2022c:	3b379073          	csrw	pmpaddr3,a5
   20230:	0580006f          	j	20288 <write_csr_num+0x114>
   20234:	f9043783          	ld	a5,-112(s0)
   20238:	fcf43823          	sd	a5,-48(s0)
   2023c:	fd043783          	ld	a5,-48(s0)
   20240:	3b479073          	csrw	pmpaddr4,a5
   20244:	0440006f          	j	20288 <write_csr_num+0x114>
   20248:	f9043783          	ld	a5,-112(s0)
   2024c:	fcf43c23          	sd	a5,-40(s0)
   20250:	fd843783          	ld	a5,-40(s0)
   20254:	3b579073          	csrw	pmpaddr5,a5
   20258:	0300006f          	j	20288 <write_csr_num+0x114>
   2025c:	f9043783          	ld	a5,-112(s0)
   20260:	fef43023          	sd	a5,-32(s0)
   20264:	fe043783          	ld	a5,-32(s0)
   20268:	3b679073          	csrw	pmpaddr6,a5
   2026c:	01c0006f          	j	20288 <write_csr_num+0x114>
   20270:	f9043783          	ld	a5,-112(s0)
   20274:	fef43423          	sd	a5,-24(s0)
   20278:	fe843783          	ld	a5,-24(s0)
   2027c:	3b779073          	csrw	pmpaddr7,a5
   20280:	0080006f          	j	20288 <write_csr_num+0x114>
   20284:	00000013          	nop
   20288:	00000013          	nop
   2028c:	06813403          	ld	s0,104(sp)
   20290:	07010113          	addi	sp,sp,112
   20294:	00008067          	ret

0000000000020298 <log2roundup>:
   20298:	fd010113          	addi	sp,sp,-48
   2029c:	02813423          	sd	s0,40(sp)
   202a0:	03010413          	addi	s0,sp,48
   202a4:	fca43c23          	sd	a0,-40(s0)
   202a8:	fe043423          	sd	zero,-24(s0)
   202ac:	02c0006f          	j	202d8 <log2roundup+0x40>
   202b0:	fe843783          	ld	a5,-24(s0)
   202b4:	0007879b          	sext.w	a5,a5
   202b8:	00078713          	mv	a4,a5
   202bc:	00100793          	li	a5,1
   202c0:	00e797b3          	sll	a5,a5,a4
   202c4:	fd843703          	ld	a4,-40(s0)
   202c8:	02e7f063          	bgeu	a5,a4,202e8 <log2roundup+0x50>
   202cc:	fe843783          	ld	a5,-24(s0)
   202d0:	00178793          	addi	a5,a5,1
   202d4:	fef43423          	sd	a5,-24(s0)
   202d8:	fe843703          	ld	a4,-24(s0)
   202dc:	03f00793          	li	a5,63
   202e0:	fce7f8e3          	bgeu	a5,a4,202b0 <log2roundup+0x18>
   202e4:	0080006f          	j	202ec <log2roundup+0x54>
   202e8:	00000013          	nop
   202ec:	fe843783          	ld	a5,-24(s0)
   202f0:	00078513          	mv	a0,a5
   202f4:	02813403          	ld	s0,40(sp)
   202f8:	03010113          	addi	sp,sp,48
   202fc:	00008067          	ret

0000000000020300 <sbi_set_pmp>:
   20300:	fa010113          	addi	sp,sp,-96
   20304:	04113c23          	sd	ra,88(sp)
   20308:	04813823          	sd	s0,80(sp)
   2030c:	06010413          	addi	s0,sp,96
   20310:	00050793          	mv	a5,a0
   20314:	fab43823          	sd	a1,-80(s0)
   20318:	fac43423          	sd	a2,-88(s0)
   2031c:	fad43023          	sd	a3,-96(s0)
   20320:	faf42e23          	sw	a5,-68(s0)
   20324:	fbc42783          	lw	a5,-68(s0)
   20328:	0007871b          	sext.w	a4,a5
   2032c:	00800793          	li	a5,8
   20330:	00e7d663          	bge	a5,a4,2033c <sbi_set_pmp+0x3c>
   20334:	fff00793          	li	a5,-1
   20338:	1940006f          	j	204cc <sbi_set_pmp+0x1cc>
   2033c:	fa843503          	ld	a0,-88(s0)
   20340:	f59ff0ef          	jal	ra,20298 <log2roundup>
   20344:	00050793          	mv	a5,a0
   20348:	fef42223          	sw	a5,-28(s0)
   2034c:	fe442783          	lw	a5,-28(s0)
   20350:	0007871b          	sext.w	a4,a5
   20354:	00100793          	li	a5,1
   20358:	00e7c663          	blt	a5,a4,20364 <sbi_set_pmp+0x64>
   2035c:	fff00793          	li	a5,-1
   20360:	16c0006f          	j	204cc <sbi_set_pmp+0x1cc>
   20364:	fb043783          	ld	a5,-80(s0)
   20368:	0027d793          	srli	a5,a5,0x2
   2036c:	fef43423          	sd	a5,-24(s0)
   20370:	fbc42783          	lw	a5,-68(s0)
   20374:	4027d79b          	sraiw	a5,a5,0x2
   20378:	0007879b          	sext.w	a5,a5
   2037c:	3a07879b          	addiw	a5,a5,928
   20380:	0007879b          	sext.w	a5,a5
   20384:	ffe7f793          	andi	a5,a5,-2
   20388:	fef42023          	sw	a5,-32(s0)
   2038c:	fbc42783          	lw	a5,-68(s0)
   20390:	0037979b          	slliw	a5,a5,0x3
   20394:	0007879b          	sext.w	a5,a5
   20398:	0387f793          	andi	a5,a5,56
   2039c:	fcf42e23          	sw	a5,-36(s0)
   203a0:	fbc42783          	lw	a5,-68(s0)
   203a4:	3b07879b          	addiw	a5,a5,944
   203a8:	fcf42c23          	sw	a5,-40(s0)
   203ac:	fa043783          	ld	a5,-96(s0)
   203b0:	fe77f793          	andi	a5,a5,-25
   203b4:	faf43023          	sd	a5,-96(s0)
   203b8:	fe442783          	lw	a5,-28(s0)
   203bc:	0007871b          	sext.w	a4,a5
   203c0:	00200793          	li	a5,2
   203c4:	00f71663          	bne	a4,a5,203d0 <sbi_set_pmp+0xd0>
   203c8:	01000793          	li	a5,16
   203cc:	0080006f          	j	203d4 <sbi_set_pmp+0xd4>
   203d0:	01800793          	li	a5,24
   203d4:	fa043703          	ld	a4,-96(s0)
   203d8:	00f767b3          	or	a5,a4,a5
   203dc:	faf43023          	sd	a5,-96(s0)
   203e0:	fdc42783          	lw	a5,-36(s0)
   203e4:	0ff00713          	li	a4,255
   203e8:	00f717b3          	sll	a5,a4,a5
   203ec:	fff7c793          	not	a5,a5
   203f0:	fcf43823          	sd	a5,-48(s0)
   203f4:	fe042783          	lw	a5,-32(s0)
   203f8:	00078513          	mv	a0,a5
   203fc:	c49ff0ef          	jal	ra,20044 <read_csr_num>
   20400:	00050713          	mv	a4,a0
   20404:	fd043783          	ld	a5,-48(s0)
   20408:	00e7f7b3          	and	a5,a5,a4
   2040c:	fcf43423          	sd	a5,-56(s0)
   20410:	fdc42783          	lw	a5,-36(s0)
   20414:	fa043703          	ld	a4,-96(s0)
   20418:	00f71733          	sll	a4,a4,a5
   2041c:	fd043783          	ld	a5,-48(s0)
   20420:	fff7c793          	not	a5,a5
   20424:	00f777b3          	and	a5,a4,a5
   20428:	fc843703          	ld	a4,-56(s0)
   2042c:	00f767b3          	or	a5,a4,a5
   20430:	fcf43423          	sd	a5,-56(s0)
   20434:	fe442783          	lw	a5,-28(s0)
   20438:	0007871b          	sext.w	a4,a5
   2043c:	00200793          	li	a5,2
   20440:	06e7d463          	bge	a5,a4,204a8 <sbi_set_pmp+0x1a8>
   20444:	fe442783          	lw	a5,-28(s0)
   20448:	0007871b          	sext.w	a4,a5
   2044c:	04000793          	li	a5,64
   20450:	00f71863          	bne	a4,a5,20460 <sbi_set_pmp+0x160>
   20454:	fff00793          	li	a5,-1
   20458:	fef43423          	sd	a5,-24(s0)
   2045c:	04c0006f          	j	204a8 <sbi_set_pmp+0x1a8>
   20460:	fe442783          	lw	a5,-28(s0)
   20464:	ffe7879b          	addiw	a5,a5,-2
   20468:	0007879b          	sext.w	a5,a5
   2046c:	00078713          	mv	a4,a5
   20470:	00100793          	li	a5,1
   20474:	00e797b3          	sll	a5,a5,a4
   20478:	fff78793          	addi	a5,a5,-1
   2047c:	fcf43023          	sd	a5,-64(s0)
   20480:	fc043783          	ld	a5,-64(s0)
   20484:	fff7c793          	not	a5,a5
   20488:	fe843703          	ld	a4,-24(s0)
   2048c:	00f777b3          	and	a5,a4,a5
   20490:	fef43423          	sd	a5,-24(s0)
   20494:	fc043783          	ld	a5,-64(s0)
   20498:	0017d793          	srli	a5,a5,0x1
   2049c:	fe843703          	ld	a4,-24(s0)
   204a0:	00f767b3          	or	a5,a4,a5
   204a4:	fef43423          	sd	a5,-24(s0)
   204a8:	fd842783          	lw	a5,-40(s0)
   204ac:	fe843583          	ld	a1,-24(s0)
   204b0:	00078513          	mv	a0,a5
   204b4:	cc1ff0ef          	jal	ra,20174 <write_csr_num>
   204b8:	fe042783          	lw	a5,-32(s0)
   204bc:	fc843583          	ld	a1,-56(s0)
   204c0:	00078513          	mv	a0,a5
   204c4:	cb1ff0ef          	jal	ra,20174 <write_csr_num>
   204c8:	00000793          	li	a5,0
   204cc:	00078513          	mv	a0,a5
   204d0:	05813083          	ld	ra,88(sp)
   204d4:	05013403          	ld	s0,80(sp)
   204d8:	06010113          	addi	sp,sp,96
   204dc:	00008067          	ret

00000000000204e0 <sbi_main>:
   204e0:	fa010113          	addi	sp,sp,-96
   204e4:	04113c23          	sd	ra,88(sp)
   204e8:	04813823          	sd	s0,80(sp)
   204ec:	04913423          	sd	s1,72(sp)
   204f0:	06010413          	addi	s0,sp,96
   204f4:	00700693          	li	a3,7
   204f8:	fff00613          	li	a2,-1
   204fc:	00000593          	li	a1,0
   20500:	00000513          	li	a0,0
   20504:	dfdff0ef          	jal	ra,20300 <sbi_set_pmp>
   20508:	300027f3          	csrr	a5,mstatus
   2050c:	00078493          	mv	s1,a5
   20510:	00048793          	mv	a5,s1
   20514:	fcf43c23          	sd	a5,-40(s0)
   20518:	fd843703          	ld	a4,-40(s0)
   2051c:	ffffe7b7          	lui	a5,0xffffe
   20520:	7ff78793          	addi	a5,a5,2047 # ffffffffffffe7ff <_payload_end+0xfffffffffffd87f7>
   20524:	00f77733          	and	a4,a4,a5
   20528:	000017b7          	lui	a5,0x1
   2052c:	80078793          	addi	a5,a5,-2048 # 800 <__bin_size-0x5808>
   20530:	00f767b3          	or	a5,a4,a5
   20534:	fcf43c23          	sd	a5,-40(s0)
   20538:	fd843783          	ld	a5,-40(s0)
   2053c:	f7f7f793          	andi	a5,a5,-129
   20540:	fcf43c23          	sd	a5,-40(s0)
   20544:	fd843783          	ld	a5,-40(s0)
   20548:	fcf43823          	sd	a5,-48(s0)
   2054c:	fd043783          	ld	a5,-48(s0)
   20550:	30079073          	csrw	mstatus,a5
   20554:	000227b7          	lui	a5,0x22
   20558:	fcf43423          	sd	a5,-56(s0)
   2055c:	fc843783          	ld	a5,-56(s0)
   20560:	34179073          	csrw	mepc,a5
   20564:	000207b7          	lui	a5,0x20
   20568:	fcf43023          	sd	a5,-64(s0)
   2056c:	fc043783          	ld	a5,-64(s0)
   20570:	30579073          	csrw	mtvec,a5
   20574:	000227b7          	lui	a5,0x22
   20578:	faf43c23          	sd	a5,-72(s0)
   2057c:	fb843783          	ld	a5,-72(s0)
   20580:	10579073          	csrw	stvec,a5
   20584:	fa043823          	sd	zero,-80(s0)
   20588:	fb043783          	ld	a5,-80(s0)
   2058c:	10479073          	csrw	sie,a5
   20590:	fa043423          	sd	zero,-88(s0)
   20594:	fa843783          	ld	a5,-88(s0)
   20598:	18079073          	csrw	satp,a5
   2059c:	30200073          	mret
   205a0:	00000013          	nop
   205a4:	05813083          	ld	ra,88(sp)
   205a8:	05013403          	ld	s0,80(sp)
   205ac:	04813483          	ld	s1,72(sp)
   205b0:	06010113          	addi	sp,sp,96
   205b4:	00008067          	ret

Disassembly of section .payload:

0000000000022000 <bss_begin>:
   22000:	10401073          	csrw	sie,zero
   22004:	7b4020ef          	jal	ra,247b8 <bss_begin+0x27b8>
   22008:	00000097          	auipc	ra,0x0
   2200c:	01c080e7          	jalr	28(ra) # 22024 <bss_begin+0x24>
   22010:	00003117          	auipc	sp,0x3
   22014:	ff010113          	addi	sp,sp,-16 # 25000 <bss_begin+0x3000>
   22018:	000012b7          	lui	t0,0x1
   2201c:	00510133          	add	sp,sp,t0
   22020:	0b80006f          	j	220d8 <bss_begin+0xd8>
   22024:	00008493          	mv	s1,ra
   22028:	00003517          	auipc	a0,0x3
   2202c:	9e850513          	addi	a0,a0,-1560 # 24a10 <bss_begin+0x2a10>
   22030:	049020ef          	jal	ra,24878 <bss_begin+0x2878>
   22034:	00048093          	mv	ra,s1
   22038:	00008067          	ret
   2203c:	0000                	unimp
   2203e:	0000                	unimp
   22040:	fe010113          	addi	sp,sp,-32
   22044:	00113c23          	sd	ra,24(sp)
   22048:	00813823          	sd	s0,16(sp)
   2204c:	02010413          	addi	s0,sp,32
   22050:	00050793          	mv	a5,a0
   22054:	00058713          	mv	a4,a1
   22058:	fef42623          	sw	a5,-20(s0)
   2205c:	00070793          	mv	a5,a4
   22060:	fef42423          	sw	a5,-24(s0)
   22064:	28c010ef          	jal	ra,232f0 <bss_begin+0x12f0>
   22068:	fec42703          	lw	a4,-20(s0)
   2206c:	fe842783          	lw	a5,-24(s0)
   22070:	00f707bb          	addw	a5,a4,a5
   22074:	0007879b          	sext.w	a5,a5
   22078:	00078513          	mv	a0,a5
   2207c:	01813083          	ld	ra,24(sp)
   22080:	01013403          	ld	s0,16(sp)
   22084:	02010113          	addi	sp,sp,32
   22088:	00008067          	ret
   2208c:	fe010113          	addi	sp,sp,-32
   22090:	00113c23          	sd	ra,24(sp)
   22094:	00813823          	sd	s0,16(sp)
   22098:	02010413          	addi	s0,sp,32
   2209c:	00100793          	li	a5,1
   220a0:	fef42623          	sw	a5,-20(s0)
   220a4:	00200793          	li	a5,2
   220a8:	fef42423          	sw	a5,-24(s0)
   220ac:	fe842703          	lw	a4,-24(s0)
   220b0:	fec42783          	lw	a5,-20(s0)
   220b4:	00070593          	mv	a1,a4
   220b8:	00078513          	mv	a0,a5
   220bc:	f85ff0ef          	jal	ra,22040 <bss_begin+0x40>
   220c0:	00050793          	mv	a5,a0
   220c4:	00078513          	mv	a0,a5
   220c8:	01813083          	ld	ra,24(sp)
   220cc:	01013403          	ld	s0,16(sp)
   220d0:	02010113          	addi	sp,sp,32
   220d4:	00008067          	ret
   220d8:	ff010113          	addi	sp,sp,-16
   220dc:	00113423          	sd	ra,8(sp)
   220e0:	00813023          	sd	s0,0(sp)
   220e4:	01010413          	addi	s0,sp,16
   220e8:	229010ef          	jal	ra,23b10 <bss_begin+0x1b10>
   220ec:	335010ef          	jal	ra,23c20 <bss_begin+0x1c20>
   220f0:	6f1000ef          	jal	ra,22fe0 <bss_begin+0xfe0>
   220f4:	f99ff0ef          	jal	ra,2208c <bss_begin+0x8c>
   220f8:	0000006f          	j	220f8 <bss_begin+0xf8>
   220fc:	fc010113          	addi	sp,sp,-64
   22100:	02813c23          	sd	s0,56(sp)
   22104:	04010413          	addi	s0,sp,64
   22108:	fca43c23          	sd	a0,-40(s0)
   2210c:	fcb43823          	sd	a1,-48(s0)
   22110:	00060793          	mv	a5,a2
   22114:	fcf42623          	sw	a5,-52(s0)
   22118:	fe042623          	sw	zero,-20(s0)
   2211c:	fd043603          	ld	a2,-48(s0)
   22120:	fd843683          	ld	a3,-40(s0)
   22124:	fcc42703          	lw	a4,-52(s0)
   22128:	fec42783          	lw	a5,-20(s0)
   2212c:	00c6b023          	sd	a2,0(a3)
   22130:	00c6b423          	sd	a2,8(a3)
   22134:	01078793          	addi	a5,a5,16 # 22010 <bss_begin+0x10>
   22138:	fee7cae3          	blt	a5,a4,2212c <bss_begin+0x12c>
   2213c:	fcd43c23          	sd	a3,-40(s0)
   22140:	fce42623          	sw	a4,-52(s0)
   22144:	fef42623          	sw	a5,-20(s0)
   22148:	00000013          	nop
   2214c:	03813403          	ld	s0,56(sp)
   22150:	04010113          	addi	sp,sp,64
   22154:	00008067          	ret
   22158:	fc010113          	addi	sp,sp,-64
   2215c:	02813c23          	sd	s0,56(sp)
   22160:	04010413          	addi	s0,sp,64
   22164:	fca43c23          	sd	a0,-40(s0)
   22168:	00058793          	mv	a5,a1
   2216c:	fcc43423          	sd	a2,-56(s0)
   22170:	fcf42a23          	sw	a5,-44(s0)
   22174:	fd843783          	ld	a5,-40(s0)
   22178:	fef43423          	sd	a5,-24(s0)
   2217c:	01c0006f          	j	22198 <bss_begin+0x198>
   22180:	fe843783          	ld	a5,-24(s0)
   22184:	00178713          	addi	a4,a5,1
   22188:	fee43423          	sd	a4,-24(s0)
   2218c:	fd442703          	lw	a4,-44(s0)
   22190:	0ff77713          	andi	a4,a4,255
   22194:	00e78023          	sb	a4,0(a5)
   22198:	fc843783          	ld	a5,-56(s0)
   2219c:	fff78713          	addi	a4,a5,-1
   221a0:	fce43423          	sd	a4,-56(s0)
   221a4:	fc079ee3          	bnez	a5,22180 <bss_begin+0x180>
   221a8:	fd843783          	ld	a5,-40(s0)
   221ac:	00078513          	mv	a0,a5
   221b0:	03813403          	ld	s0,56(sp)
   221b4:	04010113          	addi	sp,sp,64
   221b8:	00008067          	ret
   221bc:	f9010113          	addi	sp,sp,-112
   221c0:	06113423          	sd	ra,104(sp)
   221c4:	06813023          	sd	s0,96(sp)
   221c8:	07010413          	addi	s0,sp,112
   221cc:	faa43423          	sd	a0,-88(s0)
   221d0:	00058793          	mv	a5,a1
   221d4:	f8c43c23          	sd	a2,-104(s0)
   221d8:	faf42223          	sw	a5,-92(s0)
   221dc:	fa843783          	ld	a5,-88(s0)
   221e0:	fef43423          	sd	a5,-24(s0)
   221e4:	01000793          	li	a5,16
   221e8:	fcf43423          	sd	a5,-56(s0)
   221ec:	f9843783          	ld	a5,-104(s0)
   221f0:	fef43023          	sd	a5,-32(s0)
   221f4:	fe843783          	ld	a5,-24(s0)
   221f8:	fcf43023          	sd	a5,-64(s0)
   221fc:	fc043823          	sd	zero,-48(s0)
   22200:	fc042e23          	sw	zero,-36(s0)
   22204:	0340006f          	j	22238 <bss_begin+0x238>
   22208:	fa442783          	lw	a5,-92(s0)
   2220c:	0ff7f793          	andi	a5,a5,255
   22210:	fdc42703          	lw	a4,-36(s0)
   22214:	0037171b          	slliw	a4,a4,0x3
   22218:	0007071b          	sext.w	a4,a4
   2221c:	00e797b3          	sll	a5,a5,a4
   22220:	fd043703          	ld	a4,-48(s0)
   22224:	00f767b3          	or	a5,a4,a5
   22228:	fcf43823          	sd	a5,-48(s0)
   2222c:	fdc42783          	lw	a5,-36(s0)
   22230:	0017879b          	addiw	a5,a5,1
   22234:	fcf42e23          	sw	a5,-36(s0)
   22238:	fdc42783          	lw	a5,-36(s0)
   2223c:	0007871b          	sext.w	a4,a5
   22240:	00700793          	li	a5,7
   22244:	fce7d2e3          	bge	a5,a4,22208 <bss_begin+0x208>
   22248:	fc843783          	ld	a5,-56(s0)
   2224c:	fff78713          	addi	a4,a5,-1
   22250:	fc043783          	ld	a5,-64(s0)
   22254:	00f777b3          	and	a5,a4,a5
   22258:	04078e63          	beqz	a5,222b4 <bss_begin+0x2b4>
   2225c:	fc843783          	ld	a5,-56(s0)
   22260:	fff78793          	addi	a5,a5,-1
   22264:	fc043703          	ld	a4,-64(s0)
   22268:	00f777b3          	and	a5,a4,a5
   2226c:	faf43c23          	sd	a5,-72(s0)
   22270:	fc843703          	ld	a4,-56(s0)
   22274:	fb843783          	ld	a5,-72(s0)
   22278:	40f707b3          	sub	a5,a4,a5
   2227c:	faf43c23          	sd	a5,-72(s0)
   22280:	fa442783          	lw	a5,-92(s0)
   22284:	fb843603          	ld	a2,-72(s0)
   22288:	00078593          	mv	a1,a5
   2228c:	fe843503          	ld	a0,-24(s0)
   22290:	ec9ff0ef          	jal	ra,22158 <bss_begin+0x158>
   22294:	fe843703          	ld	a4,-24(s0)
   22298:	fb843783          	ld	a5,-72(s0)
   2229c:	00f707b3          	add	a5,a4,a5
   222a0:	fef43423          	sd	a5,-24(s0)
   222a4:	f9843703          	ld	a4,-104(s0)
   222a8:	fb843783          	ld	a5,-72(s0)
   222ac:	40f707b3          	sub	a5,a4,a5
   222b0:	fef43023          	sd	a5,-32(s0)
   222b4:	fe043703          	ld	a4,-32(s0)
   222b8:	fc843783          	ld	a5,-56(s0)
   222bc:	06e7fa63          	bgeu	a5,a4,22330 <bss_begin+0x330>
   222c0:	fe043703          	ld	a4,-32(s0)
   222c4:	fc843783          	ld	a5,-56(s0)
   222c8:	02f757b3          	divu	a5,a4,a5
   222cc:	faf42a23          	sw	a5,-76(s0)
   222d0:	fe043703          	ld	a4,-32(s0)
   222d4:	fc843783          	ld	a5,-56(s0)
   222d8:	02f777b3          	remu	a5,a4,a5
   222dc:	fef43023          	sd	a5,-32(s0)
   222e0:	fb442783          	lw	a5,-76(s0)
   222e4:	0047979b          	slliw	a5,a5,0x4
   222e8:	0007879b          	sext.w	a5,a5
   222ec:	00078613          	mv	a2,a5
   222f0:	fd043583          	ld	a1,-48(s0)
   222f4:	fe843503          	ld	a0,-24(s0)
   222f8:	e05ff0ef          	jal	ra,220fc <bss_begin+0xfc>
   222fc:	fe043783          	ld	a5,-32(s0)
   22300:	02078863          	beqz	a5,22330 <bss_begin+0x330>
   22304:	fb442783          	lw	a5,-76(s0)
   22308:	0047979b          	slliw	a5,a5,0x4
   2230c:	0007879b          	sext.w	a5,a5
   22310:	00078713          	mv	a4,a5
   22314:	fe843783          	ld	a5,-24(s0)
   22318:	00e787b3          	add	a5,a5,a4
   2231c:	fa442703          	lw	a4,-92(s0)
   22320:	fe043603          	ld	a2,-32(s0)
   22324:	00070593          	mv	a1,a4
   22328:	00078513          	mv	a0,a5
   2232c:	e2dff0ef          	jal	ra,22158 <bss_begin+0x158>
   22330:	fa843783          	ld	a5,-88(s0)
   22334:	00078513          	mv	a0,a5
   22338:	06813083          	ld	ra,104(sp)
   2233c:	06013403          	ld	s0,96(sp)
   22340:	07010113          	addi	sp,sp,112
   22344:	00008067          	ret
   22348:	fd010113          	addi	sp,sp,-48
   2234c:	02113423          	sd	ra,40(sp)
   22350:	02813023          	sd	s0,32(sp)
   22354:	03010413          	addi	s0,sp,48
   22358:	fea43423          	sd	a0,-24(s0)
   2235c:	00058793          	mv	a5,a1
   22360:	fcc43c23          	sd	a2,-40(s0)
   22364:	fef42223          	sw	a5,-28(s0)
   22368:	fe442783          	lw	a5,-28(s0)
   2236c:	fd843603          	ld	a2,-40(s0)
   22370:	00078593          	mv	a1,a5
   22374:	fe843503          	ld	a0,-24(s0)
   22378:	e45ff0ef          	jal	ra,221bc <bss_begin+0x1bc>
   2237c:	00050793          	mv	a5,a0
   22380:	00078513          	mv	a0,a5
   22384:	02813083          	ld	ra,40(sp)
   22388:	02013403          	ld	s0,32(sp)
   2238c:	03010113          	addi	sp,sp,48
   22390:	00008067          	ret
   22394:	fd010113          	addi	sp,sp,-48
   22398:	02813423          	sd	s0,40(sp)
   2239c:	03010413          	addi	s0,sp,48
   223a0:	fca43c23          	sd	a0,-40(s0)
   223a4:	fcb43823          	sd	a1,-48(s0)
   223a8:	fe042623          	sw	zero,-20(s0)
   223ac:	0440006f          	j	223f0 <bss_begin+0x3f0>
   223b0:	fec42703          	lw	a4,-20(s0)
   223b4:	00070793          	mv	a5,a4
   223b8:	0027979b          	slliw	a5,a5,0x2
   223bc:	00e787bb          	addw	a5,a5,a4
   223c0:	0017979b          	slliw	a5,a5,0x1
   223c4:	fef42623          	sw	a5,-20(s0)
   223c8:	fd843783          	ld	a5,-40(s0)
   223cc:	00178713          	addi	a4,a5,1
   223d0:	fce43c23          	sd	a4,-40(s0)
   223d4:	0007c783          	lbu	a5,0(a5)
   223d8:	0007879b          	sext.w	a5,a5
   223dc:	fd07879b          	addiw	a5,a5,-48
   223e0:	0007879b          	sext.w	a5,a5
   223e4:	fec42703          	lw	a4,-20(s0)
   223e8:	00f707bb          	addw	a5,a4,a5
   223ec:	fef42623          	sw	a5,-20(s0)
   223f0:	fd843783          	ld	a5,-40(s0)
   223f4:	0007c783          	lbu	a5,0(a5)
   223f8:	00078713          	mv	a4,a5
   223fc:	02f00793          	li	a5,47
   22400:	00e7fc63          	bgeu	a5,a4,22418 <bss_begin+0x418>
   22404:	fd843783          	ld	a5,-40(s0)
   22408:	0007c783          	lbu	a5,0(a5)
   2240c:	00078713          	mv	a4,a5
   22410:	03900793          	li	a5,57
   22414:	f8e7fee3          	bgeu	a5,a4,223b0 <bss_begin+0x3b0>
   22418:	fd043783          	ld	a5,-48(s0)
   2241c:	fec42703          	lw	a4,-20(s0)
   22420:	00e7a023          	sw	a4,0(a5)
   22424:	fd843783          	ld	a5,-40(s0)
   22428:	00078513          	mv	a0,a5
   2242c:	02813403          	ld	s0,40(sp)
   22430:	03010113          	addi	sp,sp,48
   22434:	00008067          	ret
   22438:	f2010113          	addi	sp,sp,-224
   2243c:	0c813c23          	sd	s0,216(sp)
   22440:	0e010413          	addi	s0,sp,224
   22444:	f2a43c23          	sd	a0,-200(s0)
   22448:	f2b43823          	sd	a1,-208(s0)
   2244c:	00060593          	mv	a1,a2
   22450:	00068613          	mv	a2,a3
   22454:	00070693          	mv	a3,a4
   22458:	00078713          	mv	a4,a5
   2245c:	00058793          	mv	a5,a1
   22460:	f2f42623          	sw	a5,-212(s0)
   22464:	00060793          	mv	a5,a2
   22468:	f2f42423          	sw	a5,-216(s0)
   2246c:	00068793          	mv	a5,a3
   22470:	f2f42223          	sw	a5,-220(s0)
   22474:	00070793          	mv	a5,a4
   22478:	f2f42023          	sw	a5,-224(s0)
   2247c:	fe0407a3          	sb	zero,-17(s0)
   22480:	00002797          	auipc	a5,0x2
   22484:	43878793          	addi	a5,a5,1080 # 248b8 <bss_begin+0x28b8>
   22488:	fef43023          	sd	a5,-32(s0)
   2248c:	f2042783          	lw	a5,-224(s0)
   22490:	0407f793          	andi	a5,a5,64
   22494:	0007879b          	sext.w	a5,a5
   22498:	00078863          	beqz	a5,224a8 <bss_begin+0x4a8>
   2249c:	00002797          	auipc	a5,0x2
   224a0:	44478793          	addi	a5,a5,1092 # 248e0 <bss_begin+0x28e0>
   224a4:	fef43023          	sd	a5,-32(s0)
   224a8:	f2042783          	lw	a5,-224(s0)
   224ac:	0107f793          	andi	a5,a5,16
   224b0:	0007879b          	sext.w	a5,a5
   224b4:	00078863          	beqz	a5,224c4 <bss_begin+0x4c4>
   224b8:	f2042783          	lw	a5,-224(s0)
   224bc:	ffe7f793          	andi	a5,a5,-2
   224c0:	f2f42023          	sw	a5,-224(s0)
   224c4:	f2c42783          	lw	a5,-212(s0)
   224c8:	0007871b          	sext.w	a4,a5
   224cc:	00100793          	li	a5,1
   224d0:	00e7da63          	bge	a5,a4,224e4 <bss_begin+0x4e4>
   224d4:	f2c42783          	lw	a5,-212(s0)
   224d8:	0007871b          	sext.w	a4,a5
   224dc:	02400793          	li	a5,36
   224e0:	00e7d663          	bge	a5,a4,224ec <bss_begin+0x4ec>
   224e4:	00000793          	li	a5,0
   224e8:	3400006f          	j	22828 <bss_begin+0x828>
   224ec:	f2042783          	lw	a5,-224(s0)
   224f0:	0017f793          	andi	a5,a5,1
   224f4:	0007879b          	sext.w	a5,a5
   224f8:	00078663          	beqz	a5,22504 <bss_begin+0x504>
   224fc:	03000793          	li	a5,48
   22500:	0080006f          	j	22508 <bss_begin+0x508>
   22504:	02000793          	li	a5,32
   22508:	fcf40da3          	sb	a5,-37(s0)
   2250c:	f2042783          	lw	a5,-224(s0)
   22510:	0027f793          	andi	a5,a5,2
   22514:	0007879b          	sext.w	a5,a5
   22518:	06078c63          	beqz	a5,22590 <bss_begin+0x590>
   2251c:	f3043783          	ld	a5,-208(s0)
   22520:	fcf43823          	sd	a5,-48(s0)
   22524:	fd043783          	ld	a5,-48(s0)
   22528:	0007de63          	bgez	a5,22544 <bss_begin+0x544>
   2252c:	02d00793          	li	a5,45
   22530:	fef407a3          	sb	a5,-17(s0)
   22534:	fd043783          	ld	a5,-48(s0)
   22538:	40f007b3          	neg	a5,a5
   2253c:	f2f43823          	sd	a5,-208(s0)
   22540:	0500006f          	j	22590 <bss_begin+0x590>
   22544:	f2042783          	lw	a5,-224(s0)
   22548:	0047f793          	andi	a5,a5,4
   2254c:	0007879b          	sext.w	a5,a5
   22550:	00078e63          	beqz	a5,2256c <bss_begin+0x56c>
   22554:	02b00793          	li	a5,43
   22558:	fef407a3          	sb	a5,-17(s0)
   2255c:	f2842783          	lw	a5,-216(s0)
   22560:	fff7879b          	addiw	a5,a5,-1
   22564:	f2f42423          	sw	a5,-216(s0)
   22568:	0280006f          	j	22590 <bss_begin+0x590>
   2256c:	f2042783          	lw	a5,-224(s0)
   22570:	0087f793          	andi	a5,a5,8
   22574:	0007879b          	sext.w	a5,a5
   22578:	00078c63          	beqz	a5,22590 <bss_begin+0x590>
   2257c:	02000793          	li	a5,32
   22580:	fef407a3          	sb	a5,-17(s0)
   22584:	f2842783          	lw	a5,-216(s0)
   22588:	fff7879b          	addiw	a5,a5,-1
   2258c:	f2f42423          	sw	a5,-216(s0)
   22590:	f2042783          	lw	a5,-224(s0)
   22594:	0207f793          	andi	a5,a5,32
   22598:	0007879b          	sext.w	a5,a5
   2259c:	04078063          	beqz	a5,225dc <bss_begin+0x5dc>
   225a0:	f2c42783          	lw	a5,-212(s0)
   225a4:	0007871b          	sext.w	a4,a5
   225a8:	01000793          	li	a5,16
   225ac:	00f71a63          	bne	a4,a5,225c0 <bss_begin+0x5c0>
   225b0:	f2842783          	lw	a5,-216(s0)
   225b4:	ffe7879b          	addiw	a5,a5,-2
   225b8:	f2f42423          	sw	a5,-216(s0)
   225bc:	0200006f          	j	225dc <bss_begin+0x5dc>
   225c0:	f2c42783          	lw	a5,-212(s0)
   225c4:	0007871b          	sext.w	a4,a5
   225c8:	00800793          	li	a5,8
   225cc:	00f71863          	bne	a4,a5,225dc <bss_begin+0x5dc>
   225d0:	f2842783          	lw	a5,-216(s0)
   225d4:	fff7879b          	addiw	a5,a5,-1
   225d8:	f2f42423          	sw	a5,-216(s0)
   225dc:	fc042e23          	sw	zero,-36(s0)
   225e0:	f3043783          	ld	a5,-208(s0)
   225e4:	06079e63          	bnez	a5,22660 <bss_begin+0x660>
   225e8:	fdc42783          	lw	a5,-36(s0)
   225ec:	0017871b          	addiw	a4,a5,1
   225f0:	fce42e23          	sw	a4,-36(s0)
   225f4:	ff040713          	addi	a4,s0,-16
   225f8:	00f707b3          	add	a5,a4,a5
   225fc:	03000713          	li	a4,48
   22600:	f4e78c23          	sb	a4,-168(a5)
   22604:	0640006f          	j	22668 <bss_begin+0x668>
   22608:	f2c42783          	lw	a5,-212(s0)
   2260c:	fcf42623          	sw	a5,-52(s0)
   22610:	fcc46783          	lwu	a5,-52(s0)
   22614:	f3043703          	ld	a4,-208(s0)
   22618:	02f777b3          	remu	a5,a4,a5
   2261c:	fcf42423          	sw	a5,-56(s0)
   22620:	fcc46783          	lwu	a5,-52(s0)
   22624:	f3043703          	ld	a4,-208(s0)
   22628:	02f757b3          	divu	a5,a4,a5
   2262c:	f2f43823          	sd	a5,-208(s0)
   22630:	fc842783          	lw	a5,-56(s0)
   22634:	02079793          	slli	a5,a5,0x20
   22638:	0207d793          	srli	a5,a5,0x20
   2263c:	fe043703          	ld	a4,-32(s0)
   22640:	00f70733          	add	a4,a4,a5
   22644:	fdc42783          	lw	a5,-36(s0)
   22648:	0017869b          	addiw	a3,a5,1
   2264c:	fcd42e23          	sw	a3,-36(s0)
   22650:	00074703          	lbu	a4,0(a4)
   22654:	ff040693          	addi	a3,s0,-16
   22658:	00f687b3          	add	a5,a3,a5
   2265c:	f4e78c23          	sb	a4,-168(a5)
   22660:	f3043783          	ld	a5,-208(s0)
   22664:	fa0792e3          	bnez	a5,22608 <bss_begin+0x608>
   22668:	fdc42703          	lw	a4,-36(s0)
   2266c:	f2442783          	lw	a5,-220(s0)
   22670:	0007071b          	sext.w	a4,a4
   22674:	0007879b          	sext.w	a5,a5
   22678:	00e7d663          	bge	a5,a4,22684 <bss_begin+0x684>
   2267c:	fdc42783          	lw	a5,-36(s0)
   22680:	f2f42223          	sw	a5,-220(s0)
   22684:	f2842703          	lw	a4,-216(s0)
   22688:	f2442783          	lw	a5,-220(s0)
   2268c:	40f707bb          	subw	a5,a4,a5
   22690:	f2f42423          	sw	a5,-216(s0)
   22694:	f2042783          	lw	a5,-224(s0)
   22698:	0117f793          	andi	a5,a5,17
   2269c:	0007879b          	sext.w	a5,a5
   226a0:	02079663          	bnez	a5,226cc <bss_begin+0x6cc>
   226a4:	0180006f          	j	226bc <bss_begin+0x6bc>
   226a8:	f3843783          	ld	a5,-200(s0)
   226ac:	00178713          	addi	a4,a5,1
   226b0:	f2e43c23          	sd	a4,-200(s0)
   226b4:	02000713          	li	a4,32
   226b8:	00e78023          	sb	a4,0(a5)
   226bc:	f2842783          	lw	a5,-216(s0)
   226c0:	fff7871b          	addiw	a4,a5,-1
   226c4:	f2e42423          	sw	a4,-216(s0)
   226c8:	fef040e3          	bgtz	a5,226a8 <bss_begin+0x6a8>
   226cc:	fef44783          	lbu	a5,-17(s0)
   226d0:	0ff7f793          	andi	a5,a5,255
   226d4:	00078c63          	beqz	a5,226ec <bss_begin+0x6ec>
   226d8:	f3843783          	ld	a5,-200(s0)
   226dc:	00178713          	addi	a4,a5,1
   226e0:	f2e43c23          	sd	a4,-200(s0)
   226e4:	fef44703          	lbu	a4,-17(s0)
   226e8:	00e78023          	sb	a4,0(a5)
   226ec:	f2042783          	lw	a5,-224(s0)
   226f0:	0207f793          	andi	a5,a5,32
   226f4:	0007879b          	sext.w	a5,a5
   226f8:	06078463          	beqz	a5,22760 <bss_begin+0x760>
   226fc:	f2c42783          	lw	a5,-212(s0)
   22700:	0007871b          	sext.w	a4,a5
   22704:	00800793          	li	a5,8
   22708:	00f71e63          	bne	a4,a5,22724 <bss_begin+0x724>
   2270c:	f3843783          	ld	a5,-200(s0)
   22710:	00178713          	addi	a4,a5,1
   22714:	f2e43c23          	sd	a4,-200(s0)
   22718:	03000713          	li	a4,48
   2271c:	00e78023          	sb	a4,0(a5)
   22720:	0400006f          	j	22760 <bss_begin+0x760>
   22724:	f2c42783          	lw	a5,-212(s0)
   22728:	0007871b          	sext.w	a4,a5
   2272c:	01000793          	li	a5,16
   22730:	02f71863          	bne	a4,a5,22760 <bss_begin+0x760>
   22734:	f3843783          	ld	a5,-200(s0)
   22738:	00178713          	addi	a4,a5,1
   2273c:	f2e43c23          	sd	a4,-200(s0)
   22740:	03000713          	li	a4,48
   22744:	00e78023          	sb	a4,0(a5)
   22748:	f3843783          	ld	a5,-200(s0)
   2274c:	00178713          	addi	a4,a5,1
   22750:	f2e43c23          	sd	a4,-200(s0)
   22754:	fe043703          	ld	a4,-32(s0)
   22758:	02174703          	lbu	a4,33(a4)
   2275c:	00e78023          	sb	a4,0(a5)
   22760:	f2042783          	lw	a5,-224(s0)
   22764:	0107f793          	andi	a5,a5,16
   22768:	0007879b          	sext.w	a5,a5
   2276c:	04079263          	bnez	a5,227b0 <bss_begin+0x7b0>
   22770:	0180006f          	j	22788 <bss_begin+0x788>
   22774:	f3843783          	ld	a5,-200(s0)
   22778:	00178713          	addi	a4,a5,1
   2277c:	f2e43c23          	sd	a4,-200(s0)
   22780:	fdb44703          	lbu	a4,-37(s0)
   22784:	00e78023          	sb	a4,0(a5)
   22788:	f2842783          	lw	a5,-216(s0)
   2278c:	fff7871b          	addiw	a4,a5,-1
   22790:	f2e42423          	sw	a4,-216(s0)
   22794:	fef040e3          	bgtz	a5,22774 <bss_begin+0x774>
   22798:	0180006f          	j	227b0 <bss_begin+0x7b0>
   2279c:	f3843783          	ld	a5,-200(s0)
   227a0:	00178713          	addi	a4,a5,1
   227a4:	f2e43c23          	sd	a4,-200(s0)
   227a8:	03000713          	li	a4,48
   227ac:	00e78023          	sb	a4,0(a5)
   227b0:	f2442783          	lw	a5,-220(s0)
   227b4:	fff7871b          	addiw	a4,a5,-1
   227b8:	f2e42223          	sw	a4,-220(s0)
   227bc:	fdc42703          	lw	a4,-36(s0)
   227c0:	0007071b          	sext.w	a4,a4
   227c4:	fcf74ce3          	blt	a4,a5,2279c <bss_begin+0x79c>
   227c8:	0240006f          	j	227ec <bss_begin+0x7ec>
   227cc:	f3843783          	ld	a5,-200(s0)
   227d0:	00178713          	addi	a4,a5,1
   227d4:	f2e43c23          	sd	a4,-200(s0)
   227d8:	fdc42703          	lw	a4,-36(s0)
   227dc:	ff040693          	addi	a3,s0,-16
   227e0:	00e68733          	add	a4,a3,a4
   227e4:	f5874703          	lbu	a4,-168(a4)
   227e8:	00e78023          	sb	a4,0(a5)
   227ec:	fdc42783          	lw	a5,-36(s0)
   227f0:	fff7871b          	addiw	a4,a5,-1
   227f4:	fce42e23          	sw	a4,-36(s0)
   227f8:	fcf04ae3          	bgtz	a5,227cc <bss_begin+0x7cc>
   227fc:	0180006f          	j	22814 <bss_begin+0x814>
   22800:	f3843783          	ld	a5,-200(s0)
   22804:	00178713          	addi	a4,a5,1
   22808:	f2e43c23          	sd	a4,-200(s0)
   2280c:	02000713          	li	a4,32
   22810:	00e78023          	sb	a4,0(a5)
   22814:	f2842783          	lw	a5,-216(s0)
   22818:	fff7871b          	addiw	a4,a5,-1
   2281c:	f2e42423          	sw	a4,-216(s0)
   22820:	fef040e3          	bgtz	a5,22800 <bss_begin+0x800>
   22824:	f3843783          	ld	a5,-200(s0)
   22828:	00078513          	mv	a0,a5
   2282c:	0d813403          	ld	s0,216(sp)
   22830:	0e010113          	addi	sp,sp,224
   22834:	00008067          	ret
   22838:	f9010113          	addi	sp,sp,-112
   2283c:	06113423          	sd	ra,104(sp)
   22840:	06813023          	sd	s0,96(sp)
   22844:	07010413          	addi	s0,sp,112
   22848:	faa43423          	sd	a0,-88(s0)
   2284c:	00058793          	mv	a5,a1
   22850:	f8c43c23          	sd	a2,-104(s0)
   22854:	f8d43823          	sd	a3,-112(s0)
   22858:	faf42223          	sw	a5,-92(s0)
   2285c:	fa843783          	ld	a5,-88(s0)
   22860:	fef43423          	sd	a5,-24(s0)
   22864:	7440006f          	j	22fa8 <bss_begin+0xfa8>
   22868:	f9843783          	ld	a5,-104(s0)
   2286c:	0007c783          	lbu	a5,0(a5)
   22870:	00078713          	mv	a4,a5
   22874:	02500793          	li	a5,37
   22878:	02f70063          	beq	a4,a5,22898 <bss_begin+0x898>
   2287c:	fe843783          	ld	a5,-24(s0)
   22880:	00178713          	addi	a4,a5,1
   22884:	fee43423          	sd	a4,-24(s0)
   22888:	f9843703          	ld	a4,-104(s0)
   2288c:	00074703          	lbu	a4,0(a4)
   22890:	00e78023          	sb	a4,0(a5)
   22894:	7080006f          	j	22f9c <bss_begin+0xf9c>
   22898:	fe042223          	sw	zero,-28(s0)
   2289c:	f9843783          	ld	a5,-104(s0)
   228a0:	00178793          	addi	a5,a5,1
   228a4:	f8f43c23          	sd	a5,-104(s0)
   228a8:	f9843783          	ld	a5,-104(s0)
   228ac:	0007c783          	lbu	a5,0(a5)
   228b0:	0007879b          	sext.w	a5,a5
   228b4:	fe07869b          	addiw	a3,a5,-32
   228b8:	0006871b          	sext.w	a4,a3
   228bc:	01000793          	li	a5,16
   228c0:	08e7e263          	bltu	a5,a4,22944 <bss_begin+0x944>
   228c4:	02069793          	slli	a5,a3,0x20
   228c8:	0207d793          	srli	a5,a5,0x20
   228cc:	00279713          	slli	a4,a5,0x2
   228d0:	00002797          	auipc	a5,0x2
   228d4:	04078793          	addi	a5,a5,64 # 24910 <bss_begin+0x2910>
   228d8:	00f707b3          	add	a5,a4,a5
   228dc:	0007a783          	lw	a5,0(a5)
   228e0:	0007871b          	sext.w	a4,a5
   228e4:	00002797          	auipc	a5,0x2
   228e8:	02c78793          	addi	a5,a5,44 # 24910 <bss_begin+0x2910>
   228ec:	00f707b3          	add	a5,a4,a5
   228f0:	00078067          	jr	a5
   228f4:	fe442783          	lw	a5,-28(s0)
   228f8:	0107e793          	ori	a5,a5,16
   228fc:	fef42223          	sw	a5,-28(s0)
   22900:	f9dff06f          	j	2289c <bss_begin+0x89c>
   22904:	fe442783          	lw	a5,-28(s0)
   22908:	0047e793          	ori	a5,a5,4
   2290c:	fef42223          	sw	a5,-28(s0)
   22910:	f8dff06f          	j	2289c <bss_begin+0x89c>
   22914:	fe442783          	lw	a5,-28(s0)
   22918:	0087e793          	ori	a5,a5,8
   2291c:	fef42223          	sw	a5,-28(s0)
   22920:	f7dff06f          	j	2289c <bss_begin+0x89c>
   22924:	fe442783          	lw	a5,-28(s0)
   22928:	0207e793          	ori	a5,a5,32
   2292c:	fef42223          	sw	a5,-28(s0)
   22930:	f6dff06f          	j	2289c <bss_begin+0x89c>
   22934:	fe442783          	lw	a5,-28(s0)
   22938:	0017e793          	ori	a5,a5,1
   2293c:	fef42223          	sw	a5,-28(s0)
   22940:	f5dff06f          	j	2289c <bss_begin+0x89c>
   22944:	fff00793          	li	a5,-1
   22948:	faf42a23          	sw	a5,-76(s0)
   2294c:	f9843783          	ld	a5,-104(s0)
   22950:	0007c783          	lbu	a5,0(a5)
   22954:	00078713          	mv	a4,a5
   22958:	02f00793          	li	a5,47
   2295c:	02e7f863          	bgeu	a5,a4,2298c <bss_begin+0x98c>
   22960:	f9843783          	ld	a5,-104(s0)
   22964:	0007c783          	lbu	a5,0(a5)
   22968:	00078713          	mv	a4,a5
   2296c:	03900793          	li	a5,57
   22970:	00e7ee63          	bltu	a5,a4,2298c <bss_begin+0x98c>
   22974:	fb440793          	addi	a5,s0,-76
   22978:	00078593          	mv	a1,a5
   2297c:	f9843503          	ld	a0,-104(s0)
   22980:	a15ff0ef          	jal	ra,22394 <bss_begin+0x394>
   22984:	f8a43c23          	sd	a0,-104(s0)
   22988:	0500006f          	j	229d8 <bss_begin+0x9d8>
   2298c:	f9843783          	ld	a5,-104(s0)
   22990:	0007c783          	lbu	a5,0(a5)
   22994:	00078713          	mv	a4,a5
   22998:	02a00793          	li	a5,42
   2299c:	02f71e63          	bne	a4,a5,229d8 <bss_begin+0x9d8>
   229a0:	f9043783          	ld	a5,-112(s0)
   229a4:	00878713          	addi	a4,a5,8
   229a8:	f8e43823          	sd	a4,-112(s0)
   229ac:	0007a783          	lw	a5,0(a5)
   229b0:	faf42a23          	sw	a5,-76(s0)
   229b4:	fb442783          	lw	a5,-76(s0)
   229b8:	0207d063          	bgez	a5,229d8 <bss_begin+0x9d8>
   229bc:	fb442783          	lw	a5,-76(s0)
   229c0:	40f007bb          	negw	a5,a5
   229c4:	0007879b          	sext.w	a5,a5
   229c8:	faf42a23          	sw	a5,-76(s0)
   229cc:	fe442783          	lw	a5,-28(s0)
   229d0:	0107e793          	ori	a5,a5,16
   229d4:	fef42223          	sw	a5,-28(s0)
   229d8:	fff00793          	li	a5,-1
   229dc:	faf42823          	sw	a5,-80(s0)
   229e0:	f9843783          	ld	a5,-104(s0)
   229e4:	0007c783          	lbu	a5,0(a5)
   229e8:	00078713          	mv	a4,a5
   229ec:	02e00793          	li	a5,46
   229f0:	08f71263          	bne	a4,a5,22a74 <bss_begin+0xa74>
   229f4:	f9843783          	ld	a5,-104(s0)
   229f8:	00178793          	addi	a5,a5,1
   229fc:	f8f43c23          	sd	a5,-104(s0)
   22a00:	f9843783          	ld	a5,-104(s0)
   22a04:	0007c783          	lbu	a5,0(a5)
   22a08:	00078713          	mv	a4,a5
   22a0c:	02f00793          	li	a5,47
   22a10:	02e7f863          	bgeu	a5,a4,22a40 <bss_begin+0xa40>
   22a14:	f9843783          	ld	a5,-104(s0)
   22a18:	0007c783          	lbu	a5,0(a5)
   22a1c:	00078713          	mv	a4,a5
   22a20:	03900793          	li	a5,57
   22a24:	00e7ee63          	bltu	a5,a4,22a40 <bss_begin+0xa40>
   22a28:	fb040793          	addi	a5,s0,-80
   22a2c:	00078593          	mv	a1,a5
   22a30:	f9843503          	ld	a0,-104(s0)
   22a34:	961ff0ef          	jal	ra,22394 <bss_begin+0x394>
   22a38:	f8a43c23          	sd	a0,-104(s0)
   22a3c:	02c0006f          	j	22a68 <bss_begin+0xa68>
   22a40:	f9843783          	ld	a5,-104(s0)
   22a44:	0007c783          	lbu	a5,0(a5)
   22a48:	00078713          	mv	a4,a5
   22a4c:	02a00793          	li	a5,42
   22a50:	00f71c63          	bne	a4,a5,22a68 <bss_begin+0xa68>
   22a54:	f9043783          	ld	a5,-112(s0)
   22a58:	00878713          	addi	a4,a5,8
   22a5c:	f8e43823          	sd	a4,-112(s0)
   22a60:	0007a783          	lw	a5,0(a5)
   22a64:	faf42823          	sw	a5,-80(s0)
   22a68:	fb042783          	lw	a5,-80(s0)
   22a6c:	0007d463          	bgez	a5,22a74 <bss_begin+0xa74>
   22a70:	fa042823          	sw	zero,-80(s0)
   22a74:	fff00793          	li	a5,-1
   22a78:	fef42023          	sw	a5,-32(s0)
   22a7c:	f9843783          	ld	a5,-104(s0)
   22a80:	0007c783          	lbu	a5,0(a5)
   22a84:	00078713          	mv	a4,a5
   22a88:	06800793          	li	a5,104
   22a8c:	02f70663          	beq	a4,a5,22ab8 <bss_begin+0xab8>
   22a90:	f9843783          	ld	a5,-104(s0)
   22a94:	0007c783          	lbu	a5,0(a5)
   22a98:	00078713          	mv	a4,a5
   22a9c:	06c00793          	li	a5,108
   22aa0:	00f70c63          	beq	a4,a5,22ab8 <bss_begin+0xab8>
   22aa4:	f9843783          	ld	a5,-104(s0)
   22aa8:	0007c783          	lbu	a5,0(a5)
   22aac:	00078713          	mv	a4,a5
   22ab0:	04c00793          	li	a5,76
   22ab4:	04f71a63          	bne	a4,a5,22b08 <bss_begin+0xb08>
   22ab8:	f9843783          	ld	a5,-104(s0)
   22abc:	0007c783          	lbu	a5,0(a5)
   22ac0:	fef42023          	sw	a5,-32(s0)
   22ac4:	f9843783          	ld	a5,-104(s0)
   22ac8:	00178793          	addi	a5,a5,1
   22acc:	f8f43c23          	sd	a5,-104(s0)
   22ad0:	fe042783          	lw	a5,-32(s0)
   22ad4:	0007871b          	sext.w	a4,a5
   22ad8:	06c00793          	li	a5,108
   22adc:	02f71663          	bne	a4,a5,22b08 <bss_begin+0xb08>
   22ae0:	f9843783          	ld	a5,-104(s0)
   22ae4:	0007c783          	lbu	a5,0(a5)
   22ae8:	00078713          	mv	a4,a5
   22aec:	06c00793          	li	a5,108
   22af0:	00f71c63          	bne	a4,a5,22b08 <bss_begin+0xb08>
   22af4:	04c00793          	li	a5,76
   22af8:	fef42023          	sw	a5,-32(s0)
   22afc:	f9843783          	ld	a5,-104(s0)
   22b00:	00178793          	addi	a5,a5,1
   22b04:	f8f43c23          	sd	a5,-104(s0)
   22b08:	f9843783          	ld	a5,-104(s0)
   22b0c:	0007c783          	lbu	a5,0(a5)
   22b10:	0007879b          	sext.w	a5,a5
   22b14:	fa87869b          	addiw	a3,a5,-88
   22b18:	0006871b          	sext.w	a4,a3
   22b1c:	02000793          	li	a5,32
   22b20:	2ae7ec63          	bltu	a5,a4,22dd8 <bss_begin+0xdd8>
   22b24:	02069793          	slli	a5,a3,0x20
   22b28:	0207d793          	srli	a5,a5,0x20
   22b2c:	00279713          	slli	a4,a5,0x2
   22b30:	00002797          	auipc	a5,0x2
   22b34:	e2478793          	addi	a5,a5,-476 # 24954 <bss_begin+0x2954>
   22b38:	00f707b3          	add	a5,a4,a5
   22b3c:	0007a783          	lw	a5,0(a5)
   22b40:	0007871b          	sext.w	a4,a5
   22b44:	00002797          	auipc	a5,0x2
   22b48:	e1078793          	addi	a5,a5,-496 # 24954 <bss_begin+0x2954>
   22b4c:	00f707b3          	add	a5,a4,a5
   22b50:	00078067          	jr	a5
   22b54:	fe442783          	lw	a5,-28(s0)
   22b58:	0107f793          	andi	a5,a5,16
   22b5c:	0007879b          	sext.w	a5,a5
   22b60:	02079a63          	bnez	a5,22b94 <bss_begin+0xb94>
   22b64:	0180006f          	j	22b7c <bss_begin+0xb7c>
   22b68:	fe843783          	ld	a5,-24(s0)
   22b6c:	00178713          	addi	a4,a5,1
   22b70:	fee43423          	sd	a4,-24(s0)
   22b74:	02000713          	li	a4,32
   22b78:	00e78023          	sb	a4,0(a5)
   22b7c:	fb442783          	lw	a5,-76(s0)
   22b80:	fff7879b          	addiw	a5,a5,-1
   22b84:	0007879b          	sext.w	a5,a5
   22b88:	faf42a23          	sw	a5,-76(s0)
   22b8c:	fb442783          	lw	a5,-76(s0)
   22b90:	fcf04ce3          	bgtz	a5,22b68 <bss_begin+0xb68>
   22b94:	f9043783          	ld	a5,-112(s0)
   22b98:	00878713          	addi	a4,a5,8
   22b9c:	f8e43823          	sd	a4,-112(s0)
   22ba0:	0007a683          	lw	a3,0(a5)
   22ba4:	fe843783          	ld	a5,-24(s0)
   22ba8:	00178713          	addi	a4,a5,1
   22bac:	fee43423          	sd	a4,-24(s0)
   22bb0:	0ff6f713          	andi	a4,a3,255
   22bb4:	00e78023          	sb	a4,0(a5)
   22bb8:	0180006f          	j	22bd0 <bss_begin+0xbd0>
   22bbc:	fe843783          	ld	a5,-24(s0)
   22bc0:	00178713          	addi	a4,a5,1
   22bc4:	fee43423          	sd	a4,-24(s0)
   22bc8:	02000713          	li	a4,32
   22bcc:	00e78023          	sb	a4,0(a5)
   22bd0:	fb442783          	lw	a5,-76(s0)
   22bd4:	fff7879b          	addiw	a5,a5,-1
   22bd8:	0007879b          	sext.w	a5,a5
   22bdc:	faf42a23          	sw	a5,-76(s0)
   22be0:	fb442783          	lw	a5,-76(s0)
   22be4:	fcf04ce3          	bgtz	a5,22bbc <bss_begin+0xbbc>
   22be8:	3b40006f          	j	22f9c <bss_begin+0xf9c>
   22bec:	f9043783          	ld	a5,-112(s0)
   22bf0:	00878713          	addi	a4,a5,8
   22bf4:	f8e43823          	sd	a4,-112(s0)
   22bf8:	0007b783          	ld	a5,0(a5)
   22bfc:	fcf43c23          	sd	a5,-40(s0)
   22c00:	fd843783          	ld	a5,-40(s0)
   22c04:	00079863          	bnez	a5,22c14 <bss_begin+0xc14>
   22c08:	00002797          	auipc	a5,0x2
   22c0c:	d0078793          	addi	a5,a5,-768 # 24908 <bss_begin+0x2908>
   22c10:	fcf43c23          	sd	a5,-40(s0)
   22c14:	fd843503          	ld	a0,-40(s0)
   22c18:	70c000ef          	jal	ra,23324 <bss_begin+0x1324>
   22c1c:	00050793          	mv	a5,a0
   22c20:	fcf42823          	sw	a5,-48(s0)
   22c24:	fb042783          	lw	a5,-80(s0)
   22c28:	0007d863          	bgez	a5,22c38 <bss_begin+0xc38>
   22c2c:	fd042783          	lw	a5,-48(s0)
   22c30:	faf42823          	sw	a5,-80(s0)
   22c34:	01c0006f          	j	22c50 <bss_begin+0xc50>
   22c38:	fb042703          	lw	a4,-80(s0)
   22c3c:	fd042783          	lw	a5,-48(s0)
   22c40:	0007879b          	sext.w	a5,a5
   22c44:	00f75663          	bge	a4,a5,22c50 <bss_begin+0xc50>
   22c48:	fb042783          	lw	a5,-80(s0)
   22c4c:	fcf42823          	sw	a5,-48(s0)
   22c50:	fe442783          	lw	a5,-28(s0)
   22c54:	0107f793          	andi	a5,a5,16
   22c58:	0007879b          	sext.w	a5,a5
   22c5c:	02079c63          	bnez	a5,22c94 <bss_begin+0xc94>
   22c60:	0180006f          	j	22c78 <bss_begin+0xc78>
   22c64:	fe843783          	ld	a5,-24(s0)
   22c68:	00178713          	addi	a4,a5,1
   22c6c:	fee43423          	sd	a4,-24(s0)
   22c70:	02000713          	li	a4,32
   22c74:	00e78023          	sb	a4,0(a5)
   22c78:	fb442783          	lw	a5,-76(s0)
   22c7c:	fff7871b          	addiw	a4,a5,-1
   22c80:	0007071b          	sext.w	a4,a4
   22c84:	fae42a23          	sw	a4,-76(s0)
   22c88:	fd042703          	lw	a4,-48(s0)
   22c8c:	0007071b          	sext.w	a4,a4
   22c90:	fcf74ae3          	blt	a4,a5,22c64 <bss_begin+0xc64>
   22c94:	fc042a23          	sw	zero,-44(s0)
   22c98:	0300006f          	j	22cc8 <bss_begin+0xcc8>
   22c9c:	fd843703          	ld	a4,-40(s0)
   22ca0:	00170793          	addi	a5,a4,1
   22ca4:	fcf43c23          	sd	a5,-40(s0)
   22ca8:	fe843783          	ld	a5,-24(s0)
   22cac:	00178693          	addi	a3,a5,1
   22cb0:	fed43423          	sd	a3,-24(s0)
   22cb4:	00074703          	lbu	a4,0(a4)
   22cb8:	00e78023          	sb	a4,0(a5)
   22cbc:	fd442783          	lw	a5,-44(s0)
   22cc0:	0017879b          	addiw	a5,a5,1
   22cc4:	fcf42a23          	sw	a5,-44(s0)
   22cc8:	fd442703          	lw	a4,-44(s0)
   22ccc:	fd042783          	lw	a5,-48(s0)
   22cd0:	0007071b          	sext.w	a4,a4
   22cd4:	0007879b          	sext.w	a5,a5
   22cd8:	fcf742e3          	blt	a4,a5,22c9c <bss_begin+0xc9c>
   22cdc:	0180006f          	j	22cf4 <bss_begin+0xcf4>
   22ce0:	fe843783          	ld	a5,-24(s0)
   22ce4:	00178713          	addi	a4,a5,1
   22ce8:	fee43423          	sd	a4,-24(s0)
   22cec:	02000713          	li	a4,32
   22cf0:	00e78023          	sb	a4,0(a5)
   22cf4:	fb442783          	lw	a5,-76(s0)
   22cf8:	fff7871b          	addiw	a4,a5,-1
   22cfc:	0007071b          	sext.w	a4,a4
   22d00:	fae42a23          	sw	a4,-76(s0)
   22d04:	fd042703          	lw	a4,-48(s0)
   22d08:	0007071b          	sext.w	a4,a4
   22d0c:	fcf74ae3          	blt	a4,a5,22ce0 <bss_begin+0xce0>
   22d10:	28c0006f          	j	22f9c <bss_begin+0xf9c>
   22d14:	f9043783          	ld	a5,-112(s0)
   22d18:	00878713          	addi	a4,a5,8
   22d1c:	f8e43823          	sd	a4,-112(s0)
   22d20:	0007b783          	ld	a5,0(a5)
   22d24:	faf43c23          	sd	a5,-72(s0)
   22d28:	fe843703          	ld	a4,-24(s0)
   22d2c:	fa843783          	ld	a5,-88(s0)
   22d30:	40f707b3          	sub	a5,a4,a5
   22d34:	0ff7f713          	andi	a4,a5,255
   22d38:	fb843783          	ld	a5,-72(s0)
   22d3c:	00e78023          	sb	a4,0(a5)
   22d40:	25c0006f          	j	22f9c <bss_begin+0xf9c>
   22d44:	fb442783          	lw	a5,-76(s0)
   22d48:	00078713          	mv	a4,a5
   22d4c:	fff00793          	li	a5,-1
   22d50:	00f71c63          	bne	a4,a5,22d68 <bss_begin+0xd68>
   22d54:	01000793          	li	a5,16
   22d58:	faf42a23          	sw	a5,-76(s0)
   22d5c:	fe442783          	lw	a5,-28(s0)
   22d60:	0017e793          	ori	a5,a5,1
   22d64:	fef42223          	sw	a5,-28(s0)
   22d68:	f9043783          	ld	a5,-112(s0)
   22d6c:	00878713          	addi	a4,a5,8
   22d70:	f8e43823          	sd	a4,-112(s0)
   22d74:	0007b783          	ld	a5,0(a5)
   22d78:	00078593          	mv	a1,a5
   22d7c:	fb442683          	lw	a3,-76(s0)
   22d80:	fb042703          	lw	a4,-80(s0)
   22d84:	fe442783          	lw	a5,-28(s0)
   22d88:	01000613          	li	a2,16
   22d8c:	fe843503          	ld	a0,-24(s0)
   22d90:	ea8ff0ef          	jal	ra,22438 <bss_begin+0x438>
   22d94:	fea43423          	sd	a0,-24(s0)
   22d98:	2040006f          	j	22f9c <bss_begin+0xf9c>
   22d9c:	00800793          	li	a5,8
   22da0:	fcf42223          	sw	a5,-60(s0)
   22da4:	0940006f          	j	22e38 <bss_begin+0xe38>
   22da8:	fe442783          	lw	a5,-28(s0)
   22dac:	0407e793          	ori	a5,a5,64
   22db0:	fef42223          	sw	a5,-28(s0)
   22db4:	01000793          	li	a5,16
   22db8:	fcf42223          	sw	a5,-60(s0)
   22dbc:	07c0006f          	j	22e38 <bss_begin+0xe38>
   22dc0:	fe442783          	lw	a5,-28(s0)
   22dc4:	0027e793          	ori	a5,a5,2
   22dc8:	fef42223          	sw	a5,-28(s0)
   22dcc:	00a00793          	li	a5,10
   22dd0:	fcf42223          	sw	a5,-60(s0)
   22dd4:	0640006f          	j	22e38 <bss_begin+0xe38>
   22dd8:	f9843783          	ld	a5,-104(s0)
   22ddc:	0007c783          	lbu	a5,0(a5)
   22de0:	00078713          	mv	a4,a5
   22de4:	02500793          	li	a5,37
   22de8:	00f70c63          	beq	a4,a5,22e00 <bss_begin+0xe00>
   22dec:	fe843783          	ld	a5,-24(s0)
   22df0:	00178713          	addi	a4,a5,1
   22df4:	fee43423          	sd	a4,-24(s0)
   22df8:	02500713          	li	a4,37
   22dfc:	00e78023          	sb	a4,0(a5)
   22e00:	f9843783          	ld	a5,-104(s0)
   22e04:	0007c783          	lbu	a5,0(a5)
   22e08:	02078063          	beqz	a5,22e28 <bss_begin+0xe28>
   22e0c:	fe843783          	ld	a5,-24(s0)
   22e10:	00178713          	addi	a4,a5,1
   22e14:	fee43423          	sd	a4,-24(s0)
   22e18:	f9843703          	ld	a4,-104(s0)
   22e1c:	00074703          	lbu	a4,0(a4)
   22e20:	00e78023          	sb	a4,0(a5)
   22e24:	0100006f          	j	22e34 <bss_begin+0xe34>
   22e28:	f9843783          	ld	a5,-104(s0)
   22e2c:	fff78793          	addi	a5,a5,-1
   22e30:	f8f43c23          	sd	a5,-104(s0)
   22e34:	00000013          	nop
   22e38:	fe042783          	lw	a5,-32(s0)
   22e3c:	0007871b          	sext.w	a4,a5
   22e40:	04c00793          	li	a5,76
   22e44:	04f71263          	bne	a4,a5,22e88 <bss_begin+0xe88>
   22e48:	fe442783          	lw	a5,-28(s0)
   22e4c:	0027f793          	andi	a5,a5,2
   22e50:	0007879b          	sext.w	a5,a5
   22e54:	00078e63          	beqz	a5,22e70 <bss_begin+0xe70>
   22e58:	f9043783          	ld	a5,-112(s0)
   22e5c:	00878713          	addi	a4,a5,8
   22e60:	f8e43823          	sd	a4,-112(s0)
   22e64:	0007b783          	ld	a5,0(a5)
   22e68:	fcf43423          	sd	a5,-56(s0)
   22e6c:	1100006f          	j	22f7c <bss_begin+0xf7c>
   22e70:	f9043783          	ld	a5,-112(s0)
   22e74:	00878713          	addi	a4,a5,8
   22e78:	f8e43823          	sd	a4,-112(s0)
   22e7c:	0007b783          	ld	a5,0(a5)
   22e80:	fcf43423          	sd	a5,-56(s0)
   22e84:	0f80006f          	j	22f7c <bss_begin+0xf7c>
   22e88:	fe042783          	lw	a5,-32(s0)
   22e8c:	0007871b          	sext.w	a4,a5
   22e90:	06800793          	li	a5,104
   22e94:	04f71a63          	bne	a4,a5,22ee8 <bss_begin+0xee8>
   22e98:	fe442783          	lw	a5,-28(s0)
   22e9c:	0027f793          	andi	a5,a5,2
   22ea0:	0007879b          	sext.w	a5,a5
   22ea4:	02078263          	beqz	a5,22ec8 <bss_begin+0xec8>
   22ea8:	f9043783          	ld	a5,-112(s0)
   22eac:	00878713          	addi	a4,a5,8
   22eb0:	f8e43823          	sd	a4,-112(s0)
   22eb4:	0007a783          	lw	a5,0(a5)
   22eb8:	0107979b          	slliw	a5,a5,0x10
   22ebc:	4107d79b          	sraiw	a5,a5,0x10
   22ec0:	fcf43423          	sd	a5,-56(s0)
   22ec4:	0b80006f          	j	22f7c <bss_begin+0xf7c>
   22ec8:	f9043783          	ld	a5,-112(s0)
   22ecc:	00878713          	addi	a4,a5,8
   22ed0:	f8e43823          	sd	a4,-112(s0)
   22ed4:	0007a783          	lw	a5,0(a5)
   22ed8:	03079793          	slli	a5,a5,0x30
   22edc:	0307d793          	srli	a5,a5,0x30
   22ee0:	fcf43423          	sd	a5,-56(s0)
   22ee4:	0980006f          	j	22f7c <bss_begin+0xf7c>
   22ee8:	fe042783          	lw	a5,-32(s0)
   22eec:	0007871b          	sext.w	a4,a5
   22ef0:	06c00793          	li	a5,108
   22ef4:	04f71263          	bne	a4,a5,22f38 <bss_begin+0xf38>
   22ef8:	fe442783          	lw	a5,-28(s0)
   22efc:	0027f793          	andi	a5,a5,2
   22f00:	0007879b          	sext.w	a5,a5
   22f04:	00078e63          	beqz	a5,22f20 <bss_begin+0xf20>
   22f08:	f9043783          	ld	a5,-112(s0)
   22f0c:	00878713          	addi	a4,a5,8
   22f10:	f8e43823          	sd	a4,-112(s0)
   22f14:	0007b783          	ld	a5,0(a5)
   22f18:	fcf43423          	sd	a5,-56(s0)
   22f1c:	0600006f          	j	22f7c <bss_begin+0xf7c>
   22f20:	f9043783          	ld	a5,-112(s0)
   22f24:	00878713          	addi	a4,a5,8
   22f28:	f8e43823          	sd	a4,-112(s0)
   22f2c:	0007b783          	ld	a5,0(a5)
   22f30:	fcf43423          	sd	a5,-56(s0)
   22f34:	0480006f          	j	22f7c <bss_begin+0xf7c>
   22f38:	fe442783          	lw	a5,-28(s0)
   22f3c:	0027f793          	andi	a5,a5,2
   22f40:	0007879b          	sext.w	a5,a5
   22f44:	00078e63          	beqz	a5,22f60 <bss_begin+0xf60>
   22f48:	f9043783          	ld	a5,-112(s0)
   22f4c:	00878713          	addi	a4,a5,8
   22f50:	f8e43823          	sd	a4,-112(s0)
   22f54:	0007a783          	lw	a5,0(a5)
   22f58:	fcf43423          	sd	a5,-56(s0)
   22f5c:	0200006f          	j	22f7c <bss_begin+0xf7c>
   22f60:	f9043783          	ld	a5,-112(s0)
   22f64:	00878713          	addi	a4,a5,8
   22f68:	f8e43823          	sd	a4,-112(s0)
   22f6c:	0007a783          	lw	a5,0(a5)
   22f70:	02079793          	slli	a5,a5,0x20
   22f74:	0207d793          	srli	a5,a5,0x20
   22f78:	fcf43423          	sd	a5,-56(s0)
   22f7c:	fb442683          	lw	a3,-76(s0)
   22f80:	fb042703          	lw	a4,-80(s0)
   22f84:	fe442783          	lw	a5,-28(s0)
   22f88:	fc442603          	lw	a2,-60(s0)
   22f8c:	fc843583          	ld	a1,-56(s0)
   22f90:	fe843503          	ld	a0,-24(s0)
   22f94:	ca4ff0ef          	jal	ra,22438 <bss_begin+0x438>
   22f98:	fea43423          	sd	a0,-24(s0)
   22f9c:	f9843783          	ld	a5,-104(s0)
   22fa0:	00178793          	addi	a5,a5,1
   22fa4:	f8f43c23          	sd	a5,-104(s0)
   22fa8:	f9843783          	ld	a5,-104(s0)
   22fac:	0007c783          	lbu	a5,0(a5)
   22fb0:	8a079ce3          	bnez	a5,22868 <bss_begin+0x868>
   22fb4:	fe843783          	ld	a5,-24(s0)
   22fb8:	00078023          	sb	zero,0(a5)
   22fbc:	fe843703          	ld	a4,-24(s0)
   22fc0:	fa843783          	ld	a5,-88(s0)
   22fc4:	40f707b3          	sub	a5,a4,a5
   22fc8:	0007879b          	sext.w	a5,a5
   22fcc:	00078513          	mv	a0,a5
   22fd0:	06813083          	ld	ra,104(sp)
   22fd4:	06013403          	ld	s0,96(sp)
   22fd8:	07010113          	addi	sp,sp,112
   22fdc:	00008067          	ret
   22fe0:	fe010113          	addi	sp,sp,-32
   22fe4:	00113c23          	sd	ra,24(sp)
   22fe8:	00813823          	sd	s0,16(sp)
   22fec:	02010413          	addi	s0,sp,32
   22ff0:	00003797          	auipc	a5,0x3
   22ff4:	21878793          	addi	a5,a5,536 # 26208 <_payload_end+0x200>
   22ff8:	00100713          	li	a4,1
   22ffc:	00e7a023          	sw	a4,0(a5)
   23000:	fe043423          	sd	zero,-24(s0)
   23004:	0300006f          	j	23034 <bss_begin+0x1034>
   23008:	00003717          	auipc	a4,0x3
   2300c:	10070713          	addi	a4,a4,256 # 26108 <_payload_end+0x100>
   23010:	fe843783          	ld	a5,-24(s0)
   23014:	00f707b3          	add	a5,a4,a5
   23018:	0007c783          	lbu	a5,0(a5)
   2301c:	0007879b          	sext.w	a5,a5
   23020:	00078513          	mv	a0,a5
   23024:	6b9000ef          	jal	ra,23edc <bss_begin+0x1edc>
   23028:	fe843783          	ld	a5,-24(s0)
   2302c:	00178793          	addi	a5,a5,1
   23030:	fef43423          	sd	a5,-24(s0)
   23034:	00003797          	auipc	a5,0x3
   23038:	1dc78793          	addi	a5,a5,476 # 26210 <_payload_end+0x208>
   2303c:	0007b783          	ld	a5,0(a5)
   23040:	fe843703          	ld	a4,-24(s0)
   23044:	fcf762e3          	bltu	a4,a5,23008 <bss_begin+0x1008>
   23048:	00003797          	auipc	a5,0x3
   2304c:	fb878793          	addi	a5,a5,-72 # 26000 <bss_begin+0x4000>
   23050:	00003717          	auipc	a4,0x3
   23054:	0b870713          	addi	a4,a4,184 # 26108 <_payload_end+0x100>
   23058:	00e7b023          	sd	a4,0(a5)
   2305c:	00003797          	auipc	a5,0x3
   23060:	1b478793          	addi	a5,a5,436 # 26210 <_payload_end+0x208>
   23064:	0007b023          	sd	zero,0(a5)
   23068:	00000013          	nop
   2306c:	01813083          	ld	ra,24(sp)
   23070:	01013403          	ld	s0,16(sp)
   23074:	02010113          	addi	sp,sp,32
   23078:	00008067          	ret
   2307c:	f9010113          	addi	sp,sp,-112
   23080:	02113423          	sd	ra,40(sp)
   23084:	02813023          	sd	s0,32(sp)
   23088:	03010413          	addi	s0,sp,48
   2308c:	fca43c23          	sd	a0,-40(s0)
   23090:	00b43423          	sd	a1,8(s0)
   23094:	00c43823          	sd	a2,16(s0)
   23098:	00d43c23          	sd	a3,24(s0)
   2309c:	02e43023          	sd	a4,32(s0)
   230a0:	02f43423          	sd	a5,40(s0)
   230a4:	03043823          	sd	a6,48(s0)
   230a8:	03143c23          	sd	a7,56(s0)
   230ac:	04040793          	addi	a5,s0,64
   230b0:	fcf43823          	sd	a5,-48(s0)
   230b4:	fd043783          	ld	a5,-48(s0)
   230b8:	fc878793          	addi	a5,a5,-56
   230bc:	fef43023          	sd	a5,-32(s0)
   230c0:	fe043783          	ld	a5,-32(s0)
   230c4:	00078693          	mv	a3,a5
   230c8:	fd843603          	ld	a2,-40(s0)
   230cc:	10000593          	li	a1,256
   230d0:	00003517          	auipc	a0,0x3
   230d4:	f3850513          	addi	a0,a0,-200 # 26008 <_payload_end>
   230d8:	f60ff0ef          	jal	ra,22838 <bss_begin+0x838>
   230dc:	00050793          	mv	a5,a0
   230e0:	fef42423          	sw	a5,-24(s0)
   230e4:	00003797          	auipc	a5,0x3
   230e8:	12478793          	addi	a5,a5,292 # 26208 <_payload_end+0x200>
   230ec:	0007a783          	lw	a5,0(a5)
   230f0:	06079663          	bnez	a5,2315c <bss_begin+0x115c>
   230f4:	00003797          	auipc	a5,0x3
   230f8:	f0c78793          	addi	a5,a5,-244 # 26000 <bss_begin+0x4000>
   230fc:	0007b783          	ld	a5,0(a5)
   23100:	fe842703          	lw	a4,-24(s0)
   23104:	00070613          	mv	a2,a4
   23108:	00003597          	auipc	a1,0x3
   2310c:	f0058593          	addi	a1,a1,-256 # 26008 <_payload_end>
   23110:	00078513          	mv	a0,a5
   23114:	260000ef          	jal	ra,23374 <bss_begin+0x1374>
   23118:	fe842703          	lw	a4,-24(s0)
   2311c:	00003797          	auipc	a5,0x3
   23120:	fec78793          	addi	a5,a5,-20 # 26108 <_payload_end+0x100>
   23124:	00f70733          	add	a4,a4,a5
   23128:	00003797          	auipc	a5,0x3
   2312c:	ed878793          	addi	a5,a5,-296 # 26000 <bss_begin+0x4000>
   23130:	00e7b023          	sd	a4,0(a5)
   23134:	fe842703          	lw	a4,-24(s0)
   23138:	00003797          	auipc	a5,0x3
   2313c:	0d878793          	addi	a5,a5,216 # 26210 <_payload_end+0x208>
   23140:	0007b783          	ld	a5,0(a5)
   23144:	00f70733          	add	a4,a4,a5
   23148:	00003797          	auipc	a5,0x3
   2314c:	0c878793          	addi	a5,a5,200 # 26210 <_payload_end+0x208>
   23150:	00e7b023          	sd	a4,0(a5)
   23154:	00000793          	li	a5,0
   23158:	0680006f          	j	231c0 <bss_begin+0x11c0>
   2315c:	fe042623          	sw	zero,-20(s0)
   23160:	0400006f          	j	231a0 <bss_begin+0x11a0>
   23164:	00003717          	auipc	a4,0x3
   23168:	ea470713          	addi	a4,a4,-348 # 26008 <_payload_end>
   2316c:	fec42783          	lw	a5,-20(s0)
   23170:	00f707b3          	add	a5,a4,a5
   23174:	0007c783          	lbu	a5,0(a5)
   23178:	0007879b          	sext.w	a5,a5
   2317c:	00078513          	mv	a0,a5
   23180:	55d000ef          	jal	ra,23edc <bss_begin+0x1edc>
   23184:	fec42783          	lw	a5,-20(s0)
   23188:	00078713          	mv	a4,a5
   2318c:	10000793          	li	a5,256
   23190:	02e7e463          	bltu	a5,a4,231b8 <bss_begin+0x11b8>
   23194:	fec42783          	lw	a5,-20(s0)
   23198:	0017879b          	addiw	a5,a5,1
   2319c:	fef42623          	sw	a5,-20(s0)
   231a0:	fec42703          	lw	a4,-20(s0)
   231a4:	fe842783          	lw	a5,-24(s0)
   231a8:	0007071b          	sext.w	a4,a4
   231ac:	0007879b          	sext.w	a5,a5
   231b0:	faf74ae3          	blt	a4,a5,23164 <bss_begin+0x1164>
   231b4:	0080006f          	j	231bc <bss_begin+0x11bc>
   231b8:	00000013          	nop
   231bc:	fe842783          	lw	a5,-24(s0)
   231c0:	00078513          	mv	a0,a5
   231c4:	02813083          	ld	ra,40(sp)
   231c8:	02013403          	ld	s0,32(sp)
   231cc:	07010113          	addi	sp,sp,112
   231d0:	00008067          	ret
   231d4:	fe010113          	addi	sp,sp,-32
   231d8:	00813c23          	sd	s0,24(sp)
   231dc:	02010413          	addi	s0,sp,32
   231e0:	fea43423          	sd	a0,-24(s0)
   231e4:	fffff797          	auipc	a5,0xfffff
   231e8:	e5c78793          	addi	a5,a5,-420 # 22040 <bss_begin+0x40>
   231ec:	fe843703          	ld	a4,-24(s0)
   231f0:	00f76e63          	bltu	a4,a5,2320c <bss_begin+0x120c>
   231f4:	00001797          	auipc	a5,0x1
   231f8:	6c078793          	addi	a5,a5,1728 # 248b4 <bss_begin+0x28b4>
   231fc:	fe843703          	ld	a4,-24(s0)
   23200:	00f77663          	bgeu	a4,a5,2320c <bss_begin+0x120c>
   23204:	00100793          	li	a5,1
   23208:	0080006f          	j	23210 <bss_begin+0x1210>
   2320c:	00000793          	li	a5,0
   23210:	00078513          	mv	a0,a5
   23214:	01813403          	ld	s0,24(sp)
   23218:	02010113          	addi	sp,sp,32
   2321c:	00008067          	ret
   23220:	fc010113          	addi	sp,sp,-64
   23224:	02113c23          	sd	ra,56(sp)
   23228:	02813823          	sd	s0,48(sp)
   2322c:	04010413          	addi	s0,sp,64
   23230:	fe243423          	sd	sp,-24(s0)
   23234:	00000797          	auipc	a5,0x0
   23238:	fec78793          	addi	a5,a5,-20 # 23220 <bss_begin+0x1220>
   2323c:	fcf43c23          	sd	a5,-40(s0)
   23240:	00040793          	mv	a5,s0
   23244:	fef43023          	sd	a5,-32(s0)
   23248:	fd843503          	ld	a0,-40(s0)
   2324c:	f89ff0ef          	jal	ra,231d4 <bss_begin+0x11d4>
   23250:	00050793          	mv	a5,a0
   23254:	08078263          	beqz	a5,232d8 <bss_begin+0x12d8>
   23258:	fe843783          	ld	a5,-24(s0)
   2325c:	01078793          	addi	a5,a5,16
   23260:	fcf43823          	sd	a5,-48(s0)
   23264:	fe043703          	ld	a4,-32(s0)
   23268:	fd043783          	ld	a5,-48(s0)
   2326c:	06f76863          	bltu	a4,a5,232dc <bss_begin+0x12dc>
   23270:	fe043783          	ld	a5,-32(s0)
   23274:	00f7f793          	andi	a5,a5,15
   23278:	06079263          	bnez	a5,232dc <bss_begin+0x12dc>
   2327c:	fe043783          	ld	a5,-32(s0)
   23280:	ff078793          	addi	a5,a5,-16
   23284:	fcf43423          	sd	a5,-56(s0)
   23288:	fe043783          	ld	a5,-32(s0)
   2328c:	fef43423          	sd	a5,-24(s0)
   23290:	fc843783          	ld	a5,-56(s0)
   23294:	0007b783          	ld	a5,0(a5)
   23298:	fef43023          	sd	a5,-32(s0)
   2329c:	fc843783          	ld	a5,-56(s0)
   232a0:	0087b783          	ld	a5,8(a5)
   232a4:	ffc78793          	addi	a5,a5,-4
   232a8:	fcf43c23          	sd	a5,-40(s0)
   232ac:	fd843503          	ld	a0,-40(s0)
   232b0:	f25ff0ef          	jal	ra,231d4 <bss_begin+0x11d4>
   232b4:	00050793          	mv	a5,a0
   232b8:	f80788e3          	beqz	a5,23248 <bss_begin+0x1248>
   232bc:	fd843683          	ld	a3,-40(s0)
   232c0:	fe043603          	ld	a2,-32(s0)
   232c4:	fe843583          	ld	a1,-24(s0)
   232c8:	00001517          	auipc	a0,0x1
   232cc:	71050513          	addi	a0,a0,1808 # 249d8 <bss_begin+0x29d8>
   232d0:	dadff0ef          	jal	ra,2307c <bss_begin+0x107c>
   232d4:	f75ff06f          	j	23248 <bss_begin+0x1248>
   232d8:	00000013          	nop
   232dc:	00000013          	nop
   232e0:	03813083          	ld	ra,56(sp)
   232e4:	03013403          	ld	s0,48(sp)
   232e8:	04010113          	addi	sp,sp,64
   232ec:	00008067          	ret
   232f0:	ff010113          	addi	sp,sp,-16
   232f4:	00113423          	sd	ra,8(sp)
   232f8:	00813023          	sd	s0,0(sp)
   232fc:	01010413          	addi	s0,sp,16
   23300:	00001517          	auipc	a0,0x1
   23304:	70050513          	addi	a0,a0,1792 # 24a00 <bss_begin+0x2a00>
   23308:	d75ff0ef          	jal	ra,2307c <bss_begin+0x107c>
   2330c:	f15ff0ef          	jal	ra,23220 <bss_begin+0x1220>
   23310:	00000013          	nop
   23314:	00813083          	ld	ra,8(sp)
   23318:	00013403          	ld	s0,0(sp)
   2331c:	01010113          	addi	sp,sp,16
   23320:	00008067          	ret
   23324:	fd010113          	addi	sp,sp,-48
   23328:	02813423          	sd	s0,40(sp)
   2332c:	03010413          	addi	s0,sp,48
   23330:	fca43c23          	sd	a0,-40(s0)
   23334:	fd843783          	ld	a5,-40(s0)
   23338:	fef43423          	sd	a5,-24(s0)
   2333c:	0100006f          	j	2334c <bss_begin+0x134c>
   23340:	fe843783          	ld	a5,-24(s0)
   23344:	00178793          	addi	a5,a5,1
   23348:	fef43423          	sd	a5,-24(s0)
   2334c:	fe843783          	ld	a5,-24(s0)
   23350:	0007c783          	lbu	a5,0(a5)
   23354:	fe0796e3          	bnez	a5,23340 <bss_begin+0x1340>
   23358:	fe843703          	ld	a4,-24(s0)
   2335c:	fd843783          	ld	a5,-40(s0)
   23360:	40f707b3          	sub	a5,a4,a5
   23364:	00078513          	mv	a0,a5
   23368:	02813403          	ld	s0,40(sp)
   2336c:	03010113          	addi	sp,sp,48
   23370:	00008067          	ret
   23374:	fc010113          	addi	sp,sp,-64
   23378:	02813c23          	sd	s0,56(sp)
   2337c:	04010413          	addi	s0,sp,64
   23380:	fca43c23          	sd	a0,-40(s0)
   23384:	fcb43823          	sd	a1,-48(s0)
   23388:	fcc43423          	sd	a2,-56(s0)
   2338c:	fd843783          	ld	a5,-40(s0)
   23390:	fef43423          	sd	a5,-24(s0)
   23394:	fd043783          	ld	a5,-48(s0)
   23398:	fef43023          	sd	a5,-32(s0)
   2339c:	0240006f          	j	233c0 <bss_begin+0x13c0>
   233a0:	fe043703          	ld	a4,-32(s0)
   233a4:	00170793          	addi	a5,a4,1
   233a8:	fef43023          	sd	a5,-32(s0)
   233ac:	fe843783          	ld	a5,-24(s0)
   233b0:	00178693          	addi	a3,a5,1
   233b4:	fed43423          	sd	a3,-24(s0)
   233b8:	00074703          	lbu	a4,0(a4)
   233bc:	00e78023          	sb	a4,0(a5)
   233c0:	fc843783          	ld	a5,-56(s0)
   233c4:	fff78713          	addi	a4,a5,-1
   233c8:	fce43423          	sd	a4,-56(s0)
   233cc:	fc079ae3          	bnez	a5,233a0 <bss_begin+0x13a0>
   233d0:	fd843783          	ld	a5,-40(s0)
   233d4:	00078513          	mv	a0,a5
   233d8:	03813403          	ld	s0,56(sp)
   233dc:	04010113          	addi	sp,sp,64
   233e0:	00008067          	ret
   233e4:	fe010113          	addi	sp,sp,-32
   233e8:	00813c23          	sd	s0,24(sp)
   233ec:	02010413          	addi	s0,sp,32
   233f0:	fea43423          	sd	a0,-24(s0)
   233f4:	fe843783          	ld	a5,-24(s0)
   233f8:	0007a783          	lw	a5,0(a5)
   233fc:	0007879b          	sext.w	a5,a5
   23400:	00078513          	mv	a0,a5
   23404:	01813403          	ld	s0,24(sp)
   23408:	02010113          	addi	sp,sp,32
   2340c:	00008067          	ret
   23410:	fe010113          	addi	sp,sp,-32
   23414:	00813c23          	sd	s0,24(sp)
   23418:	02010413          	addi	s0,sp,32
   2341c:	fea43423          	sd	a0,-24(s0)
   23420:	00058793          	mv	a5,a1
   23424:	fef42223          	sw	a5,-28(s0)
   23428:	fe843783          	ld	a5,-24(s0)
   2342c:	fe442703          	lw	a4,-28(s0)
   23430:	00e7a023          	sw	a4,0(a5)
   23434:	00000013          	nop
   23438:	01813403          	ld	s0,24(sp)
   2343c:	02010113          	addi	sp,sp,32
   23440:	00008067          	ret
   23444:	fe010113          	addi	sp,sp,-32
   23448:	00813c23          	sd	s0,24(sp)
   2344c:	02010413          	addi	s0,sp,32
   23450:	fea43423          	sd	a0,-24(s0)
   23454:	fe843783          	ld	a5,-24(s0)
   23458:	00a79793          	slli	a5,a5,0xa
   2345c:	fef43423          	sd	a5,-24(s0)
   23460:	00000013          	nop
   23464:	fe843783          	ld	a5,-24(s0)
   23468:	fff78713          	addi	a4,a5,-1
   2346c:	fee43423          	sd	a4,-24(s0)
   23470:	fe079ae3          	bnez	a5,23464 <bss_begin+0x1464>
   23474:	00000013          	nop
   23478:	00000013          	nop
   2347c:	01813403          	ld	s0,24(sp)
   23480:	02010113          	addi	sp,sp,32
   23484:	00008067          	ret
   23488:	fe010113          	addi	sp,sp,-32
   2348c:	00113c23          	sd	ra,24(sp)
   23490:	00813823          	sd	s0,16(sp)
   23494:	02010413          	addi	s0,sp,32
   23498:	30100593          	li	a1,769
   2349c:	020027b7          	lui	a5,0x2002
   234a0:	d0078513          	addi	a0,a5,-768 # 2001d00 <_payload_end+0x1fdbcf8>
   234a4:	f6dff0ef          	jal	ra,23410 <bss_begin+0x1410>
   234a8:	00100513          	li	a0,1
   234ac:	f99ff0ef          	jal	ra,23444 <bss_begin+0x1444>
   234b0:	02001537          	lui	a0,0x2001
   234b4:	f31ff0ef          	jal	ra,233e4 <bss_begin+0x13e4>
   234b8:	00050793          	mv	a5,a0
   234bc:	fef42623          	sw	a5,-20(s0)
   234c0:	fec42703          	lw	a4,-20(s0)
   234c4:	f80007b7          	lui	a5,0xf8000
   234c8:	fff78793          	addi	a5,a5,-1 # fffffffff7ffffff <_payload_end+0xfffffffff7fd9ff7>
   234cc:	00f777b3          	and	a5,a4,a5
   234d0:	fef42623          	sw	a5,-20(s0)
   234d4:	fec42783          	lw	a5,-20(s0)
   234d8:	00078593          	mv	a1,a5
   234dc:	02001537          	lui	a0,0x2001
   234e0:	f31ff0ef          	jal	ra,23410 <bss_begin+0x1410>
   234e4:	02001537          	lui	a0,0x2001
   234e8:	efdff0ef          	jal	ra,233e4 <bss_begin+0x13e4>
   234ec:	00050793          	mv	a5,a0
   234f0:	fef42623          	sw	a5,-20(s0)
   234f4:	fec42703          	lw	a4,-20(s0)
   234f8:	400007b7          	lui	a5,0x40000
   234fc:	00f767b3          	or	a5,a4,a5
   23500:	fef42623          	sw	a5,-20(s0)
   23504:	fec42783          	lw	a5,-20(s0)
   23508:	00078593          	mv	a1,a5
   2350c:	02001537          	lui	a0,0x2001
   23510:	f01ff0ef          	jal	ra,23410 <bss_begin+0x1410>
   23514:	00500513          	li	a0,5
   23518:	f2dff0ef          	jal	ra,23444 <bss_begin+0x1444>
   2351c:	02001537          	lui	a0,0x2001
   23520:	ec5ff0ef          	jal	ra,233e4 <bss_begin+0x13e4>
   23524:	00050793          	mv	a5,a0
   23528:	fef42623          	sw	a5,-20(s0)
   2352c:	fec42703          	lw	a4,-20(s0)
   23530:	fffc07b7          	lui	a5,0xfffc0
   23534:	0fc78793          	addi	a5,a5,252 # fffffffffffc00fc <_payload_end+0xfffffffffff9a0f4>
   23538:	00f777b3          	and	a5,a4,a5
   2353c:	fef42623          	sw	a5,-20(s0)
   23540:	fec42703          	lw	a4,-20(s0)
   23544:	000037b7          	lui	a5,0x3
   23548:	90078793          	addi	a5,a5,-1792 # 2900 <__bin_size-0x3708>
   2354c:	00f767b3          	or	a5,a4,a5
   23550:	fef42623          	sw	a5,-20(s0)
   23554:	fec42783          	lw	a5,-20(s0)
   23558:	00078593          	mv	a1,a5
   2355c:	02001537          	lui	a0,0x2001
   23560:	eb1ff0ef          	jal	ra,23410 <bss_begin+0x1410>
   23564:	02001537          	lui	a0,0x2001
   23568:	e7dff0ef          	jal	ra,233e4 <bss_begin+0x13e4>
   2356c:	00050793          	mv	a5,a0
   23570:	fef42623          	sw	a5,-20(s0)
   23574:	fec42703          	lw	a4,-20(s0)
   23578:	200007b7          	lui	a5,0x20000
   2357c:	00f767b3          	or	a5,a4,a5
   23580:	fef42623          	sw	a5,-20(s0)
   23584:	fec42783          	lw	a5,-20(s0)
   23588:	00078593          	mv	a1,a5
   2358c:	02001537          	lui	a0,0x2001
   23590:	e81ff0ef          	jal	ra,23410 <bss_begin+0x1410>
   23594:	02001537          	lui	a0,0x2001
   23598:	e4dff0ef          	jal	ra,233e4 <bss_begin+0x13e4>
   2359c:	00050793          	mv	a5,a0
   235a0:	fef42623          	sw	a5,-20(s0)
   235a4:	fec42703          	lw	a4,-20(s0)
   235a8:	800007b7          	lui	a5,0x80000
   235ac:	00f767b3          	or	a5,a4,a5
   235b0:	fef42623          	sw	a5,-20(s0)
   235b4:	fec42783          	lw	a5,-20(s0)
   235b8:	00078593          	mv	a1,a5
   235bc:	02001537          	lui	a0,0x2001
   235c0:	e51ff0ef          	jal	ra,23410 <bss_begin+0x1410>
   235c4:	00000013          	nop
   235c8:	02001537          	lui	a0,0x2001
   235cc:	e19ff0ef          	jal	ra,233e4 <bss_begin+0x13e4>
   235d0:	00050793          	mv	a5,a0
   235d4:	0007879b          	sext.w	a5,a5
   235d8:	00078713          	mv	a4,a5
   235dc:	100007b7          	lui	a5,0x10000
   235e0:	00f777b3          	and	a5,a4,a5
   235e4:	0007879b          	sext.w	a5,a5
   235e8:	fe0780e3          	beqz	a5,235c8 <bss_begin+0x15c8>
   235ec:	01400513          	li	a0,20
   235f0:	e55ff0ef          	jal	ra,23444 <bss_begin+0x1444>
   235f4:	02001537          	lui	a0,0x2001
   235f8:	dedff0ef          	jal	ra,233e4 <bss_begin+0x13e4>
   235fc:	00050793          	mv	a5,a0
   23600:	fef42623          	sw	a5,-20(s0)
   23604:	fec42703          	lw	a4,-20(s0)
   23608:	080007b7          	lui	a5,0x8000
   2360c:	00f767b3          	or	a5,a4,a5
   23610:	fef42623          	sw	a5,-20(s0)
   23614:	fec42783          	lw	a5,-20(s0)
   23618:	00078593          	mv	a1,a5
   2361c:	02001537          	lui	a0,0x2001
   23620:	df1ff0ef          	jal	ra,23410 <bss_begin+0x1410>
   23624:	02001537          	lui	a0,0x2001
   23628:	dbdff0ef          	jal	ra,233e4 <bss_begin+0x13e4>
   2362c:	00050793          	mv	a5,a0
   23630:	fef42623          	sw	a5,-20(s0)
   23634:	fec42703          	lw	a4,-20(s0)
   23638:	e00007b7          	lui	a5,0xe0000
   2363c:	fff78793          	addi	a5,a5,-1 # ffffffffdfffffff <_payload_end+0xffffffffdffd9ff7>
   23640:	00f777b3          	and	a5,a4,a5
   23644:	fef42623          	sw	a5,-20(s0)
   23648:	fec42783          	lw	a5,-20(s0)
   2364c:	00078593          	mv	a1,a5
   23650:	02001537          	lui	a0,0x2001
   23654:	dbdff0ef          	jal	ra,23410 <bss_begin+0x1410>
   23658:	00100513          	li	a0,1
   2365c:	de9ff0ef          	jal	ra,23444 <bss_begin+0x1444>
   23660:	020027b7          	lui	a5,0x2002
   23664:	d0078513          	addi	a0,a5,-768 # 2001d00 <_payload_end+0x1fdbcf8>
   23668:	d7dff0ef          	jal	ra,233e4 <bss_begin+0x13e4>
   2366c:	00050793          	mv	a5,a0
   23670:	fef42623          	sw	a5,-20(s0)
   23674:	fec42703          	lw	a4,-20(s0)
   23678:	f90007b7          	lui	a5,0xf9000
   2367c:	cf078793          	addi	a5,a5,-784 # fffffffff8fffcf0 <_payload_end+0xfffffffff8fd9ce8>
   23680:	00f777b3          	and	a5,a4,a5
   23684:	fef42623          	sw	a5,-20(s0)
   23688:	fec42703          	lw	a4,-20(s0)
   2368c:	050007b7          	lui	a5,0x5000
   23690:	10078793          	addi	a5,a5,256 # 5000100 <_payload_end+0x4fda0f8>
   23694:	00f767b3          	or	a5,a4,a5
   23698:	fef42623          	sw	a5,-20(s0)
   2369c:	fec42783          	lw	a5,-20(s0)
   236a0:	00078593          	mv	a1,a5
   236a4:	020027b7          	lui	a5,0x2002
   236a8:	d0078513          	addi	a0,a5,-768 # 2001d00 <_payload_end+0x1fdbcf8>
   236ac:	d65ff0ef          	jal	ra,23410 <bss_begin+0x1410>
   236b0:	00100513          	li	a0,1
   236b4:	d91ff0ef          	jal	ra,23444 <bss_begin+0x1444>
   236b8:	00000013          	nop
   236bc:	01813083          	ld	ra,24(sp)
   236c0:	01013403          	ld	s0,16(sp)
   236c4:	02010113          	addi	sp,sp,32
   236c8:	00008067          	ret
   236cc:	fe010113          	addi	sp,sp,-32
   236d0:	00113c23          	sd	ra,24(sp)
   236d4:	00813823          	sd	s0,16(sp)
   236d8:	02010413          	addi	s0,sp,32
   236dc:	020017b7          	lui	a5,0x2001
   236e0:	02078513          	addi	a0,a5,32 # 2001020 <_payload_end+0x1fdb018>
   236e4:	d01ff0ef          	jal	ra,233e4 <bss_begin+0x13e4>
   236e8:	00050793          	mv	a5,a0
   236ec:	0007879b          	sext.w	a5,a5
   236f0:	0007879b          	sext.w	a5,a5
   236f4:	1207cc63          	bltz	a5,2382c <bss_begin+0x182c>
   236f8:	020017b7          	lui	a5,0x2001
   236fc:	51078513          	addi	a0,a5,1296 # 2001510 <_payload_end+0x1fdb508>
   23700:	ce5ff0ef          	jal	ra,233e4 <bss_begin+0x13e4>
   23704:	00050793          	mv	a5,a0
   23708:	fef42623          	sw	a5,-20(s0)
   2370c:	fec42703          	lw	a4,-20(s0)
   23710:	fd0007b7          	lui	a5,0xfd000
   23714:	fff78793          	addi	a5,a5,-1 # fffffffffcffffff <_payload_end+0xfffffffffcfd9ff7>
   23718:	00f777b3          	and	a5,a4,a5
   2371c:	fef42623          	sw	a5,-20(s0)
   23720:	fec46703          	lwu	a4,-20(s0)
   23724:	020017b7          	lui	a5,0x2001
   23728:	51078593          	addi	a1,a5,1296 # 2001510 <_payload_end+0x1fdb508>
   2372c:	00070513          	mv	a0,a4
   23730:	ce1ff0ef          	jal	ra,23410 <bss_begin+0x1410>
   23734:	000067b7          	lui	a5,0x6
   23738:	30078593          	addi	a1,a5,768 # 6300 <__bin_size+0x2f8>
   2373c:	020017b7          	lui	a5,0x2001
   23740:	02078513          	addi	a0,a5,32 # 2001020 <_payload_end+0x1fdb018>
   23744:	ccdff0ef          	jal	ra,23410 <bss_begin+0x1410>
   23748:	020017b7          	lui	a5,0x2001
   2374c:	02078513          	addi	a0,a5,32 # 2001020 <_payload_end+0x1fdb018>
   23750:	c95ff0ef          	jal	ra,233e4 <bss_begin+0x13e4>
   23754:	00050793          	mv	a5,a0
   23758:	fef42623          	sw	a5,-20(s0)
   2375c:	fec42703          	lw	a4,-20(s0)
   23760:	200007b7          	lui	a5,0x20000
   23764:	00f767b3          	or	a5,a4,a5
   23768:	fef42623          	sw	a5,-20(s0)
   2376c:	fec42783          	lw	a5,-20(s0)
   23770:	00078593          	mv	a1,a5
   23774:	020017b7          	lui	a5,0x2001
   23778:	02078513          	addi	a0,a5,32 # 2001020 <_payload_end+0x1fdb018>
   2377c:	c95ff0ef          	jal	ra,23410 <bss_begin+0x1410>
   23780:	020017b7          	lui	a5,0x2001
   23784:	02078513          	addi	a0,a5,32 # 2001020 <_payload_end+0x1fdb018>
   23788:	c5dff0ef          	jal	ra,233e4 <bss_begin+0x13e4>
   2378c:	00050793          	mv	a5,a0
   23790:	fef42623          	sw	a5,-20(s0)
   23794:	fec42703          	lw	a4,-20(s0)
   23798:	800007b7          	lui	a5,0x80000
   2379c:	00f767b3          	or	a5,a4,a5
   237a0:	fef42623          	sw	a5,-20(s0)
   237a4:	fec42783          	lw	a5,-20(s0)
   237a8:	00078593          	mv	a1,a5
   237ac:	020017b7          	lui	a5,0x2001
   237b0:	02078513          	addi	a0,a5,32 # 2001020 <_payload_end+0x1fdb018>
   237b4:	c5dff0ef          	jal	ra,23410 <bss_begin+0x1410>
   237b8:	00000013          	nop
   237bc:	020017b7          	lui	a5,0x2001
   237c0:	02078513          	addi	a0,a5,32 # 2001020 <_payload_end+0x1fdb018>
   237c4:	c21ff0ef          	jal	ra,233e4 <bss_begin+0x13e4>
   237c8:	00050793          	mv	a5,a0
   237cc:	0007879b          	sext.w	a5,a5
   237d0:	00078713          	mv	a4,a5
   237d4:	100007b7          	lui	a5,0x10000
   237d8:	00f777b3          	and	a5,a4,a5
   237dc:	0007879b          	sext.w	a5,a5
   237e0:	fc078ee3          	beqz	a5,237bc <bss_begin+0x17bc>
   237e4:	01400513          	li	a0,20
   237e8:	c5dff0ef          	jal	ra,23444 <bss_begin+0x1444>
   237ec:	020017b7          	lui	a5,0x2001
   237f0:	02078513          	addi	a0,a5,32 # 2001020 <_payload_end+0x1fdb018>
   237f4:	bf1ff0ef          	jal	ra,233e4 <bss_begin+0x13e4>
   237f8:	00050793          	mv	a5,a0
   237fc:	fef42623          	sw	a5,-20(s0)
   23800:	fec42703          	lw	a4,-20(s0)
   23804:	e00007b7          	lui	a5,0xe0000
   23808:	fff78793          	addi	a5,a5,-1 # ffffffffdfffffff <_payload_end+0xffffffffdffd9ff7>
   2380c:	00f777b3          	and	a5,a4,a5
   23810:	fef42623          	sw	a5,-20(s0)
   23814:	fec42783          	lw	a5,-20(s0)
   23818:	00078593          	mv	a1,a5
   2381c:	020017b7          	lui	a5,0x2001
   23820:	02078513          	addi	a0,a5,32 # 2001020 <_payload_end+0x1fdb018>
   23824:	bedff0ef          	jal	ra,23410 <bss_begin+0x1410>
   23828:	0080006f          	j	23830 <bss_begin+0x1830>
   2382c:	00000013          	nop
   23830:	01813083          	ld	ra,24(sp)
   23834:	01013403          	ld	s0,16(sp)
   23838:	02010113          	addi	sp,sp,32
   2383c:	00008067          	ret
   23840:	ff010113          	addi	sp,sp,-16
   23844:	00113423          	sd	ra,8(sp)
   23848:	00813023          	sd	s0,0(sp)
   2384c:	01010413          	addi	s0,sp,16
   23850:	00200593          	li	a1,2
   23854:	020017b7          	lui	a5,0x2001
   23858:	51078513          	addi	a0,a5,1296 # 2001510 <_payload_end+0x1fdb508>
   2385c:	bb5ff0ef          	jal	ra,23410 <bss_begin+0x1410>
   23860:	020017b7          	lui	a5,0x2001
   23864:	51078513          	addi	a0,a5,1296 # 2001510 <_payload_end+0x1fdb508>
   23868:	b7dff0ef          	jal	ra,233e4 <bss_begin+0x13e4>
   2386c:	00050793          	mv	a5,a0
   23870:	0007879b          	sext.w	a5,a5
   23874:	00078713          	mv	a4,a5
   23878:	030007b7          	lui	a5,0x3000
   2387c:	00f767b3          	or	a5,a4,a5
   23880:	0007879b          	sext.w	a5,a5
   23884:	00078593          	mv	a1,a5
   23888:	020017b7          	lui	a5,0x2001
   2388c:	51078513          	addi	a0,a5,1296 # 2001510 <_payload_end+0x1fdb508>
   23890:	b81ff0ef          	jal	ra,23410 <bss_begin+0x1410>
   23894:	00100513          	li	a0,1
   23898:	badff0ef          	jal	ra,23444 <bss_begin+0x1444>
   2389c:	00000013          	nop
   238a0:	00813083          	ld	ra,8(sp)
   238a4:	00013403          	ld	s0,0(sp)
   238a8:	01010113          	addi	sp,sp,16
   238ac:	00008067          	ret
   238b0:	ff010113          	addi	sp,sp,-16
   238b4:	00113423          	sd	ra,8(sp)
   238b8:	00813023          	sd	s0,0(sp)
   238bc:	01010413          	addi	s0,sp,16
   238c0:	10200593          	li	a1,258
   238c4:	020017b7          	lui	a5,0x2001
   238c8:	52078513          	addi	a0,a5,1312 # 2001520 <_payload_end+0x1fdb518>
   238cc:	b45ff0ef          	jal	ra,23410 <bss_begin+0x1410>
   238d0:	020017b7          	lui	a5,0x2001
   238d4:	52078513          	addi	a0,a5,1312 # 2001520 <_payload_end+0x1fdb518>
   238d8:	b0dff0ef          	jal	ra,233e4 <bss_begin+0x13e4>
   238dc:	00050793          	mv	a5,a0
   238e0:	0007879b          	sext.w	a5,a5
   238e4:	00078713          	mv	a4,a5
   238e8:	030007b7          	lui	a5,0x3000
   238ec:	00f767b3          	or	a5,a4,a5
   238f0:	0007879b          	sext.w	a5,a5
   238f4:	00078593          	mv	a1,a5
   238f8:	020017b7          	lui	a5,0x2001
   238fc:	52078513          	addi	a0,a5,1312 # 2001520 <_payload_end+0x1fdb518>
   23900:	b11ff0ef          	jal	ra,23410 <bss_begin+0x1410>
   23904:	00100513          	li	a0,1
   23908:	b3dff0ef          	jal	ra,23444 <bss_begin+0x1444>
   2390c:	00000013          	nop
   23910:	00813083          	ld	ra,8(sp)
   23914:	00013403          	ld	s0,0(sp)
   23918:	01010113          	addi	sp,sp,16
   2391c:	00008067          	ret
   23920:	ff010113          	addi	sp,sp,-16
   23924:	00113423          	sd	ra,8(sp)
   23928:	00813023          	sd	s0,0(sp)
   2392c:	01010413          	addi	s0,sp,16
   23930:	020017b7          	lui	a5,0x2001
   23934:	70c78513          	addi	a0,a5,1804 # 200170c <_payload_end+0x1fdb704>
   23938:	aadff0ef          	jal	ra,233e4 <bss_begin+0x13e4>
   2393c:	00050793          	mv	a5,a0
   23940:	0007879b          	sext.w	a5,a5
   23944:	00078713          	mv	a4,a5
   23948:	000107b7          	lui	a5,0x10
   2394c:	00f767b3          	or	a5,a4,a5
   23950:	0007879b          	sext.w	a5,a5
   23954:	00078593          	mv	a1,a5
   23958:	020017b7          	lui	a5,0x2001
   2395c:	70c78513          	addi	a0,a5,1804 # 200170c <_payload_end+0x1fdb704>
   23960:	ab1ff0ef          	jal	ra,23410 <bss_begin+0x1410>
   23964:	01400513          	li	a0,20
   23968:	addff0ef          	jal	ra,23444 <bss_begin+0x1444>
   2396c:	020017b7          	lui	a5,0x2001
   23970:	70c78513          	addi	a0,a5,1804 # 200170c <_payload_end+0x1fdb704>
   23974:	a71ff0ef          	jal	ra,233e4 <bss_begin+0x13e4>
   23978:	00050793          	mv	a5,a0
   2397c:	0007879b          	sext.w	a5,a5
   23980:	0017e793          	ori	a5,a5,1
   23984:	0007879b          	sext.w	a5,a5
   23988:	00078593          	mv	a1,a5
   2398c:	020017b7          	lui	a5,0x2001
   23990:	70c78513          	addi	a0,a5,1804 # 200170c <_payload_end+0x1fdb704>
   23994:	a7dff0ef          	jal	ra,23410 <bss_begin+0x1410>
   23998:	00000013          	nop
   2399c:	00813083          	ld	ra,8(sp)
   239a0:	00013403          	ld	s0,0(sp)
   239a4:	01010113          	addi	sp,sp,16
   239a8:	00008067          	ret
   239ac:	fe010113          	addi	sp,sp,-32
   239b0:	00113c23          	sd	ra,24(sp)
   239b4:	00813823          	sd	s0,16(sp)
   239b8:	02010413          	addi	s0,sp,32
   239bc:	020017b7          	lui	a5,0x2001
   239c0:	54078513          	addi	a0,a5,1344 # 2001540 <_payload_end+0x1fdb538>
   239c4:	a21ff0ef          	jal	ra,233e4 <bss_begin+0x13e4>
   239c8:	00050793          	mv	a5,a0
   239cc:	fef42623          	sw	a5,-20(s0)
   239d0:	fec42703          	lw	a4,-20(s0)
   239d4:	400007b7          	lui	a5,0x40000
   239d8:	00f767b3          	or	a5,a4,a5
   239dc:	fef42623          	sw	a5,-20(s0)
   239e0:	fec42783          	lw	a5,-20(s0)
   239e4:	00078593          	mv	a1,a5
   239e8:	020017b7          	lui	a5,0x2001
   239ec:	54078513          	addi	a0,a5,1344 # 2001540 <_payload_end+0x1fdb538>
   239f0:	a21ff0ef          	jal	ra,23410 <bss_begin+0x1410>
   239f4:	00100513          	li	a0,1
   239f8:	a4dff0ef          	jal	ra,23444 <bss_begin+0x1444>
   239fc:	00000013          	nop
   23a00:	01813083          	ld	ra,24(sp)
   23a04:	01013403          	ld	s0,16(sp)
   23a08:	02010113          	addi	sp,sp,32
   23a0c:	00008067          	ret
   23a10:	fd010113          	addi	sp,sp,-48
   23a14:	02113423          	sd	ra,40(sp)
   23a18:	02813023          	sd	s0,32(sp)
   23a1c:	03010413          	addi	s0,sp,48
   23a20:	fca43c23          	sd	a0,-40(s0)
   23a24:	fd843503          	ld	a0,-40(s0)
   23a28:	9bdff0ef          	jal	ra,233e4 <bss_begin+0x13e4>
   23a2c:	00050793          	mv	a5,a0
   23a30:	0007879b          	sext.w	a5,a5
   23a34:	0007879b          	sext.w	a5,a5
   23a38:	0c07c263          	bltz	a5,23afc <bss_begin+0x1afc>
   23a3c:	fd843503          	ld	a0,-40(s0)
   23a40:	9a5ff0ef          	jal	ra,233e4 <bss_begin+0x13e4>
   23a44:	00050793          	mv	a5,a0
   23a48:	fef42623          	sw	a5,-20(s0)
   23a4c:	fec42703          	lw	a4,-20(s0)
   23a50:	c00007b7          	lui	a5,0xc0000
   23a54:	00f767b3          	or	a5,a4,a5
   23a58:	0007879b          	sext.w	a5,a5
   23a5c:	00078593          	mv	a1,a5
   23a60:	fd843503          	ld	a0,-40(s0)
   23a64:	9adff0ef          	jal	ra,23410 <bss_begin+0x1410>
   23a68:	fd843503          	ld	a0,-40(s0)
   23a6c:	979ff0ef          	jal	ra,233e4 <bss_begin+0x13e4>
   23a70:	00050793          	mv	a5,a0
   23a74:	fef42623          	sw	a5,-20(s0)
   23a78:	fec42703          	lw	a4,-20(s0)
   23a7c:	200007b7          	lui	a5,0x20000
   23a80:	00f767b3          	or	a5,a4,a5
   23a84:	fef42623          	sw	a5,-20(s0)
   23a88:	fec42783          	lw	a5,-20(s0)
   23a8c:	00078593          	mv	a1,a5
   23a90:	fd843503          	ld	a0,-40(s0)
   23a94:	97dff0ef          	jal	ra,23410 <bss_begin+0x1410>
   23a98:	00000013          	nop
   23a9c:	fd843503          	ld	a0,-40(s0)
   23aa0:	945ff0ef          	jal	ra,233e4 <bss_begin+0x13e4>
   23aa4:	00050793          	mv	a5,a0
   23aa8:	0007879b          	sext.w	a5,a5
   23aac:	00078713          	mv	a4,a5
   23ab0:	100007b7          	lui	a5,0x10000
   23ab4:	00f777b3          	and	a5,a4,a5
   23ab8:	0007879b          	sext.w	a5,a5
   23abc:	fe0780e3          	beqz	a5,23a9c <bss_begin+0x1a9c>
   23ac0:	01400513          	li	a0,20
   23ac4:	981ff0ef          	jal	ra,23444 <bss_begin+0x1444>
   23ac8:	fd843503          	ld	a0,-40(s0)
   23acc:	919ff0ef          	jal	ra,233e4 <bss_begin+0x13e4>
   23ad0:	00050793          	mv	a5,a0
   23ad4:	fef42623          	sw	a5,-20(s0)
   23ad8:	fec42703          	lw	a4,-20(s0)
   23adc:	e00007b7          	lui	a5,0xe0000
   23ae0:	fff78793          	addi	a5,a5,-1 # ffffffffdfffffff <_payload_end+0xffffffffdffd9ff7>
   23ae4:	00f777b3          	and	a5,a4,a5
   23ae8:	fef42623          	sw	a5,-20(s0)
   23aec:	fec42783          	lw	a5,-20(s0)
   23af0:	00078593          	mv	a1,a5
   23af4:	fd843503          	ld	a0,-40(s0)
   23af8:	919ff0ef          	jal	ra,23410 <bss_begin+0x1410>
   23afc:	00000013          	nop
   23b00:	02813083          	ld	ra,40(sp)
   23b04:	02013403          	ld	s0,32(sp)
   23b08:	03010113          	addi	sp,sp,48
   23b0c:	00008067          	ret
   23b10:	ff010113          	addi	sp,sp,-16
   23b14:	00113423          	sd	ra,8(sp)
   23b18:	00813023          	sd	s0,0(sp)
   23b1c:	01010413          	addi	s0,sp,16
   23b20:	969ff0ef          	jal	ra,23488 <bss_begin+0x1488>
   23b24:	ba9ff0ef          	jal	ra,236cc <bss_begin+0x16cc>
   23b28:	d19ff0ef          	jal	ra,23840 <bss_begin+0x1840>
   23b2c:	d85ff0ef          	jal	ra,238b0 <bss_begin+0x18b0>
   23b30:	df1ff0ef          	jal	ra,23920 <bss_begin+0x1920>
   23b34:	e79ff0ef          	jal	ra,239ac <bss_begin+0x19ac>
   23b38:	020017b7          	lui	a5,0x2001
   23b3c:	02078513          	addi	a0,a5,32 # 2001020 <_payload_end+0x1fdb018>
   23b40:	ed1ff0ef          	jal	ra,23a10 <bss_begin+0x1a10>
   23b44:	020017b7          	lui	a5,0x2001
   23b48:	04078513          	addi	a0,a5,64 # 2001040 <_payload_end+0x1fdb038>
   23b4c:	ec5ff0ef          	jal	ra,23a10 <bss_begin+0x1a10>
   23b50:	020017b7          	lui	a5,0x2001
   23b54:	04878513          	addi	a0,a5,72 # 2001048 <_payload_end+0x1fdb040>
   23b58:	eb9ff0ef          	jal	ra,23a10 <bss_begin+0x1a10>
   23b5c:	020017b7          	lui	a5,0x2001
   23b60:	05878513          	addi	a0,a5,88 # 2001058 <_payload_end+0x1fdb050>
   23b64:	eadff0ef          	jal	ra,23a10 <bss_begin+0x1a10>
   23b68:	020017b7          	lui	a5,0x2001
   23b6c:	07878513          	addi	a0,a5,120 # 2001078 <_payload_end+0x1fdb070>
   23b70:	ea1ff0ef          	jal	ra,23a10 <bss_begin+0x1a10>
   23b74:	020017b7          	lui	a5,0x2001
   23b78:	08078513          	addi	a0,a5,128 # 2001080 <_payload_end+0x1fdb078>
   23b7c:	e95ff0ef          	jal	ra,23a10 <bss_begin+0x1a10>
   23b80:	00000013          	nop
   23b84:	00813083          	ld	ra,8(sp)
   23b88:	00013403          	ld	s0,0(sp)
   23b8c:	01010113          	addi	sp,sp,16
   23b90:	00008067          	ret
   23b94:	fe010113          	addi	sp,sp,-32
   23b98:	00813c23          	sd	s0,24(sp)
   23b9c:	02010413          	addi	s0,sp,32
   23ba0:	fea43423          	sd	a0,-24(s0)
   23ba4:	fe843783          	ld	a5,-24(s0)
   23ba8:	0007c783          	lbu	a5,0(a5)
   23bac:	0ff7f793          	andi	a5,a5,255
   23bb0:	00078513          	mv	a0,a5
   23bb4:	01813403          	ld	s0,24(sp)
   23bb8:	02010113          	addi	sp,sp,32
   23bbc:	00008067          	ret
   23bc0:	fe010113          	addi	sp,sp,-32
   23bc4:	00813c23          	sd	s0,24(sp)
   23bc8:	02010413          	addi	s0,sp,32
   23bcc:	fea43423          	sd	a0,-24(s0)
   23bd0:	fe843783          	ld	a5,-24(s0)
   23bd4:	0007a783          	lw	a5,0(a5)
   23bd8:	0007879b          	sext.w	a5,a5
   23bdc:	00078513          	mv	a0,a5
   23be0:	01813403          	ld	s0,24(sp)
   23be4:	02010113          	addi	sp,sp,32
   23be8:	00008067          	ret
   23bec:	fe010113          	addi	sp,sp,-32
   23bf0:	00813c23          	sd	s0,24(sp)
   23bf4:	02010413          	addi	s0,sp,32
   23bf8:	fea43423          	sd	a0,-24(s0)
   23bfc:	00058793          	mv	a5,a1
   23c00:	fef42223          	sw	a5,-28(s0)
   23c04:	fe843783          	ld	a5,-24(s0)
   23c08:	fe442703          	lw	a4,-28(s0)
   23c0c:	00e7a023          	sw	a4,0(a5)
   23c10:	00000013          	nop
   23c14:	01813403          	ld	s0,24(sp)
   23c18:	02010113          	addi	sp,sp,32
   23c1c:	00008067          	ret
   23c20:	fe010113          	addi	sp,sp,-32
   23c24:	00113c23          	sd	ra,24(sp)
   23c28:	00813823          	sd	s0,16(sp)
   23c2c:	02010413          	addi	s0,sp,32
   23c30:	020007b7          	lui	a5,0x2000
   23c34:	0f078793          	addi	a5,a5,240 # 20000f0 <_payload_end+0x1fda0e8>
   23c38:	fef43423          	sd	a5,-24(s0)
   23c3c:	fe843503          	ld	a0,-24(s0)
   23c40:	f81ff0ef          	jal	ra,23bc0 <bss_begin+0x1bc0>
   23c44:	00050793          	mv	a5,a0
   23c48:	fef42223          	sw	a5,-28(s0)
   23c4c:	fe442703          	lw	a4,-28(s0)
   23c50:	fffff7b7          	lui	a5,0xfffff
   23c54:	0ff78793          	addi	a5,a5,255 # fffffffffffff0ff <_payload_end+0xfffffffffffd90f7>
   23c58:	00f777b3          	and	a5,a4,a5
   23c5c:	fef42223          	sw	a5,-28(s0)
   23c60:	fe442783          	lw	a5,-28(s0)
   23c64:	3007e793          	ori	a5,a5,768
   23c68:	fef42223          	sw	a5,-28(s0)
   23c6c:	fe442783          	lw	a5,-28(s0)
   23c70:	00078593          	mv	a1,a5
   23c74:	fe843503          	ld	a0,-24(s0)
   23c78:	f75ff0ef          	jal	ra,23bec <bss_begin+0x1bec>
   23c7c:	fe843503          	ld	a0,-24(s0)
   23c80:	f41ff0ef          	jal	ra,23bc0 <bss_begin+0x1bc0>
   23c84:	00050793          	mv	a5,a0
   23c88:	fef42223          	sw	a5,-28(s0)
   23c8c:	fe442703          	lw	a4,-28(s0)
   23c90:	fff107b7          	lui	a5,0xfff10
   23c94:	fff78793          	addi	a5,a5,-1 # fffffffffff0ffff <_payload_end+0xffffffffffee9ff7>
   23c98:	00f777b3          	and	a5,a4,a5
   23c9c:	fef42223          	sw	a5,-28(s0)
   23ca0:	fe442703          	lw	a4,-28(s0)
   23ca4:	000307b7          	lui	a5,0x30
   23ca8:	00f767b3          	or	a5,a4,a5
   23cac:	fef42223          	sw	a5,-28(s0)
   23cb0:	fe442783          	lw	a5,-28(s0)
   23cb4:	00078593          	mv	a1,a5
   23cb8:	fe843503          	ld	a0,-24(s0)
   23cbc:	f31ff0ef          	jal	ra,23bec <bss_begin+0x1bec>
   23cc0:	020027b7          	lui	a5,0x2002
   23cc4:	90c78793          	addi	a5,a5,-1780 # 200190c <_payload_end+0x1fdb904>
   23cc8:	fef43423          	sd	a5,-24(s0)
   23ccc:	fe843503          	ld	a0,-24(s0)
   23cd0:	ef1ff0ef          	jal	ra,23bc0 <bss_begin+0x1bc0>
   23cd4:	00050793          	mv	a5,a0
   23cd8:	fef42223          	sw	a5,-28(s0)
   23cdc:	fe442783          	lw	a5,-28(s0)
   23ce0:	0017e793          	ori	a5,a5,1
   23ce4:	fef42223          	sw	a5,-28(s0)
   23ce8:	fe442783          	lw	a5,-28(s0)
   23cec:	00078593          	mv	a1,a5
   23cf0:	fe843503          	ld	a0,-24(s0)
   23cf4:	ef9ff0ef          	jal	ra,23bec <bss_begin+0x1bec>
   23cf8:	020027b7          	lui	a5,0x2002
   23cfc:	90c78793          	addi	a5,a5,-1780 # 200190c <_payload_end+0x1fdb904>
   23d00:	fef43423          	sd	a5,-24(s0)
   23d04:	fe843503          	ld	a0,-24(s0)
   23d08:	eb9ff0ef          	jal	ra,23bc0 <bss_begin+0x1bc0>
   23d0c:	00050793          	mv	a5,a0
   23d10:	fef42223          	sw	a5,-28(s0)
   23d14:	fe442703          	lw	a4,-28(s0)
   23d18:	000107b7          	lui	a5,0x10
   23d1c:	00f767b3          	or	a5,a4,a5
   23d20:	fef42223          	sw	a5,-28(s0)
   23d24:	fe442783          	lw	a5,-28(s0)
   23d28:	00078593          	mv	a1,a5
   23d2c:	fe843503          	ld	a0,-24(s0)
   23d30:	ebdff0ef          	jal	ra,23bec <bss_begin+0x1bec>
   23d34:	025007b7          	lui	a5,0x2500
   23d38:	fef43423          	sd	a5,-24(s0)
   23d3c:	fe843783          	ld	a5,-24(s0)
   23d40:	00478793          	addi	a5,a5,4 # 2500004 <_payload_end+0x24d9ffc>
   23d44:	00000593          	li	a1,0
   23d48:	00078513          	mv	a0,a5
   23d4c:	ea1ff0ef          	jal	ra,23bec <bss_begin+0x1bec>
   23d50:	fe843783          	ld	a5,-24(s0)
   23d54:	00878793          	addi	a5,a5,8
   23d58:	0f700593          	li	a1,247
   23d5c:	00078513          	mv	a0,a5
   23d60:	e8dff0ef          	jal	ra,23bec <bss_begin+0x1bec>
   23d64:	fe843783          	ld	a5,-24(s0)
   23d68:	01078793          	addi	a5,a5,16
   23d6c:	00000593          	li	a1,0
   23d70:	00078513          	mv	a0,a5
   23d74:	e79ff0ef          	jal	ra,23bec <bss_begin+0x1bec>
   23d78:	fe843783          	ld	a5,-24(s0)
   23d7c:	00c78793          	addi	a5,a5,12
   23d80:	00078513          	mv	a0,a5
   23d84:	e3dff0ef          	jal	ra,23bc0 <bss_begin+0x1bc0>
   23d88:	00050793          	mv	a5,a0
   23d8c:	fef42223          	sw	a5,-28(s0)
   23d90:	fe442783          	lw	a5,-28(s0)
   23d94:	0807e793          	ori	a5,a5,128
   23d98:	fef42223          	sw	a5,-28(s0)
   23d9c:	fe843783          	ld	a5,-24(s0)
   23da0:	00c78793          	addi	a5,a5,12
   23da4:	fe442703          	lw	a4,-28(s0)
   23da8:	00070593          	mv	a1,a4
   23dac:	00078513          	mv	a0,a5
   23db0:	e3dff0ef          	jal	ra,23bec <bss_begin+0x1bec>
   23db4:	00d00593          	li	a1,13
   23db8:	fe843503          	ld	a0,-24(s0)
   23dbc:	e31ff0ef          	jal	ra,23bec <bss_begin+0x1bec>
   23dc0:	fe843783          	ld	a5,-24(s0)
   23dc4:	00478793          	addi	a5,a5,4
   23dc8:	00000593          	li	a1,0
   23dcc:	00078513          	mv	a0,a5
   23dd0:	e1dff0ef          	jal	ra,23bec <bss_begin+0x1bec>
   23dd4:	fe843783          	ld	a5,-24(s0)
   23dd8:	00c78793          	addi	a5,a5,12
   23ddc:	00078513          	mv	a0,a5
   23de0:	de1ff0ef          	jal	ra,23bc0 <bss_begin+0x1bc0>
   23de4:	00050793          	mv	a5,a0
   23de8:	fef42223          	sw	a5,-28(s0)
   23dec:	fe442783          	lw	a5,-28(s0)
   23df0:	f7f7f793          	andi	a5,a5,-129
   23df4:	fef42223          	sw	a5,-28(s0)
   23df8:	fe843783          	ld	a5,-24(s0)
   23dfc:	00c78793          	addi	a5,a5,12
   23e00:	fe442703          	lw	a4,-28(s0)
   23e04:	00070593          	mv	a1,a4
   23e08:	00078513          	mv	a0,a5
   23e0c:	de1ff0ef          	jal	ra,23bec <bss_begin+0x1bec>
   23e10:	fe843783          	ld	a5,-24(s0)
   23e14:	00c78793          	addi	a5,a5,12
   23e18:	00078513          	mv	a0,a5
   23e1c:	da5ff0ef          	jal	ra,23bc0 <bss_begin+0x1bc0>
   23e20:	00050793          	mv	a5,a0
   23e24:	fef42223          	sw	a5,-28(s0)
   23e28:	fe442783          	lw	a5,-28(s0)
   23e2c:	fe07f793          	andi	a5,a5,-32
   23e30:	fef42223          	sw	a5,-28(s0)
   23e34:	fe442783          	lw	a5,-28(s0)
   23e38:	0037e793          	ori	a5,a5,3
   23e3c:	fef42223          	sw	a5,-28(s0)
   23e40:	fe843783          	ld	a5,-24(s0)
   23e44:	00c78793          	addi	a5,a5,12
   23e48:	fe442703          	lw	a4,-28(s0)
   23e4c:	00070593          	mv	a1,a4
   23e50:	00078513          	mv	a0,a5
   23e54:	d99ff0ef          	jal	ra,23bec <bss_begin+0x1bec>
   23e58:	00000013          	nop
   23e5c:	01813083          	ld	ra,24(sp)
   23e60:	01013403          	ld	s0,16(sp)
   23e64:	02010113          	addi	sp,sp,32
   23e68:	00008067          	ret
   23e6c:	fd010113          	addi	sp,sp,-48
   23e70:	02113423          	sd	ra,40(sp)
   23e74:	02813023          	sd	s0,32(sp)
   23e78:	03010413          	addi	s0,sp,48
   23e7c:	00050793          	mv	a5,a0
   23e80:	fcf40fa3          	sb	a5,-33(s0)
   23e84:	025007b7          	lui	a5,0x2500
   23e88:	fef43423          	sd	a5,-24(s0)
   23e8c:	00000013          	nop
   23e90:	fe843783          	ld	a5,-24(s0)
   23e94:	07c78793          	addi	a5,a5,124 # 250007c <_payload_end+0x24da074>
   23e98:	00078513          	mv	a0,a5
   23e9c:	d25ff0ef          	jal	ra,23bc0 <bss_begin+0x1bc0>
   23ea0:	00050793          	mv	a5,a0
   23ea4:	0007879b          	sext.w	a5,a5
   23ea8:	0027f793          	andi	a5,a5,2
   23eac:	0007879b          	sext.w	a5,a5
   23eb0:	fe0780e3          	beqz	a5,23e90 <bss_begin+0x1e90>
   23eb4:	fdf44783          	lbu	a5,-33(s0)
   23eb8:	0007879b          	sext.w	a5,a5
   23ebc:	00078593          	mv	a1,a5
   23ec0:	fe843503          	ld	a0,-24(s0)
   23ec4:	d29ff0ef          	jal	ra,23bec <bss_begin+0x1bec>
   23ec8:	00000013          	nop
   23ecc:	02813083          	ld	ra,40(sp)
   23ed0:	02013403          	ld	s0,32(sp)
   23ed4:	03010113          	addi	sp,sp,48
   23ed8:	00008067          	ret
   23edc:	fe010113          	addi	sp,sp,-32
   23ee0:	00113c23          	sd	ra,24(sp)
   23ee4:	00813823          	sd	s0,16(sp)
   23ee8:	02010413          	addi	s0,sp,32
   23eec:	00050793          	mv	a5,a0
   23ef0:	fef42623          	sw	a5,-20(s0)
   23ef4:	fec42783          	lw	a5,-20(s0)
   23ef8:	0ff7f793          	andi	a5,a5,255
   23efc:	00078513          	mv	a0,a5
   23f00:	f6dff0ef          	jal	ra,23e6c <bss_begin+0x1e6c>
   23f04:	fec42783          	lw	a5,-20(s0)
   23f08:	00078513          	mv	a0,a5
   23f0c:	01813083          	ld	ra,24(sp)
   23f10:	01013403          	ld	s0,16(sp)
   23f14:	02010113          	addi	sp,sp,32
   23f18:	00008067          	ret
   23f1c:	fe010113          	addi	sp,sp,-32
   23f20:	00113c23          	sd	ra,24(sp)
   23f24:	00813823          	sd	s0,16(sp)
   23f28:	02010413          	addi	s0,sp,32
   23f2c:	025007b7          	lui	a5,0x2500
   23f30:	fef43423          	sd	a5,-24(s0)
   23f34:	00000013          	nop
   23f38:	fe843783          	ld	a5,-24(s0)
   23f3c:	07c78793          	addi	a5,a5,124 # 250007c <_payload_end+0x24da074>
   23f40:	00078513          	mv	a0,a5
   23f44:	c7dff0ef          	jal	ra,23bc0 <bss_begin+0x1bc0>
   23f48:	00050793          	mv	a5,a0
   23f4c:	0007879b          	sext.w	a5,a5
   23f50:	0087f793          	andi	a5,a5,8
   23f54:	0007879b          	sext.w	a5,a5
   23f58:	fe0780e3          	beqz	a5,23f38 <bss_begin+0x1f38>
   23f5c:	fe843503          	ld	a0,-24(s0)
   23f60:	c35ff0ef          	jal	ra,23b94 <bss_begin+0x1b94>
   23f64:	00050793          	mv	a5,a0
   23f68:	00078513          	mv	a0,a5
   23f6c:	01813083          	ld	ra,24(sp)
   23f70:	01013403          	ld	s0,16(sp)
   23f74:	02010113          	addi	sp,sp,32
   23f78:	00008067          	ret
   23f7c:	fd010113          	addi	sp,sp,-48
   23f80:	02113423          	sd	ra,40(sp)
   23f84:	02813023          	sd	s0,32(sp)
   23f88:	03010413          	addi	s0,sp,48
   23f8c:	fca43c23          	sd	a0,-40(s0)
   23f90:	fe042623          	sw	zero,-20(s0)
   23f94:	0280006f          	j	23fbc <bss_begin+0x1fbc>
   23f98:	fec42783          	lw	a5,-20(s0)
   23f9c:	fd843703          	ld	a4,-40(s0)
   23fa0:	00f707b3          	add	a5,a4,a5
   23fa4:	0007c783          	lbu	a5,0(a5)
   23fa8:	00078513          	mv	a0,a5
   23fac:	ec1ff0ef          	jal	ra,23e6c <bss_begin+0x1e6c>
   23fb0:	fec42783          	lw	a5,-20(s0)
   23fb4:	0017879b          	addiw	a5,a5,1
   23fb8:	fef42623          	sw	a5,-20(s0)
   23fbc:	fec42783          	lw	a5,-20(s0)
   23fc0:	fd843703          	ld	a4,-40(s0)
   23fc4:	00f707b3          	add	a5,a4,a5
   23fc8:	0007c783          	lbu	a5,0(a5)
   23fcc:	fc0796e3          	bnez	a5,23f98 <bss_begin+0x1f98>
   23fd0:	00000013          	nop
   23fd4:	00000013          	nop
   23fd8:	02813083          	ld	ra,40(sp)
   23fdc:	02013403          	ld	s0,32(sp)
   23fe0:	03010113          	addi	sp,sp,48
   23fe4:	00008067          	ret
   23fe8:	fc010113          	addi	sp,sp,-64
   23fec:	02813c23          	sd	s0,56(sp)
   23ff0:	04010413          	addi	s0,sp,64
   23ff4:	fca43423          	sd	a0,-56(s0)
   23ff8:	fcb43023          	sd	a1,-64(s0)
   23ffc:	fe042223          	sw	zero,-28(s0)
   24000:	fc843783          	ld	a5,-56(s0)
   24004:	fef43423          	sd	a5,-24(s0)
   24008:	0900006f          	j	24098 <bss_begin+0x2098>
   2400c:	fe843783          	ld	a5,-24(s0)
   24010:	0007c783          	lbu	a5,0(a5)
   24014:	00078713          	mv	a4,a5
   24018:	02f00793          	li	a5,47
   2401c:	02e7f063          	bgeu	a5,a4,2403c <bss_begin+0x203c>
   24020:	fe843783          	ld	a5,-24(s0)
   24024:	0007c783          	lbu	a5,0(a5)
   24028:	00078713          	mv	a4,a5
   2402c:	03900793          	li	a5,57
   24030:	00e7e663          	bltu	a5,a4,2403c <bss_begin+0x203c>
   24034:	00100793          	li	a5,1
   24038:	0080006f          	j	24040 <bss_begin+0x2040>
   2403c:	00000793          	li	a5,0
   24040:	fef42023          	sw	a5,-32(s0)
   24044:	fe042783          	lw	a5,-32(s0)
   24048:	0007879b          	sext.w	a5,a5
   2404c:	04078e63          	beqz	a5,240a8 <bss_begin+0x20a8>
   24050:	fe843783          	ld	a5,-24(s0)
   24054:	0007c783          	lbu	a5,0(a5)
   24058:	0007879b          	sext.w	a5,a5
   2405c:	fd07879b          	addiw	a5,a5,-48
   24060:	fcf42e23          	sw	a5,-36(s0)
   24064:	fe442703          	lw	a4,-28(s0)
   24068:	00070793          	mv	a5,a4
   2406c:	0027979b          	slliw	a5,a5,0x2
   24070:	00e787bb          	addw	a5,a5,a4
   24074:	0017979b          	slliw	a5,a5,0x1
   24078:	fef42223          	sw	a5,-28(s0)
   2407c:	fe442703          	lw	a4,-28(s0)
   24080:	fdc42783          	lw	a5,-36(s0)
   24084:	00f707bb          	addw	a5,a4,a5
   24088:	fef42223          	sw	a5,-28(s0)
   2408c:	fe843783          	ld	a5,-24(s0)
   24090:	00178793          	addi	a5,a5,1
   24094:	fef43423          	sd	a5,-24(s0)
   24098:	fc843783          	ld	a5,-56(s0)
   2409c:	0007c783          	lbu	a5,0(a5)
   240a0:	f60796e3          	bnez	a5,2400c <bss_begin+0x200c>
   240a4:	0080006f          	j	240ac <bss_begin+0x20ac>
   240a8:	00000013          	nop
   240ac:	fc043783          	ld	a5,-64(s0)
   240b0:	fe442703          	lw	a4,-28(s0)
   240b4:	00e7a023          	sw	a4,0(a5)
   240b8:	fe843703          	ld	a4,-24(s0)
   240bc:	fc843783          	ld	a5,-56(s0)
   240c0:	40f707b3          	sub	a5,a4,a5
   240c4:	0007879b          	sext.w	a5,a5
   240c8:	00078513          	mv	a0,a5
   240cc:	03813403          	ld	s0,56(sp)
   240d0:	04010113          	addi	sp,sp,64
   240d4:	00008067          	ret
   240d8:	fb010113          	addi	sp,sp,-80
   240dc:	04113423          	sd	ra,72(sp)
   240e0:	04813023          	sd	s0,64(sp)
   240e4:	05010413          	addi	s0,sp,80
   240e8:	00050793          	mv	a5,a0
   240ec:	00068713          	mv	a4,a3
   240f0:	faf42e23          	sw	a5,-68(s0)
   240f4:	00058793          	mv	a5,a1
   240f8:	faf42c23          	sw	a5,-72(s0)
   240fc:	00060793          	mv	a5,a2
   24100:	faf42a23          	sw	a5,-76(s0)
   24104:	00070793          	mv	a5,a4
   24108:	faf42823          	sw	a5,-80(s0)
   2410c:	fe042223          	sw	zero,-28(s0)
   24110:	0280006f          	j	24138 <bss_begin+0x2138>
   24114:	fb042783          	lw	a5,-80(s0)
   24118:	0ff7f713          	andi	a4,a5,255
   2411c:	fe442783          	lw	a5,-28(s0)
   24120:	ff040693          	addi	a3,s0,-16
   24124:	00f687b3          	add	a5,a3,a5
   24128:	fce78823          	sb	a4,-48(a5)
   2412c:	fe442783          	lw	a5,-28(s0)
   24130:	0017879b          	addiw	a5,a5,1
   24134:	fef42223          	sw	a5,-28(s0)
   24138:	fe442783          	lw	a5,-28(s0)
   2413c:	00078713          	mv	a4,a5
   24140:	01f00793          	li	a5,31
   24144:	fce7f8e3          	bgeu	a5,a4,24114 <bss_begin+0x2114>
   24148:	00a00793          	li	a5,10
   2414c:	fef42623          	sw	a5,-20(s0)
   24150:	fb842783          	lw	a5,-72(s0)
   24154:	0007879b          	sext.w	a5,a5
   24158:	00078663          	beqz	a5,24164 <bss_begin+0x2164>
   2415c:	01000793          	li	a5,16
   24160:	fef42623          	sw	a5,-20(s0)
   24164:	fe042423          	sw	zero,-24(s0)
   24168:	fbc42703          	lw	a4,-68(s0)
   2416c:	fec42783          	lw	a5,-20(s0)
   24170:	02f777bb          	remuw	a5,a4,a5
   24174:	0007879b          	sext.w	a5,a5
   24178:	fef42023          	sw	a5,-32(s0)
   2417c:	fe042783          	lw	a5,-32(s0)
   24180:	0007871b          	sext.w	a4,a5
   24184:	00900793          	li	a5,9
   24188:	02e7d463          	bge	a5,a4,241b0 <bss_begin+0x21b0>
   2418c:	fe042783          	lw	a5,-32(s0)
   24190:	0ff7f793          	andi	a5,a5,255
   24194:	0577879b          	addiw	a5,a5,87
   24198:	0ff7f713          	andi	a4,a5,255
   2419c:	fe842783          	lw	a5,-24(s0)
   241a0:	ff040693          	addi	a3,s0,-16
   241a4:	00f687b3          	add	a5,a3,a5
   241a8:	fce78823          	sb	a4,-48(a5)
   241ac:	0240006f          	j	241d0 <bss_begin+0x21d0>
   241b0:	fe042783          	lw	a5,-32(s0)
   241b4:	0ff7f793          	andi	a5,a5,255
   241b8:	0307879b          	addiw	a5,a5,48
   241bc:	0ff7f713          	andi	a4,a5,255
   241c0:	fe842783          	lw	a5,-24(s0)
   241c4:	ff040693          	addi	a3,s0,-16
   241c8:	00f687b3          	add	a5,a3,a5
   241cc:	fce78823          	sb	a4,-48(a5)
   241d0:	fbc42703          	lw	a4,-68(s0)
   241d4:	fec42783          	lw	a5,-20(s0)
   241d8:	02f757bb          	divuw	a5,a4,a5
   241dc:	faf42e23          	sw	a5,-68(s0)
   241e0:	fe842783          	lw	a5,-24(s0)
   241e4:	0017879b          	addiw	a5,a5,1
   241e8:	fef42423          	sw	a5,-24(s0)
   241ec:	fbc42783          	lw	a5,-68(s0)
   241f0:	0007879b          	sext.w	a5,a5
   241f4:	f6079ae3          	bnez	a5,24168 <bss_begin+0x2168>
   241f8:	fb442783          	lw	a5,-76(s0)
   241fc:	0007879b          	sext.w	a5,a5
   24200:	02f05c63          	blez	a5,24238 <bss_begin+0x2238>
   24204:	fb442783          	lw	a5,-76(s0)
   24208:	00078713          	mv	a4,a5
   2420c:	01f00793          	li	a5,31
   24210:	00e7f663          	bgeu	a5,a4,2421c <bss_begin+0x221c>
   24214:	01f00793          	li	a5,31
   24218:	faf42a23          	sw	a5,-76(s0)
   2421c:	fe842703          	lw	a4,-24(s0)
   24220:	fb442783          	lw	a5,-76(s0)
   24224:	0007071b          	sext.w	a4,a4
   24228:	0007879b          	sext.w	a5,a5
   2422c:	00f75663          	bge	a4,a5,24238 <bss_begin+0x2238>
   24230:	fb442783          	lw	a5,-76(s0)
   24234:	fef42423          	sw	a5,-24(s0)
   24238:	fe842783          	lw	a5,-24(s0)
   2423c:	ff040713          	addi	a4,s0,-16
   24240:	00f707b3          	add	a5,a4,a5
   24244:	fc078823          	sb	zero,-48(a5)
   24248:	fe842783          	lw	a5,-24(s0)
   2424c:	fff7879b          	addiw	a5,a5,-1
   24250:	fef42223          	sw	a5,-28(s0)
   24254:	0280006f          	j	2427c <bss_begin+0x227c>
   24258:	fe442783          	lw	a5,-28(s0)
   2425c:	ff040713          	addi	a4,s0,-16
   24260:	00f707b3          	add	a5,a4,a5
   24264:	fd07c783          	lbu	a5,-48(a5)
   24268:	00078513          	mv	a0,a5
   2426c:	c01ff0ef          	jal	ra,23e6c <bss_begin+0x1e6c>
   24270:	fe442783          	lw	a5,-28(s0)
   24274:	fff7879b          	addiw	a5,a5,-1
   24278:	fef42223          	sw	a5,-28(s0)
   2427c:	fe442783          	lw	a5,-28(s0)
   24280:	0007879b          	sext.w	a5,a5
   24284:	fc07dae3          	bgez	a5,24258 <bss_begin+0x2258>
   24288:	00000013          	nop
   2428c:	00000013          	nop
   24290:	04813083          	ld	ra,72(sp)
   24294:	04013403          	ld	s0,64(sp)
   24298:	05010113          	addi	sp,sp,80
   2429c:	00008067          	ret
   242a0:	fb010113          	addi	sp,sp,-80
   242a4:	04113423          	sd	ra,72(sp)
   242a8:	04813023          	sd	s0,64(sp)
   242ac:	05010413          	addi	s0,sp,80
   242b0:	faa43c23          	sd	a0,-72(s0)
   242b4:	fab43823          	sd	a1,-80(s0)
   242b8:	02000793          	li	a5,32
   242bc:	fcf42a23          	sw	a5,-44(s0)
   242c0:	fb843783          	ld	a5,-72(s0)
   242c4:	fef43423          	sd	a5,-24(s0)
   242c8:	1880006f          	j	24450 <bss_begin+0x2450>
   242cc:	fc042e23          	sw	zero,-36(s0)
   242d0:	fc042223          	sw	zero,-60(s0)
   242d4:	fe843783          	ld	a5,-24(s0)
   242d8:	0007c783          	lbu	a5,0(a5)
   242dc:	fcf42823          	sw	a5,-48(s0)
   242e0:	fe843783          	ld	a5,-24(s0)
   242e4:	fef43023          	sd	a5,-32(s0)
   242e8:	fe843783          	ld	a5,-24(s0)
   242ec:	0007c783          	lbu	a5,0(a5)
   242f0:	00078713          	mv	a4,a5
   242f4:	02500793          	li	a5,37
   242f8:	06f71863          	bne	a4,a5,24368 <bss_begin+0x2368>
   242fc:	fe843783          	ld	a5,-24(s0)
   24300:	fef43023          	sd	a5,-32(s0)
   24304:	fe843783          	ld	a5,-24(s0)
   24308:	00178793          	addi	a5,a5,1
   2430c:	fef43423          	sd	a5,-24(s0)
   24310:	fe843783          	ld	a5,-24(s0)
   24314:	0007c783          	lbu	a5,0(a5)
   24318:	00078713          	mv	a4,a5
   2431c:	02f00793          	li	a5,47
   24320:	02e7fe63          	bgeu	a5,a4,2435c <bss_begin+0x235c>
   24324:	fe843783          	ld	a5,-24(s0)
   24328:	0007c783          	lbu	a5,0(a5)
   2432c:	00078713          	mv	a4,a5
   24330:	03900793          	li	a5,57
   24334:	02e7e463          	bltu	a5,a4,2435c <bss_begin+0x235c>
   24338:	fc440793          	addi	a5,s0,-60
   2433c:	00078593          	mv	a1,a5
   24340:	fe843503          	ld	a0,-24(s0)
   24344:	ca5ff0ef          	jal	ra,23fe8 <bss_begin+0x1fe8>
   24348:	00050793          	mv	a5,a0
   2434c:	00078713          	mv	a4,a5
   24350:	fe843783          	ld	a5,-24(s0)
   24354:	00e787b3          	add	a5,a5,a4
   24358:	fef43423          	sd	a5,-24(s0)
   2435c:	fe843783          	ld	a5,-24(s0)
   24360:	0007c783          	lbu	a5,0(a5)
   24364:	fcf42e23          	sw	a5,-36(s0)
   24368:	fdc42783          	lw	a5,-36(s0)
   2436c:	0007871b          	sext.w	a4,a5
   24370:	06400793          	li	a5,100
   24374:	00f70a63          	beq	a4,a5,24388 <bss_begin+0x2388>
   24378:	fdc42783          	lw	a5,-36(s0)
   2437c:	0007871b          	sext.w	a4,a5
   24380:	07800793          	li	a5,120
   24384:	04f71863          	bne	a4,a5,243d4 <bss_begin+0x23d4>
   24388:	fb043783          	ld	a5,-80(s0)
   2438c:	00878713          	addi	a4,a5,8
   24390:	fae43823          	sd	a4,-80(s0)
   24394:	0007a783          	lw	a5,0(a5)
   24398:	fcf42423          	sw	a5,-56(s0)
   2439c:	fc842503          	lw	a0,-56(s0)
   243a0:	fdc42783          	lw	a5,-36(s0)
   243a4:	0007871b          	sext.w	a4,a5
   243a8:	07800793          	li	a5,120
   243ac:	40f707b3          	sub	a5,a4,a5
   243b0:	0017b793          	seqz	a5,a5
   243b4:	0ff7f793          	andi	a5,a5,255
   243b8:	0007879b          	sext.w	a5,a5
   243bc:	fc442703          	lw	a4,-60(s0)
   243c0:	fd442683          	lw	a3,-44(s0)
   243c4:	00070613          	mv	a2,a4
   243c8:	00078593          	mv	a1,a5
   243cc:	d0dff0ef          	jal	ra,240d8 <bss_begin+0x20d8>
   243d0:	0740006f          	j	24444 <bss_begin+0x2444>
   243d4:	fc042c23          	sw	zero,-40(s0)
   243d8:	0280006f          	j	24400 <bss_begin+0x2400>
   243dc:	fd842783          	lw	a5,-40(s0)
   243e0:	fe043703          	ld	a4,-32(s0)
   243e4:	00f707b3          	add	a5,a4,a5
   243e8:	0007c783          	lbu	a5,0(a5)
   243ec:	00078513          	mv	a0,a5
   243f0:	a7dff0ef          	jal	ra,23e6c <bss_begin+0x1e6c>
   243f4:	fd842783          	lw	a5,-40(s0)
   243f8:	0017879b          	addiw	a5,a5,1
   243fc:	fcf42c23          	sw	a5,-40(s0)
   24400:	fd842703          	lw	a4,-40(s0)
   24404:	fe843683          	ld	a3,-24(s0)
   24408:	fe043783          	ld	a5,-32(s0)
   2440c:	40f687b3          	sub	a5,a3,a5
   24410:	fcf746e3          	blt	a4,a5,243dc <bss_begin+0x23dc>
   24414:	fdc42783          	lw	a5,-36(s0)
   24418:	0007879b          	sext.w	a5,a5
   2441c:	00078863          	beqz	a5,2442c <bss_begin+0x242c>
   24420:	fdc42783          	lw	a5,-36(s0)
   24424:	0ff7f793          	andi	a5,a5,255
   24428:	00c0006f          	j	24434 <bss_begin+0x2434>
   2442c:	fd042783          	lw	a5,-48(s0)
   24430:	0ff7f793          	andi	a5,a5,255
   24434:	fcf407a3          	sb	a5,-49(s0)
   24438:	fcf44783          	lbu	a5,-49(s0)
   2443c:	00078513          	mv	a0,a5
   24440:	a2dff0ef          	jal	ra,23e6c <bss_begin+0x1e6c>
   24444:	fe843783          	ld	a5,-24(s0)
   24448:	00178793          	addi	a5,a5,1
   2444c:	fef43423          	sd	a5,-24(s0)
   24450:	fe843783          	ld	a5,-24(s0)
   24454:	0007c783          	lbu	a5,0(a5)
   24458:	e6079ae3          	bnez	a5,242cc <bss_begin+0x22cc>
   2445c:	00000793          	li	a5,0
   24460:	00078513          	mv	a0,a5
   24464:	04813083          	ld	ra,72(sp)
   24468:	04013403          	ld	s0,64(sp)
   2446c:	05010113          	addi	sp,sp,80
   24470:	00008067          	ret
   24474:	f9010113          	addi	sp,sp,-112
   24478:	02113423          	sd	ra,40(sp)
   2447c:	02813023          	sd	s0,32(sp)
   24480:	03010413          	addi	s0,sp,48
   24484:	fca43c23          	sd	a0,-40(s0)
   24488:	00b43423          	sd	a1,8(s0)
   2448c:	00c43823          	sd	a2,16(s0)
   24490:	00d43c23          	sd	a3,24(s0)
   24494:	02e43023          	sd	a4,32(s0)
   24498:	02f43423          	sd	a5,40(s0)
   2449c:	03043823          	sd	a6,48(s0)
   244a0:	03143c23          	sd	a7,56(s0)
   244a4:	04040793          	addi	a5,s0,64
   244a8:	fcf43823          	sd	a5,-48(s0)
   244ac:	fd043783          	ld	a5,-48(s0)
   244b0:	fc878793          	addi	a5,a5,-56
   244b4:	fef43423          	sd	a5,-24(s0)
   244b8:	fe843783          	ld	a5,-24(s0)
   244bc:	00078593          	mv	a1,a5
   244c0:	fd843503          	ld	a0,-40(s0)
   244c4:	dddff0ef          	jal	ra,242a0 <bss_begin+0x22a0>
   244c8:	00000793          	li	a5,0
   244cc:	00078513          	mv	a0,a5
   244d0:	02813083          	ld	ra,40(sp)
   244d4:	02013403          	ld	s0,32(sp)
   244d8:	07010113          	addi	sp,sp,112
   244dc:	00008067          	ret
   244e0:	fd010113          	addi	sp,sp,-48
   244e4:	02113423          	sd	ra,40(sp)
   244e8:	02813023          	sd	s0,32(sp)
   244ec:	03010413          	addi	s0,sp,48
   244f0:	00050793          	mv	a5,a0
   244f4:	fcf42e23          	sw	a5,-36(s0)
   244f8:	03000513          	li	a0,48
   244fc:	971ff0ef          	jal	ra,23e6c <bss_begin+0x1e6c>
   24500:	07800513          	li	a0,120
   24504:	969ff0ef          	jal	ra,23e6c <bss_begin+0x1e6c>
   24508:	00700793          	li	a5,7
   2450c:	fef42623          	sw	a5,-20(s0)
   24510:	07c0006f          	j	2458c <bss_begin+0x258c>
   24514:	fec42783          	lw	a5,-20(s0)
   24518:	0027979b          	slliw	a5,a5,0x2
   2451c:	0007879b          	sext.w	a5,a5
   24520:	00078713          	mv	a4,a5
   24524:	fdc42783          	lw	a5,-36(s0)
   24528:	00e7d7bb          	srlw	a5,a5,a4
   2452c:	0007879b          	sext.w	a5,a5
   24530:	0007879b          	sext.w	a5,a5
   24534:	00f7f793          	andi	a5,a5,15
   24538:	fef42423          	sw	a5,-24(s0)
   2453c:	fe842783          	lw	a5,-24(s0)
   24540:	0007871b          	sext.w	a4,a5
   24544:	00900793          	li	a5,9
   24548:	02e7c063          	blt	a5,a4,24568 <bss_begin+0x2568>
   2454c:	fe842783          	lw	a5,-24(s0)
   24550:	0ff7f793          	andi	a5,a5,255
   24554:	0307879b          	addiw	a5,a5,48
   24558:	0ff7f793          	andi	a5,a5,255
   2455c:	00078513          	mv	a0,a5
   24560:	90dff0ef          	jal	ra,23e6c <bss_begin+0x1e6c>
   24564:	01c0006f          	j	24580 <bss_begin+0x2580>
   24568:	fe842783          	lw	a5,-24(s0)
   2456c:	0ff7f793          	andi	a5,a5,255
   24570:	0377879b          	addiw	a5,a5,55
   24574:	0ff7f793          	andi	a5,a5,255
   24578:	00078513          	mv	a0,a5
   2457c:	8f1ff0ef          	jal	ra,23e6c <bss_begin+0x1e6c>
   24580:	fec42783          	lw	a5,-20(s0)
   24584:	fff7879b          	addiw	a5,a5,-1
   24588:	fef42623          	sw	a5,-20(s0)
   2458c:	fec42783          	lw	a5,-20(s0)
   24590:	0007879b          	sext.w	a5,a5
   24594:	f807d0e3          	bgez	a5,24514 <bss_begin+0x2514>
   24598:	00000013          	nop
   2459c:	00000013          	nop
   245a0:	02813083          	ld	ra,40(sp)
   245a4:	02013403          	ld	s0,32(sp)
   245a8:	03010113          	addi	sp,sp,48
   245ac:	00008067          	ret
   245b0:	abcd                	j	24ba2 <bss_begin+0x2ba2>
   245b2:	abcd                	j	24ba4 <bss_begin+0x2ba4>
   245b4:	5678                	lw	a4,108(a2)
   245b6:	1234                	addi	a3,sp,296
   245b8:	000222b7          	lui	t0,0x22
   245bc:	00028303          	lb	t1,0(t0) # 22000 <bss_begin>
   245c0:	00428303          	lb	t1,4(t0)
   245c4:	ffc28303          	lb	t1,-4(t0)
   245c8:	0002b303          	ld	t1,0(t0)
   245cc:	00428303          	lb	t1,4(t0)
   245d0:	00000297          	auipc	t0,0x0
   245d4:	fe028293          	addi	t0,t0,-32 # 245b0 <bss_begin+0x25b0>
   245d8:	00000317          	auipc	t1,0x0
   245dc:	fd830313          	addi	t1,t1,-40 # 245b0 <bss_begin+0x25b0>
   245e0:	802002b7          	lui	t0,0x80200
   245e4:	40200337          	lui	t1,0x40200
   245e8:	00008067          	ret
   245ec:	c00002b7          	lui	t0,0xc0000
   245f0:	0452829b          	addiw	t0,t0,69
   245f4:	02129293          	slli	t0,t0,0x21
   245f8:	4012d593          	srai	a1,t0,0x1
   245fc:	0012d313          	srli	t1,t0,0x1
   24600:	0250029b          	addiw	t0,zero,37
   24604:	01f29293          	slli	t0,t0,0x1f
   24608:	08a28293          	addi	t0,t0,138 # ffffffffc000008a <_payload_end+0xffffffffbffda082>
   2460c:	4012d61b          	sraiw	a2,t0,0x1
   24610:	0012d31b          	srliw	t1,t0,0x1
   24614:	0012969b          	slliw	a3,t0,0x1
   24618:	0490029b          	addiw	t0,zero,73
   2461c:	01e29293          	slli	t0,t0,0x1e
   24620:	08a28293          	addi	t0,t0,138
   24624:	4012d61b          	sraiw	a2,t0,0x1
   24628:	0012d31b          	srliw	t1,t0,0x1
   2462c:	0012971b          	slliw	a4,t0,0x1
   24630:	00008067          	ret
   24634:	80028593          	addi	a1,t0,-2048
   24638:	000012b7          	lui	t0,0x1
   2463c:	a012829b          	addiw	t0,t0,-1535
   24640:	01529293          	slli	t0,t0,0x15
   24644:	40000337          	lui	t1,0x40000
   24648:	70028593          	addi	a1,t0,1792 # 1700 <__bin_size-0x4908>
   2464c:	80028593          	addi	a1,t0,-2048
   24650:	0802861b          	addiw	a2,t0,128
   24654:	006286b3          	add	a3,t0,t1
   24658:	0062873b          	addw	a4,t0,t1
   2465c:	000012b7          	lui	t0,0x1
   24660:	c012829b          	addiw	t0,t0,-1023
   24664:	01529293          	slli	t0,t0,0x15
   24668:	00200337          	lui	t1,0x200
   2466c:	40628533          	sub	a0,t0,t1
   24670:	406285bb          	subw	a1,t0,t1
   24674:	00008067          	ret
   24678:	00b50533          	add	a0,a0,a1
   2467c:	00000013          	nop
   24680:	00008067          	ret
   24684:	ff810113          	addi	sp,sp,-8
   24688:	00113023          	sd	ra,0(sp)
   2468c:	00100513          	li	a0,1
   24690:	00200593          	li	a1,2
   24694:	fe5ff0ef          	jal	ra,24678 <bss_begin+0x2678>
   24698:	00000013          	nop
   2469c:	00013083          	ld	ra,0(sp)
   246a0:	00810113          	addi	sp,sp,8
   246a4:	00008067          	ret
   246a8:	000202b7          	lui	t0,0x20
   246ac:	00021337          	lui	t1,0x21
   246b0:	02028393          	addi	t2,t0,32 # 20020 <_start+0x20>
   246b4:	0002be03          	ld	t3,0(t0)
   246b8:	01c33023          	sd	t3,0(t1) # 21000 <stacks_start>
   246bc:	00828293          	addi	t0,t0,8
   246c0:	00830313          	addi	t1,t1,8
   246c4:	fe72c8e3          	blt	t0,t2,246b4 <bss_begin+0x26b4>
   246c8:	00008067          	ret
   246cc:	00b56663          	bltu	a0,a1,246d8 <bss_begin+0x26d8>
   246d0:	00000793          	li	a5,0
   246d4:	0080006f          	j	246dc <bss_begin+0x26dc>
   246d8:	fff00793          	li	a5,-1
   246dc:	00078513          	mv	a0,a5
   246e0:	00008067          	ret
   246e4:	00050663          	beqz	a0,246f0 <bss_begin+0x26f0>
   246e8:	fff58793          	addi	a5,a1,-1
   246ec:	0080006f          	j	246f4 <bss_begin+0x26f4>
   246f0:	00258793          	addi	a5,a1,2
   246f4:	00078513          	mv	a0,a5
   246f8:	00008067          	ret
   246fc:	ff010113          	addi	sp,sp,-16
   24700:	00113423          	sd	ra,8(sp)
   24704:	fe1ff0ef          	jal	ra,246e4 <bss_begin+0x26e4>
   24708:	00813083          	ld	ra,8(sp)
   2470c:	01010113          	addi	sp,sp,16
   24710:	00008067          	ret
   24714:	00000013          	nop
   24718:	0800                	addi	s0,sp,16
   2471a:	0080                	addi	s0,sp,64
   2471c:	0000                	unimp
   2471e:	0000                	unimp
   24720:	0860                	addi	s0,sp,28
   24722:	0080                	addi	s0,sp,64
   24724:	0000                	unimp
   24726:	0000                	unimp
   24728:	0880                	addi	s0,sp,80
   2472a:	0080                	addi	s0,sp,64
   2472c:	0000                	unimp
   2472e:	0000                	unimp
   24730:	7566                	ld	a0,120(sp)
   24732:	636e                	ld	t1,216(sp)
   24734:	615f 6600 6e75      	0x6e756600615f
   2473a:	00625f63          	bge	tp,t1,24758 <bss_begin+0x2758>
   2473e:	7566                	ld	a0,120(sp)
   24740:	636e                	ld	t1,216(sp)
   24742:	635f 0100 0000      	0x100635f
   24748:	00000003          	lb	zero,0(zero) # 0 <__bin_size-0x6008>
   2474c:	0000                	unimp
   2474e:	0000                	unimp
   24750:	00b50533          	add	a0,a0,a1
   24754:	00008067          	ret
   24758:	40b50533          	sub	a0,a0,a1
   2475c:	00008067          	ret
   24760:	ff010113          	addi	sp,sp,-16
   24764:	00113423          	sd	ra,8(sp)
   24768:	00050293          	mv	t0,a0
   2476c:	00058313          	mv	t1,a1
   24770:	00028513          	mv	a0,t0
   24774:	00030593          	mv	a1,t1
   24778:	fd9ff0ef          	jal	ra,24750 <bss_begin+0x2750>
   2477c:	00813083          	ld	ra,8(sp)
   24780:	01010113          	addi	sp,sp,16
   24784:	00008067          	ret
   24788:	ff010113          	addi	sp,sp,-16
   2478c:	00113423          	sd	ra,8(sp)
   24790:	00050293          	mv	t0,a0
   24794:	00058313          	mv	t1,a1
   24798:	00028513          	mv	a0,t0
   2479c:	00030593          	mv	a1,t1
   247a0:	fb9ff0ef          	jal	ra,24758 <bss_begin+0x2758>
   247a4:	00813083          	ld	ra,8(sp)
   247a8:	01010113          	addi	sp,sp,16
   247ac:	00008067          	ret
	...
   247b8:	020002b7          	lui	t0,0x2000
   247bc:	0f02829b          	addiw	t0,t0,240
   247c0:	0002a303          	lw	t1,0(t0) # 2000000 <_payload_end+0x1fd9ff8>
   247c4:	fff0f3b7          	lui	t2,0xfff0f
   247c8:	0ff3839b          	addiw	t2,t2,255
   247cc:	00737333          	and	t1,t1,t2
   247d0:	000303b7          	lui	t2,0x30
   247d4:	3003839b          	addiw	t2,t2,768
   247d8:	00736333          	or	t1,t1,t2
   247dc:	0062a023          	sw	t1,0(t0)
   247e0:	020022b7          	lui	t0,0x2002
   247e4:	90c2829b          	addiw	t0,t0,-1780
   247e8:	0002a303          	lw	t1,0(t0) # 2002000 <_payload_end+0x1fdbff8>
   247ec:	00136313          	ori	t1,t1,1
   247f0:	0062a023          	sw	t1,0(t0)
   247f4:	020022b7          	lui	t0,0x2002
   247f8:	90c2829b          	addiw	t0,t0,-1780
   247fc:	0002a303          	lw	t1,0(t0) # 2002000 <_payload_end+0x1fdbff8>
   24800:	000103b7          	lui	t2,0x10
   24804:	00736333          	or	t1,t1,t2
   24808:	0062a023          	sw	t1,0(t0)
   2480c:	025002b7          	lui	t0,0x2500
   24810:	0002a223          	sw	zero,4(t0) # 2500004 <_payload_end+0x24d9ffc>
   24814:	0f700313          	li	t1,247
   24818:	0062a423          	sw	t1,8(t0)
   2481c:	0002a823          	sw	zero,16(t0)
   24820:	00c2a303          	lw	t1,12(t0)
   24824:	08036313          	ori	t1,t1,128
   24828:	0062a623          	sw	t1,12(t0)
   2482c:	00d00393          	li	t2,13
   24830:	0072a023          	sw	t2,0(t0)
   24834:	00000393          	li	t2,0
   24838:	0072a223          	sw	t2,4(t0)
   2483c:	08034313          	xori	t1,t1,128
   24840:	0062a623          	sw	t1,12(t0)
   24844:	00c2a303          	lw	t1,12(t0)
   24848:	ff000393          	li	t2,-16
   2484c:	00737333          	and	t1,t1,t2
   24850:	00300393          	li	t2,3
   24854:	00736333          	or	t1,t1,t2
   24858:	0062a623          	sw	t1,12(t0)
   2485c:	00008067          	ret
   24860:	025002b7          	lui	t0,0x2500
   24864:	07c2a303          	lw	t1,124(t0) # 250007c <_payload_end+0x24da074>
   24868:	00237313          	andi	t1,t1,2
   2486c:	fe030ce3          	beqz	t1,24864 <bss_begin+0x2864>
   24870:	00a28023          	sb	a0,0(t0)
   24874:	00008067          	ret
   24878:	00008c13          	mv	s8,ra
   2487c:	00050793          	mv	a5,a0
   24880:	0007c503          	lbu	a0,0(a5)
   24884:	00050863          	beqz	a0,24894 <bss_begin+0x2894>
   24888:	fd9ff0ef          	jal	ra,24860 <bss_begin+0x2860>
   2488c:	00178793          	addi	a5,a5,1
   24890:	ff1ff06f          	j	24880 <bss_begin+0x2880>
   24894:	000c0093          	mv	ra,s8
   24898:	00008067          	ret
   2489c:	00000293          	li	t0,0
   248a0:	00b53023          	sd	a1,0(a0) # 2001000 <_payload_end+0x1fdaff8>
   248a4:	00b53423          	sd	a1,8(a0)
   248a8:	01028293          	addi	t0,t0,16
   248ac:	fec2cae3          	blt	t0,a2,248a0 <bss_begin+0x28a0>
   248b0:	00008067          	ret
   248b4:	0000                	unimp
   248b6:	0000                	unimp
   248b8:	3130                	fld	fa2,96(a0)
   248ba:	3332                	fld	ft6,296(sp)
   248bc:	3534                	fld	fa3,104(a0)
   248be:	3736                	fld	fa4,360(sp)
   248c0:	3938                	fld	fa4,112(a0)
   248c2:	4241                	li	tp,16
   248c4:	46454443          	fmadd.q	fs0,fa0,ft4,fs0,rmm
   248c8:	4a494847          	fmsub.d	fa6,fs2,ft4,fs1,rmm
   248cc:	4e4d4c4b          	fnmsub.q	fs8,fs10,ft4,fs1,rmm
   248d0:	5251504f          	fnmadd.d	ft0,ft2,ft5,fa0,unknown
   248d4:	56555453          	0x56555453
   248d8:	5a595857          	0x5a595857
   248dc:	0000                	unimp
   248de:	0000                	unimp
   248e0:	3130                	fld	fa2,96(a0)
   248e2:	3332                	fld	ft6,296(sp)
   248e4:	3534                	fld	fa3,104(a0)
   248e6:	3736                	fld	fa4,360(sp)
   248e8:	3938                	fld	fa4,112(a0)
   248ea:	6261                	lui	tp,0x18
   248ec:	66656463          	bltu	a0,t1,24f54 <bss_begin+0x2f54>
   248f0:	6a696867          	0x6a696867
   248f4:	6e6d6c6b          	0x6e6d6c6b
   248f8:	7271706f          	j	3c81e <_payload_end+0x16816>
   248fc:	76757473          	csrrci	s0,0x767,10
   24900:	7a797877          	0x7a797877
   24904:	0000                	unimp
   24906:	0000                	unimp
   24908:	4e3c                	lw	a5,88(a2)
   2490a:	4c55                	li	s8,21
   2490c:	3e4c                	fld	fa1,184(a2)
   2490e:	0000                	unimp
   24910:	e004                	sd	s1,0(s0)
   24912:	e034ffff          	0xe034ffff
   24916:	e034ffff          	0xe034ffff
   2491a:	e014ffff          	0xe014ffff
   2491e:	e034ffff          	0xe034ffff
   24922:	e034ffff          	0xe034ffff
   24926:	e034ffff          	0xe034ffff
   2492a:	e034ffff          	0xe034ffff
   2492e:	e034ffff          	0xe034ffff
   24932:	e034ffff          	0xe034ffff
   24936:	e034ffff          	0xe034ffff
   2493a:	dff4ffff          	0xdff4ffff
   2493e:	e034ffff          	0xe034ffff
   24942:	dfe4ffff          	0xdfe4ffff
   24946:	e034ffff          	0xe034ffff
   2494a:	e034ffff          	0xe034ffff
   2494e:	e024ffff          	0xe024ffff
   24952:	e460ffff          	0xe460ffff
   24956:	e484ffff          	0xe484ffff
   2495a:	e484ffff          	0xe484ffff
   2495e:	e484ffff          	0xe484ffff
   24962:	e484ffff          	0xe484ffff
   24966:	e484ffff          	0xe484ffff
   2496a:	e484ffff          	0xe484ffff
   2496e:	e484ffff          	0xe484ffff
   24972:	e484ffff          	0xe484ffff
   24976:	e484ffff          	0xe484ffff
   2497a:	e484ffff          	0xe484ffff
   2497e:	e200ffff          	0xe200ffff
   24982:	e46cffff          	0xe46cffff
   24986:	e484ffff          	0xe484ffff
   2498a:	e484ffff          	0xe484ffff
   2498e:	e484ffff          	0xe484ffff
   24992:	e484ffff          	0xe484ffff
   24996:	e46cffff          	0xe46cffff
   2499a:	e484ffff          	0xe484ffff
   2499e:	e484ffff          	0xe484ffff
   249a2:	e484ffff          	0xe484ffff
   249a6:	e484ffff          	0xe484ffff
   249aa:	e3c0ffff          	0xe3c0ffff
   249ae:	e448ffff          	0xe448ffff
   249b2:	e3f0ffff          	0xe3f0ffff
   249b6:	e484ffff          	0xe484ffff
   249ba:	e484ffff          	0xe484ffff
   249be:	e298ffff          	0xe298ffff
   249c2:	e484ffff          	0xe484ffff
   249c6:	e478ffff          	0xe478ffff
   249ca:	e484ffff          	0xe484ffff
   249ce:	e484ffff          	0xe484ffff
   249d2:	e454ffff          	0xe454ffff
   249d6:	305bffff          	0x305bffff
   249da:	2578                	fld	fa4,200(a0)
   249dc:	3130                	fld	fa2,96(a0)
   249de:	6c36                	ld	s8,328(sp)
   249e0:	2078                	fld	fa4,192(s0)
   249e2:	202d                	0x202d
   249e4:	7830                	ld	a2,112(s0)
   249e6:	3025                	0x3025
   249e8:	3631                	addiw	a2,a2,-20
   249ea:	786c                	ld	a1,240(s0)
   249ec:	205d                	0x205d
   249ee:	7020                	ld	s0,96(s0)
   249f0:	78302063          	0x78302063
   249f4:	3025                	0x3025
   249f6:	3631                	addiw	a2,a2,-20
   249f8:	786c                	ld	a1,240(s0)
   249fa:	0a0d                	addi	s4,s4,3
   249fc:	0000                	unimp
   249fe:	0000                	unimp
   24a00:	6c6c6143          	fmadd.h	ft2,fs8,ft6,fa3,unknown
   24a04:	4620                	lw	s0,72(a2)
   24a06:	6172                	ld	sp,280(sp)
   24a08:	656d                	lui	a0,0x1b
   24a0a:	0d3a                	slli	s10,s10,0xe
   24a0c:	000a                	c.slli	zero,0x2
   24a0e:	0000                	unimp
   24a10:	0a0d                	addi	s4,s4,3
   24a12:	6f42                	ld	t5,16(sp)
   24a14:	6e69746f          	jal	s0,bc0fa <_payload_end+0x960f2>
   24a18:	74612067          	0x74612067
   24a1c:	6120                	ld	s0,64(a0)
   24a1e:	0a0d6d73          	csrrsi	s10,0xa0,26
	...
   25ffe:	0000                	unimp
   26000:	6108                	ld	a0,0(a0)
   26002:	0002                	c.slli64	zero
   26004:	0000                	unimp
	...
