	.file	"kernel.c"
	.option nopic
	.attribute arch, "rv64i2p0_m2p0_a2p0_f2p0_d2p0"
	.attribute unaligned_access, 0
	.attribute stack_align, 16
	.text
.Ltext0:
	.cfi_sections	.debug_frame
	.align	2
	.globl	add_c
	.type	add_c, @function
add_c:
.LFB0:
	.file 1 "src/kernel.c"
	.loc 1 9 1
	.cfi_startproc
	addi	sp,sp,-32
	.cfi_def_cfa_offset 32
	sd	ra,24(sp)
	sd	s0,16(sp)
	.cfi_offset 1, -8
	.cfi_offset 8, -16
	addi	s0,sp,32
	.cfi_def_cfa 8, 0
	mv	a5,a0
	mv	a4,a1
	sw	a5,-20(s0)
	mv	a5,a4
	sw	a5,-24(s0)
	.loc 1 10 2
	call	dump_stack
	.loc 1 11 11
	lw	a4,-20(s0)
	lw	a5,-24(s0)
	addw	a5,a4,a5
	sext.w	a5,a5
	.loc 1 12 1
	mv	a0,a5
	ld	ra,24(sp)
	.cfi_restore 1
	ld	s0,16(sp)
	.cfi_restore 8
	.cfi_def_cfa 2, 32
	addi	sp,sp,32
	.cfi_def_cfa_offset 0
	jr	ra
	.cfi_endproc
.LFE0:
	.size	add_c, .-add_c
	.align	2
	.globl	func1
	.type	func1, @function
func1:
.LFB1:
	.loc 1 15 1
	.cfi_startproc
	addi	sp,sp,-32
	.cfi_def_cfa_offset 32
	sd	ra,24(sp)
	sd	s0,16(sp)
	.cfi_offset 1, -8
	.cfi_offset 8, -16
	addi	s0,sp,32
	.cfi_def_cfa 8, 0
	.loc 1 16 6
	li	a5,1
	sw	a5,-20(s0)
	.loc 1 17 6
	li	a5,2
	sw	a5,-24(s0)
	.loc 1 19 9
	lw	a4,-24(s0)
	lw	a5,-20(s0)
	mv	a1,a4
	mv	a0,a5
	call	add_c
	mv	a5,a0
	.loc 1 20 1
	mv	a0,a5
	ld	ra,24(sp)
	.cfi_restore 1
	ld	s0,16(sp)
	.cfi_restore 8
	.cfi_def_cfa 2, 32
	addi	sp,sp,32
	.cfi_def_cfa_offset 0
	jr	ra
	.cfi_endproc
.LFE1:
	.size	func1, .-func1
	.align	2
	.globl	kernel_main
	.type	kernel_main, @function
kernel_main:
.LFB2:
	.loc 1 23 1
	.cfi_startproc
	addi	sp,sp,-16
	.cfi_def_cfa_offset 16
	sd	ra,8(sp)
	sd	s0,0(sp)
	.cfi_offset 1, -8
	.cfi_offset 8, -16
	addi	s0,sp,16
	.cfi_def_cfa 8, 0
	.loc 1 24 2
	call	sys_clock_init
	.loc 1 25 2
	call	uart_init
	.loc 1 26 2
	call	init_printk_done
	.loc 1 28 2
	call	func1
.L6:
	.loc 1 30 7 discriminator 1
	j	.L6
	.cfi_endproc
.LFE2:
	.size	kernel_main, .-kernel_main
.Letext0: