	.file	"stacktrace.c"
	.option nopic
	.attribute arch, "rv64i2p0_m2p0_a2p0_f2p0_d2p0"
	.attribute unaligned_access, 0
	.attribute stack_align, 16
	.text
.Ltext0:
	.cfi_sections	.debug_frame
	.align	2
	.type	kernel_text, @function
kernel_text:
.LFB0:
	.file 1 "src/stacktrace.c"
	.loc 1 11 1
	.cfi_startproc
	addi	sp,sp,-32
	.cfi_def_cfa_offset 32
	sd	s0,24(sp)
	.cfi_offset 8, -8
	addi	s0,sp,32
	.cfi_def_cfa 8, 0
	sd	a0,-24(s0)
	.loc 1 12 14
	lla	a5,_text
	.loc 1 12 5
	ld	a4,-24(s0)
	bltu	a4,a5,.L2
	.loc 1 13 13 discriminator 1
	lla	a5,_etext
	.loc 1 12 35 discriminator 1
	ld	a4,-24(s0)
	bgeu	a4,a5,.L2
	.loc 1 14 10
	li	a5,1
	j	.L3
.L2:
	.loc 1 16 9
	li	a5,0
.L3:
	.loc 1 17 1
	mv	a0,a5
	ld	s0,24(sp)
	.cfi_restore 8
	.cfi_def_cfa 2, 32
	addi	sp,sp,32
	.cfi_def_cfa_offset 0
	jr	ra
	.cfi_endproc
.LFE0:
	.size	kernel_text, .-kernel_text
	.section	.rodata
	.align	3
.LC0:
	.string	"[0x%016lx - 0x%016lx]  pc 0x%016lx\r\n"
	.text
	.align	2
	.type	walk_stackframe, @function
walk_stackframe:
.LFB1:
	.loc 1 20 1
	.cfi_startproc
	addi	sp,sp,-64
	.cfi_def_cfa_offset 64
	sd	ra,56(sp)
	sd	s0,48(sp)
	.cfi_offset 1, -8
	.cfi_offset 8, -16
	addi	s0,sp,64
	.cfi_def_cfa 8, 0
	.loc 1 26 5
	sd	sp,-24(s0)
	.loc 1 27 5
	lla	a5,walk_stackframe
	sd	a5,-40(s0)
	.loc 1 28 22
	mv	a5,s0
	.loc 1 28 5
	sd	a5,-32(s0)
.L8:
	.loc 1 31 8
	ld	a0,-40(s0)
	call	kernel_text
	mv	a5,a0
	.loc 1 31 6
	beq	a5,zero,.L10
	.loc 1 35 7
	ld	a5,-24(s0)
	addi	a5,a5,16
	sd	a5,-48(s0)
	.loc 1 36 6
	ld	a4,-32(s0)
	ld	a5,-48(s0)
	bltu	a4,a5,.L11
	.loc 1 36 23 discriminator 1
	ld	a5,-32(s0)
	andi	a5,a5,15
	.loc 1 36 17 discriminator 1
	bne	a5,zero,.L11
	.loc 1 43 36
	ld	a5,-32(s0)
	addi	a5,a5,-16
	.loc 1 43 9
	sd	a5,-56(s0)
	.loc 1 44 6
	ld	a5,-32(s0)
	sd	a5,-24(s0)
	.loc 1 45 6
	ld	a5,-56(s0)
	ld	a5,0(a5)
	sd	a5,-32(s0)
	.loc 1 47 13
	ld	a5,-56(s0)
	ld	a5,8(a5)
	.loc 1 47 6
	addi	a5,a5,-4
	sd	a5,-40(s0)
	.loc 1 49 7
	ld	a0,-40(s0)
	call	kernel_text
	mv	a5,a0
	.loc 1 49 6
	beq	a5,zero,.L8
	.loc 1 50 4
	ld	a3,-40(s0)
	ld	a2,-32(s0)
	ld	a1,-24(s0)
	lla	a0,.LC0
	call	printk
	.loc 1 31 6
	j	.L8
.L10:
	.loc 1 32 4
	nop
.L11:
	.loc 1 52 1
	nop
	ld	ra,56(sp)
	.cfi_restore 1
	ld	s0,48(sp)
	.cfi_restore 8
	.cfi_def_cfa 2, 64
	addi	sp,sp,64
	.cfi_def_cfa_offset 0
	jr	ra
	.cfi_endproc
.LFE1:
	.size	walk_stackframe, .-walk_stackframe
	.section	.rodata
	.align	3
.LC1:
	.string	"Call Frame:\r\n"
	.text
	.align	2
	.globl	dump_stack
	.type	dump_stack, @function
dump_stack:
.LFB2:
	.loc 1 55 1
	.cfi_startproc
	addi	sp,sp,-16
	.cfi_def_cfa_offset 16
	sd	ra,8(sp)
	sd	s0,0(sp)
	.cfi_offset 1, -8
	.cfi_offset 8, -16
	addi	s0,sp,16
	.cfi_def_cfa 8, 0
	.loc 1 56 2
	lla	a0,.LC1
	call	printk
	.loc 1 57 2
	call	walk_stackframe
	.loc 1 58 1
	nop
	ld	ra,8(sp)
	.cfi_restore 1
	ld	s0,0(sp)
	.cfi_restore 8
	.cfi_def_cfa 2, 16
	addi	sp,sp,16
	.cfi_def_cfa_offset 0
	jr	ra
	.cfi_endproc
.LFE2:
	.size	dump_stack, .-dump_stack
.Letext0: