
benos_payload.elf:     file format elf64-littleriscv


Disassembly of section .text.boot:

0000000000020000 <_start>:
   20000:	0300006f          	j	20030 <reset>
   20004:	4765                	li	a4,25
   20006:	422e4e4f          	fnmadd.d	ft8,ft8,ft2,fs0,rmm
   2000a:	3054                	fld	fa3,160(s0)
   2000c:	5678                	lw	a4,108(a2)
   2000e:	1234                	addi	a3,sp,296
   20010:	5000                	lw	s0,32(s0)
   20012:	0000                	unimp
   20014:	0030                	addi	a2,sp,8
   20016:	0000                	unimp
   20018:	30303033          	0x30303033
   2001c:	0000                	unimp
   2001e:	0002                	c.slli64	zero
   20020:	0000                	unimp
   20022:	0002                	c.slli64	zero
	...
   2002c:	2e34                	fld	fa3,88(a2)
   2002e:	0030                	addi	a2,sp,8

0000000000020030 <reset>:
   20030:	00001117          	auipc	sp,0x1
   20034:	fd010113          	addi	sp,sp,-48 # 21000 <stacks_start>
   20038:	000012b7          	lui	t0,0x1
   2003c:	00510133          	add	sp,sp,t0
   20040:	4700006f          	j	204b0 <sbi_main>

Disassembly of section .text:

0000000000020044 <read_csr_num>:
   20044:	fd010113          	addi	sp,sp,-48
   20048:	02813423          	sd	s0,40(sp)
   2004c:	00050793          	mv	a5,a0
   20050:	00f12623          	sw	a5,12(sp)
   20054:	00013c23          	sd	zero,24(sp)
   20058:	00c12783          	lw	a5,12(sp)
   2005c:	c607869b          	addiw	a3,a5,-928
   20060:	0006871b          	sext.w	a4,a3
   20064:	01700793          	li	a5,23
   20068:	0ee7e463          	bltu	a5,a4,20150 <read_csr_num+0x10c>
   2006c:	02069793          	slli	a5,a3,0x20
   20070:	0207d793          	srli	a5,a5,0x20
   20074:	00279713          	slli	a4,a5,0x2
   20078:	00000797          	auipc	a5,0x0
   2007c:	50478793          	addi	a5,a5,1284 # 2057c <sbi_main+0xcc>
   20080:	00f707b3          	add	a5,a4,a5
   20084:	0007a783          	lw	a5,0(a5)
   20088:	0007871b          	sext.w	a4,a5
   2008c:	00000797          	auipc	a5,0x0
   20090:	4f078793          	addi	a5,a5,1264 # 2057c <sbi_main+0xcc>
   20094:	00f707b3          	add	a5,a4,a5
   20098:	00078067          	jr	a5
   2009c:	3a0027f3          	csrr	a5,pmpcfg0
   200a0:	00078413          	mv	s0,a5
   200a4:	00040793          	mv	a5,s0
   200a8:	00f13c23          	sd	a5,24(sp)
   200ac:	0a80006f          	j	20154 <read_csr_num+0x110>
   200b0:	3b0027f3          	csrr	a5,pmpaddr0
   200b4:	00078413          	mv	s0,a5
   200b8:	00040793          	mv	a5,s0
   200bc:	00f13c23          	sd	a5,24(sp)
   200c0:	0940006f          	j	20154 <read_csr_num+0x110>
   200c4:	3b1027f3          	csrr	a5,pmpaddr1
   200c8:	00078413          	mv	s0,a5
   200cc:	00040793          	mv	a5,s0
   200d0:	00f13c23          	sd	a5,24(sp)
   200d4:	0800006f          	j	20154 <read_csr_num+0x110>
   200d8:	3b2027f3          	csrr	a5,pmpaddr2
   200dc:	00078413          	mv	s0,a5
   200e0:	00040793          	mv	a5,s0
   200e4:	00f13c23          	sd	a5,24(sp)
   200e8:	06c0006f          	j	20154 <read_csr_num+0x110>
   200ec:	3b3027f3          	csrr	a5,pmpaddr3
   200f0:	00078413          	mv	s0,a5
   200f4:	00040793          	mv	a5,s0
   200f8:	00f13c23          	sd	a5,24(sp)
   200fc:	0580006f          	j	20154 <read_csr_num+0x110>
   20100:	3b4027f3          	csrr	a5,pmpaddr4
   20104:	00078413          	mv	s0,a5
   20108:	00040793          	mv	a5,s0
   2010c:	00f13c23          	sd	a5,24(sp)
   20110:	0440006f          	j	20154 <read_csr_num+0x110>
   20114:	3b5027f3          	csrr	a5,pmpaddr5
   20118:	00078413          	mv	s0,a5
   2011c:	00040793          	mv	a5,s0
   20120:	00f13c23          	sd	a5,24(sp)
   20124:	0300006f          	j	20154 <read_csr_num+0x110>
   20128:	3b6027f3          	csrr	a5,pmpaddr6
   2012c:	00078413          	mv	s0,a5
   20130:	00040793          	mv	a5,s0
   20134:	00f13c23          	sd	a5,24(sp)
   20138:	01c0006f          	j	20154 <read_csr_num+0x110>
   2013c:	3b7027f3          	csrr	a5,pmpaddr7
   20140:	00078413          	mv	s0,a5
   20144:	00040793          	mv	a5,s0
   20148:	00f13c23          	sd	a5,24(sp)
   2014c:	0080006f          	j	20154 <read_csr_num+0x110>
   20150:	00000013          	nop
   20154:	01813783          	ld	a5,24(sp)
   20158:	00078513          	mv	a0,a5
   2015c:	02813403          	ld	s0,40(sp)
   20160:	03010113          	addi	sp,sp,48
   20164:	00008067          	ret

0000000000020168 <write_csr_num>:
   20168:	fa010113          	addi	sp,sp,-96
   2016c:	00050793          	mv	a5,a0
   20170:	00b13023          	sd	a1,0(sp)
   20174:	00f12623          	sw	a5,12(sp)
   20178:	00c12783          	lw	a5,12(sp)
   2017c:	c607869b          	addiw	a3,a5,-928
   20180:	0006871b          	sext.w	a4,a3
   20184:	01700793          	li	a5,23
   20188:	0ee7e463          	bltu	a5,a4,20270 <write_csr_num+0x108>
   2018c:	02069793          	slli	a5,a3,0x20
   20190:	0207d793          	srli	a5,a5,0x20
   20194:	00279713          	slli	a4,a5,0x2
   20198:	00000797          	auipc	a5,0x0
   2019c:	44478793          	addi	a5,a5,1092 # 205dc <sbi_main+0x12c>
   201a0:	00f707b3          	add	a5,a4,a5
   201a4:	0007a783          	lw	a5,0(a5)
   201a8:	0007871b          	sext.w	a4,a5
   201ac:	00000797          	auipc	a5,0x0
   201b0:	43078793          	addi	a5,a5,1072 # 205dc <sbi_main+0x12c>
   201b4:	00f707b3          	add	a5,a4,a5
   201b8:	00078067          	jr	a5
   201bc:	00013783          	ld	a5,0(sp)
   201c0:	00f13c23          	sd	a5,24(sp)
   201c4:	01813783          	ld	a5,24(sp)
   201c8:	3a079073          	csrw	pmpcfg0,a5
   201cc:	0a80006f          	j	20274 <write_csr_num+0x10c>
   201d0:	00013783          	ld	a5,0(sp)
   201d4:	02f13023          	sd	a5,32(sp)
   201d8:	02013783          	ld	a5,32(sp)
   201dc:	3b079073          	csrw	pmpaddr0,a5
   201e0:	0940006f          	j	20274 <write_csr_num+0x10c>
   201e4:	00013783          	ld	a5,0(sp)
   201e8:	02f13423          	sd	a5,40(sp)
   201ec:	02813783          	ld	a5,40(sp)
   201f0:	3b179073          	csrw	pmpaddr1,a5
   201f4:	0800006f          	j	20274 <write_csr_num+0x10c>
   201f8:	00013783          	ld	a5,0(sp)
   201fc:	02f13823          	sd	a5,48(sp)
   20200:	03013783          	ld	a5,48(sp)
   20204:	3b279073          	csrw	pmpaddr2,a5
   20208:	06c0006f          	j	20274 <write_csr_num+0x10c>
   2020c:	00013783          	ld	a5,0(sp)
   20210:	02f13c23          	sd	a5,56(sp)
   20214:	03813783          	ld	a5,56(sp)
   20218:	3b379073          	csrw	pmpaddr3,a5
   2021c:	0580006f          	j	20274 <write_csr_num+0x10c>
   20220:	00013783          	ld	a5,0(sp)
   20224:	04f13023          	sd	a5,64(sp)
   20228:	04013783          	ld	a5,64(sp)
   2022c:	3b479073          	csrw	pmpaddr4,a5
   20230:	0440006f          	j	20274 <write_csr_num+0x10c>
   20234:	00013783          	ld	a5,0(sp)
   20238:	04f13423          	sd	a5,72(sp)
   2023c:	04813783          	ld	a5,72(sp)
   20240:	3b579073          	csrw	pmpaddr5,a5
   20244:	0300006f          	j	20274 <write_csr_num+0x10c>
   20248:	00013783          	ld	a5,0(sp)
   2024c:	04f13823          	sd	a5,80(sp)
   20250:	05013783          	ld	a5,80(sp)
   20254:	3b679073          	csrw	pmpaddr6,a5
   20258:	01c0006f          	j	20274 <write_csr_num+0x10c>
   2025c:	00013783          	ld	a5,0(sp)
   20260:	04f13c23          	sd	a5,88(sp)
   20264:	05813783          	ld	a5,88(sp)
   20268:	3b779073          	csrw	pmpaddr7,a5
   2026c:	0080006f          	j	20274 <write_csr_num+0x10c>
   20270:	00000013          	nop
   20274:	00000013          	nop
   20278:	06010113          	addi	sp,sp,96
   2027c:	00008067          	ret

0000000000020280 <log2roundup>:
   20280:	fe010113          	addi	sp,sp,-32
   20284:	00a13423          	sd	a0,8(sp)
   20288:	00013c23          	sd	zero,24(sp)
   2028c:	02c0006f          	j	202b8 <log2roundup+0x38>
   20290:	01813783          	ld	a5,24(sp)
   20294:	0007879b          	sext.w	a5,a5
   20298:	00078713          	mv	a4,a5
   2029c:	00100793          	li	a5,1
   202a0:	00e797b3          	sll	a5,a5,a4
   202a4:	00813703          	ld	a4,8(sp)
   202a8:	02e7f063          	bgeu	a5,a4,202c8 <log2roundup+0x48>
   202ac:	01813783          	ld	a5,24(sp)
   202b0:	00178793          	addi	a5,a5,1
   202b4:	00f13c23          	sd	a5,24(sp)
   202b8:	01813703          	ld	a4,24(sp)
   202bc:	03f00793          	li	a5,63
   202c0:	fce7f8e3          	bgeu	a5,a4,20290 <log2roundup+0x10>
   202c4:	0080006f          	j	202cc <log2roundup+0x4c>
   202c8:	00000013          	nop
   202cc:	01813783          	ld	a5,24(sp)
   202d0:	00078513          	mv	a0,a5
   202d4:	02010113          	addi	sp,sp,32
   202d8:	00008067          	ret

00000000000202dc <sbi_set_pmp>:
   202dc:	fa010113          	addi	sp,sp,-96
   202e0:	04113c23          	sd	ra,88(sp)
   202e4:	00050793          	mv	a5,a0
   202e8:	00b13823          	sd	a1,16(sp)
   202ec:	00c13423          	sd	a2,8(sp)
   202f0:	00d13023          	sd	a3,0(sp)
   202f4:	00f12e23          	sw	a5,28(sp)
   202f8:	01c12783          	lw	a5,28(sp)
   202fc:	0007871b          	sext.w	a4,a5
   20300:	00800793          	li	a5,8
   20304:	00e7d663          	bge	a5,a4,20310 <sbi_set_pmp+0x34>
   20308:	fff00793          	li	a5,-1
   2030c:	1940006f          	j	204a0 <sbi_set_pmp+0x1c4>
   20310:	00813503          	ld	a0,8(sp)
   20314:	f6dff0ef          	jal	ra,20280 <log2roundup>
   20318:	00050793          	mv	a5,a0
   2031c:	04f12223          	sw	a5,68(sp)
   20320:	04412783          	lw	a5,68(sp)
   20324:	0007871b          	sext.w	a4,a5
   20328:	00100793          	li	a5,1
   2032c:	00e7c663          	blt	a5,a4,20338 <sbi_set_pmp+0x5c>
   20330:	fff00793          	li	a5,-1
   20334:	16c0006f          	j	204a0 <sbi_set_pmp+0x1c4>
   20338:	01013783          	ld	a5,16(sp)
   2033c:	0027d793          	srli	a5,a5,0x2
   20340:	04f13423          	sd	a5,72(sp)
   20344:	01c12783          	lw	a5,28(sp)
   20348:	4027d79b          	sraiw	a5,a5,0x2
   2034c:	0007879b          	sext.w	a5,a5
   20350:	3a07879b          	addiw	a5,a5,928
   20354:	0007879b          	sext.w	a5,a5
   20358:	ffe7f793          	andi	a5,a5,-2
   2035c:	04f12023          	sw	a5,64(sp)
   20360:	01c12783          	lw	a5,28(sp)
   20364:	0037979b          	slliw	a5,a5,0x3
   20368:	0007879b          	sext.w	a5,a5
   2036c:	0387f793          	andi	a5,a5,56
   20370:	02f12e23          	sw	a5,60(sp)
   20374:	01c12783          	lw	a5,28(sp)
   20378:	3b07879b          	addiw	a5,a5,944
   2037c:	02f12c23          	sw	a5,56(sp)
   20380:	00013783          	ld	a5,0(sp)
   20384:	fe77f793          	andi	a5,a5,-25
   20388:	00f13023          	sd	a5,0(sp)
   2038c:	04412783          	lw	a5,68(sp)
   20390:	0007871b          	sext.w	a4,a5
   20394:	00200793          	li	a5,2
   20398:	00f71663          	bne	a4,a5,203a4 <sbi_set_pmp+0xc8>
   2039c:	01000793          	li	a5,16
   203a0:	0080006f          	j	203a8 <sbi_set_pmp+0xcc>
   203a4:	01800793          	li	a5,24
   203a8:	00013703          	ld	a4,0(sp)
   203ac:	00f767b3          	or	a5,a4,a5
   203b0:	00f13023          	sd	a5,0(sp)
   203b4:	03c12783          	lw	a5,60(sp)
   203b8:	0ff00713          	li	a4,255
   203bc:	00f717b3          	sll	a5,a4,a5
   203c0:	fff7c793          	not	a5,a5
   203c4:	02f13823          	sd	a5,48(sp)
   203c8:	04012783          	lw	a5,64(sp)
   203cc:	00078513          	mv	a0,a5
   203d0:	c75ff0ef          	jal	ra,20044 <read_csr_num>
   203d4:	00050713          	mv	a4,a0
   203d8:	03013783          	ld	a5,48(sp)
   203dc:	00e7f7b3          	and	a5,a5,a4
   203e0:	02f13423          	sd	a5,40(sp)
   203e4:	03c12783          	lw	a5,60(sp)
   203e8:	00013703          	ld	a4,0(sp)
   203ec:	00f71733          	sll	a4,a4,a5
   203f0:	03013783          	ld	a5,48(sp)
   203f4:	fff7c793          	not	a5,a5
   203f8:	00f777b3          	and	a5,a4,a5
   203fc:	02813703          	ld	a4,40(sp)
   20400:	00f767b3          	or	a5,a4,a5
   20404:	02f13423          	sd	a5,40(sp)
   20408:	04412783          	lw	a5,68(sp)
   2040c:	0007871b          	sext.w	a4,a5
   20410:	00200793          	li	a5,2
   20414:	06e7d463          	bge	a5,a4,2047c <sbi_set_pmp+0x1a0>
   20418:	04412783          	lw	a5,68(sp)
   2041c:	0007871b          	sext.w	a4,a5
   20420:	04000793          	li	a5,64
   20424:	00f71863          	bne	a4,a5,20434 <sbi_set_pmp+0x158>
   20428:	fff00793          	li	a5,-1
   2042c:	04f13423          	sd	a5,72(sp)
   20430:	04c0006f          	j	2047c <sbi_set_pmp+0x1a0>
   20434:	04412783          	lw	a5,68(sp)
   20438:	ffe7879b          	addiw	a5,a5,-2
   2043c:	0007879b          	sext.w	a5,a5
   20440:	00078713          	mv	a4,a5
   20444:	00100793          	li	a5,1
   20448:	00e797b3          	sll	a5,a5,a4
   2044c:	fff78793          	addi	a5,a5,-1
   20450:	02f13023          	sd	a5,32(sp)
   20454:	02013783          	ld	a5,32(sp)
   20458:	fff7c793          	not	a5,a5
   2045c:	04813703          	ld	a4,72(sp)
   20460:	00f777b3          	and	a5,a4,a5
   20464:	04f13423          	sd	a5,72(sp)
   20468:	02013783          	ld	a5,32(sp)
   2046c:	0017d793          	srli	a5,a5,0x1
   20470:	04813703          	ld	a4,72(sp)
   20474:	00f767b3          	or	a5,a4,a5
   20478:	04f13423          	sd	a5,72(sp)
   2047c:	03812783          	lw	a5,56(sp)
   20480:	04813583          	ld	a1,72(sp)
   20484:	00078513          	mv	a0,a5
   20488:	ce1ff0ef          	jal	ra,20168 <write_csr_num>
   2048c:	04012783          	lw	a5,64(sp)
   20490:	02813583          	ld	a1,40(sp)
   20494:	00078513          	mv	a0,a5
   20498:	cd1ff0ef          	jal	ra,20168 <write_csr_num>
   2049c:	00000793          	li	a5,0
   204a0:	00078513          	mv	a0,a5
   204a4:	05813083          	ld	ra,88(sp)
   204a8:	06010113          	addi	sp,sp,96
   204ac:	00008067          	ret

00000000000204b0 <sbi_main>:
   204b0:	fb010113          	addi	sp,sp,-80
   204b4:	04113423          	sd	ra,72(sp)
   204b8:	04813023          	sd	s0,64(sp)
   204bc:	00700693          	li	a3,7
   204c0:	fff00613          	li	a2,-1
   204c4:	00000593          	li	a1,0
   204c8:	00000513          	li	a0,0
   204cc:	e11ff0ef          	jal	ra,202dc <sbi_set_pmp>
   204d0:	300027f3          	csrr	a5,mstatus
   204d4:	00078413          	mv	s0,a5
   204d8:	00040793          	mv	a5,s0
   204dc:	02f13c23          	sd	a5,56(sp)
   204e0:	03813703          	ld	a4,56(sp)
   204e4:	ffffe7b7          	lui	a5,0xffffe
   204e8:	7ff78793          	addi	a5,a5,2047 # ffffffffffffe7ff <_payload_end+0xfffffffffffd97ff>
   204ec:	00f77733          	and	a4,a4,a5
   204f0:	000017b7          	lui	a5,0x1
   204f4:	80078793          	addi	a5,a5,-2048 # 800 <__bin_size-0x4800>
   204f8:	00f767b3          	or	a5,a4,a5
   204fc:	02f13c23          	sd	a5,56(sp)
   20500:	03813783          	ld	a5,56(sp)
   20504:	f7f7f793          	andi	a5,a5,-129
   20508:	02f13c23          	sd	a5,56(sp)
   2050c:	03813783          	ld	a5,56(sp)
   20510:	02f13823          	sd	a5,48(sp)
   20514:	03013783          	ld	a5,48(sp)
   20518:	30079073          	csrw	mstatus,a5
   2051c:	000227b7          	lui	a5,0x22
   20520:	02f13423          	sd	a5,40(sp)
   20524:	02813783          	ld	a5,40(sp)
   20528:	34179073          	csrw	mepc,a5
   2052c:	000207b7          	lui	a5,0x20
   20530:	02f13023          	sd	a5,32(sp)
   20534:	02013783          	ld	a5,32(sp)
   20538:	30579073          	csrw	mtvec,a5
   2053c:	000227b7          	lui	a5,0x22
   20540:	00f13c23          	sd	a5,24(sp)
   20544:	01813783          	ld	a5,24(sp)
   20548:	10579073          	csrw	stvec,a5
   2054c:	00013823          	sd	zero,16(sp)
   20550:	01013783          	ld	a5,16(sp)
   20554:	10479073          	csrw	sie,a5
   20558:	00013423          	sd	zero,8(sp)
   2055c:	00813783          	ld	a5,8(sp)
   20560:	18079073          	csrw	satp,a5
   20564:	30200073          	mret
   20568:	00000013          	nop
   2056c:	04813083          	ld	ra,72(sp)
   20570:	04013403          	ld	s0,64(sp)
   20574:	05010113          	addi	sp,sp,80
   20578:	00008067          	ret

Disassembly of section .payload:

0000000000022000 <bss_begin>:
   22000:	10401073          	csrw	sie,zero
   22004:	5a8010ef          	jal	ra,235ac <bss_begin+0x15ac>
   22008:	00000097          	auipc	ra,0x0
   2200c:	01c080e7          	jalr	28(ra) # 22024 <bss_begin+0x24>
   22010:	00002117          	auipc	sp,0x2
   22014:	ff010113          	addi	sp,sp,-16 # 24000 <bss_begin+0x2000>
   22018:	000012b7          	lui	t0,0x1
   2201c:	00510133          	add	sp,sp,t0
   22020:	1280006f          	j	22148 <bss_begin+0x148>
   22024:	00008493          	mv	s1,ra
   22028:	00001517          	auipc	a0,0x1
   2202c:	6f850513          	addi	a0,a0,1784 # 23720 <bss_begin+0x1720>
   22030:	63c010ef          	jal	ra,2366c <bss_begin+0x166c>
   22034:	00048093          	mv	ra,s1
   22038:	00008067          	ret
   2203c:	0000                	unimp
   2203e:	0000                	unimp
   22040:	fe010113          	addi	sp,sp,-32
   22044:	00113c23          	sd	ra,24(sp)
   22048:	410010ef          	jal	ra,23458 <bss_begin+0x1458>
   2204c:	440010ef          	jal	ra,2348c <bss_begin+0x148c>
   22050:	44c010ef          	jal	ra,2349c <bss_begin+0x149c>
   22054:	490010ef          	jal	ra,234e4 <bss_begin+0x14e4>
   22058:	00900593          	li	a1,9
   2205c:	00a00513          	li	a0,10
   22060:	4c8010ef          	jal	ra,23528 <bss_begin+0x1528>
   22064:	00a13423          	sd	a0,8(sp)
   22068:	00813783          	ld	a5,8(sp)
   2206c:	00079a63          	bnez	a5,22080 <bss_begin+0x80>
   22070:	00001517          	auipc	a0,0x1
   22074:	63850513          	addi	a0,a0,1592 # 236a8 <bss_begin+0x16a8>
   22078:	5e9000ef          	jal	ra,22e60 <bss_begin+0xe60>
   2207c:	0100006f          	j	2208c <bss_begin+0x8c>
   22080:	00001517          	auipc	a0,0x1
   22084:	64050513          	addi	a0,a0,1600 # 236c0 <bss_begin+0x16c0>
   22088:	5d9000ef          	jal	ra,22e60 <bss_begin+0xe60>
   2208c:	00a00593          	li	a1,10
   22090:	00900513          	li	a0,9
   22094:	494010ef          	jal	ra,23528 <bss_begin+0x1528>
   22098:	00a13023          	sd	a0,0(sp)
   2209c:	00013703          	ld	a4,0(sp)
   220a0:	fff00793          	li	a5,-1
   220a4:	00f71a63          	bne	a4,a5,220b8 <bss_begin+0xb8>
   220a8:	00001517          	auipc	a0,0x1
   220ac:	60050513          	addi	a0,a0,1536 # 236a8 <bss_begin+0x16a8>
   220b0:	5b1000ef          	jal	ra,22e60 <bss_begin+0xe60>
   220b4:	0100006f          	j	220c4 <bss_begin+0xc4>
   220b8:	00001517          	auipc	a0,0x1
   220bc:	60850513          	addi	a0,a0,1544 # 236c0 <bss_begin+0x16c0>
   220c0:	5a1000ef          	jal	ra,22e60 <bss_begin+0xe60>
   220c4:	00900593          	li	a1,9
   220c8:	00000513          	li	a0,0
   220cc:	474010ef          	jal	ra,23540 <bss_begin+0x1540>
   220d0:	00a13423          	sd	a0,8(sp)
   220d4:	00813703          	ld	a4,8(sp)
   220d8:	00b00793          	li	a5,11
   220dc:	00f71863          	bne	a4,a5,220ec <bss_begin+0xec>
   220e0:	00001517          	auipc	a0,0x1
   220e4:	60050513          	addi	a0,a0,1536 # 236e0 <bss_begin+0x16e0>
   220e8:	579000ef          	jal	ra,22e60 <bss_begin+0xe60>
   220ec:	00200593          	li	a1,2
   220f0:	00500513          	li	a0,5
   220f4:	44c010ef          	jal	ra,23540 <bss_begin+0x1540>
   220f8:	00a13023          	sd	a0,0(sp)
   220fc:	00013703          	ld	a4,0(sp)
   22100:	00100793          	li	a5,1
   22104:	00f71863          	bne	a4,a5,22114 <bss_begin+0x114>
   22108:	00001517          	auipc	a0,0x1
   2210c:	5d850513          	addi	a0,a0,1496 # 236e0 <bss_begin+0x16e0>
   22110:	551000ef          	jal	ra,22e60 <bss_begin+0xe60>
   22114:	444010ef          	jal	ra,23558 <bss_begin+0x1558>
   22118:	02800613          	li	a2,40
   2211c:	05500593          	li	a1,85
   22120:	00020537          	lui	a0,0x20
   22124:	270000ef          	jal	ra,22394 <bss_begin+0x394>
   22128:	460010ef          	jal	ra,23588 <bss_begin+0x1588>
   2212c:	00001517          	auipc	a0,0x1
   22130:	5c450513          	addi	a0,a0,1476 # 236f0 <bss_begin+0x16f0>
   22134:	52d000ef          	jal	ra,22e60 <bss_begin+0xe60>
   22138:	00000013          	nop
   2213c:	01813083          	ld	ra,24(sp)
   22140:	02010113          	addi	sp,sp,32
   22144:	00008067          	ret
   22148:	ff010113          	addi	sp,sp,-16
   2214c:	00113423          	sd	ra,8(sp)
   22150:	139000ef          	jal	ra,22a88 <bss_begin+0xa88>
   22154:	215000ef          	jal	ra,22b68 <bss_begin+0xb68>
   22158:	00001517          	auipc	a0,0x1
   2215c:	5b050513          	addi	a0,a0,1456 # 23708 <bss_begin+0x1708>
   22160:	501000ef          	jal	ra,22e60 <bss_begin+0xe60>
   22164:	eddff0ef          	jal	ra,22040 <bss_begin+0x40>
   22168:	0000006f          	j	22168 <bss_begin+0x168>
   2216c:	fd010113          	addi	sp,sp,-48
   22170:	00a13c23          	sd	a0,24(sp)
   22174:	00b13823          	sd	a1,16(sp)
   22178:	00060793          	mv	a5,a2
   2217c:	00f12623          	sw	a5,12(sp)
   22180:	02012623          	sw	zero,44(sp)
   22184:	01013603          	ld	a2,16(sp)
   22188:	01813683          	ld	a3,24(sp)
   2218c:	00c12703          	lw	a4,12(sp)
   22190:	02c12783          	lw	a5,44(sp)
   22194:	00c6b023          	sd	a2,0(a3)
   22198:	00c6b423          	sd	a2,8(a3)
   2219c:	01078793          	addi	a5,a5,16 # 22010 <bss_begin+0x10>
   221a0:	fee7cae3          	blt	a5,a4,22194 <bss_begin+0x194>
   221a4:	00d13c23          	sd	a3,24(sp)
   221a8:	00e12623          	sw	a4,12(sp)
   221ac:	02f12623          	sw	a5,44(sp)
   221b0:	00000013          	nop
   221b4:	03010113          	addi	sp,sp,48
   221b8:	00008067          	ret
   221bc:	fd010113          	addi	sp,sp,-48
   221c0:	00a13c23          	sd	a0,24(sp)
   221c4:	00058793          	mv	a5,a1
   221c8:	00c13423          	sd	a2,8(sp)
   221cc:	00f12a23          	sw	a5,20(sp)
   221d0:	01813783          	ld	a5,24(sp)
   221d4:	02f13423          	sd	a5,40(sp)
   221d8:	01c0006f          	j	221f4 <bss_begin+0x1f4>
   221dc:	02813783          	ld	a5,40(sp)
   221e0:	00178713          	addi	a4,a5,1
   221e4:	02e13423          	sd	a4,40(sp)
   221e8:	01412703          	lw	a4,20(sp)
   221ec:	0ff77713          	andi	a4,a4,255
   221f0:	00e78023          	sb	a4,0(a5)
   221f4:	00813783          	ld	a5,8(sp)
   221f8:	fff78713          	addi	a4,a5,-1
   221fc:	00e13423          	sd	a4,8(sp)
   22200:	fc079ee3          	bnez	a5,221dc <bss_begin+0x1dc>
   22204:	01813783          	ld	a5,24(sp)
   22208:	00078513          	mv	a0,a5
   2220c:	03010113          	addi	sp,sp,48
   22210:	00008067          	ret
   22214:	f9010113          	addi	sp,sp,-112
   22218:	06113423          	sd	ra,104(sp)
   2221c:	00a13c23          	sd	a0,24(sp)
   22220:	00058793          	mv	a5,a1
   22224:	00c13423          	sd	a2,8(sp)
   22228:	00f12a23          	sw	a5,20(sp)
   2222c:	01813783          	ld	a5,24(sp)
   22230:	04f13c23          	sd	a5,88(sp)
   22234:	01000793          	li	a5,16
   22238:	02f13c23          	sd	a5,56(sp)
   2223c:	00813783          	ld	a5,8(sp)
   22240:	04f13823          	sd	a5,80(sp)
   22244:	05813783          	ld	a5,88(sp)
   22248:	02f13823          	sd	a5,48(sp)
   2224c:	04013023          	sd	zero,64(sp)
   22250:	04012623          	sw	zero,76(sp)
   22254:	0340006f          	j	22288 <bss_begin+0x288>
   22258:	01412783          	lw	a5,20(sp)
   2225c:	0ff7f793          	andi	a5,a5,255
   22260:	04c12703          	lw	a4,76(sp)
   22264:	0037171b          	slliw	a4,a4,0x3
   22268:	0007071b          	sext.w	a4,a4
   2226c:	00e797b3          	sll	a5,a5,a4
   22270:	04013703          	ld	a4,64(sp)
   22274:	00f767b3          	or	a5,a4,a5
   22278:	04f13023          	sd	a5,64(sp)
   2227c:	04c12783          	lw	a5,76(sp)
   22280:	0017879b          	addiw	a5,a5,1
   22284:	04f12623          	sw	a5,76(sp)
   22288:	04c12783          	lw	a5,76(sp)
   2228c:	0007871b          	sext.w	a4,a5
   22290:	00700793          	li	a5,7
   22294:	fce7d2e3          	bge	a5,a4,22258 <bss_begin+0x258>
   22298:	03813783          	ld	a5,56(sp)
   2229c:	fff78713          	addi	a4,a5,-1
   222a0:	03013783          	ld	a5,48(sp)
   222a4:	00f777b3          	and	a5,a4,a5
   222a8:	04078e63          	beqz	a5,22304 <bss_begin+0x304>
   222ac:	03813783          	ld	a5,56(sp)
   222b0:	fff78793          	addi	a5,a5,-1
   222b4:	03013703          	ld	a4,48(sp)
   222b8:	00f777b3          	and	a5,a4,a5
   222bc:	02f13423          	sd	a5,40(sp)
   222c0:	03813703          	ld	a4,56(sp)
   222c4:	02813783          	ld	a5,40(sp)
   222c8:	40f707b3          	sub	a5,a4,a5
   222cc:	02f13423          	sd	a5,40(sp)
   222d0:	01412783          	lw	a5,20(sp)
   222d4:	02813603          	ld	a2,40(sp)
   222d8:	00078593          	mv	a1,a5
   222dc:	05813503          	ld	a0,88(sp)
   222e0:	eddff0ef          	jal	ra,221bc <bss_begin+0x1bc>
   222e4:	05813703          	ld	a4,88(sp)
   222e8:	02813783          	ld	a5,40(sp)
   222ec:	00f707b3          	add	a5,a4,a5
   222f0:	04f13c23          	sd	a5,88(sp)
   222f4:	00813703          	ld	a4,8(sp)
   222f8:	02813783          	ld	a5,40(sp)
   222fc:	40f707b3          	sub	a5,a4,a5
   22300:	04f13823          	sd	a5,80(sp)
   22304:	05013703          	ld	a4,80(sp)
   22308:	03813783          	ld	a5,56(sp)
   2230c:	06e7fa63          	bgeu	a5,a4,22380 <bss_begin+0x380>
   22310:	05013703          	ld	a4,80(sp)
   22314:	03813783          	ld	a5,56(sp)
   22318:	02f757b3          	divu	a5,a4,a5
   2231c:	02f12223          	sw	a5,36(sp)
   22320:	05013703          	ld	a4,80(sp)
   22324:	03813783          	ld	a5,56(sp)
   22328:	02f777b3          	remu	a5,a4,a5
   2232c:	04f13823          	sd	a5,80(sp)
   22330:	02412783          	lw	a5,36(sp)
   22334:	0047979b          	slliw	a5,a5,0x4
   22338:	0007879b          	sext.w	a5,a5
   2233c:	00078613          	mv	a2,a5
   22340:	04013583          	ld	a1,64(sp)
   22344:	05813503          	ld	a0,88(sp)
   22348:	e25ff0ef          	jal	ra,2216c <bss_begin+0x16c>
   2234c:	05013783          	ld	a5,80(sp)
   22350:	02078863          	beqz	a5,22380 <bss_begin+0x380>
   22354:	02412783          	lw	a5,36(sp)
   22358:	0047979b          	slliw	a5,a5,0x4
   2235c:	0007879b          	sext.w	a5,a5
   22360:	00078713          	mv	a4,a5
   22364:	05813783          	ld	a5,88(sp)
   22368:	00e787b3          	add	a5,a5,a4
   2236c:	01412703          	lw	a4,20(sp)
   22370:	05013603          	ld	a2,80(sp)
   22374:	00070593          	mv	a1,a4
   22378:	00078513          	mv	a0,a5
   2237c:	e41ff0ef          	jal	ra,221bc <bss_begin+0x1bc>
   22380:	01813783          	ld	a5,24(sp)
   22384:	00078513          	mv	a0,a5
   22388:	06813083          	ld	ra,104(sp)
   2238c:	07010113          	addi	sp,sp,112
   22390:	00008067          	ret
   22394:	fd010113          	addi	sp,sp,-48
   22398:	02113423          	sd	ra,40(sp)
   2239c:	00a13c23          	sd	a0,24(sp)
   223a0:	00058793          	mv	a5,a1
   223a4:	00c13423          	sd	a2,8(sp)
   223a8:	00f12a23          	sw	a5,20(sp)
   223ac:	01412783          	lw	a5,20(sp)
   223b0:	00813603          	ld	a2,8(sp)
   223b4:	00078593          	mv	a1,a5
   223b8:	01813503          	ld	a0,24(sp)
   223bc:	e59ff0ef          	jal	ra,22214 <bss_begin+0x214>
   223c0:	00050793          	mv	a5,a0
   223c4:	00078513          	mv	a0,a5
   223c8:	02813083          	ld	ra,40(sp)
   223cc:	03010113          	addi	sp,sp,48
   223d0:	00008067          	ret
   223d4:	ff010113          	addi	sp,sp,-16
   223d8:	00a13423          	sd	a0,8(sp)
   223dc:	00813783          	ld	a5,8(sp)
   223e0:	0007a783          	lw	a5,0(a5)
   223e4:	0007879b          	sext.w	a5,a5
   223e8:	00078513          	mv	a0,a5
   223ec:	01010113          	addi	sp,sp,16
   223f0:	00008067          	ret
   223f4:	ff010113          	addi	sp,sp,-16
   223f8:	00a13423          	sd	a0,8(sp)
   223fc:	00058793          	mv	a5,a1
   22400:	00f12223          	sw	a5,4(sp)
   22404:	00813783          	ld	a5,8(sp)
   22408:	00412703          	lw	a4,4(sp)
   2240c:	00e7a023          	sw	a4,0(a5)
   22410:	00000013          	nop
   22414:	01010113          	addi	sp,sp,16
   22418:	00008067          	ret
   2241c:	ff010113          	addi	sp,sp,-16
   22420:	00a13423          	sd	a0,8(sp)
   22424:	00813783          	ld	a5,8(sp)
   22428:	00a79793          	slli	a5,a5,0xa
   2242c:	00f13423          	sd	a5,8(sp)
   22430:	00000013          	nop
   22434:	00813783          	ld	a5,8(sp)
   22438:	fff78713          	addi	a4,a5,-1
   2243c:	00e13423          	sd	a4,8(sp)
   22440:	fe079ae3          	bnez	a5,22434 <bss_begin+0x434>
   22444:	00000013          	nop
   22448:	00000013          	nop
   2244c:	01010113          	addi	sp,sp,16
   22450:	00008067          	ret
   22454:	fe010113          	addi	sp,sp,-32
   22458:	00113c23          	sd	ra,24(sp)
   2245c:	30100593          	li	a1,769
   22460:	020027b7          	lui	a5,0x2002
   22464:	d0078513          	addi	a0,a5,-768 # 2001d00 <_payload_end+0x1fdcd00>
   22468:	f8dff0ef          	jal	ra,223f4 <bss_begin+0x3f4>
   2246c:	00100513          	li	a0,1
   22470:	fadff0ef          	jal	ra,2241c <bss_begin+0x41c>
   22474:	02001537          	lui	a0,0x2001
   22478:	f5dff0ef          	jal	ra,223d4 <bss_begin+0x3d4>
   2247c:	00050793          	mv	a5,a0
   22480:	00f12623          	sw	a5,12(sp)
   22484:	00c12703          	lw	a4,12(sp)
   22488:	f80007b7          	lui	a5,0xf8000
   2248c:	fff78793          	addi	a5,a5,-1 # fffffffff7ffffff <_payload_end+0xfffffffff7fdafff>
   22490:	00f777b3          	and	a5,a4,a5
   22494:	00f12623          	sw	a5,12(sp)
   22498:	00c12783          	lw	a5,12(sp)
   2249c:	00078593          	mv	a1,a5
   224a0:	02001537          	lui	a0,0x2001
   224a4:	f51ff0ef          	jal	ra,223f4 <bss_begin+0x3f4>
   224a8:	02001537          	lui	a0,0x2001
   224ac:	f29ff0ef          	jal	ra,223d4 <bss_begin+0x3d4>
   224b0:	00050793          	mv	a5,a0
   224b4:	00f12623          	sw	a5,12(sp)
   224b8:	00c12703          	lw	a4,12(sp)
   224bc:	400007b7          	lui	a5,0x40000
   224c0:	00f767b3          	or	a5,a4,a5
   224c4:	00f12623          	sw	a5,12(sp)
   224c8:	00c12783          	lw	a5,12(sp)
   224cc:	00078593          	mv	a1,a5
   224d0:	02001537          	lui	a0,0x2001
   224d4:	f21ff0ef          	jal	ra,223f4 <bss_begin+0x3f4>
   224d8:	00500513          	li	a0,5
   224dc:	f41ff0ef          	jal	ra,2241c <bss_begin+0x41c>
   224e0:	02001537          	lui	a0,0x2001
   224e4:	ef1ff0ef          	jal	ra,223d4 <bss_begin+0x3d4>
   224e8:	00050793          	mv	a5,a0
   224ec:	00f12623          	sw	a5,12(sp)
   224f0:	00c12703          	lw	a4,12(sp)
   224f4:	fffc07b7          	lui	a5,0xfffc0
   224f8:	0fc78793          	addi	a5,a5,252 # fffffffffffc00fc <_payload_end+0xfffffffffff9b0fc>
   224fc:	00f777b3          	and	a5,a4,a5
   22500:	00f12623          	sw	a5,12(sp)
   22504:	00c12703          	lw	a4,12(sp)
   22508:	000037b7          	lui	a5,0x3
   2250c:	90078793          	addi	a5,a5,-1792 # 2900 <__bin_size-0x2700>
   22510:	00f767b3          	or	a5,a4,a5
   22514:	00f12623          	sw	a5,12(sp)
   22518:	00c12783          	lw	a5,12(sp)
   2251c:	00078593          	mv	a1,a5
   22520:	02001537          	lui	a0,0x2001
   22524:	ed1ff0ef          	jal	ra,223f4 <bss_begin+0x3f4>
   22528:	02001537          	lui	a0,0x2001
   2252c:	ea9ff0ef          	jal	ra,223d4 <bss_begin+0x3d4>
   22530:	00050793          	mv	a5,a0
   22534:	00f12623          	sw	a5,12(sp)
   22538:	00c12703          	lw	a4,12(sp)
   2253c:	200007b7          	lui	a5,0x20000
   22540:	00f767b3          	or	a5,a4,a5
   22544:	00f12623          	sw	a5,12(sp)
   22548:	00c12783          	lw	a5,12(sp)
   2254c:	00078593          	mv	a1,a5
   22550:	02001537          	lui	a0,0x2001
   22554:	ea1ff0ef          	jal	ra,223f4 <bss_begin+0x3f4>
   22558:	02001537          	lui	a0,0x2001
   2255c:	e79ff0ef          	jal	ra,223d4 <bss_begin+0x3d4>
   22560:	00050793          	mv	a5,a0
   22564:	00f12623          	sw	a5,12(sp)
   22568:	00c12703          	lw	a4,12(sp)
   2256c:	800007b7          	lui	a5,0x80000
   22570:	00f767b3          	or	a5,a4,a5
   22574:	00f12623          	sw	a5,12(sp)
   22578:	00c12783          	lw	a5,12(sp)
   2257c:	00078593          	mv	a1,a5
   22580:	02001537          	lui	a0,0x2001
   22584:	e71ff0ef          	jal	ra,223f4 <bss_begin+0x3f4>
   22588:	00000013          	nop
   2258c:	02001537          	lui	a0,0x2001
   22590:	e45ff0ef          	jal	ra,223d4 <bss_begin+0x3d4>
   22594:	00050793          	mv	a5,a0
   22598:	0007879b          	sext.w	a5,a5
   2259c:	00078713          	mv	a4,a5
   225a0:	100007b7          	lui	a5,0x10000
   225a4:	00f777b3          	and	a5,a4,a5
   225a8:	0007879b          	sext.w	a5,a5
   225ac:	fe0780e3          	beqz	a5,2258c <bss_begin+0x58c>
   225b0:	01400513          	li	a0,20
   225b4:	e69ff0ef          	jal	ra,2241c <bss_begin+0x41c>
   225b8:	02001537          	lui	a0,0x2001
   225bc:	e19ff0ef          	jal	ra,223d4 <bss_begin+0x3d4>
   225c0:	00050793          	mv	a5,a0
   225c4:	00f12623          	sw	a5,12(sp)
   225c8:	00c12703          	lw	a4,12(sp)
   225cc:	080007b7          	lui	a5,0x8000
   225d0:	00f767b3          	or	a5,a4,a5
   225d4:	00f12623          	sw	a5,12(sp)
   225d8:	00c12783          	lw	a5,12(sp)
   225dc:	00078593          	mv	a1,a5
   225e0:	02001537          	lui	a0,0x2001
   225e4:	e11ff0ef          	jal	ra,223f4 <bss_begin+0x3f4>
   225e8:	02001537          	lui	a0,0x2001
   225ec:	de9ff0ef          	jal	ra,223d4 <bss_begin+0x3d4>
   225f0:	00050793          	mv	a5,a0
   225f4:	00f12623          	sw	a5,12(sp)
   225f8:	00c12703          	lw	a4,12(sp)
   225fc:	e00007b7          	lui	a5,0xe0000
   22600:	fff78793          	addi	a5,a5,-1 # ffffffffdfffffff <_payload_end+0xffffffffdffdafff>
   22604:	00f777b3          	and	a5,a4,a5
   22608:	00f12623          	sw	a5,12(sp)
   2260c:	00c12783          	lw	a5,12(sp)
   22610:	00078593          	mv	a1,a5
   22614:	02001537          	lui	a0,0x2001
   22618:	dddff0ef          	jal	ra,223f4 <bss_begin+0x3f4>
   2261c:	00100513          	li	a0,1
   22620:	dfdff0ef          	jal	ra,2241c <bss_begin+0x41c>
   22624:	020027b7          	lui	a5,0x2002
   22628:	d0078513          	addi	a0,a5,-768 # 2001d00 <_payload_end+0x1fdcd00>
   2262c:	da9ff0ef          	jal	ra,223d4 <bss_begin+0x3d4>
   22630:	00050793          	mv	a5,a0
   22634:	00f12623          	sw	a5,12(sp)
   22638:	00c12703          	lw	a4,12(sp)
   2263c:	f90007b7          	lui	a5,0xf9000
   22640:	cf078793          	addi	a5,a5,-784 # fffffffff8fffcf0 <_payload_end+0xfffffffff8fdacf0>
   22644:	00f777b3          	and	a5,a4,a5
   22648:	00f12623          	sw	a5,12(sp)
   2264c:	00c12703          	lw	a4,12(sp)
   22650:	050007b7          	lui	a5,0x5000
   22654:	10078793          	addi	a5,a5,256 # 5000100 <_payload_end+0x4fdb100>
   22658:	00f767b3          	or	a5,a4,a5
   2265c:	00f12623          	sw	a5,12(sp)
   22660:	00c12783          	lw	a5,12(sp)
   22664:	00078593          	mv	a1,a5
   22668:	020027b7          	lui	a5,0x2002
   2266c:	d0078513          	addi	a0,a5,-768 # 2001d00 <_payload_end+0x1fdcd00>
   22670:	d85ff0ef          	jal	ra,223f4 <bss_begin+0x3f4>
   22674:	00100513          	li	a0,1
   22678:	da5ff0ef          	jal	ra,2241c <bss_begin+0x41c>
   2267c:	00000013          	nop
   22680:	01813083          	ld	ra,24(sp)
   22684:	02010113          	addi	sp,sp,32
   22688:	00008067          	ret
   2268c:	fe010113          	addi	sp,sp,-32
   22690:	00113c23          	sd	ra,24(sp)
   22694:	020017b7          	lui	a5,0x2001
   22698:	02078513          	addi	a0,a5,32 # 2001020 <_payload_end+0x1fdc020>
   2269c:	d39ff0ef          	jal	ra,223d4 <bss_begin+0x3d4>
   226a0:	00050793          	mv	a5,a0
   226a4:	0007879b          	sext.w	a5,a5
   226a8:	0007879b          	sext.w	a5,a5
   226ac:	1207cc63          	bltz	a5,227e4 <bss_begin+0x7e4>
   226b0:	020017b7          	lui	a5,0x2001
   226b4:	51078513          	addi	a0,a5,1296 # 2001510 <_payload_end+0x1fdc510>
   226b8:	d1dff0ef          	jal	ra,223d4 <bss_begin+0x3d4>
   226bc:	00050793          	mv	a5,a0
   226c0:	00f12623          	sw	a5,12(sp)
   226c4:	00c12703          	lw	a4,12(sp)
   226c8:	fd0007b7          	lui	a5,0xfd000
   226cc:	fff78793          	addi	a5,a5,-1 # fffffffffcffffff <_payload_end+0xfffffffffcfdafff>
   226d0:	00f777b3          	and	a5,a4,a5
   226d4:	00f12623          	sw	a5,12(sp)
   226d8:	00c16703          	lwu	a4,12(sp)
   226dc:	020017b7          	lui	a5,0x2001
   226e0:	51078593          	addi	a1,a5,1296 # 2001510 <_payload_end+0x1fdc510>
   226e4:	00070513          	mv	a0,a4
   226e8:	d0dff0ef          	jal	ra,223f4 <bss_begin+0x3f4>
   226ec:	000067b7          	lui	a5,0x6
   226f0:	30078593          	addi	a1,a5,768 # 6300 <__bin_size+0x1300>
   226f4:	020017b7          	lui	a5,0x2001
   226f8:	02078513          	addi	a0,a5,32 # 2001020 <_payload_end+0x1fdc020>
   226fc:	cf9ff0ef          	jal	ra,223f4 <bss_begin+0x3f4>
   22700:	020017b7          	lui	a5,0x2001
   22704:	02078513          	addi	a0,a5,32 # 2001020 <_payload_end+0x1fdc020>
   22708:	ccdff0ef          	jal	ra,223d4 <bss_begin+0x3d4>
   2270c:	00050793          	mv	a5,a0
   22710:	00f12623          	sw	a5,12(sp)
   22714:	00c12703          	lw	a4,12(sp)
   22718:	200007b7          	lui	a5,0x20000
   2271c:	00f767b3          	or	a5,a4,a5
   22720:	00f12623          	sw	a5,12(sp)
   22724:	00c12783          	lw	a5,12(sp)
   22728:	00078593          	mv	a1,a5
   2272c:	020017b7          	lui	a5,0x2001
   22730:	02078513          	addi	a0,a5,32 # 2001020 <_payload_end+0x1fdc020>
   22734:	cc1ff0ef          	jal	ra,223f4 <bss_begin+0x3f4>
   22738:	020017b7          	lui	a5,0x2001
   2273c:	02078513          	addi	a0,a5,32 # 2001020 <_payload_end+0x1fdc020>
   22740:	c95ff0ef          	jal	ra,223d4 <bss_begin+0x3d4>
   22744:	00050793          	mv	a5,a0
   22748:	00f12623          	sw	a5,12(sp)
   2274c:	00c12703          	lw	a4,12(sp)
   22750:	800007b7          	lui	a5,0x80000
   22754:	00f767b3          	or	a5,a4,a5
   22758:	00f12623          	sw	a5,12(sp)
   2275c:	00c12783          	lw	a5,12(sp)
   22760:	00078593          	mv	a1,a5
   22764:	020017b7          	lui	a5,0x2001
   22768:	02078513          	addi	a0,a5,32 # 2001020 <_payload_end+0x1fdc020>
   2276c:	c89ff0ef          	jal	ra,223f4 <bss_begin+0x3f4>
   22770:	00000013          	nop
   22774:	020017b7          	lui	a5,0x2001
   22778:	02078513          	addi	a0,a5,32 # 2001020 <_payload_end+0x1fdc020>
   2277c:	c59ff0ef          	jal	ra,223d4 <bss_begin+0x3d4>
   22780:	00050793          	mv	a5,a0
   22784:	0007879b          	sext.w	a5,a5
   22788:	00078713          	mv	a4,a5
   2278c:	100007b7          	lui	a5,0x10000
   22790:	00f777b3          	and	a5,a4,a5
   22794:	0007879b          	sext.w	a5,a5
   22798:	fc078ee3          	beqz	a5,22774 <bss_begin+0x774>
   2279c:	01400513          	li	a0,20
   227a0:	c7dff0ef          	jal	ra,2241c <bss_begin+0x41c>
   227a4:	020017b7          	lui	a5,0x2001
   227a8:	02078513          	addi	a0,a5,32 # 2001020 <_payload_end+0x1fdc020>
   227ac:	c29ff0ef          	jal	ra,223d4 <bss_begin+0x3d4>
   227b0:	00050793          	mv	a5,a0
   227b4:	00f12623          	sw	a5,12(sp)
   227b8:	00c12703          	lw	a4,12(sp)
   227bc:	e00007b7          	lui	a5,0xe0000
   227c0:	fff78793          	addi	a5,a5,-1 # ffffffffdfffffff <_payload_end+0xffffffffdffdafff>
   227c4:	00f777b3          	and	a5,a4,a5
   227c8:	00f12623          	sw	a5,12(sp)
   227cc:	00c12783          	lw	a5,12(sp)
   227d0:	00078593          	mv	a1,a5
   227d4:	020017b7          	lui	a5,0x2001
   227d8:	02078513          	addi	a0,a5,32 # 2001020 <_payload_end+0x1fdc020>
   227dc:	c19ff0ef          	jal	ra,223f4 <bss_begin+0x3f4>
   227e0:	0080006f          	j	227e8 <bss_begin+0x7e8>
   227e4:	00000013          	nop
   227e8:	01813083          	ld	ra,24(sp)
   227ec:	02010113          	addi	sp,sp,32
   227f0:	00008067          	ret
   227f4:	ff010113          	addi	sp,sp,-16
   227f8:	00113423          	sd	ra,8(sp)
   227fc:	00200593          	li	a1,2
   22800:	020017b7          	lui	a5,0x2001
   22804:	51078513          	addi	a0,a5,1296 # 2001510 <_payload_end+0x1fdc510>
   22808:	bedff0ef          	jal	ra,223f4 <bss_begin+0x3f4>
   2280c:	020017b7          	lui	a5,0x2001
   22810:	51078513          	addi	a0,a5,1296 # 2001510 <_payload_end+0x1fdc510>
   22814:	bc1ff0ef          	jal	ra,223d4 <bss_begin+0x3d4>
   22818:	00050793          	mv	a5,a0
   2281c:	0007879b          	sext.w	a5,a5
   22820:	00078713          	mv	a4,a5
   22824:	030007b7          	lui	a5,0x3000
   22828:	00f767b3          	or	a5,a4,a5
   2282c:	0007879b          	sext.w	a5,a5
   22830:	00078593          	mv	a1,a5
   22834:	020017b7          	lui	a5,0x2001
   22838:	51078513          	addi	a0,a5,1296 # 2001510 <_payload_end+0x1fdc510>
   2283c:	bb9ff0ef          	jal	ra,223f4 <bss_begin+0x3f4>
   22840:	00100513          	li	a0,1
   22844:	bd9ff0ef          	jal	ra,2241c <bss_begin+0x41c>
   22848:	00000013          	nop
   2284c:	00813083          	ld	ra,8(sp)
   22850:	01010113          	addi	sp,sp,16
   22854:	00008067          	ret
   22858:	ff010113          	addi	sp,sp,-16
   2285c:	00113423          	sd	ra,8(sp)
   22860:	10200593          	li	a1,258
   22864:	020017b7          	lui	a5,0x2001
   22868:	52078513          	addi	a0,a5,1312 # 2001520 <_payload_end+0x1fdc520>
   2286c:	b89ff0ef          	jal	ra,223f4 <bss_begin+0x3f4>
   22870:	020017b7          	lui	a5,0x2001
   22874:	52078513          	addi	a0,a5,1312 # 2001520 <_payload_end+0x1fdc520>
   22878:	b5dff0ef          	jal	ra,223d4 <bss_begin+0x3d4>
   2287c:	00050793          	mv	a5,a0
   22880:	0007879b          	sext.w	a5,a5
   22884:	00078713          	mv	a4,a5
   22888:	030007b7          	lui	a5,0x3000
   2288c:	00f767b3          	or	a5,a4,a5
   22890:	0007879b          	sext.w	a5,a5
   22894:	00078593          	mv	a1,a5
   22898:	020017b7          	lui	a5,0x2001
   2289c:	52078513          	addi	a0,a5,1312 # 2001520 <_payload_end+0x1fdc520>
   228a0:	b55ff0ef          	jal	ra,223f4 <bss_begin+0x3f4>
   228a4:	00100513          	li	a0,1
   228a8:	b75ff0ef          	jal	ra,2241c <bss_begin+0x41c>
   228ac:	00000013          	nop
   228b0:	00813083          	ld	ra,8(sp)
   228b4:	01010113          	addi	sp,sp,16
   228b8:	00008067          	ret
   228bc:	ff010113          	addi	sp,sp,-16
   228c0:	00113423          	sd	ra,8(sp)
   228c4:	020017b7          	lui	a5,0x2001
   228c8:	70c78513          	addi	a0,a5,1804 # 200170c <_payload_end+0x1fdc70c>
   228cc:	b09ff0ef          	jal	ra,223d4 <bss_begin+0x3d4>
   228d0:	00050793          	mv	a5,a0
   228d4:	0007879b          	sext.w	a5,a5
   228d8:	00078713          	mv	a4,a5
   228dc:	000107b7          	lui	a5,0x10
   228e0:	00f767b3          	or	a5,a4,a5
   228e4:	0007879b          	sext.w	a5,a5
   228e8:	00078593          	mv	a1,a5
   228ec:	020017b7          	lui	a5,0x2001
   228f0:	70c78513          	addi	a0,a5,1804 # 200170c <_payload_end+0x1fdc70c>
   228f4:	b01ff0ef          	jal	ra,223f4 <bss_begin+0x3f4>
   228f8:	01400513          	li	a0,20
   228fc:	b21ff0ef          	jal	ra,2241c <bss_begin+0x41c>
   22900:	020017b7          	lui	a5,0x2001
   22904:	70c78513          	addi	a0,a5,1804 # 200170c <_payload_end+0x1fdc70c>
   22908:	acdff0ef          	jal	ra,223d4 <bss_begin+0x3d4>
   2290c:	00050793          	mv	a5,a0
   22910:	0007879b          	sext.w	a5,a5
   22914:	0017e793          	ori	a5,a5,1
   22918:	0007879b          	sext.w	a5,a5
   2291c:	00078593          	mv	a1,a5
   22920:	020017b7          	lui	a5,0x2001
   22924:	70c78513          	addi	a0,a5,1804 # 200170c <_payload_end+0x1fdc70c>
   22928:	acdff0ef          	jal	ra,223f4 <bss_begin+0x3f4>
   2292c:	00000013          	nop
   22930:	00813083          	ld	ra,8(sp)
   22934:	01010113          	addi	sp,sp,16
   22938:	00008067          	ret
   2293c:	fe010113          	addi	sp,sp,-32
   22940:	00113c23          	sd	ra,24(sp)
   22944:	020017b7          	lui	a5,0x2001
   22948:	54078513          	addi	a0,a5,1344 # 2001540 <_payload_end+0x1fdc540>
   2294c:	a89ff0ef          	jal	ra,223d4 <bss_begin+0x3d4>
   22950:	00050793          	mv	a5,a0
   22954:	00f12623          	sw	a5,12(sp)
   22958:	00c12703          	lw	a4,12(sp)
   2295c:	400007b7          	lui	a5,0x40000
   22960:	00f767b3          	or	a5,a4,a5
   22964:	00f12623          	sw	a5,12(sp)
   22968:	00c12783          	lw	a5,12(sp)
   2296c:	00078593          	mv	a1,a5
   22970:	020017b7          	lui	a5,0x2001
   22974:	54078513          	addi	a0,a5,1344 # 2001540 <_payload_end+0x1fdc540>
   22978:	a7dff0ef          	jal	ra,223f4 <bss_begin+0x3f4>
   2297c:	00100513          	li	a0,1
   22980:	a9dff0ef          	jal	ra,2241c <bss_begin+0x41c>
   22984:	00000013          	nop
   22988:	01813083          	ld	ra,24(sp)
   2298c:	02010113          	addi	sp,sp,32
   22990:	00008067          	ret
   22994:	fd010113          	addi	sp,sp,-48
   22998:	02113423          	sd	ra,40(sp)
   2299c:	00a13423          	sd	a0,8(sp)
   229a0:	00813503          	ld	a0,8(sp)
   229a4:	a31ff0ef          	jal	ra,223d4 <bss_begin+0x3d4>
   229a8:	00050793          	mv	a5,a0
   229ac:	0007879b          	sext.w	a5,a5
   229b0:	0007879b          	sext.w	a5,a5
   229b4:	0c07c263          	bltz	a5,22a78 <bss_begin+0xa78>
   229b8:	00813503          	ld	a0,8(sp)
   229bc:	a19ff0ef          	jal	ra,223d4 <bss_begin+0x3d4>
   229c0:	00050793          	mv	a5,a0
   229c4:	00f12e23          	sw	a5,28(sp)
   229c8:	01c12703          	lw	a4,28(sp)
   229cc:	c00007b7          	lui	a5,0xc0000
   229d0:	00f767b3          	or	a5,a4,a5
   229d4:	0007879b          	sext.w	a5,a5
   229d8:	00078593          	mv	a1,a5
   229dc:	00813503          	ld	a0,8(sp)
   229e0:	a15ff0ef          	jal	ra,223f4 <bss_begin+0x3f4>
   229e4:	00813503          	ld	a0,8(sp)
   229e8:	9edff0ef          	jal	ra,223d4 <bss_begin+0x3d4>
   229ec:	00050793          	mv	a5,a0
   229f0:	00f12e23          	sw	a5,28(sp)
   229f4:	01c12703          	lw	a4,28(sp)
   229f8:	200007b7          	lui	a5,0x20000
   229fc:	00f767b3          	or	a5,a4,a5
   22a00:	00f12e23          	sw	a5,28(sp)
   22a04:	01c12783          	lw	a5,28(sp)
   22a08:	00078593          	mv	a1,a5
   22a0c:	00813503          	ld	a0,8(sp)
   22a10:	9e5ff0ef          	jal	ra,223f4 <bss_begin+0x3f4>
   22a14:	00000013          	nop
   22a18:	00813503          	ld	a0,8(sp)
   22a1c:	9b9ff0ef          	jal	ra,223d4 <bss_begin+0x3d4>
   22a20:	00050793          	mv	a5,a0
   22a24:	0007879b          	sext.w	a5,a5
   22a28:	00078713          	mv	a4,a5
   22a2c:	100007b7          	lui	a5,0x10000
   22a30:	00f777b3          	and	a5,a4,a5
   22a34:	0007879b          	sext.w	a5,a5
   22a38:	fe0780e3          	beqz	a5,22a18 <bss_begin+0xa18>
   22a3c:	01400513          	li	a0,20
   22a40:	9ddff0ef          	jal	ra,2241c <bss_begin+0x41c>
   22a44:	00813503          	ld	a0,8(sp)
   22a48:	98dff0ef          	jal	ra,223d4 <bss_begin+0x3d4>
   22a4c:	00050793          	mv	a5,a0
   22a50:	00f12e23          	sw	a5,28(sp)
   22a54:	01c12703          	lw	a4,28(sp)
   22a58:	e00007b7          	lui	a5,0xe0000
   22a5c:	fff78793          	addi	a5,a5,-1 # ffffffffdfffffff <_payload_end+0xffffffffdffdafff>
   22a60:	00f777b3          	and	a5,a4,a5
   22a64:	00f12e23          	sw	a5,28(sp)
   22a68:	01c12783          	lw	a5,28(sp)
   22a6c:	00078593          	mv	a1,a5
   22a70:	00813503          	ld	a0,8(sp)
   22a74:	981ff0ef          	jal	ra,223f4 <bss_begin+0x3f4>
   22a78:	00000013          	nop
   22a7c:	02813083          	ld	ra,40(sp)
   22a80:	03010113          	addi	sp,sp,48
   22a84:	00008067          	ret
   22a88:	ff010113          	addi	sp,sp,-16
   22a8c:	00113423          	sd	ra,8(sp)
   22a90:	9c5ff0ef          	jal	ra,22454 <bss_begin+0x454>
   22a94:	bf9ff0ef          	jal	ra,2268c <bss_begin+0x68c>
   22a98:	d5dff0ef          	jal	ra,227f4 <bss_begin+0x7f4>
   22a9c:	dbdff0ef          	jal	ra,22858 <bss_begin+0x858>
   22aa0:	e1dff0ef          	jal	ra,228bc <bss_begin+0x8bc>
   22aa4:	e99ff0ef          	jal	ra,2293c <bss_begin+0x93c>
   22aa8:	020017b7          	lui	a5,0x2001
   22aac:	02078513          	addi	a0,a5,32 # 2001020 <_payload_end+0x1fdc020>
   22ab0:	ee5ff0ef          	jal	ra,22994 <bss_begin+0x994>
   22ab4:	020017b7          	lui	a5,0x2001
   22ab8:	04078513          	addi	a0,a5,64 # 2001040 <_payload_end+0x1fdc040>
   22abc:	ed9ff0ef          	jal	ra,22994 <bss_begin+0x994>
   22ac0:	020017b7          	lui	a5,0x2001
   22ac4:	04878513          	addi	a0,a5,72 # 2001048 <_payload_end+0x1fdc048>
   22ac8:	ecdff0ef          	jal	ra,22994 <bss_begin+0x994>
   22acc:	020017b7          	lui	a5,0x2001
   22ad0:	05878513          	addi	a0,a5,88 # 2001058 <_payload_end+0x1fdc058>
   22ad4:	ec1ff0ef          	jal	ra,22994 <bss_begin+0x994>
   22ad8:	020017b7          	lui	a5,0x2001
   22adc:	07878513          	addi	a0,a5,120 # 2001078 <_payload_end+0x1fdc078>
   22ae0:	eb5ff0ef          	jal	ra,22994 <bss_begin+0x994>
   22ae4:	020017b7          	lui	a5,0x2001
   22ae8:	08078513          	addi	a0,a5,128 # 2001080 <_payload_end+0x1fdc080>
   22aec:	ea9ff0ef          	jal	ra,22994 <bss_begin+0x994>
   22af0:	00000013          	nop
   22af4:	00813083          	ld	ra,8(sp)
   22af8:	01010113          	addi	sp,sp,16
   22afc:	00008067          	ret
   22b00:	ff010113          	addi	sp,sp,-16
   22b04:	00a13423          	sd	a0,8(sp)
   22b08:	00813783          	ld	a5,8(sp)
   22b0c:	0007c783          	lbu	a5,0(a5)
   22b10:	0ff7f793          	andi	a5,a5,255
   22b14:	00078513          	mv	a0,a5
   22b18:	01010113          	addi	sp,sp,16
   22b1c:	00008067          	ret
   22b20:	ff010113          	addi	sp,sp,-16
   22b24:	00a13423          	sd	a0,8(sp)
   22b28:	00813783          	ld	a5,8(sp)
   22b2c:	0007a783          	lw	a5,0(a5)
   22b30:	0007879b          	sext.w	a5,a5
   22b34:	00078513          	mv	a0,a5
   22b38:	01010113          	addi	sp,sp,16
   22b3c:	00008067          	ret
   22b40:	ff010113          	addi	sp,sp,-16
   22b44:	00a13423          	sd	a0,8(sp)
   22b48:	00058793          	mv	a5,a1
   22b4c:	00f12223          	sw	a5,4(sp)
   22b50:	00813783          	ld	a5,8(sp)
   22b54:	00412703          	lw	a4,4(sp)
   22b58:	00e7a023          	sw	a4,0(a5)
   22b5c:	00000013          	nop
   22b60:	01010113          	addi	sp,sp,16
   22b64:	00008067          	ret
   22b68:	fe010113          	addi	sp,sp,-32
   22b6c:	00113c23          	sd	ra,24(sp)
   22b70:	020007b7          	lui	a5,0x2000
   22b74:	0f078793          	addi	a5,a5,240 # 20000f0 <_payload_end+0x1fdb0f0>
   22b78:	00f13423          	sd	a5,8(sp)
   22b7c:	00813503          	ld	a0,8(sp)
   22b80:	fa1ff0ef          	jal	ra,22b20 <bss_begin+0xb20>
   22b84:	00050793          	mv	a5,a0
   22b88:	00f12223          	sw	a5,4(sp)
   22b8c:	00412703          	lw	a4,4(sp)
   22b90:	fffff7b7          	lui	a5,0xfffff
   22b94:	0ff78793          	addi	a5,a5,255 # fffffffffffff0ff <_payload_end+0xfffffffffffda0ff>
   22b98:	00f777b3          	and	a5,a4,a5
   22b9c:	00f12223          	sw	a5,4(sp)
   22ba0:	00412783          	lw	a5,4(sp)
   22ba4:	3007e793          	ori	a5,a5,768
   22ba8:	00f12223          	sw	a5,4(sp)
   22bac:	00412783          	lw	a5,4(sp)
   22bb0:	00078593          	mv	a1,a5
   22bb4:	00813503          	ld	a0,8(sp)
   22bb8:	f89ff0ef          	jal	ra,22b40 <bss_begin+0xb40>
   22bbc:	00813503          	ld	a0,8(sp)
   22bc0:	f61ff0ef          	jal	ra,22b20 <bss_begin+0xb20>
   22bc4:	00050793          	mv	a5,a0
   22bc8:	00f12223          	sw	a5,4(sp)
   22bcc:	00412703          	lw	a4,4(sp)
   22bd0:	fff107b7          	lui	a5,0xfff10
   22bd4:	fff78793          	addi	a5,a5,-1 # fffffffffff0ffff <_payload_end+0xffffffffffeeafff>
   22bd8:	00f777b3          	and	a5,a4,a5
   22bdc:	00f12223          	sw	a5,4(sp)
   22be0:	00412703          	lw	a4,4(sp)
   22be4:	000307b7          	lui	a5,0x30
   22be8:	00f767b3          	or	a5,a4,a5
   22bec:	00f12223          	sw	a5,4(sp)
   22bf0:	00412783          	lw	a5,4(sp)
   22bf4:	00078593          	mv	a1,a5
   22bf8:	00813503          	ld	a0,8(sp)
   22bfc:	f45ff0ef          	jal	ra,22b40 <bss_begin+0xb40>
   22c00:	020027b7          	lui	a5,0x2002
   22c04:	90c78793          	addi	a5,a5,-1780 # 200190c <_payload_end+0x1fdc90c>
   22c08:	00f13423          	sd	a5,8(sp)
   22c0c:	00813503          	ld	a0,8(sp)
   22c10:	f11ff0ef          	jal	ra,22b20 <bss_begin+0xb20>
   22c14:	00050793          	mv	a5,a0
   22c18:	00f12223          	sw	a5,4(sp)
   22c1c:	00412783          	lw	a5,4(sp)
   22c20:	0017e793          	ori	a5,a5,1
   22c24:	00f12223          	sw	a5,4(sp)
   22c28:	00412783          	lw	a5,4(sp)
   22c2c:	00078593          	mv	a1,a5
   22c30:	00813503          	ld	a0,8(sp)
   22c34:	f0dff0ef          	jal	ra,22b40 <bss_begin+0xb40>
   22c38:	020027b7          	lui	a5,0x2002
   22c3c:	90c78793          	addi	a5,a5,-1780 # 200190c <_payload_end+0x1fdc90c>
   22c40:	00f13423          	sd	a5,8(sp)
   22c44:	00813503          	ld	a0,8(sp)
   22c48:	ed9ff0ef          	jal	ra,22b20 <bss_begin+0xb20>
   22c4c:	00050793          	mv	a5,a0
   22c50:	00f12223          	sw	a5,4(sp)
   22c54:	00412703          	lw	a4,4(sp)
   22c58:	000107b7          	lui	a5,0x10
   22c5c:	00f767b3          	or	a5,a4,a5
   22c60:	00f12223          	sw	a5,4(sp)
   22c64:	00412783          	lw	a5,4(sp)
   22c68:	00078593          	mv	a1,a5
   22c6c:	00813503          	ld	a0,8(sp)
   22c70:	ed1ff0ef          	jal	ra,22b40 <bss_begin+0xb40>
   22c74:	025007b7          	lui	a5,0x2500
   22c78:	00f13423          	sd	a5,8(sp)
   22c7c:	00813783          	ld	a5,8(sp)
   22c80:	00478793          	addi	a5,a5,4 # 2500004 <_payload_end+0x24db004>
   22c84:	00000593          	li	a1,0
   22c88:	00078513          	mv	a0,a5
   22c8c:	eb5ff0ef          	jal	ra,22b40 <bss_begin+0xb40>
   22c90:	00813783          	ld	a5,8(sp)
   22c94:	00878793          	addi	a5,a5,8
   22c98:	0f700593          	li	a1,247
   22c9c:	00078513          	mv	a0,a5
   22ca0:	ea1ff0ef          	jal	ra,22b40 <bss_begin+0xb40>
   22ca4:	00813783          	ld	a5,8(sp)
   22ca8:	01078793          	addi	a5,a5,16
   22cac:	00000593          	li	a1,0
   22cb0:	00078513          	mv	a0,a5
   22cb4:	e8dff0ef          	jal	ra,22b40 <bss_begin+0xb40>
   22cb8:	00813783          	ld	a5,8(sp)
   22cbc:	00c78793          	addi	a5,a5,12
   22cc0:	00078513          	mv	a0,a5
   22cc4:	e5dff0ef          	jal	ra,22b20 <bss_begin+0xb20>
   22cc8:	00050793          	mv	a5,a0
   22ccc:	00f12223          	sw	a5,4(sp)
   22cd0:	00412783          	lw	a5,4(sp)
   22cd4:	0807e793          	ori	a5,a5,128
   22cd8:	00f12223          	sw	a5,4(sp)
   22cdc:	00813783          	ld	a5,8(sp)
   22ce0:	00c78793          	addi	a5,a5,12
   22ce4:	00412703          	lw	a4,4(sp)
   22ce8:	00070593          	mv	a1,a4
   22cec:	00078513          	mv	a0,a5
   22cf0:	e51ff0ef          	jal	ra,22b40 <bss_begin+0xb40>
   22cf4:	00d00593          	li	a1,13
   22cf8:	00813503          	ld	a0,8(sp)
   22cfc:	e45ff0ef          	jal	ra,22b40 <bss_begin+0xb40>
   22d00:	00813783          	ld	a5,8(sp)
   22d04:	00478793          	addi	a5,a5,4
   22d08:	00000593          	li	a1,0
   22d0c:	00078513          	mv	a0,a5
   22d10:	e31ff0ef          	jal	ra,22b40 <bss_begin+0xb40>
   22d14:	00813783          	ld	a5,8(sp)
   22d18:	00c78793          	addi	a5,a5,12
   22d1c:	00078513          	mv	a0,a5
   22d20:	e01ff0ef          	jal	ra,22b20 <bss_begin+0xb20>
   22d24:	00050793          	mv	a5,a0
   22d28:	00f12223          	sw	a5,4(sp)
   22d2c:	00412783          	lw	a5,4(sp)
   22d30:	f7f7f793          	andi	a5,a5,-129
   22d34:	00f12223          	sw	a5,4(sp)
   22d38:	00813783          	ld	a5,8(sp)
   22d3c:	00c78793          	addi	a5,a5,12
   22d40:	00412703          	lw	a4,4(sp)
   22d44:	00070593          	mv	a1,a4
   22d48:	00078513          	mv	a0,a5
   22d4c:	df5ff0ef          	jal	ra,22b40 <bss_begin+0xb40>
   22d50:	00813783          	ld	a5,8(sp)
   22d54:	00c78793          	addi	a5,a5,12
   22d58:	00078513          	mv	a0,a5
   22d5c:	dc5ff0ef          	jal	ra,22b20 <bss_begin+0xb20>
   22d60:	00050793          	mv	a5,a0
   22d64:	00f12223          	sw	a5,4(sp)
   22d68:	00412783          	lw	a5,4(sp)
   22d6c:	fe07f793          	andi	a5,a5,-32
   22d70:	00f12223          	sw	a5,4(sp)
   22d74:	00412783          	lw	a5,4(sp)
   22d78:	0037e793          	ori	a5,a5,3
   22d7c:	00f12223          	sw	a5,4(sp)
   22d80:	00813783          	ld	a5,8(sp)
   22d84:	00c78793          	addi	a5,a5,12
   22d88:	00412703          	lw	a4,4(sp)
   22d8c:	00070593          	mv	a1,a4
   22d90:	00078513          	mv	a0,a5
   22d94:	dadff0ef          	jal	ra,22b40 <bss_begin+0xb40>
   22d98:	00000013          	nop
   22d9c:	01813083          	ld	ra,24(sp)
   22da0:	02010113          	addi	sp,sp,32
   22da4:	00008067          	ret
   22da8:	fd010113          	addi	sp,sp,-48
   22dac:	02113423          	sd	ra,40(sp)
   22db0:	00050793          	mv	a5,a0
   22db4:	00f107a3          	sb	a5,15(sp)
   22db8:	025007b7          	lui	a5,0x2500
   22dbc:	00f13c23          	sd	a5,24(sp)
   22dc0:	00000013          	nop
   22dc4:	01813783          	ld	a5,24(sp)
   22dc8:	07c78793          	addi	a5,a5,124 # 250007c <_payload_end+0x24db07c>
   22dcc:	00078513          	mv	a0,a5
   22dd0:	d51ff0ef          	jal	ra,22b20 <bss_begin+0xb20>
   22dd4:	00050793          	mv	a5,a0
   22dd8:	0007879b          	sext.w	a5,a5
   22ddc:	0027f793          	andi	a5,a5,2
   22de0:	0007879b          	sext.w	a5,a5
   22de4:	fe0780e3          	beqz	a5,22dc4 <bss_begin+0xdc4>
   22de8:	00f14783          	lbu	a5,15(sp)
   22dec:	0007879b          	sext.w	a5,a5
   22df0:	00078593          	mv	a1,a5
   22df4:	01813503          	ld	a0,24(sp)
   22df8:	d49ff0ef          	jal	ra,22b40 <bss_begin+0xb40>
   22dfc:	00000013          	nop
   22e00:	02813083          	ld	ra,40(sp)
   22e04:	03010113          	addi	sp,sp,48
   22e08:	00008067          	ret
   22e0c:	fe010113          	addi	sp,sp,-32
   22e10:	00113c23          	sd	ra,24(sp)
   22e14:	025007b7          	lui	a5,0x2500
   22e18:	00f13423          	sd	a5,8(sp)
   22e1c:	00000013          	nop
   22e20:	00813783          	ld	a5,8(sp)
   22e24:	07c78793          	addi	a5,a5,124 # 250007c <_payload_end+0x24db07c>
   22e28:	00078513          	mv	a0,a5
   22e2c:	cf5ff0ef          	jal	ra,22b20 <bss_begin+0xb20>
   22e30:	00050793          	mv	a5,a0
   22e34:	0007879b          	sext.w	a5,a5
   22e38:	0087f793          	andi	a5,a5,8
   22e3c:	0007879b          	sext.w	a5,a5
   22e40:	fe0780e3          	beqz	a5,22e20 <bss_begin+0xe20>
   22e44:	00813503          	ld	a0,8(sp)
   22e48:	cb9ff0ef          	jal	ra,22b00 <bss_begin+0xb00>
   22e4c:	00050793          	mv	a5,a0
   22e50:	00078513          	mv	a0,a5
   22e54:	01813083          	ld	ra,24(sp)
   22e58:	02010113          	addi	sp,sp,32
   22e5c:	00008067          	ret
   22e60:	fd010113          	addi	sp,sp,-48
   22e64:	02113423          	sd	ra,40(sp)
   22e68:	00a13423          	sd	a0,8(sp)
   22e6c:	00012e23          	sw	zero,28(sp)
   22e70:	0280006f          	j	22e98 <bss_begin+0xe98>
   22e74:	01c12783          	lw	a5,28(sp)
   22e78:	00813703          	ld	a4,8(sp)
   22e7c:	00f707b3          	add	a5,a4,a5
   22e80:	0007c783          	lbu	a5,0(a5)
   22e84:	00078513          	mv	a0,a5
   22e88:	f21ff0ef          	jal	ra,22da8 <bss_begin+0xda8>
   22e8c:	01c12783          	lw	a5,28(sp)
   22e90:	0017879b          	addiw	a5,a5,1
   22e94:	00f12e23          	sw	a5,28(sp)
   22e98:	01c12783          	lw	a5,28(sp)
   22e9c:	00813703          	ld	a4,8(sp)
   22ea0:	00f707b3          	add	a5,a4,a5
   22ea4:	0007c783          	lbu	a5,0(a5)
   22ea8:	fc0796e3          	bnez	a5,22e74 <bss_begin+0xe74>
   22eac:	00000013          	nop
   22eb0:	00000013          	nop
   22eb4:	02813083          	ld	ra,40(sp)
   22eb8:	03010113          	addi	sp,sp,48
   22ebc:	00008067          	ret
   22ec0:	fd010113          	addi	sp,sp,-48
   22ec4:	00a13423          	sd	a0,8(sp)
   22ec8:	00b13023          	sd	a1,0(sp)
   22ecc:	02012223          	sw	zero,36(sp)
   22ed0:	00813783          	ld	a5,8(sp)
   22ed4:	02f13423          	sd	a5,40(sp)
   22ed8:	0900006f          	j	22f68 <bss_begin+0xf68>
   22edc:	02813783          	ld	a5,40(sp)
   22ee0:	0007c783          	lbu	a5,0(a5)
   22ee4:	00078713          	mv	a4,a5
   22ee8:	02f00793          	li	a5,47
   22eec:	02e7f063          	bgeu	a5,a4,22f0c <bss_begin+0xf0c>
   22ef0:	02813783          	ld	a5,40(sp)
   22ef4:	0007c783          	lbu	a5,0(a5)
   22ef8:	00078713          	mv	a4,a5
   22efc:	03900793          	li	a5,57
   22f00:	00e7e663          	bltu	a5,a4,22f0c <bss_begin+0xf0c>
   22f04:	00100793          	li	a5,1
   22f08:	0080006f          	j	22f10 <bss_begin+0xf10>
   22f0c:	00000793          	li	a5,0
   22f10:	02f12023          	sw	a5,32(sp)
   22f14:	02012783          	lw	a5,32(sp)
   22f18:	0007879b          	sext.w	a5,a5
   22f1c:	04078e63          	beqz	a5,22f78 <bss_begin+0xf78>
   22f20:	02813783          	ld	a5,40(sp)
   22f24:	0007c783          	lbu	a5,0(a5)
   22f28:	0007879b          	sext.w	a5,a5
   22f2c:	fd07879b          	addiw	a5,a5,-48
   22f30:	00f12e23          	sw	a5,28(sp)
   22f34:	02412703          	lw	a4,36(sp)
   22f38:	00070793          	mv	a5,a4
   22f3c:	0027979b          	slliw	a5,a5,0x2
   22f40:	00e787bb          	addw	a5,a5,a4
   22f44:	0017979b          	slliw	a5,a5,0x1
   22f48:	02f12223          	sw	a5,36(sp)
   22f4c:	02412703          	lw	a4,36(sp)
   22f50:	01c12783          	lw	a5,28(sp)
   22f54:	00f707bb          	addw	a5,a4,a5
   22f58:	02f12223          	sw	a5,36(sp)
   22f5c:	02813783          	ld	a5,40(sp)
   22f60:	00178793          	addi	a5,a5,1
   22f64:	02f13423          	sd	a5,40(sp)
   22f68:	00813783          	ld	a5,8(sp)
   22f6c:	0007c783          	lbu	a5,0(a5)
   22f70:	f60796e3          	bnez	a5,22edc <bss_begin+0xedc>
   22f74:	0080006f          	j	22f7c <bss_begin+0xf7c>
   22f78:	00000013          	nop
   22f7c:	00013783          	ld	a5,0(sp)
   22f80:	02412703          	lw	a4,36(sp)
   22f84:	00e7a023          	sw	a4,0(a5)
   22f88:	02813703          	ld	a4,40(sp)
   22f8c:	00813783          	ld	a5,8(sp)
   22f90:	40f707b3          	sub	a5,a4,a5
   22f94:	0007879b          	sext.w	a5,a5
   22f98:	00078513          	mv	a0,a5
   22f9c:	03010113          	addi	sp,sp,48
   22fa0:	00008067          	ret
   22fa4:	fb010113          	addi	sp,sp,-80
   22fa8:	04113423          	sd	ra,72(sp)
   22fac:	00050793          	mv	a5,a0
   22fb0:	00068713          	mv	a4,a3
   22fb4:	00f12623          	sw	a5,12(sp)
   22fb8:	00058793          	mv	a5,a1
   22fbc:	00f12423          	sw	a5,8(sp)
   22fc0:	00060793          	mv	a5,a2
   22fc4:	00f12223          	sw	a5,4(sp)
   22fc8:	00070793          	mv	a5,a4
   22fcc:	00f12023          	sw	a5,0(sp)
   22fd0:	02012a23          	sw	zero,52(sp)
   22fd4:	0280006f          	j	22ffc <bss_begin+0xffc>
   22fd8:	00012783          	lw	a5,0(sp)
   22fdc:	0ff7f713          	andi	a4,a5,255
   22fe0:	03412783          	lw	a5,52(sp)
   22fe4:	04010693          	addi	a3,sp,64
   22fe8:	00f687b3          	add	a5,a3,a5
   22fec:	fce78823          	sb	a4,-48(a5)
   22ff0:	03412783          	lw	a5,52(sp)
   22ff4:	0017879b          	addiw	a5,a5,1
   22ff8:	02f12a23          	sw	a5,52(sp)
   22ffc:	03412783          	lw	a5,52(sp)
   23000:	00078713          	mv	a4,a5
   23004:	01f00793          	li	a5,31
   23008:	fce7f8e3          	bgeu	a5,a4,22fd8 <bss_begin+0xfd8>
   2300c:	00a00793          	li	a5,10
   23010:	02f12e23          	sw	a5,60(sp)
   23014:	00812783          	lw	a5,8(sp)
   23018:	0007879b          	sext.w	a5,a5
   2301c:	00078663          	beqz	a5,23028 <bss_begin+0x1028>
   23020:	01000793          	li	a5,16
   23024:	02f12e23          	sw	a5,60(sp)
   23028:	02012c23          	sw	zero,56(sp)
   2302c:	00c12703          	lw	a4,12(sp)
   23030:	03c12783          	lw	a5,60(sp)
   23034:	02f777bb          	remuw	a5,a4,a5
   23038:	0007879b          	sext.w	a5,a5
   2303c:	02f12823          	sw	a5,48(sp)
   23040:	03012783          	lw	a5,48(sp)
   23044:	0007871b          	sext.w	a4,a5
   23048:	00900793          	li	a5,9
   2304c:	02e7d463          	bge	a5,a4,23074 <bss_begin+0x1074>
   23050:	03012783          	lw	a5,48(sp)
   23054:	0ff7f793          	andi	a5,a5,255
   23058:	0577879b          	addiw	a5,a5,87
   2305c:	0ff7f713          	andi	a4,a5,255
   23060:	03812783          	lw	a5,56(sp)
   23064:	04010693          	addi	a3,sp,64
   23068:	00f687b3          	add	a5,a3,a5
   2306c:	fce78823          	sb	a4,-48(a5)
   23070:	0240006f          	j	23094 <bss_begin+0x1094>
   23074:	03012783          	lw	a5,48(sp)
   23078:	0ff7f793          	andi	a5,a5,255
   2307c:	0307879b          	addiw	a5,a5,48
   23080:	0ff7f713          	andi	a4,a5,255
   23084:	03812783          	lw	a5,56(sp)
   23088:	04010693          	addi	a3,sp,64
   2308c:	00f687b3          	add	a5,a3,a5
   23090:	fce78823          	sb	a4,-48(a5)
   23094:	00c12703          	lw	a4,12(sp)
   23098:	03c12783          	lw	a5,60(sp)
   2309c:	02f757bb          	divuw	a5,a4,a5
   230a0:	00f12623          	sw	a5,12(sp)
   230a4:	03812783          	lw	a5,56(sp)
   230a8:	0017879b          	addiw	a5,a5,1
   230ac:	02f12c23          	sw	a5,56(sp)
   230b0:	00c12783          	lw	a5,12(sp)
   230b4:	0007879b          	sext.w	a5,a5
   230b8:	f6079ae3          	bnez	a5,2302c <bss_begin+0x102c>
   230bc:	00412783          	lw	a5,4(sp)
   230c0:	0007879b          	sext.w	a5,a5
   230c4:	02f05c63          	blez	a5,230fc <bss_begin+0x10fc>
   230c8:	00412783          	lw	a5,4(sp)
   230cc:	00078713          	mv	a4,a5
   230d0:	01f00793          	li	a5,31
   230d4:	00e7f663          	bgeu	a5,a4,230e0 <bss_begin+0x10e0>
   230d8:	01f00793          	li	a5,31
   230dc:	00f12223          	sw	a5,4(sp)
   230e0:	03812703          	lw	a4,56(sp)
   230e4:	00412783          	lw	a5,4(sp)
   230e8:	0007071b          	sext.w	a4,a4
   230ec:	0007879b          	sext.w	a5,a5
   230f0:	00f75663          	bge	a4,a5,230fc <bss_begin+0x10fc>
   230f4:	00412783          	lw	a5,4(sp)
   230f8:	02f12c23          	sw	a5,56(sp)
   230fc:	03812783          	lw	a5,56(sp)
   23100:	04010713          	addi	a4,sp,64
   23104:	00f707b3          	add	a5,a4,a5
   23108:	fc078823          	sb	zero,-48(a5)
   2310c:	03812783          	lw	a5,56(sp)
   23110:	fff7879b          	addiw	a5,a5,-1
   23114:	02f12a23          	sw	a5,52(sp)
   23118:	0280006f          	j	23140 <bss_begin+0x1140>
   2311c:	03412783          	lw	a5,52(sp)
   23120:	04010713          	addi	a4,sp,64
   23124:	00f707b3          	add	a5,a4,a5
   23128:	fd07c783          	lbu	a5,-48(a5)
   2312c:	00078513          	mv	a0,a5
   23130:	c79ff0ef          	jal	ra,22da8 <bss_begin+0xda8>
   23134:	03412783          	lw	a5,52(sp)
   23138:	fff7879b          	addiw	a5,a5,-1
   2313c:	02f12a23          	sw	a5,52(sp)
   23140:	03412783          	lw	a5,52(sp)
   23144:	0007879b          	sext.w	a5,a5
   23148:	fc07dae3          	bgez	a5,2311c <bss_begin+0x111c>
   2314c:	00000013          	nop
   23150:	00000013          	nop
   23154:	04813083          	ld	ra,72(sp)
   23158:	05010113          	addi	sp,sp,80
   2315c:	00008067          	ret
   23160:	fb010113          	addi	sp,sp,-80
   23164:	04113423          	sd	ra,72(sp)
   23168:	00a13423          	sd	a0,8(sp)
   2316c:	00b13023          	sd	a1,0(sp)
   23170:	02000793          	li	a5,32
   23174:	02f12223          	sw	a5,36(sp)
   23178:	00813783          	ld	a5,8(sp)
   2317c:	02f13c23          	sd	a5,56(sp)
   23180:	1880006f          	j	23308 <bss_begin+0x1308>
   23184:	02012623          	sw	zero,44(sp)
   23188:	00012a23          	sw	zero,20(sp)
   2318c:	03813783          	ld	a5,56(sp)
   23190:	0007c783          	lbu	a5,0(a5)
   23194:	02f12023          	sw	a5,32(sp)
   23198:	03813783          	ld	a5,56(sp)
   2319c:	02f13823          	sd	a5,48(sp)
   231a0:	03813783          	ld	a5,56(sp)
   231a4:	0007c783          	lbu	a5,0(a5)
   231a8:	00078713          	mv	a4,a5
   231ac:	02500793          	li	a5,37
   231b0:	06f71863          	bne	a4,a5,23220 <bss_begin+0x1220>
   231b4:	03813783          	ld	a5,56(sp)
   231b8:	02f13823          	sd	a5,48(sp)
   231bc:	03813783          	ld	a5,56(sp)
   231c0:	00178793          	addi	a5,a5,1
   231c4:	02f13c23          	sd	a5,56(sp)
   231c8:	03813783          	ld	a5,56(sp)
   231cc:	0007c783          	lbu	a5,0(a5)
   231d0:	00078713          	mv	a4,a5
   231d4:	02f00793          	li	a5,47
   231d8:	02e7fe63          	bgeu	a5,a4,23214 <bss_begin+0x1214>
   231dc:	03813783          	ld	a5,56(sp)
   231e0:	0007c783          	lbu	a5,0(a5)
   231e4:	00078713          	mv	a4,a5
   231e8:	03900793          	li	a5,57
   231ec:	02e7e463          	bltu	a5,a4,23214 <bss_begin+0x1214>
   231f0:	01410793          	addi	a5,sp,20
   231f4:	00078593          	mv	a1,a5
   231f8:	03813503          	ld	a0,56(sp)
   231fc:	cc5ff0ef          	jal	ra,22ec0 <bss_begin+0xec0>
   23200:	00050793          	mv	a5,a0
   23204:	00078713          	mv	a4,a5
   23208:	03813783          	ld	a5,56(sp)
   2320c:	00e787b3          	add	a5,a5,a4
   23210:	02f13c23          	sd	a5,56(sp)
   23214:	03813783          	ld	a5,56(sp)
   23218:	0007c783          	lbu	a5,0(a5)
   2321c:	02f12623          	sw	a5,44(sp)
   23220:	02c12783          	lw	a5,44(sp)
   23224:	0007871b          	sext.w	a4,a5
   23228:	06400793          	li	a5,100
   2322c:	00f70a63          	beq	a4,a5,23240 <bss_begin+0x1240>
   23230:	02c12783          	lw	a5,44(sp)
   23234:	0007871b          	sext.w	a4,a5
   23238:	07800793          	li	a5,120
   2323c:	04f71863          	bne	a4,a5,2328c <bss_begin+0x128c>
   23240:	00013783          	ld	a5,0(sp)
   23244:	00878713          	addi	a4,a5,8
   23248:	00e13023          	sd	a4,0(sp)
   2324c:	0007a783          	lw	a5,0(a5)
   23250:	00f12c23          	sw	a5,24(sp)
   23254:	01812503          	lw	a0,24(sp)
   23258:	02c12783          	lw	a5,44(sp)
   2325c:	0007871b          	sext.w	a4,a5
   23260:	07800793          	li	a5,120
   23264:	40f707b3          	sub	a5,a4,a5
   23268:	0017b793          	seqz	a5,a5
   2326c:	0ff7f793          	andi	a5,a5,255
   23270:	0007879b          	sext.w	a5,a5
   23274:	01412703          	lw	a4,20(sp)
   23278:	02412683          	lw	a3,36(sp)
   2327c:	00070613          	mv	a2,a4
   23280:	00078593          	mv	a1,a5
   23284:	d21ff0ef          	jal	ra,22fa4 <bss_begin+0xfa4>
   23288:	0740006f          	j	232fc <bss_begin+0x12fc>
   2328c:	02012423          	sw	zero,40(sp)
   23290:	0280006f          	j	232b8 <bss_begin+0x12b8>
   23294:	02812783          	lw	a5,40(sp)
   23298:	03013703          	ld	a4,48(sp)
   2329c:	00f707b3          	add	a5,a4,a5
   232a0:	0007c783          	lbu	a5,0(a5)
   232a4:	00078513          	mv	a0,a5
   232a8:	b01ff0ef          	jal	ra,22da8 <bss_begin+0xda8>
   232ac:	02812783          	lw	a5,40(sp)
   232b0:	0017879b          	addiw	a5,a5,1
   232b4:	02f12423          	sw	a5,40(sp)
   232b8:	02812703          	lw	a4,40(sp)
   232bc:	03813683          	ld	a3,56(sp)
   232c0:	03013783          	ld	a5,48(sp)
   232c4:	40f687b3          	sub	a5,a3,a5
   232c8:	fcf746e3          	blt	a4,a5,23294 <bss_begin+0x1294>
   232cc:	02c12783          	lw	a5,44(sp)
   232d0:	0007879b          	sext.w	a5,a5
   232d4:	00078863          	beqz	a5,232e4 <bss_begin+0x12e4>
   232d8:	02c12783          	lw	a5,44(sp)
   232dc:	0ff7f793          	andi	a5,a5,255
   232e0:	00c0006f          	j	232ec <bss_begin+0x12ec>
   232e4:	02012783          	lw	a5,32(sp)
   232e8:	0ff7f793          	andi	a5,a5,255
   232ec:	00f10fa3          	sb	a5,31(sp)
   232f0:	01f14783          	lbu	a5,31(sp)
   232f4:	00078513          	mv	a0,a5
   232f8:	ab1ff0ef          	jal	ra,22da8 <bss_begin+0xda8>
   232fc:	03813783          	ld	a5,56(sp)
   23300:	00178793          	addi	a5,a5,1
   23304:	02f13c23          	sd	a5,56(sp)
   23308:	03813783          	ld	a5,56(sp)
   2330c:	0007c783          	lbu	a5,0(a5)
   23310:	e6079ae3          	bnez	a5,23184 <bss_begin+0x1184>
   23314:	00000793          	li	a5,0
   23318:	00078513          	mv	a0,a5
   2331c:	04813083          	ld	ra,72(sp)
   23320:	05010113          	addi	sp,sp,80
   23324:	00008067          	ret
   23328:	f9010113          	addi	sp,sp,-112
   2332c:	02113423          	sd	ra,40(sp)
   23330:	00a13423          	sd	a0,8(sp)
   23334:	02b13c23          	sd	a1,56(sp)
   23338:	04c13023          	sd	a2,64(sp)
   2333c:	04d13423          	sd	a3,72(sp)
   23340:	04e13823          	sd	a4,80(sp)
   23344:	04f13c23          	sd	a5,88(sp)
   23348:	07013023          	sd	a6,96(sp)
   2334c:	07113423          	sd	a7,104(sp)
   23350:	07010793          	addi	a5,sp,112
   23354:	00f13023          	sd	a5,0(sp)
   23358:	00013783          	ld	a5,0(sp)
   2335c:	fc878793          	addi	a5,a5,-56
   23360:	00f13c23          	sd	a5,24(sp)
   23364:	01813783          	ld	a5,24(sp)
   23368:	00078593          	mv	a1,a5
   2336c:	00813503          	ld	a0,8(sp)
   23370:	df1ff0ef          	jal	ra,23160 <bss_begin+0x1160>
   23374:	00000793          	li	a5,0
   23378:	00078513          	mv	a0,a5
   2337c:	02813083          	ld	ra,40(sp)
   23380:	07010113          	addi	sp,sp,112
   23384:	00008067          	ret
   23388:	fd010113          	addi	sp,sp,-48
   2338c:	02113423          	sd	ra,40(sp)
   23390:	00050793          	mv	a5,a0
   23394:	00f12623          	sw	a5,12(sp)
   23398:	03000513          	li	a0,48
   2339c:	a0dff0ef          	jal	ra,22da8 <bss_begin+0xda8>
   233a0:	07800513          	li	a0,120
   233a4:	a05ff0ef          	jal	ra,22da8 <bss_begin+0xda8>
   233a8:	00700793          	li	a5,7
   233ac:	00f12e23          	sw	a5,28(sp)
   233b0:	07c0006f          	j	2342c <bss_begin+0x142c>
   233b4:	01c12783          	lw	a5,28(sp)
   233b8:	0027979b          	slliw	a5,a5,0x2
   233bc:	0007879b          	sext.w	a5,a5
   233c0:	00078713          	mv	a4,a5
   233c4:	00c12783          	lw	a5,12(sp)
   233c8:	00e7d7bb          	srlw	a5,a5,a4
   233cc:	0007879b          	sext.w	a5,a5
   233d0:	0007879b          	sext.w	a5,a5
   233d4:	00f7f793          	andi	a5,a5,15
   233d8:	00f12c23          	sw	a5,24(sp)
   233dc:	01812783          	lw	a5,24(sp)
   233e0:	0007871b          	sext.w	a4,a5
   233e4:	00900793          	li	a5,9
   233e8:	02e7c063          	blt	a5,a4,23408 <bss_begin+0x1408>
   233ec:	01812783          	lw	a5,24(sp)
   233f0:	0ff7f793          	andi	a5,a5,255
   233f4:	0307879b          	addiw	a5,a5,48
   233f8:	0ff7f793          	andi	a5,a5,255
   233fc:	00078513          	mv	a0,a5
   23400:	9a9ff0ef          	jal	ra,22da8 <bss_begin+0xda8>
   23404:	01c0006f          	j	23420 <bss_begin+0x1420>
   23408:	01812783          	lw	a5,24(sp)
   2340c:	0ff7f793          	andi	a5,a5,255
   23410:	0377879b          	addiw	a5,a5,55
   23414:	0ff7f793          	andi	a5,a5,255
   23418:	00078513          	mv	a0,a5
   2341c:	98dff0ef          	jal	ra,22da8 <bss_begin+0xda8>
   23420:	01c12783          	lw	a5,28(sp)
   23424:	fff7879b          	addiw	a5,a5,-1
   23428:	00f12e23          	sw	a5,28(sp)
   2342c:	01c12783          	lw	a5,28(sp)
   23430:	0007879b          	sext.w	a5,a5
   23434:	f807d0e3          	bgez	a5,233b4 <bss_begin+0x13b4>
   23438:	00000013          	nop
   2343c:	00000013          	nop
   23440:	02813083          	ld	ra,40(sp)
   23444:	03010113          	addi	sp,sp,48
   23448:	00008067          	ret
   2344c:	0000                	unimp
   2344e:	0000                	unimp
   23450:	abcd                	j	23a42 <bss_begin+0x1a42>
   23452:	abcd                	j	23a44 <bss_begin+0x1a44>
   23454:	5678                	lw	a4,108(a2)
   23456:	1234                	addi	a3,sp,296
   23458:	000222b7          	lui	t0,0x22
   2345c:	00028303          	lb	t1,0(t0) # 22000 <bss_begin>
   23460:	00428303          	lb	t1,4(t0)
   23464:	ffc28303          	lb	t1,-4(t0)
   23468:	0002b303          	ld	t1,0(t0)
   2346c:	00428303          	lb	t1,4(t0)
   23470:	802002b7          	lui	t0,0x80200
   23474:	40200337          	lui	t1,0x40200
   23478:	00000297          	auipc	t0,0x0
   2347c:	fd828293          	addi	t0,t0,-40 # 23450 <bss_begin+0x1450>
   23480:	00000317          	auipc	t1,0x0
   23484:	fd030313          	addi	t1,t1,-48 # 23450 <bss_begin+0x1450>
   23488:	00008067          	ret
   2348c:	00001297          	auipc	t0,0x1
   23490:	80028293          	addi	t0,t0,-2048 # 23c8c <bss_begin+0x1c8c>
   23494:	8002b303          	ld	t1,-2048(t0)
   23498:	00008067          	ret
   2349c:	c00002b7          	lui	t0,0xc0000
   234a0:	0452829b          	addiw	t0,t0,69
   234a4:	02129293          	slli	t0,t0,0x21
   234a8:	4012d593          	srai	a1,t0,0x1
   234ac:	0012d313          	srli	t1,t0,0x1
   234b0:	0250029b          	addiw	t0,zero,37
   234b4:	01f29293          	slli	t0,t0,0x1f
   234b8:	08a28293          	addi	t0,t0,138 # ffffffffc000008a <_payload_end+0xffffffffbffdb08a>
   234bc:	4012d61b          	sraiw	a2,t0,0x1
   234c0:	0012d31b          	srliw	t1,t0,0x1
   234c4:	0012969b          	slliw	a3,t0,0x1
   234c8:	0490029b          	addiw	t0,zero,73
   234cc:	01e29293          	slli	t0,t0,0x1e
   234d0:	08a28293          	addi	t0,t0,138
   234d4:	4012d61b          	sraiw	a2,t0,0x1
   234d8:	0012d31b          	srliw	t1,t0,0x1
   234dc:	0012971b          	slliw	a4,t0,0x1
   234e0:	00008067          	ret
   234e4:	80028593          	addi	a1,t0,-2048
   234e8:	000012b7          	lui	t0,0x1
   234ec:	a012829b          	addiw	t0,t0,-1535
   234f0:	01529293          	slli	t0,t0,0x15
   234f4:	40000337          	lui	t1,0x40000
   234f8:	70028593          	addi	a1,t0,1792 # 1700 <__bin_size-0x3900>
   234fc:	80028593          	addi	a1,t0,-2048
   23500:	0802861b          	addiw	a2,t0,128
   23504:	006286b3          	add	a3,t0,t1
   23508:	0062873b          	addw	a4,t0,t1
   2350c:	000012b7          	lui	t0,0x1
   23510:	c012829b          	addiw	t0,t0,-1023
   23514:	01529293          	slli	t0,t0,0x15
   23518:	00200337          	lui	t1,0x200
   2351c:	40628533          	sub	a0,t0,t1
   23520:	406285bb          	subw	a1,t0,t1
   23524:	00008067          	ret
   23528:	00b56663          	bltu	a0,a1,23534 <bss_begin+0x1534>
   2352c:	00000793          	li	a5,0
   23530:	0080006f          	j	23538 <bss_begin+0x1538>
   23534:	fff00793          	li	a5,-1
   23538:	00078513          	mv	a0,a5
   2353c:	00008067          	ret
   23540:	00050663          	beqz	a0,2354c <bss_begin+0x154c>
   23544:	fff58793          	addi	a5,a1,-1
   23548:	0080006f          	j	23550 <bss_begin+0x1550>
   2354c:	00258793          	addi	a5,a1,2
   23550:	00078513          	mv	a0,a5
   23554:	00008067          	ret
   23558:	000202b7          	lui	t0,0x20
   2355c:	00021337          	lui	t1,0x21
   23560:	02028393          	addi	t2,t0,32 # 20020 <_start+0x20>
   23564:	0002be03          	ld	t3,0(t0)
   23568:	01c33023          	sd	t3,0(t1) # 21000 <stacks_start>
   2356c:	00828293          	addi	t0,t0,8
   23570:	00830313          	addi	t1,t1,8
   23574:	fe72c8e3          	blt	t0,t2,23564 <bss_begin+0x1564>
   23578:	00008067          	ret
   2357c:	00b50533          	add	a0,a0,a1
   23580:	00000013          	nop
   23584:	00008067          	ret
   23588:	ff810113          	addi	sp,sp,-8
   2358c:	00113023          	sd	ra,0(sp)
   23590:	00100513          	li	a0,1
   23594:	00200593          	li	a1,2
   23598:	fe5ff0ef          	jal	ra,2357c <bss_begin+0x157c>
   2359c:	00000013          	nop
   235a0:	00013083          	ld	ra,0(sp)
   235a4:	00810113          	addi	sp,sp,8
   235a8:	00008067          	ret
   235ac:	020002b7          	lui	t0,0x2000
   235b0:	0f02829b          	addiw	t0,t0,240
   235b4:	0002a303          	lw	t1,0(t0) # 2000000 <_payload_end+0x1fdb000>
   235b8:	fff0f3b7          	lui	t2,0xfff0f
   235bc:	0ff3839b          	addiw	t2,t2,255
   235c0:	00737333          	and	t1,t1,t2
   235c4:	000303b7          	lui	t2,0x30
   235c8:	3003839b          	addiw	t2,t2,768
   235cc:	00736333          	or	t1,t1,t2
   235d0:	0062a023          	sw	t1,0(t0)
   235d4:	020022b7          	lui	t0,0x2002
   235d8:	90c2829b          	addiw	t0,t0,-1780
   235dc:	0002a303          	lw	t1,0(t0) # 2002000 <_payload_end+0x1fdd000>
   235e0:	00136313          	ori	t1,t1,1
   235e4:	0062a023          	sw	t1,0(t0)
   235e8:	020022b7          	lui	t0,0x2002
   235ec:	90c2829b          	addiw	t0,t0,-1780
   235f0:	0002a303          	lw	t1,0(t0) # 2002000 <_payload_end+0x1fdd000>
   235f4:	000103b7          	lui	t2,0x10
   235f8:	00736333          	or	t1,t1,t2
   235fc:	0062a023          	sw	t1,0(t0)
   23600:	025002b7          	lui	t0,0x2500
   23604:	0002a223          	sw	zero,4(t0) # 2500004 <_payload_end+0x24db004>
   23608:	0f700313          	li	t1,247
   2360c:	0062a423          	sw	t1,8(t0)
   23610:	0002a823          	sw	zero,16(t0)
   23614:	00c2a303          	lw	t1,12(t0)
   23618:	08036313          	ori	t1,t1,128
   2361c:	0062a623          	sw	t1,12(t0)
   23620:	00d00393          	li	t2,13
   23624:	0072a023          	sw	t2,0(t0)
   23628:	00000393          	li	t2,0
   2362c:	0072a223          	sw	t2,4(t0)
   23630:	08034313          	xori	t1,t1,128
   23634:	0062a623          	sw	t1,12(t0)
   23638:	00c2a303          	lw	t1,12(t0)
   2363c:	ff000393          	li	t2,-16
   23640:	00737333          	and	t1,t1,t2
   23644:	00300393          	li	t2,3
   23648:	00736333          	or	t1,t1,t2
   2364c:	0062a623          	sw	t1,12(t0)
   23650:	00008067          	ret
   23654:	025002b7          	lui	t0,0x2500
   23658:	07c2a303          	lw	t1,124(t0) # 250007c <_payload_end+0x24db07c>
   2365c:	00237313          	andi	t1,t1,2
   23660:	fe030ce3          	beqz	t1,23658 <bss_begin+0x1658>
   23664:	00a28023          	sb	a0,0(t0)
   23668:	00008067          	ret
   2366c:	00008c13          	mv	s8,ra
   23670:	00050793          	mv	a5,a0
   23674:	0007c503          	lbu	a0,0(a5)
   23678:	00050863          	beqz	a0,23688 <bss_begin+0x1688>
   2367c:	fd9ff0ef          	jal	ra,23654 <bss_begin+0x1654>
   23680:	00178793          	addi	a5,a5,1
   23684:	ff1ff06f          	j	23674 <bss_begin+0x1674>
   23688:	000c0093          	mv	ra,s8
   2368c:	00008067          	ret
   23690:	00000293          	li	t0,0
   23694:	00b53023          	sd	a1,0(a0) # 2001000 <_payload_end+0x1fdc000>
   23698:	00b53423          	sd	a1,8(a0)
   2369c:	01028293          	addi	t0,t0,16
   236a0:	fec2cae3          	blt	t0,a2,23694 <bss_begin+0x1694>
   236a4:	00008067          	ret
   236a8:	706d6f63          	bltu	s10,t1,23dc6 <bss_begin+0x1dc6>
   236ac:	7261                	lui	tp,0xffff8
   236ae:	5f65                	li	t5,-7
   236b0:	6e61                	lui	t3,0x18
   236b2:	5f64                	lw	s1,124(a4)
   236b4:	6572                	ld	a0,280(sp)
   236b6:	7574                	ld	a3,232(a0)
   236b8:	6e72                	ld	t3,280(sp)
   236ba:	6f20                	ld	s0,88(a4)
   236bc:	000a0d6b          	0xa0d6b
   236c0:	706d6f63          	bltu	s10,t1,23dde <bss_begin+0x1dde>
   236c4:	7261                	lui	tp,0xffff8
   236c6:	5f65                	li	t5,-7
   236c8:	6e61                	lui	t3,0x18
   236ca:	5f64                	lw	s1,124(a4)
   236cc:	6572                	ld	a0,280(sp)
   236ce:	7574                	ld	a3,232(a0)
   236d0:	6e72                	ld	t3,280(sp)
   236d2:	6620                	ld	s0,72(a2)
   236d4:	6961                	lui	s2,0x18
   236d6:	0d6c                	addi	a1,sp,668
   236d8:	000a                	c.slli	zero,0x2
   236da:	0000                	unimp
   236dc:	0000                	unimp
   236de:	0000                	unimp
   236e0:	206c6573          	csrrsi	a0,0x206,24
   236e4:	6574                	ld	a3,200(a0)
   236e6:	6f207473          	csrrci	s0,0x6f2,0
   236ea:	000a0d6b          	0xa0d6b
   236ee:	0000                	unimp
   236f0:	7262                	ld	tp,56(sp)
   236f2:	6e61                	lui	t3,0x18
   236f4:	74206863          	bltu	zero,sp,23e44 <bss_begin+0x1e44>
   236f8:	7365                	lui	t1,0xffff9
   236fa:	2074                	fld	fa3,192(s0)
   236fc:	6f64                	ld	s1,216(a4)
   236fe:	656e                	ld	a0,216(sp)
   23700:	0a0d                	addi	s4,s4,3
   23702:	0000                	unimp
   23704:	0000                	unimp
   23706:	0000                	unimp
   23708:	636c6557          	0x636c6557
   2370c:	20656d6f          	jal	s10,79912 <_payload_end+0x54912>
   23710:	4952                	lw	s2,20(sp)
   23712:	562d4353          	0x562d4353
   23716:	0d21                	addi	s10,s10,8
   23718:	000a                	c.slli	zero,0x2
   2371a:	0000                	unimp
   2371c:	0000                	unimp
   2371e:	0000                	unimp
   23720:	0a0d                	addi	s4,s4,3
   23722:	6f42                	ld	t5,16(sp)
   23724:	6e69746f          	jal	s0,bae0a <_payload_end+0x95e0a>
   23728:	74612067          	0x74612067
   2372c:	6120                	ld	s0,64(a0)
   2372e:	0a0d6d73          	csrrsi	s10,0xa0,26
	...
