
benos.elf:     file format elf64-littleriscv


Disassembly of section .text.boot:

0000000000022000 <_start>:
   22000:	10401073          	csrw	sie,zero
   22004:	5a8010ef          	jal	ra,235ac <__init_uart>
   22008:	00000097          	auipc	ra,0x0
   2200c:	01c080e7          	jalr	28(ra) # 22024 <print_asm>
   22010:	00002117          	auipc	sp,0x2
   22014:	ff010113          	addi	sp,sp,-16 # 24000 <stacks_start>
   22018:	000012b7          	lui	t0,0x1
   2201c:	00510133          	add	sp,sp,t0
   22020:	1280006f          	j	22148 <kernel_main>

0000000000022024 <print_asm>:
   22024:	00008493          	mv	s1,ra
   22028:	00001517          	auipc	a0,0x1
   2202c:	6f850513          	addi	a0,a0,1784 # 23720 <boot_string>
   22030:	63c010ef          	jal	ra,2366c <put_string_uart>
   22034:	00048093          	mv	ra,s1
   22038:	00008067          	ret

Disassembly of section .text:

0000000000022040 <asm_test>:
   22040:	fe010113          	addi	sp,sp,-32
   22044:	00113c23          	sd	ra,24(sp)
   22048:	410010ef          	jal	ra,23458 <load_store_test>
   2204c:	440010ef          	jal	ra,2348c <pc_related_test>
   22050:	44c010ef          	jal	ra,2349c <shift_test>
   22054:	490010ef          	jal	ra,234e4 <add_sub_test>
   22058:	00900593          	li	a1,9
   2205c:	00a00513          	li	a0,10
   22060:	4c8010ef          	jal	ra,23528 <compare_and_return>
   22064:	00a13423          	sd	a0,8(sp)
   22068:	00813783          	ld	a5,8(sp)
   2206c:	00079a63          	bnez	a5,22080 <asm_test+0x40>
   22070:	00001517          	auipc	a0,0x1
   22074:	63850513          	addi	a0,a0,1592 # 236a8 <.loop+0x14>
   22078:	5e9000ef          	jal	ra,22e60 <uart_send_string>
   2207c:	0100006f          	j	2208c <asm_test+0x4c>
   22080:	00001517          	auipc	a0,0x1
   22084:	64050513          	addi	a0,a0,1600 # 236c0 <.loop+0x2c>
   22088:	5d9000ef          	jal	ra,22e60 <uart_send_string>
   2208c:	00a00593          	li	a1,10
   22090:	00900513          	li	a0,9
   22094:	494010ef          	jal	ra,23528 <compare_and_return>
   22098:	00a13023          	sd	a0,0(sp)
   2209c:	00013703          	ld	a4,0(sp)
   220a0:	fff00793          	li	a5,-1
   220a4:	00f71a63          	bne	a4,a5,220b8 <asm_test+0x78>
   220a8:	00001517          	auipc	a0,0x1
   220ac:	60050513          	addi	a0,a0,1536 # 236a8 <.loop+0x14>
   220b0:	5b1000ef          	jal	ra,22e60 <uart_send_string>
   220b4:	0100006f          	j	220c4 <asm_test+0x84>
   220b8:	00001517          	auipc	a0,0x1
   220bc:	60850513          	addi	a0,a0,1544 # 236c0 <.loop+0x2c>
   220c0:	5a1000ef          	jal	ra,22e60 <uart_send_string>
   220c4:	00900593          	li	a1,9
   220c8:	00000513          	li	a0,0
   220cc:	474010ef          	jal	ra,23540 <sel_test>
   220d0:	00a13423          	sd	a0,8(sp)
   220d4:	00813703          	ld	a4,8(sp)
   220d8:	00b00793          	li	a5,11
   220dc:	00f71863          	bne	a4,a5,220ec <asm_test+0xac>
   220e0:	00001517          	auipc	a0,0x1
   220e4:	60050513          	addi	a0,a0,1536 # 236e0 <.loop+0x4c>
   220e8:	579000ef          	jal	ra,22e60 <uart_send_string>
   220ec:	00200593          	li	a1,2
   220f0:	00500513          	li	a0,5
   220f4:	44c010ef          	jal	ra,23540 <sel_test>
   220f8:	00a13023          	sd	a0,0(sp)
   220fc:	00013703          	ld	a4,0(sp)
   22100:	00100793          	li	a5,1
   22104:	00f71863          	bne	a4,a5,22114 <asm_test+0xd4>
   22108:	00001517          	auipc	a0,0x1
   2210c:	5d850513          	addi	a0,a0,1496 # 236e0 <.loop+0x4c>
   22110:	551000ef          	jal	ra,22e60 <uart_send_string>
   22114:	444010ef          	jal	ra,23558 <my_memcpy_test>
   22118:	02800613          	li	a2,40
   2211c:	05500593          	li	a1,85
   22120:	00020537          	lui	a0,0x20
   22124:	270000ef          	jal	ra,22394 <memset>
   22128:	460010ef          	jal	ra,23588 <branch_test>
   2212c:	00001517          	auipc	a0,0x1
   22130:	5c450513          	addi	a0,a0,1476 # 236f0 <.loop+0x5c>
   22134:	52d000ef          	jal	ra,22e60 <uart_send_string>
   22138:	00000013          	nop
   2213c:	01813083          	ld	ra,24(sp)
   22140:	02010113          	addi	sp,sp,32
   22144:	00008067          	ret

0000000000022148 <kernel_main>:
   22148:	ff010113          	addi	sp,sp,-16
   2214c:	00113423          	sd	ra,8(sp)
   22150:	139000ef          	jal	ra,22a88 <sys_clock_init>
   22154:	215000ef          	jal	ra,22b68 <uart_init>
   22158:	00001517          	auipc	a0,0x1
   2215c:	5b050513          	addi	a0,a0,1456 # 23708 <.loop+0x74>
   22160:	501000ef          	jal	ra,22e60 <uart_send_string>
   22164:	eddff0ef          	jal	ra,22040 <asm_test>
   22168:	0000006f          	j	22168 <kernel_main+0x20>

000000000002216c <__memset_16bytes_inline_asm>:
   2216c:	fd010113          	addi	sp,sp,-48
   22170:	00a13c23          	sd	a0,24(sp)
   22174:	00b13823          	sd	a1,16(sp)
   22178:	00060793          	mv	a5,a2
   2217c:	00f12623          	sw	a5,12(sp)
   22180:	02012623          	sw	zero,44(sp)
   22184:	01013603          	ld	a2,16(sp)
   22188:	01813683          	ld	a3,24(sp)
   2218c:	00c12703          	lw	a4,12(sp)
   22190:	02c12783          	lw	a5,44(sp)
   22194:	00c6b023          	sd	a2,0(a3)
   22198:	00c6b423          	sd	a2,8(a3)
   2219c:	01078793          	addi	a5,a5,16
   221a0:	fee7cae3          	blt	a5,a4,22194 <__memset_16bytes_inline_asm+0x28>
   221a4:	00d13c23          	sd	a3,24(sp)
   221a8:	00e12623          	sw	a4,12(sp)
   221ac:	02f12623          	sw	a5,44(sp)
   221b0:	00000013          	nop
   221b4:	03010113          	addi	sp,sp,48
   221b8:	00008067          	ret

00000000000221bc <__memset_1bytes>:
   221bc:	fd010113          	addi	sp,sp,-48
   221c0:	00a13c23          	sd	a0,24(sp)
   221c4:	00058793          	mv	a5,a1
   221c8:	00c13423          	sd	a2,8(sp)
   221cc:	00f12a23          	sw	a5,20(sp)
   221d0:	01813783          	ld	a5,24(sp)
   221d4:	02f13423          	sd	a5,40(sp)
   221d8:	01c0006f          	j	221f4 <__memset_1bytes+0x38>
   221dc:	02813783          	ld	a5,40(sp)
   221e0:	00178713          	addi	a4,a5,1
   221e4:	02e13423          	sd	a4,40(sp)
   221e8:	01412703          	lw	a4,20(sp)
   221ec:	0ff77713          	andi	a4,a4,255
   221f0:	00e78023          	sb	a4,0(a5)
   221f4:	00813783          	ld	a5,8(sp)
   221f8:	fff78713          	addi	a4,a5,-1
   221fc:	00e13423          	sd	a4,8(sp)
   22200:	fc079ee3          	bnez	a5,221dc <__memset_1bytes+0x20>
   22204:	01813783          	ld	a5,24(sp)
   22208:	00078513          	mv	a0,a5
   2220c:	03010113          	addi	sp,sp,48
   22210:	00008067          	ret

0000000000022214 <__memset>:
   22214:	f9010113          	addi	sp,sp,-112
   22218:	06113423          	sd	ra,104(sp)
   2221c:	00a13c23          	sd	a0,24(sp)
   22220:	00058793          	mv	a5,a1
   22224:	00c13423          	sd	a2,8(sp)
   22228:	00f12a23          	sw	a5,20(sp)
   2222c:	01813783          	ld	a5,24(sp)
   22230:	04f13c23          	sd	a5,88(sp)
   22234:	01000793          	li	a5,16
   22238:	02f13c23          	sd	a5,56(sp)
   2223c:	00813783          	ld	a5,8(sp)
   22240:	04f13823          	sd	a5,80(sp)
   22244:	05813783          	ld	a5,88(sp)
   22248:	02f13823          	sd	a5,48(sp)
   2224c:	04013023          	sd	zero,64(sp)
   22250:	04012623          	sw	zero,76(sp)
   22254:	0340006f          	j	22288 <__memset+0x74>
   22258:	01412783          	lw	a5,20(sp)
   2225c:	0ff7f793          	andi	a5,a5,255
   22260:	04c12703          	lw	a4,76(sp)
   22264:	0037171b          	slliw	a4,a4,0x3
   22268:	0007071b          	sext.w	a4,a4
   2226c:	00e797b3          	sll	a5,a5,a4
   22270:	04013703          	ld	a4,64(sp)
   22274:	00f767b3          	or	a5,a4,a5
   22278:	04f13023          	sd	a5,64(sp)
   2227c:	04c12783          	lw	a5,76(sp)
   22280:	0017879b          	addiw	a5,a5,1
   22284:	04f12623          	sw	a5,76(sp)
   22288:	04c12783          	lw	a5,76(sp)
   2228c:	0007871b          	sext.w	a4,a5
   22290:	00700793          	li	a5,7
   22294:	fce7d2e3          	bge	a5,a4,22258 <__memset+0x44>
   22298:	03813783          	ld	a5,56(sp)
   2229c:	fff78713          	addi	a4,a5,-1
   222a0:	03013783          	ld	a5,48(sp)
   222a4:	00f777b3          	and	a5,a4,a5
   222a8:	04078e63          	beqz	a5,22304 <__memset+0xf0>
   222ac:	03813783          	ld	a5,56(sp)
   222b0:	fff78793          	addi	a5,a5,-1
   222b4:	03013703          	ld	a4,48(sp)
   222b8:	00f777b3          	and	a5,a4,a5
   222bc:	02f13423          	sd	a5,40(sp)
   222c0:	03813703          	ld	a4,56(sp)
   222c4:	02813783          	ld	a5,40(sp)
   222c8:	40f707b3          	sub	a5,a4,a5
   222cc:	02f13423          	sd	a5,40(sp)
   222d0:	01412783          	lw	a5,20(sp)
   222d4:	02813603          	ld	a2,40(sp)
   222d8:	00078593          	mv	a1,a5
   222dc:	05813503          	ld	a0,88(sp)
   222e0:	eddff0ef          	jal	ra,221bc <__memset_1bytes>
   222e4:	05813703          	ld	a4,88(sp)
   222e8:	02813783          	ld	a5,40(sp)
   222ec:	00f707b3          	add	a5,a4,a5
   222f0:	04f13c23          	sd	a5,88(sp)
   222f4:	00813703          	ld	a4,8(sp)
   222f8:	02813783          	ld	a5,40(sp)
   222fc:	40f707b3          	sub	a5,a4,a5
   22300:	04f13823          	sd	a5,80(sp)
   22304:	05013703          	ld	a4,80(sp)
   22308:	03813783          	ld	a5,56(sp)
   2230c:	06e7fa63          	bgeu	a5,a4,22380 <__memset+0x16c>
   22310:	05013703          	ld	a4,80(sp)
   22314:	03813783          	ld	a5,56(sp)
   22318:	02f757b3          	divu	a5,a4,a5
   2231c:	02f12223          	sw	a5,36(sp)
   22320:	05013703          	ld	a4,80(sp)
   22324:	03813783          	ld	a5,56(sp)
   22328:	02f777b3          	remu	a5,a4,a5
   2232c:	04f13823          	sd	a5,80(sp)
   22330:	02412783          	lw	a5,36(sp)
   22334:	0047979b          	slliw	a5,a5,0x4
   22338:	0007879b          	sext.w	a5,a5
   2233c:	00078613          	mv	a2,a5
   22340:	04013583          	ld	a1,64(sp)
   22344:	05813503          	ld	a0,88(sp)
   22348:	e25ff0ef          	jal	ra,2216c <__memset_16bytes_inline_asm>
   2234c:	05013783          	ld	a5,80(sp)
   22350:	02078863          	beqz	a5,22380 <__memset+0x16c>
   22354:	02412783          	lw	a5,36(sp)
   22358:	0047979b          	slliw	a5,a5,0x4
   2235c:	0007879b          	sext.w	a5,a5
   22360:	00078713          	mv	a4,a5
   22364:	05813783          	ld	a5,88(sp)
   22368:	00e787b3          	add	a5,a5,a4
   2236c:	01412703          	lw	a4,20(sp)
   22370:	05013603          	ld	a2,80(sp)
   22374:	00070593          	mv	a1,a4
   22378:	00078513          	mv	a0,a5
   2237c:	e41ff0ef          	jal	ra,221bc <__memset_1bytes>
   22380:	01813783          	ld	a5,24(sp)
   22384:	00078513          	mv	a0,a5
   22388:	06813083          	ld	ra,104(sp)
   2238c:	07010113          	addi	sp,sp,112
   22390:	00008067          	ret

0000000000022394 <memset>:
   22394:	fd010113          	addi	sp,sp,-48
   22398:	02113423          	sd	ra,40(sp)
   2239c:	00a13c23          	sd	a0,24(sp)
   223a0:	00058793          	mv	a5,a1
   223a4:	00c13423          	sd	a2,8(sp)
   223a8:	00f12a23          	sw	a5,20(sp)
   223ac:	01412783          	lw	a5,20(sp)
   223b0:	00813603          	ld	a2,8(sp)
   223b4:	00078593          	mv	a1,a5
   223b8:	01813503          	ld	a0,24(sp)
   223bc:	e59ff0ef          	jal	ra,22214 <__memset>
   223c0:	00050793          	mv	a5,a0
   223c4:	00078513          	mv	a0,a5
   223c8:	02813083          	ld	ra,40(sp)
   223cc:	03010113          	addi	sp,sp,48
   223d0:	00008067          	ret

00000000000223d4 <read32>:
   223d4:	ff010113          	addi	sp,sp,-16
   223d8:	00a13423          	sd	a0,8(sp)
   223dc:	00813783          	ld	a5,8(sp)
   223e0:	0007a783          	lw	a5,0(a5)
   223e4:	0007879b          	sext.w	a5,a5
   223e8:	00078513          	mv	a0,a5
   223ec:	01010113          	addi	sp,sp,16
   223f0:	00008067          	ret

00000000000223f4 <write32>:
   223f4:	ff010113          	addi	sp,sp,-16
   223f8:	00a13423          	sd	a0,8(sp)
   223fc:	00058793          	mv	a5,a1
   22400:	00f12223          	sw	a5,4(sp)
   22404:	00813783          	ld	a5,8(sp)
   22408:	00412703          	lw	a4,4(sp)
   2240c:	00e7a023          	sw	a4,0(a5)
   22410:	00000013          	nop
   22414:	01010113          	addi	sp,sp,16
   22418:	00008067          	ret

000000000002241c <sdelay>:
   2241c:	ff010113          	addi	sp,sp,-16
   22420:	00a13423          	sd	a0,8(sp)
   22424:	00813783          	ld	a5,8(sp)
   22428:	00a79793          	slli	a5,a5,0xa
   2242c:	00f13423          	sd	a5,8(sp)
   22430:	00000013          	nop
   22434:	00813783          	ld	a5,8(sp)
   22438:	fff78713          	addi	a4,a5,-1
   2243c:	00e13423          	sd	a4,8(sp)
   22440:	fe079ae3          	bnez	a5,22434 <sdelay+0x18>
   22444:	00000013          	nop
   22448:	00000013          	nop
   2244c:	01010113          	addi	sp,sp,16
   22450:	00008067          	ret

0000000000022454 <set_pll_cpux_axi>:
   22454:	fe010113          	addi	sp,sp,-32
   22458:	00113c23          	sd	ra,24(sp)
   2245c:	30100593          	li	a1,769
   22460:	020027b7          	lui	a5,0x2002
   22464:	d0078513          	addi	a0,a5,-768 # 2001d00 <bss_begin+0x1fdcd00>
   22468:	f8dff0ef          	jal	ra,223f4 <write32>
   2246c:	00100513          	li	a0,1
   22470:	fadff0ef          	jal	ra,2241c <sdelay>
   22474:	02001537          	lui	a0,0x2001
   22478:	f5dff0ef          	jal	ra,223d4 <read32>
   2247c:	00050793          	mv	a5,a0
   22480:	00f12623          	sw	a5,12(sp)
   22484:	00c12703          	lw	a4,12(sp)
   22488:	f80007b7          	lui	a5,0xf8000
   2248c:	fff78793          	addi	a5,a5,-1 # fffffffff7ffffff <bss_begin+0xfffffffff7fdafff>
   22490:	00f777b3          	and	a5,a4,a5
   22494:	00f12623          	sw	a5,12(sp)
   22498:	00c12783          	lw	a5,12(sp)
   2249c:	00078593          	mv	a1,a5
   224a0:	02001537          	lui	a0,0x2001
   224a4:	f51ff0ef          	jal	ra,223f4 <write32>
   224a8:	02001537          	lui	a0,0x2001
   224ac:	f29ff0ef          	jal	ra,223d4 <read32>
   224b0:	00050793          	mv	a5,a0
   224b4:	00f12623          	sw	a5,12(sp)
   224b8:	00c12703          	lw	a4,12(sp)
   224bc:	400007b7          	lui	a5,0x40000
   224c0:	00f767b3          	or	a5,a4,a5
   224c4:	00f12623          	sw	a5,12(sp)
   224c8:	00c12783          	lw	a5,12(sp)
   224cc:	00078593          	mv	a1,a5
   224d0:	02001537          	lui	a0,0x2001
   224d4:	f21ff0ef          	jal	ra,223f4 <write32>
   224d8:	00500513          	li	a0,5
   224dc:	f41ff0ef          	jal	ra,2241c <sdelay>
   224e0:	02001537          	lui	a0,0x2001
   224e4:	ef1ff0ef          	jal	ra,223d4 <read32>
   224e8:	00050793          	mv	a5,a0
   224ec:	00f12623          	sw	a5,12(sp)
   224f0:	00c12703          	lw	a4,12(sp)
   224f4:	fffc07b7          	lui	a5,0xfffc0
   224f8:	0fc78793          	addi	a5,a5,252 # fffffffffffc00fc <bss_begin+0xfffffffffff9b0fc>
   224fc:	00f777b3          	and	a5,a4,a5
   22500:	00f12623          	sw	a5,12(sp)
   22504:	00c12703          	lw	a4,12(sp)
   22508:	000037b7          	lui	a5,0x3
   2250c:	90078793          	addi	a5,a5,-1792 # 2900 <_start-0x1f700>
   22510:	00f767b3          	or	a5,a4,a5
   22514:	00f12623          	sw	a5,12(sp)
   22518:	00c12783          	lw	a5,12(sp)
   2251c:	00078593          	mv	a1,a5
   22520:	02001537          	lui	a0,0x2001
   22524:	ed1ff0ef          	jal	ra,223f4 <write32>
   22528:	02001537          	lui	a0,0x2001
   2252c:	ea9ff0ef          	jal	ra,223d4 <read32>
   22530:	00050793          	mv	a5,a0
   22534:	00f12623          	sw	a5,12(sp)
   22538:	00c12703          	lw	a4,12(sp)
   2253c:	200007b7          	lui	a5,0x20000
   22540:	00f767b3          	or	a5,a4,a5
   22544:	00f12623          	sw	a5,12(sp)
   22548:	00c12783          	lw	a5,12(sp)
   2254c:	00078593          	mv	a1,a5
   22550:	02001537          	lui	a0,0x2001
   22554:	ea1ff0ef          	jal	ra,223f4 <write32>
   22558:	02001537          	lui	a0,0x2001
   2255c:	e79ff0ef          	jal	ra,223d4 <read32>
   22560:	00050793          	mv	a5,a0
   22564:	00f12623          	sw	a5,12(sp)
   22568:	00c12703          	lw	a4,12(sp)
   2256c:	800007b7          	lui	a5,0x80000
   22570:	00f767b3          	or	a5,a4,a5
   22574:	00f12623          	sw	a5,12(sp)
   22578:	00c12783          	lw	a5,12(sp)
   2257c:	00078593          	mv	a1,a5
   22580:	02001537          	lui	a0,0x2001
   22584:	e71ff0ef          	jal	ra,223f4 <write32>
   22588:	00000013          	nop
   2258c:	02001537          	lui	a0,0x2001
   22590:	e45ff0ef          	jal	ra,223d4 <read32>
   22594:	00050793          	mv	a5,a0
   22598:	0007879b          	sext.w	a5,a5
   2259c:	00078713          	mv	a4,a5
   225a0:	100007b7          	lui	a5,0x10000
   225a4:	00f777b3          	and	a5,a4,a5
   225a8:	0007879b          	sext.w	a5,a5
   225ac:	fe0780e3          	beqz	a5,2258c <set_pll_cpux_axi+0x138>
   225b0:	01400513          	li	a0,20
   225b4:	e69ff0ef          	jal	ra,2241c <sdelay>
   225b8:	02001537          	lui	a0,0x2001
   225bc:	e19ff0ef          	jal	ra,223d4 <read32>
   225c0:	00050793          	mv	a5,a0
   225c4:	00f12623          	sw	a5,12(sp)
   225c8:	00c12703          	lw	a4,12(sp)
   225cc:	080007b7          	lui	a5,0x8000
   225d0:	00f767b3          	or	a5,a4,a5
   225d4:	00f12623          	sw	a5,12(sp)
   225d8:	00c12783          	lw	a5,12(sp)
   225dc:	00078593          	mv	a1,a5
   225e0:	02001537          	lui	a0,0x2001
   225e4:	e11ff0ef          	jal	ra,223f4 <write32>
   225e8:	02001537          	lui	a0,0x2001
   225ec:	de9ff0ef          	jal	ra,223d4 <read32>
   225f0:	00050793          	mv	a5,a0
   225f4:	00f12623          	sw	a5,12(sp)
   225f8:	00c12703          	lw	a4,12(sp)
   225fc:	e00007b7          	lui	a5,0xe0000
   22600:	fff78793          	addi	a5,a5,-1 # ffffffffdfffffff <bss_begin+0xffffffffdffdafff>
   22604:	00f777b3          	and	a5,a4,a5
   22608:	00f12623          	sw	a5,12(sp)
   2260c:	00c12783          	lw	a5,12(sp)
   22610:	00078593          	mv	a1,a5
   22614:	02001537          	lui	a0,0x2001
   22618:	dddff0ef          	jal	ra,223f4 <write32>
   2261c:	00100513          	li	a0,1
   22620:	dfdff0ef          	jal	ra,2241c <sdelay>
   22624:	020027b7          	lui	a5,0x2002
   22628:	d0078513          	addi	a0,a5,-768 # 2001d00 <bss_begin+0x1fdcd00>
   2262c:	da9ff0ef          	jal	ra,223d4 <read32>
   22630:	00050793          	mv	a5,a0
   22634:	00f12623          	sw	a5,12(sp)
   22638:	00c12703          	lw	a4,12(sp)
   2263c:	f90007b7          	lui	a5,0xf9000
   22640:	cf078793          	addi	a5,a5,-784 # fffffffff8fffcf0 <bss_begin+0xfffffffff8fdacf0>
   22644:	00f777b3          	and	a5,a4,a5
   22648:	00f12623          	sw	a5,12(sp)
   2264c:	00c12703          	lw	a4,12(sp)
   22650:	050007b7          	lui	a5,0x5000
   22654:	10078793          	addi	a5,a5,256 # 5000100 <bss_begin+0x4fdb100>
   22658:	00f767b3          	or	a5,a4,a5
   2265c:	00f12623          	sw	a5,12(sp)
   22660:	00c12783          	lw	a5,12(sp)
   22664:	00078593          	mv	a1,a5
   22668:	020027b7          	lui	a5,0x2002
   2266c:	d0078513          	addi	a0,a5,-768 # 2001d00 <bss_begin+0x1fdcd00>
   22670:	d85ff0ef          	jal	ra,223f4 <write32>
   22674:	00100513          	li	a0,1
   22678:	da5ff0ef          	jal	ra,2241c <sdelay>
   2267c:	00000013          	nop
   22680:	01813083          	ld	ra,24(sp)
   22684:	02010113          	addi	sp,sp,32
   22688:	00008067          	ret

000000000002268c <set_pll_periph0>:
   2268c:	fe010113          	addi	sp,sp,-32
   22690:	00113c23          	sd	ra,24(sp)
   22694:	020017b7          	lui	a5,0x2001
   22698:	02078513          	addi	a0,a5,32 # 2001020 <bss_begin+0x1fdc020>
   2269c:	d39ff0ef          	jal	ra,223d4 <read32>
   226a0:	00050793          	mv	a5,a0
   226a4:	0007879b          	sext.w	a5,a5
   226a8:	0007879b          	sext.w	a5,a5
   226ac:	1207cc63          	bltz	a5,227e4 <set_pll_periph0+0x158>
   226b0:	020017b7          	lui	a5,0x2001
   226b4:	51078513          	addi	a0,a5,1296 # 2001510 <bss_begin+0x1fdc510>
   226b8:	d1dff0ef          	jal	ra,223d4 <read32>
   226bc:	00050793          	mv	a5,a0
   226c0:	00f12623          	sw	a5,12(sp)
   226c4:	00c12703          	lw	a4,12(sp)
   226c8:	fd0007b7          	lui	a5,0xfd000
   226cc:	fff78793          	addi	a5,a5,-1 # fffffffffcffffff <bss_begin+0xfffffffffcfdafff>
   226d0:	00f777b3          	and	a5,a4,a5
   226d4:	00f12623          	sw	a5,12(sp)
   226d8:	00c16703          	lwu	a4,12(sp)
   226dc:	020017b7          	lui	a5,0x2001
   226e0:	51078593          	addi	a1,a5,1296 # 2001510 <bss_begin+0x1fdc510>
   226e4:	00070513          	mv	a0,a4
   226e8:	d0dff0ef          	jal	ra,223f4 <write32>
   226ec:	000067b7          	lui	a5,0x6
   226f0:	30078593          	addi	a1,a5,768 # 6300 <_start-0x1bd00>
   226f4:	020017b7          	lui	a5,0x2001
   226f8:	02078513          	addi	a0,a5,32 # 2001020 <bss_begin+0x1fdc020>
   226fc:	cf9ff0ef          	jal	ra,223f4 <write32>
   22700:	020017b7          	lui	a5,0x2001
   22704:	02078513          	addi	a0,a5,32 # 2001020 <bss_begin+0x1fdc020>
   22708:	ccdff0ef          	jal	ra,223d4 <read32>
   2270c:	00050793          	mv	a5,a0
   22710:	00f12623          	sw	a5,12(sp)
   22714:	00c12703          	lw	a4,12(sp)
   22718:	200007b7          	lui	a5,0x20000
   2271c:	00f767b3          	or	a5,a4,a5
   22720:	00f12623          	sw	a5,12(sp)
   22724:	00c12783          	lw	a5,12(sp)
   22728:	00078593          	mv	a1,a5
   2272c:	020017b7          	lui	a5,0x2001
   22730:	02078513          	addi	a0,a5,32 # 2001020 <bss_begin+0x1fdc020>
   22734:	cc1ff0ef          	jal	ra,223f4 <write32>
   22738:	020017b7          	lui	a5,0x2001
   2273c:	02078513          	addi	a0,a5,32 # 2001020 <bss_begin+0x1fdc020>
   22740:	c95ff0ef          	jal	ra,223d4 <read32>
   22744:	00050793          	mv	a5,a0
   22748:	00f12623          	sw	a5,12(sp)
   2274c:	00c12703          	lw	a4,12(sp)
   22750:	800007b7          	lui	a5,0x80000
   22754:	00f767b3          	or	a5,a4,a5
   22758:	00f12623          	sw	a5,12(sp)
   2275c:	00c12783          	lw	a5,12(sp)
   22760:	00078593          	mv	a1,a5
   22764:	020017b7          	lui	a5,0x2001
   22768:	02078513          	addi	a0,a5,32 # 2001020 <bss_begin+0x1fdc020>
   2276c:	c89ff0ef          	jal	ra,223f4 <write32>
   22770:	00000013          	nop
   22774:	020017b7          	lui	a5,0x2001
   22778:	02078513          	addi	a0,a5,32 # 2001020 <bss_begin+0x1fdc020>
   2277c:	c59ff0ef          	jal	ra,223d4 <read32>
   22780:	00050793          	mv	a5,a0
   22784:	0007879b          	sext.w	a5,a5
   22788:	00078713          	mv	a4,a5
   2278c:	100007b7          	lui	a5,0x10000
   22790:	00f777b3          	and	a5,a4,a5
   22794:	0007879b          	sext.w	a5,a5
   22798:	fc078ee3          	beqz	a5,22774 <set_pll_periph0+0xe8>
   2279c:	01400513          	li	a0,20
   227a0:	c7dff0ef          	jal	ra,2241c <sdelay>
   227a4:	020017b7          	lui	a5,0x2001
   227a8:	02078513          	addi	a0,a5,32 # 2001020 <bss_begin+0x1fdc020>
   227ac:	c29ff0ef          	jal	ra,223d4 <read32>
   227b0:	00050793          	mv	a5,a0
   227b4:	00f12623          	sw	a5,12(sp)
   227b8:	00c12703          	lw	a4,12(sp)
   227bc:	e00007b7          	lui	a5,0xe0000
   227c0:	fff78793          	addi	a5,a5,-1 # ffffffffdfffffff <bss_begin+0xffffffffdffdafff>
   227c4:	00f777b3          	and	a5,a4,a5
   227c8:	00f12623          	sw	a5,12(sp)
   227cc:	00c12783          	lw	a5,12(sp)
   227d0:	00078593          	mv	a1,a5
   227d4:	020017b7          	lui	a5,0x2001
   227d8:	02078513          	addi	a0,a5,32 # 2001020 <bss_begin+0x1fdc020>
   227dc:	c19ff0ef          	jal	ra,223f4 <write32>
   227e0:	0080006f          	j	227e8 <set_pll_periph0+0x15c>
   227e4:	00000013          	nop
   227e8:	01813083          	ld	ra,24(sp)
   227ec:	02010113          	addi	sp,sp,32
   227f0:	00008067          	ret

00000000000227f4 <set_ahb>:
   227f4:	ff010113          	addi	sp,sp,-16
   227f8:	00113423          	sd	ra,8(sp)
   227fc:	00200593          	li	a1,2
   22800:	020017b7          	lui	a5,0x2001
   22804:	51078513          	addi	a0,a5,1296 # 2001510 <bss_begin+0x1fdc510>
   22808:	bedff0ef          	jal	ra,223f4 <write32>
   2280c:	020017b7          	lui	a5,0x2001
   22810:	51078513          	addi	a0,a5,1296 # 2001510 <bss_begin+0x1fdc510>
   22814:	bc1ff0ef          	jal	ra,223d4 <read32>
   22818:	00050793          	mv	a5,a0
   2281c:	0007879b          	sext.w	a5,a5
   22820:	00078713          	mv	a4,a5
   22824:	030007b7          	lui	a5,0x3000
   22828:	00f767b3          	or	a5,a4,a5
   2282c:	0007879b          	sext.w	a5,a5
   22830:	00078593          	mv	a1,a5
   22834:	020017b7          	lui	a5,0x2001
   22838:	51078513          	addi	a0,a5,1296 # 2001510 <bss_begin+0x1fdc510>
   2283c:	bb9ff0ef          	jal	ra,223f4 <write32>
   22840:	00100513          	li	a0,1
   22844:	bd9ff0ef          	jal	ra,2241c <sdelay>
   22848:	00000013          	nop
   2284c:	00813083          	ld	ra,8(sp)
   22850:	01010113          	addi	sp,sp,16
   22854:	00008067          	ret

0000000000022858 <set_apb>:
   22858:	ff010113          	addi	sp,sp,-16
   2285c:	00113423          	sd	ra,8(sp)
   22860:	10200593          	li	a1,258
   22864:	020017b7          	lui	a5,0x2001
   22868:	52078513          	addi	a0,a5,1312 # 2001520 <bss_begin+0x1fdc520>
   2286c:	b89ff0ef          	jal	ra,223f4 <write32>
   22870:	020017b7          	lui	a5,0x2001
   22874:	52078513          	addi	a0,a5,1312 # 2001520 <bss_begin+0x1fdc520>
   22878:	b5dff0ef          	jal	ra,223d4 <read32>
   2287c:	00050793          	mv	a5,a0
   22880:	0007879b          	sext.w	a5,a5
   22884:	00078713          	mv	a4,a5
   22888:	030007b7          	lui	a5,0x3000
   2288c:	00f767b3          	or	a5,a4,a5
   22890:	0007879b          	sext.w	a5,a5
   22894:	00078593          	mv	a1,a5
   22898:	020017b7          	lui	a5,0x2001
   2289c:	52078513          	addi	a0,a5,1312 # 2001520 <bss_begin+0x1fdc520>
   228a0:	b55ff0ef          	jal	ra,223f4 <write32>
   228a4:	00100513          	li	a0,1
   228a8:	b75ff0ef          	jal	ra,2241c <sdelay>
   228ac:	00000013          	nop
   228b0:	00813083          	ld	ra,8(sp)
   228b4:	01010113          	addi	sp,sp,16
   228b8:	00008067          	ret

00000000000228bc <set_dma>:
   228bc:	ff010113          	addi	sp,sp,-16
   228c0:	00113423          	sd	ra,8(sp)
   228c4:	020017b7          	lui	a5,0x2001
   228c8:	70c78513          	addi	a0,a5,1804 # 200170c <bss_begin+0x1fdc70c>
   228cc:	b09ff0ef          	jal	ra,223d4 <read32>
   228d0:	00050793          	mv	a5,a0
   228d4:	0007879b          	sext.w	a5,a5
   228d8:	00078713          	mv	a4,a5
   228dc:	000107b7          	lui	a5,0x10
   228e0:	00f767b3          	or	a5,a4,a5
   228e4:	0007879b          	sext.w	a5,a5
   228e8:	00078593          	mv	a1,a5
   228ec:	020017b7          	lui	a5,0x2001
   228f0:	70c78513          	addi	a0,a5,1804 # 200170c <bss_begin+0x1fdc70c>
   228f4:	b01ff0ef          	jal	ra,223f4 <write32>
   228f8:	01400513          	li	a0,20
   228fc:	b21ff0ef          	jal	ra,2241c <sdelay>
   22900:	020017b7          	lui	a5,0x2001
   22904:	70c78513          	addi	a0,a5,1804 # 200170c <bss_begin+0x1fdc70c>
   22908:	acdff0ef          	jal	ra,223d4 <read32>
   2290c:	00050793          	mv	a5,a0
   22910:	0007879b          	sext.w	a5,a5
   22914:	0017e793          	ori	a5,a5,1
   22918:	0007879b          	sext.w	a5,a5
   2291c:	00078593          	mv	a1,a5
   22920:	020017b7          	lui	a5,0x2001
   22924:	70c78513          	addi	a0,a5,1804 # 200170c <bss_begin+0x1fdc70c>
   22928:	acdff0ef          	jal	ra,223f4 <write32>
   2292c:	00000013          	nop
   22930:	00813083          	ld	ra,8(sp)
   22934:	01010113          	addi	sp,sp,16
   22938:	00008067          	ret

000000000002293c <set_mbus>:
   2293c:	fe010113          	addi	sp,sp,-32
   22940:	00113c23          	sd	ra,24(sp)
   22944:	020017b7          	lui	a5,0x2001
   22948:	54078513          	addi	a0,a5,1344 # 2001540 <bss_begin+0x1fdc540>
   2294c:	a89ff0ef          	jal	ra,223d4 <read32>
   22950:	00050793          	mv	a5,a0
   22954:	00f12623          	sw	a5,12(sp)
   22958:	00c12703          	lw	a4,12(sp)
   2295c:	400007b7          	lui	a5,0x40000
   22960:	00f767b3          	or	a5,a4,a5
   22964:	00f12623          	sw	a5,12(sp)
   22968:	00c12783          	lw	a5,12(sp)
   2296c:	00078593          	mv	a1,a5
   22970:	020017b7          	lui	a5,0x2001
   22974:	54078513          	addi	a0,a5,1344 # 2001540 <bss_begin+0x1fdc540>
   22978:	a7dff0ef          	jal	ra,223f4 <write32>
   2297c:	00100513          	li	a0,1
   22980:	a9dff0ef          	jal	ra,2241c <sdelay>
   22984:	00000013          	nop
   22988:	01813083          	ld	ra,24(sp)
   2298c:	02010113          	addi	sp,sp,32
   22990:	00008067          	ret

0000000000022994 <set_module>:
   22994:	fd010113          	addi	sp,sp,-48
   22998:	02113423          	sd	ra,40(sp)
   2299c:	00a13423          	sd	a0,8(sp)
   229a0:	00813503          	ld	a0,8(sp)
   229a4:	a31ff0ef          	jal	ra,223d4 <read32>
   229a8:	00050793          	mv	a5,a0
   229ac:	0007879b          	sext.w	a5,a5
   229b0:	0007879b          	sext.w	a5,a5
   229b4:	0c07c263          	bltz	a5,22a78 <set_module+0xe4>
   229b8:	00813503          	ld	a0,8(sp)
   229bc:	a19ff0ef          	jal	ra,223d4 <read32>
   229c0:	00050793          	mv	a5,a0
   229c4:	00f12e23          	sw	a5,28(sp)
   229c8:	01c12703          	lw	a4,28(sp)
   229cc:	c00007b7          	lui	a5,0xc0000
   229d0:	00f767b3          	or	a5,a4,a5
   229d4:	0007879b          	sext.w	a5,a5
   229d8:	00078593          	mv	a1,a5
   229dc:	00813503          	ld	a0,8(sp)
   229e0:	a15ff0ef          	jal	ra,223f4 <write32>
   229e4:	00813503          	ld	a0,8(sp)
   229e8:	9edff0ef          	jal	ra,223d4 <read32>
   229ec:	00050793          	mv	a5,a0
   229f0:	00f12e23          	sw	a5,28(sp)
   229f4:	01c12703          	lw	a4,28(sp)
   229f8:	200007b7          	lui	a5,0x20000
   229fc:	00f767b3          	or	a5,a4,a5
   22a00:	00f12e23          	sw	a5,28(sp)
   22a04:	01c12783          	lw	a5,28(sp)
   22a08:	00078593          	mv	a1,a5
   22a0c:	00813503          	ld	a0,8(sp)
   22a10:	9e5ff0ef          	jal	ra,223f4 <write32>
   22a14:	00000013          	nop
   22a18:	00813503          	ld	a0,8(sp)
   22a1c:	9b9ff0ef          	jal	ra,223d4 <read32>
   22a20:	00050793          	mv	a5,a0
   22a24:	0007879b          	sext.w	a5,a5
   22a28:	00078713          	mv	a4,a5
   22a2c:	100007b7          	lui	a5,0x10000
   22a30:	00f777b3          	and	a5,a4,a5
   22a34:	0007879b          	sext.w	a5,a5
   22a38:	fe0780e3          	beqz	a5,22a18 <set_module+0x84>
   22a3c:	01400513          	li	a0,20
   22a40:	9ddff0ef          	jal	ra,2241c <sdelay>
   22a44:	00813503          	ld	a0,8(sp)
   22a48:	98dff0ef          	jal	ra,223d4 <read32>
   22a4c:	00050793          	mv	a5,a0
   22a50:	00f12e23          	sw	a5,28(sp)
   22a54:	01c12703          	lw	a4,28(sp)
   22a58:	e00007b7          	lui	a5,0xe0000
   22a5c:	fff78793          	addi	a5,a5,-1 # ffffffffdfffffff <bss_begin+0xffffffffdffdafff>
   22a60:	00f777b3          	and	a5,a4,a5
   22a64:	00f12e23          	sw	a5,28(sp)
   22a68:	01c12783          	lw	a5,28(sp)
   22a6c:	00078593          	mv	a1,a5
   22a70:	00813503          	ld	a0,8(sp)
   22a74:	981ff0ef          	jal	ra,223f4 <write32>
   22a78:	00000013          	nop
   22a7c:	02813083          	ld	ra,40(sp)
   22a80:	03010113          	addi	sp,sp,48
   22a84:	00008067          	ret

0000000000022a88 <sys_clock_init>:
   22a88:	ff010113          	addi	sp,sp,-16
   22a8c:	00113423          	sd	ra,8(sp)
   22a90:	9c5ff0ef          	jal	ra,22454 <set_pll_cpux_axi>
   22a94:	bf9ff0ef          	jal	ra,2268c <set_pll_periph0>
   22a98:	d5dff0ef          	jal	ra,227f4 <set_ahb>
   22a9c:	dbdff0ef          	jal	ra,22858 <set_apb>
   22aa0:	e1dff0ef          	jal	ra,228bc <set_dma>
   22aa4:	e99ff0ef          	jal	ra,2293c <set_mbus>
   22aa8:	020017b7          	lui	a5,0x2001
   22aac:	02078513          	addi	a0,a5,32 # 2001020 <bss_begin+0x1fdc020>
   22ab0:	ee5ff0ef          	jal	ra,22994 <set_module>
   22ab4:	020017b7          	lui	a5,0x2001
   22ab8:	04078513          	addi	a0,a5,64 # 2001040 <bss_begin+0x1fdc040>
   22abc:	ed9ff0ef          	jal	ra,22994 <set_module>
   22ac0:	020017b7          	lui	a5,0x2001
   22ac4:	04878513          	addi	a0,a5,72 # 2001048 <bss_begin+0x1fdc048>
   22ac8:	ecdff0ef          	jal	ra,22994 <set_module>
   22acc:	020017b7          	lui	a5,0x2001
   22ad0:	05878513          	addi	a0,a5,88 # 2001058 <bss_begin+0x1fdc058>
   22ad4:	ec1ff0ef          	jal	ra,22994 <set_module>
   22ad8:	020017b7          	lui	a5,0x2001
   22adc:	07878513          	addi	a0,a5,120 # 2001078 <bss_begin+0x1fdc078>
   22ae0:	eb5ff0ef          	jal	ra,22994 <set_module>
   22ae4:	020017b7          	lui	a5,0x2001
   22ae8:	08078513          	addi	a0,a5,128 # 2001080 <bss_begin+0x1fdc080>
   22aec:	ea9ff0ef          	jal	ra,22994 <set_module>
   22af0:	00000013          	nop
   22af4:	00813083          	ld	ra,8(sp)
   22af8:	01010113          	addi	sp,sp,16
   22afc:	00008067          	ret

0000000000022b00 <read8>:
   22b00:	ff010113          	addi	sp,sp,-16
   22b04:	00a13423          	sd	a0,8(sp)
   22b08:	00813783          	ld	a5,8(sp)
   22b0c:	0007c783          	lbu	a5,0(a5)
   22b10:	0ff7f793          	andi	a5,a5,255
   22b14:	00078513          	mv	a0,a5
   22b18:	01010113          	addi	sp,sp,16
   22b1c:	00008067          	ret

0000000000022b20 <read32>:
   22b20:	ff010113          	addi	sp,sp,-16
   22b24:	00a13423          	sd	a0,8(sp)
   22b28:	00813783          	ld	a5,8(sp)
   22b2c:	0007a783          	lw	a5,0(a5)
   22b30:	0007879b          	sext.w	a5,a5
   22b34:	00078513          	mv	a0,a5
   22b38:	01010113          	addi	sp,sp,16
   22b3c:	00008067          	ret

0000000000022b40 <write32>:
   22b40:	ff010113          	addi	sp,sp,-16
   22b44:	00a13423          	sd	a0,8(sp)
   22b48:	00058793          	mv	a5,a1
   22b4c:	00f12223          	sw	a5,4(sp)
   22b50:	00813783          	ld	a5,8(sp)
   22b54:	00412703          	lw	a4,4(sp)
   22b58:	00e7a023          	sw	a4,0(a5)
   22b5c:	00000013          	nop
   22b60:	01010113          	addi	sp,sp,16
   22b64:	00008067          	ret

0000000000022b68 <uart_init>:
   22b68:	fe010113          	addi	sp,sp,-32
   22b6c:	00113c23          	sd	ra,24(sp)
   22b70:	020007b7          	lui	a5,0x2000
   22b74:	0f078793          	addi	a5,a5,240 # 20000f0 <bss_begin+0x1fdb0f0>
   22b78:	00f13423          	sd	a5,8(sp)
   22b7c:	00813503          	ld	a0,8(sp)
   22b80:	fa1ff0ef          	jal	ra,22b20 <read32>
   22b84:	00050793          	mv	a5,a0
   22b88:	00f12223          	sw	a5,4(sp)
   22b8c:	00412703          	lw	a4,4(sp)
   22b90:	fffff7b7          	lui	a5,0xfffff
   22b94:	0ff78793          	addi	a5,a5,255 # fffffffffffff0ff <bss_begin+0xfffffffffffda0ff>
   22b98:	00f777b3          	and	a5,a4,a5
   22b9c:	00f12223          	sw	a5,4(sp)
   22ba0:	00412783          	lw	a5,4(sp)
   22ba4:	3007e793          	ori	a5,a5,768
   22ba8:	00f12223          	sw	a5,4(sp)
   22bac:	00412783          	lw	a5,4(sp)
   22bb0:	00078593          	mv	a1,a5
   22bb4:	00813503          	ld	a0,8(sp)
   22bb8:	f89ff0ef          	jal	ra,22b40 <write32>
   22bbc:	00813503          	ld	a0,8(sp)
   22bc0:	f61ff0ef          	jal	ra,22b20 <read32>
   22bc4:	00050793          	mv	a5,a0
   22bc8:	00f12223          	sw	a5,4(sp)
   22bcc:	00412703          	lw	a4,4(sp)
   22bd0:	fff107b7          	lui	a5,0xfff10
   22bd4:	fff78793          	addi	a5,a5,-1 # fffffffffff0ffff <bss_begin+0xffffffffffeeafff>
   22bd8:	00f777b3          	and	a5,a4,a5
   22bdc:	00f12223          	sw	a5,4(sp)
   22be0:	00412703          	lw	a4,4(sp)
   22be4:	000307b7          	lui	a5,0x30
   22be8:	00f767b3          	or	a5,a4,a5
   22bec:	00f12223          	sw	a5,4(sp)
   22bf0:	00412783          	lw	a5,4(sp)
   22bf4:	00078593          	mv	a1,a5
   22bf8:	00813503          	ld	a0,8(sp)
   22bfc:	f45ff0ef          	jal	ra,22b40 <write32>
   22c00:	020027b7          	lui	a5,0x2002
   22c04:	90c78793          	addi	a5,a5,-1780 # 200190c <bss_begin+0x1fdc90c>
   22c08:	00f13423          	sd	a5,8(sp)
   22c0c:	00813503          	ld	a0,8(sp)
   22c10:	f11ff0ef          	jal	ra,22b20 <read32>
   22c14:	00050793          	mv	a5,a0
   22c18:	00f12223          	sw	a5,4(sp)
   22c1c:	00412783          	lw	a5,4(sp)
   22c20:	0017e793          	ori	a5,a5,1
   22c24:	00f12223          	sw	a5,4(sp)
   22c28:	00412783          	lw	a5,4(sp)
   22c2c:	00078593          	mv	a1,a5
   22c30:	00813503          	ld	a0,8(sp)
   22c34:	f0dff0ef          	jal	ra,22b40 <write32>
   22c38:	020027b7          	lui	a5,0x2002
   22c3c:	90c78793          	addi	a5,a5,-1780 # 200190c <bss_begin+0x1fdc90c>
   22c40:	00f13423          	sd	a5,8(sp)
   22c44:	00813503          	ld	a0,8(sp)
   22c48:	ed9ff0ef          	jal	ra,22b20 <read32>
   22c4c:	00050793          	mv	a5,a0
   22c50:	00f12223          	sw	a5,4(sp)
   22c54:	00412703          	lw	a4,4(sp)
   22c58:	000107b7          	lui	a5,0x10
   22c5c:	00f767b3          	or	a5,a4,a5
   22c60:	00f12223          	sw	a5,4(sp)
   22c64:	00412783          	lw	a5,4(sp)
   22c68:	00078593          	mv	a1,a5
   22c6c:	00813503          	ld	a0,8(sp)
   22c70:	ed1ff0ef          	jal	ra,22b40 <write32>
   22c74:	025007b7          	lui	a5,0x2500
   22c78:	00f13423          	sd	a5,8(sp)
   22c7c:	00813783          	ld	a5,8(sp)
   22c80:	00478793          	addi	a5,a5,4 # 2500004 <bss_begin+0x24db004>
   22c84:	00000593          	li	a1,0
   22c88:	00078513          	mv	a0,a5
   22c8c:	eb5ff0ef          	jal	ra,22b40 <write32>
   22c90:	00813783          	ld	a5,8(sp)
   22c94:	00878793          	addi	a5,a5,8
   22c98:	0f700593          	li	a1,247
   22c9c:	00078513          	mv	a0,a5
   22ca0:	ea1ff0ef          	jal	ra,22b40 <write32>
   22ca4:	00813783          	ld	a5,8(sp)
   22ca8:	01078793          	addi	a5,a5,16
   22cac:	00000593          	li	a1,0
   22cb0:	00078513          	mv	a0,a5
   22cb4:	e8dff0ef          	jal	ra,22b40 <write32>
   22cb8:	00813783          	ld	a5,8(sp)
   22cbc:	00c78793          	addi	a5,a5,12
   22cc0:	00078513          	mv	a0,a5
   22cc4:	e5dff0ef          	jal	ra,22b20 <read32>
   22cc8:	00050793          	mv	a5,a0
   22ccc:	00f12223          	sw	a5,4(sp)
   22cd0:	00412783          	lw	a5,4(sp)
   22cd4:	0807e793          	ori	a5,a5,128
   22cd8:	00f12223          	sw	a5,4(sp)
   22cdc:	00813783          	ld	a5,8(sp)
   22ce0:	00c78793          	addi	a5,a5,12
   22ce4:	00412703          	lw	a4,4(sp)
   22ce8:	00070593          	mv	a1,a4
   22cec:	00078513          	mv	a0,a5
   22cf0:	e51ff0ef          	jal	ra,22b40 <write32>
   22cf4:	00d00593          	li	a1,13
   22cf8:	00813503          	ld	a0,8(sp)
   22cfc:	e45ff0ef          	jal	ra,22b40 <write32>
   22d00:	00813783          	ld	a5,8(sp)
   22d04:	00478793          	addi	a5,a5,4
   22d08:	00000593          	li	a1,0
   22d0c:	00078513          	mv	a0,a5
   22d10:	e31ff0ef          	jal	ra,22b40 <write32>
   22d14:	00813783          	ld	a5,8(sp)
   22d18:	00c78793          	addi	a5,a5,12
   22d1c:	00078513          	mv	a0,a5
   22d20:	e01ff0ef          	jal	ra,22b20 <read32>
   22d24:	00050793          	mv	a5,a0
   22d28:	00f12223          	sw	a5,4(sp)
   22d2c:	00412783          	lw	a5,4(sp)
   22d30:	f7f7f793          	andi	a5,a5,-129
   22d34:	00f12223          	sw	a5,4(sp)
   22d38:	00813783          	ld	a5,8(sp)
   22d3c:	00c78793          	addi	a5,a5,12
   22d40:	00412703          	lw	a4,4(sp)
   22d44:	00070593          	mv	a1,a4
   22d48:	00078513          	mv	a0,a5
   22d4c:	df5ff0ef          	jal	ra,22b40 <write32>
   22d50:	00813783          	ld	a5,8(sp)
   22d54:	00c78793          	addi	a5,a5,12
   22d58:	00078513          	mv	a0,a5
   22d5c:	dc5ff0ef          	jal	ra,22b20 <read32>
   22d60:	00050793          	mv	a5,a0
   22d64:	00f12223          	sw	a5,4(sp)
   22d68:	00412783          	lw	a5,4(sp)
   22d6c:	fe07f793          	andi	a5,a5,-32
   22d70:	00f12223          	sw	a5,4(sp)
   22d74:	00412783          	lw	a5,4(sp)
   22d78:	0037e793          	ori	a5,a5,3
   22d7c:	00f12223          	sw	a5,4(sp)
   22d80:	00813783          	ld	a5,8(sp)
   22d84:	00c78793          	addi	a5,a5,12
   22d88:	00412703          	lw	a4,4(sp)
   22d8c:	00070593          	mv	a1,a4
   22d90:	00078513          	mv	a0,a5
   22d94:	dadff0ef          	jal	ra,22b40 <write32>
   22d98:	00000013          	nop
   22d9c:	01813083          	ld	ra,24(sp)
   22da0:	02010113          	addi	sp,sp,32
   22da4:	00008067          	ret

0000000000022da8 <uart_send>:
   22da8:	fd010113          	addi	sp,sp,-48
   22dac:	02113423          	sd	ra,40(sp)
   22db0:	00050793          	mv	a5,a0
   22db4:	00f107a3          	sb	a5,15(sp)
   22db8:	025007b7          	lui	a5,0x2500
   22dbc:	00f13c23          	sd	a5,24(sp)
   22dc0:	00000013          	nop
   22dc4:	01813783          	ld	a5,24(sp)
   22dc8:	07c78793          	addi	a5,a5,124 # 250007c <bss_begin+0x24db07c>
   22dcc:	00078513          	mv	a0,a5
   22dd0:	d51ff0ef          	jal	ra,22b20 <read32>
   22dd4:	00050793          	mv	a5,a0
   22dd8:	0007879b          	sext.w	a5,a5
   22ddc:	0027f793          	andi	a5,a5,2
   22de0:	0007879b          	sext.w	a5,a5
   22de4:	fe0780e3          	beqz	a5,22dc4 <uart_send+0x1c>
   22de8:	00f14783          	lbu	a5,15(sp)
   22dec:	0007879b          	sext.w	a5,a5
   22df0:	00078593          	mv	a1,a5
   22df4:	01813503          	ld	a0,24(sp)
   22df8:	d49ff0ef          	jal	ra,22b40 <write32>
   22dfc:	00000013          	nop
   22e00:	02813083          	ld	ra,40(sp)
   22e04:	03010113          	addi	sp,sp,48
   22e08:	00008067          	ret

0000000000022e0c <uart_recv>:
   22e0c:	fe010113          	addi	sp,sp,-32
   22e10:	00113c23          	sd	ra,24(sp)
   22e14:	025007b7          	lui	a5,0x2500
   22e18:	00f13423          	sd	a5,8(sp)
   22e1c:	00000013          	nop
   22e20:	00813783          	ld	a5,8(sp)
   22e24:	07c78793          	addi	a5,a5,124 # 250007c <bss_begin+0x24db07c>
   22e28:	00078513          	mv	a0,a5
   22e2c:	cf5ff0ef          	jal	ra,22b20 <read32>
   22e30:	00050793          	mv	a5,a0
   22e34:	0007879b          	sext.w	a5,a5
   22e38:	0087f793          	andi	a5,a5,8
   22e3c:	0007879b          	sext.w	a5,a5
   22e40:	fe0780e3          	beqz	a5,22e20 <uart_recv+0x14>
   22e44:	00813503          	ld	a0,8(sp)
   22e48:	cb9ff0ef          	jal	ra,22b00 <read8>
   22e4c:	00050793          	mv	a5,a0
   22e50:	00078513          	mv	a0,a5
   22e54:	01813083          	ld	ra,24(sp)
   22e58:	02010113          	addi	sp,sp,32
   22e5c:	00008067          	ret

0000000000022e60 <uart_send_string>:
   22e60:	fd010113          	addi	sp,sp,-48
   22e64:	02113423          	sd	ra,40(sp)
   22e68:	00a13423          	sd	a0,8(sp)
   22e6c:	00012e23          	sw	zero,28(sp)
   22e70:	0280006f          	j	22e98 <uart_send_string+0x38>
   22e74:	01c12783          	lw	a5,28(sp)
   22e78:	00813703          	ld	a4,8(sp)
   22e7c:	00f707b3          	add	a5,a4,a5
   22e80:	0007c783          	lbu	a5,0(a5)
   22e84:	00078513          	mv	a0,a5
   22e88:	f21ff0ef          	jal	ra,22da8 <uart_send>
   22e8c:	01c12783          	lw	a5,28(sp)
   22e90:	0017879b          	addiw	a5,a5,1
   22e94:	00f12e23          	sw	a5,28(sp)
   22e98:	01c12783          	lw	a5,28(sp)
   22e9c:	00813703          	ld	a4,8(sp)
   22ea0:	00f707b3          	add	a5,a4,a5
   22ea4:	0007c783          	lbu	a5,0(a5)
   22ea8:	fc0796e3          	bnez	a5,22e74 <uart_send_string+0x14>
   22eac:	00000013          	nop
   22eb0:	00000013          	nop
   22eb4:	02813083          	ld	ra,40(sp)
   22eb8:	03010113          	addi	sp,sp,48
   22ebc:	00008067          	ret

0000000000022ec0 <vpf_str_to_num>:
   22ec0:	fd010113          	addi	sp,sp,-48
   22ec4:	00a13423          	sd	a0,8(sp)
   22ec8:	00b13023          	sd	a1,0(sp)
   22ecc:	02012223          	sw	zero,36(sp)
   22ed0:	00813783          	ld	a5,8(sp)
   22ed4:	02f13423          	sd	a5,40(sp)
   22ed8:	0900006f          	j	22f68 <vpf_str_to_num+0xa8>
   22edc:	02813783          	ld	a5,40(sp)
   22ee0:	0007c783          	lbu	a5,0(a5)
   22ee4:	00078713          	mv	a4,a5
   22ee8:	02f00793          	li	a5,47
   22eec:	02e7f063          	bgeu	a5,a4,22f0c <vpf_str_to_num+0x4c>
   22ef0:	02813783          	ld	a5,40(sp)
   22ef4:	0007c783          	lbu	a5,0(a5)
   22ef8:	00078713          	mv	a4,a5
   22efc:	03900793          	li	a5,57
   22f00:	00e7e663          	bltu	a5,a4,22f0c <vpf_str_to_num+0x4c>
   22f04:	00100793          	li	a5,1
   22f08:	0080006f          	j	22f10 <vpf_str_to_num+0x50>
   22f0c:	00000793          	li	a5,0
   22f10:	02f12023          	sw	a5,32(sp)
   22f14:	02012783          	lw	a5,32(sp)
   22f18:	0007879b          	sext.w	a5,a5
   22f1c:	04078e63          	beqz	a5,22f78 <vpf_str_to_num+0xb8>
   22f20:	02813783          	ld	a5,40(sp)
   22f24:	0007c783          	lbu	a5,0(a5)
   22f28:	0007879b          	sext.w	a5,a5
   22f2c:	fd07879b          	addiw	a5,a5,-48
   22f30:	00f12e23          	sw	a5,28(sp)
   22f34:	02412703          	lw	a4,36(sp)
   22f38:	00070793          	mv	a5,a4
   22f3c:	0027979b          	slliw	a5,a5,0x2
   22f40:	00e787bb          	addw	a5,a5,a4
   22f44:	0017979b          	slliw	a5,a5,0x1
   22f48:	02f12223          	sw	a5,36(sp)
   22f4c:	02412703          	lw	a4,36(sp)
   22f50:	01c12783          	lw	a5,28(sp)
   22f54:	00f707bb          	addw	a5,a4,a5
   22f58:	02f12223          	sw	a5,36(sp)
   22f5c:	02813783          	ld	a5,40(sp)
   22f60:	00178793          	addi	a5,a5,1
   22f64:	02f13423          	sd	a5,40(sp)
   22f68:	00813783          	ld	a5,8(sp)
   22f6c:	0007c783          	lbu	a5,0(a5)
   22f70:	f60796e3          	bnez	a5,22edc <vpf_str_to_num+0x1c>
   22f74:	0080006f          	j	22f7c <vpf_str_to_num+0xbc>
   22f78:	00000013          	nop
   22f7c:	00013783          	ld	a5,0(sp)
   22f80:	02412703          	lw	a4,36(sp)
   22f84:	00e7a023          	sw	a4,0(a5)
   22f88:	02813703          	ld	a4,40(sp)
   22f8c:	00813783          	ld	a5,8(sp)
   22f90:	40f707b3          	sub	a5,a4,a5
   22f94:	0007879b          	sext.w	a5,a5
   22f98:	00078513          	mv	a0,a5
   22f9c:	03010113          	addi	sp,sp,48
   22fa0:	00008067          	ret

0000000000022fa4 <vpf_num_to_str>:
   22fa4:	fb010113          	addi	sp,sp,-80
   22fa8:	04113423          	sd	ra,72(sp)
   22fac:	00050793          	mv	a5,a0
   22fb0:	00068713          	mv	a4,a3
   22fb4:	00f12623          	sw	a5,12(sp)
   22fb8:	00058793          	mv	a5,a1
   22fbc:	00f12423          	sw	a5,8(sp)
   22fc0:	00060793          	mv	a5,a2
   22fc4:	00f12223          	sw	a5,4(sp)
   22fc8:	00070793          	mv	a5,a4
   22fcc:	00f12023          	sw	a5,0(sp)
   22fd0:	02012a23          	sw	zero,52(sp)
   22fd4:	0280006f          	j	22ffc <vpf_num_to_str+0x58>
   22fd8:	00012783          	lw	a5,0(sp)
   22fdc:	0ff7f713          	andi	a4,a5,255
   22fe0:	03412783          	lw	a5,52(sp)
   22fe4:	04010693          	addi	a3,sp,64
   22fe8:	00f687b3          	add	a5,a3,a5
   22fec:	fce78823          	sb	a4,-48(a5)
   22ff0:	03412783          	lw	a5,52(sp)
   22ff4:	0017879b          	addiw	a5,a5,1
   22ff8:	02f12a23          	sw	a5,52(sp)
   22ffc:	03412783          	lw	a5,52(sp)
   23000:	00078713          	mv	a4,a5
   23004:	01f00793          	li	a5,31
   23008:	fce7f8e3          	bgeu	a5,a4,22fd8 <vpf_num_to_str+0x34>
   2300c:	00a00793          	li	a5,10
   23010:	02f12e23          	sw	a5,60(sp)
   23014:	00812783          	lw	a5,8(sp)
   23018:	0007879b          	sext.w	a5,a5
   2301c:	00078663          	beqz	a5,23028 <vpf_num_to_str+0x84>
   23020:	01000793          	li	a5,16
   23024:	02f12e23          	sw	a5,60(sp)
   23028:	02012c23          	sw	zero,56(sp)
   2302c:	00c12703          	lw	a4,12(sp)
   23030:	03c12783          	lw	a5,60(sp)
   23034:	02f777bb          	remuw	a5,a4,a5
   23038:	0007879b          	sext.w	a5,a5
   2303c:	02f12823          	sw	a5,48(sp)
   23040:	03012783          	lw	a5,48(sp)
   23044:	0007871b          	sext.w	a4,a5
   23048:	00900793          	li	a5,9
   2304c:	02e7d463          	bge	a5,a4,23074 <vpf_num_to_str+0xd0>
   23050:	03012783          	lw	a5,48(sp)
   23054:	0ff7f793          	andi	a5,a5,255
   23058:	0577879b          	addiw	a5,a5,87
   2305c:	0ff7f713          	andi	a4,a5,255
   23060:	03812783          	lw	a5,56(sp)
   23064:	04010693          	addi	a3,sp,64
   23068:	00f687b3          	add	a5,a3,a5
   2306c:	fce78823          	sb	a4,-48(a5)
   23070:	0240006f          	j	23094 <vpf_num_to_str+0xf0>
   23074:	03012783          	lw	a5,48(sp)
   23078:	0ff7f793          	andi	a5,a5,255
   2307c:	0307879b          	addiw	a5,a5,48
   23080:	0ff7f713          	andi	a4,a5,255
   23084:	03812783          	lw	a5,56(sp)
   23088:	04010693          	addi	a3,sp,64
   2308c:	00f687b3          	add	a5,a3,a5
   23090:	fce78823          	sb	a4,-48(a5)
   23094:	00c12703          	lw	a4,12(sp)
   23098:	03c12783          	lw	a5,60(sp)
   2309c:	02f757bb          	divuw	a5,a4,a5
   230a0:	00f12623          	sw	a5,12(sp)
   230a4:	03812783          	lw	a5,56(sp)
   230a8:	0017879b          	addiw	a5,a5,1
   230ac:	02f12c23          	sw	a5,56(sp)
   230b0:	00c12783          	lw	a5,12(sp)
   230b4:	0007879b          	sext.w	a5,a5
   230b8:	f6079ae3          	bnez	a5,2302c <vpf_num_to_str+0x88>
   230bc:	00412783          	lw	a5,4(sp)
   230c0:	0007879b          	sext.w	a5,a5
   230c4:	02f05c63          	blez	a5,230fc <vpf_num_to_str+0x158>
   230c8:	00412783          	lw	a5,4(sp)
   230cc:	00078713          	mv	a4,a5
   230d0:	01f00793          	li	a5,31
   230d4:	00e7f663          	bgeu	a5,a4,230e0 <vpf_num_to_str+0x13c>
   230d8:	01f00793          	li	a5,31
   230dc:	00f12223          	sw	a5,4(sp)
   230e0:	03812703          	lw	a4,56(sp)
   230e4:	00412783          	lw	a5,4(sp)
   230e8:	0007071b          	sext.w	a4,a4
   230ec:	0007879b          	sext.w	a5,a5
   230f0:	00f75663          	bge	a4,a5,230fc <vpf_num_to_str+0x158>
   230f4:	00412783          	lw	a5,4(sp)
   230f8:	02f12c23          	sw	a5,56(sp)
   230fc:	03812783          	lw	a5,56(sp)
   23100:	04010713          	addi	a4,sp,64
   23104:	00f707b3          	add	a5,a4,a5
   23108:	fc078823          	sb	zero,-48(a5)
   2310c:	03812783          	lw	a5,56(sp)
   23110:	fff7879b          	addiw	a5,a5,-1
   23114:	02f12a23          	sw	a5,52(sp)
   23118:	0280006f          	j	23140 <vpf_num_to_str+0x19c>
   2311c:	03412783          	lw	a5,52(sp)
   23120:	04010713          	addi	a4,sp,64
   23124:	00f707b3          	add	a5,a4,a5
   23128:	fd07c783          	lbu	a5,-48(a5)
   2312c:	00078513          	mv	a0,a5
   23130:	c79ff0ef          	jal	ra,22da8 <uart_send>
   23134:	03412783          	lw	a5,52(sp)
   23138:	fff7879b          	addiw	a5,a5,-1
   2313c:	02f12a23          	sw	a5,52(sp)
   23140:	03412783          	lw	a5,52(sp)
   23144:	0007879b          	sext.w	a5,a5
   23148:	fc07dae3          	bgez	a5,2311c <vpf_num_to_str+0x178>
   2314c:	00000013          	nop
   23150:	00000013          	nop
   23154:	04813083          	ld	ra,72(sp)
   23158:	05010113          	addi	sp,sp,80
   2315c:	00008067          	ret

0000000000023160 <vpf>:
   23160:	fb010113          	addi	sp,sp,-80
   23164:	04113423          	sd	ra,72(sp)
   23168:	00a13423          	sd	a0,8(sp)
   2316c:	00b13023          	sd	a1,0(sp)
   23170:	02000793          	li	a5,32
   23174:	02f12223          	sw	a5,36(sp)
   23178:	00813783          	ld	a5,8(sp)
   2317c:	02f13c23          	sd	a5,56(sp)
   23180:	1880006f          	j	23308 <vpf+0x1a8>
   23184:	02012623          	sw	zero,44(sp)
   23188:	00012a23          	sw	zero,20(sp)
   2318c:	03813783          	ld	a5,56(sp)
   23190:	0007c783          	lbu	a5,0(a5)
   23194:	02f12023          	sw	a5,32(sp)
   23198:	03813783          	ld	a5,56(sp)
   2319c:	02f13823          	sd	a5,48(sp)
   231a0:	03813783          	ld	a5,56(sp)
   231a4:	0007c783          	lbu	a5,0(a5)
   231a8:	00078713          	mv	a4,a5
   231ac:	02500793          	li	a5,37
   231b0:	06f71863          	bne	a4,a5,23220 <vpf+0xc0>
   231b4:	03813783          	ld	a5,56(sp)
   231b8:	02f13823          	sd	a5,48(sp)
   231bc:	03813783          	ld	a5,56(sp)
   231c0:	00178793          	addi	a5,a5,1
   231c4:	02f13c23          	sd	a5,56(sp)
   231c8:	03813783          	ld	a5,56(sp)
   231cc:	0007c783          	lbu	a5,0(a5)
   231d0:	00078713          	mv	a4,a5
   231d4:	02f00793          	li	a5,47
   231d8:	02e7fe63          	bgeu	a5,a4,23214 <vpf+0xb4>
   231dc:	03813783          	ld	a5,56(sp)
   231e0:	0007c783          	lbu	a5,0(a5)
   231e4:	00078713          	mv	a4,a5
   231e8:	03900793          	li	a5,57
   231ec:	02e7e463          	bltu	a5,a4,23214 <vpf+0xb4>
   231f0:	01410793          	addi	a5,sp,20
   231f4:	00078593          	mv	a1,a5
   231f8:	03813503          	ld	a0,56(sp)
   231fc:	cc5ff0ef          	jal	ra,22ec0 <vpf_str_to_num>
   23200:	00050793          	mv	a5,a0
   23204:	00078713          	mv	a4,a5
   23208:	03813783          	ld	a5,56(sp)
   2320c:	00e787b3          	add	a5,a5,a4
   23210:	02f13c23          	sd	a5,56(sp)
   23214:	03813783          	ld	a5,56(sp)
   23218:	0007c783          	lbu	a5,0(a5)
   2321c:	02f12623          	sw	a5,44(sp)
   23220:	02c12783          	lw	a5,44(sp)
   23224:	0007871b          	sext.w	a4,a5
   23228:	06400793          	li	a5,100
   2322c:	00f70a63          	beq	a4,a5,23240 <vpf+0xe0>
   23230:	02c12783          	lw	a5,44(sp)
   23234:	0007871b          	sext.w	a4,a5
   23238:	07800793          	li	a5,120
   2323c:	04f71863          	bne	a4,a5,2328c <vpf+0x12c>
   23240:	00013783          	ld	a5,0(sp)
   23244:	00878713          	addi	a4,a5,8
   23248:	00e13023          	sd	a4,0(sp)
   2324c:	0007a783          	lw	a5,0(a5)
   23250:	00f12c23          	sw	a5,24(sp)
   23254:	01812503          	lw	a0,24(sp)
   23258:	02c12783          	lw	a5,44(sp)
   2325c:	0007871b          	sext.w	a4,a5
   23260:	07800793          	li	a5,120
   23264:	40f707b3          	sub	a5,a4,a5
   23268:	0017b793          	seqz	a5,a5
   2326c:	0ff7f793          	andi	a5,a5,255
   23270:	0007879b          	sext.w	a5,a5
   23274:	01412703          	lw	a4,20(sp)
   23278:	02412683          	lw	a3,36(sp)
   2327c:	00070613          	mv	a2,a4
   23280:	00078593          	mv	a1,a5
   23284:	d21ff0ef          	jal	ra,22fa4 <vpf_num_to_str>
   23288:	0740006f          	j	232fc <vpf+0x19c>
   2328c:	02012423          	sw	zero,40(sp)
   23290:	0280006f          	j	232b8 <vpf+0x158>
   23294:	02812783          	lw	a5,40(sp)
   23298:	03013703          	ld	a4,48(sp)
   2329c:	00f707b3          	add	a5,a4,a5
   232a0:	0007c783          	lbu	a5,0(a5)
   232a4:	00078513          	mv	a0,a5
   232a8:	b01ff0ef          	jal	ra,22da8 <uart_send>
   232ac:	02812783          	lw	a5,40(sp)
   232b0:	0017879b          	addiw	a5,a5,1
   232b4:	02f12423          	sw	a5,40(sp)
   232b8:	02812703          	lw	a4,40(sp)
   232bc:	03813683          	ld	a3,56(sp)
   232c0:	03013783          	ld	a5,48(sp)
   232c4:	40f687b3          	sub	a5,a3,a5
   232c8:	fcf746e3          	blt	a4,a5,23294 <vpf+0x134>
   232cc:	02c12783          	lw	a5,44(sp)
   232d0:	0007879b          	sext.w	a5,a5
   232d4:	00078863          	beqz	a5,232e4 <vpf+0x184>
   232d8:	02c12783          	lw	a5,44(sp)
   232dc:	0ff7f793          	andi	a5,a5,255
   232e0:	00c0006f          	j	232ec <vpf+0x18c>
   232e4:	02012783          	lw	a5,32(sp)
   232e8:	0ff7f793          	andi	a5,a5,255
   232ec:	00f10fa3          	sb	a5,31(sp)
   232f0:	01f14783          	lbu	a5,31(sp)
   232f4:	00078513          	mv	a0,a5
   232f8:	ab1ff0ef          	jal	ra,22da8 <uart_send>
   232fc:	03813783          	ld	a5,56(sp)
   23300:	00178793          	addi	a5,a5,1
   23304:	02f13c23          	sd	a5,56(sp)
   23308:	03813783          	ld	a5,56(sp)
   2330c:	0007c783          	lbu	a5,0(a5)
   23310:	e6079ae3          	bnez	a5,23184 <vpf+0x24>
   23314:	00000793          	li	a5,0
   23318:	00078513          	mv	a0,a5
   2331c:	04813083          	ld	ra,72(sp)
   23320:	05010113          	addi	sp,sp,80
   23324:	00008067          	ret

0000000000023328 <sys_uart_printf>:
   23328:	f9010113          	addi	sp,sp,-112
   2332c:	02113423          	sd	ra,40(sp)
   23330:	00a13423          	sd	a0,8(sp)
   23334:	02b13c23          	sd	a1,56(sp)
   23338:	04c13023          	sd	a2,64(sp)
   2333c:	04d13423          	sd	a3,72(sp)
   23340:	04e13823          	sd	a4,80(sp)
   23344:	04f13c23          	sd	a5,88(sp)
   23348:	07013023          	sd	a6,96(sp)
   2334c:	07113423          	sd	a7,104(sp)
   23350:	07010793          	addi	a5,sp,112
   23354:	00f13023          	sd	a5,0(sp)
   23358:	00013783          	ld	a5,0(sp)
   2335c:	fc878793          	addi	a5,a5,-56
   23360:	00f13c23          	sd	a5,24(sp)
   23364:	01813783          	ld	a5,24(sp)
   23368:	00078593          	mv	a1,a5
   2336c:	00813503          	ld	a0,8(sp)
   23370:	df1ff0ef          	jal	ra,23160 <vpf>
   23374:	00000793          	li	a5,0
   23378:	00078513          	mv	a0,a5
   2337c:	02813083          	ld	ra,40(sp)
   23380:	07010113          	addi	sp,sp,112
   23384:	00008067          	ret

0000000000023388 <print_hex>:
   23388:	fd010113          	addi	sp,sp,-48
   2338c:	02113423          	sd	ra,40(sp)
   23390:	00050793          	mv	a5,a0
   23394:	00f12623          	sw	a5,12(sp)
   23398:	03000513          	li	a0,48
   2339c:	a0dff0ef          	jal	ra,22da8 <uart_send>
   233a0:	07800513          	li	a0,120
   233a4:	a05ff0ef          	jal	ra,22da8 <uart_send>
   233a8:	00700793          	li	a5,7
   233ac:	00f12e23          	sw	a5,28(sp)
   233b0:	07c0006f          	j	2342c <print_hex+0xa4>
   233b4:	01c12783          	lw	a5,28(sp)
   233b8:	0027979b          	slliw	a5,a5,0x2
   233bc:	0007879b          	sext.w	a5,a5
   233c0:	00078713          	mv	a4,a5
   233c4:	00c12783          	lw	a5,12(sp)
   233c8:	00e7d7bb          	srlw	a5,a5,a4
   233cc:	0007879b          	sext.w	a5,a5
   233d0:	0007879b          	sext.w	a5,a5
   233d4:	00f7f793          	andi	a5,a5,15
   233d8:	00f12c23          	sw	a5,24(sp)
   233dc:	01812783          	lw	a5,24(sp)
   233e0:	0007871b          	sext.w	a4,a5
   233e4:	00900793          	li	a5,9
   233e8:	02e7c063          	blt	a5,a4,23408 <print_hex+0x80>
   233ec:	01812783          	lw	a5,24(sp)
   233f0:	0ff7f793          	andi	a5,a5,255
   233f4:	0307879b          	addiw	a5,a5,48
   233f8:	0ff7f793          	andi	a5,a5,255
   233fc:	00078513          	mv	a0,a5
   23400:	9a9ff0ef          	jal	ra,22da8 <uart_send>
   23404:	01c0006f          	j	23420 <print_hex+0x98>
   23408:	01812783          	lw	a5,24(sp)
   2340c:	0ff7f793          	andi	a5,a5,255
   23410:	0377879b          	addiw	a5,a5,55
   23414:	0ff7f793          	andi	a5,a5,255
   23418:	00078513          	mv	a0,a5
   2341c:	98dff0ef          	jal	ra,22da8 <uart_send>
   23420:	01c12783          	lw	a5,28(sp)
   23424:	fff7879b          	addiw	a5,a5,-1
   23428:	00f12e23          	sw	a5,28(sp)
   2342c:	01c12783          	lw	a5,28(sp)
   23430:	0007879b          	sext.w	a5,a5
   23434:	f807d0e3          	bgez	a5,233b4 <print_hex+0x2c>
   23438:	00000013          	nop
   2343c:	00000013          	nop
   23440:	02813083          	ld	ra,40(sp)
   23444:	03010113          	addi	sp,sp,48
   23448:	00008067          	ret
   2344c:	0000                	unimp
	...

0000000000023450 <my_test_data>:
   23450:	abcd                	j	23a42 <boot_string+0x322>
   23452:	abcd                	j	23a44 <boot_string+0x324>
   23454:	5678                	lw	a4,108(a2)
   23456:	1234                	addi	a3,sp,296

0000000000023458 <load_store_test>:
   23458:	000222b7          	lui	t0,0x22
   2345c:	00028303          	lb	t1,0(t0) # 22000 <_start>
   23460:	00428303          	lb	t1,4(t0)
   23464:	ffc28303          	lb	t1,-4(t0)
   23468:	0002b303          	ld	t1,0(t0)
   2346c:	00428303          	lb	t1,4(t0)
   23470:	802002b7          	lui	t0,0x80200
   23474:	40200337          	lui	t1,0x40200
   23478:	00000297          	auipc	t0,0x0
   2347c:	fd828293          	addi	t0,t0,-40 # 23450 <my_test_data>
   23480:	00000317          	auipc	t1,0x0
   23484:	fd030313          	addi	t1,t1,-48 # 23450 <my_test_data>
   23488:	00008067          	ret

000000000002348c <pc_related_test>:
   2348c:	00001297          	auipc	t0,0x1
   23490:	80028293          	addi	t0,t0,-2048 # 23c8c <boot_string+0x56c>
   23494:	8002b303          	ld	t1,-2048(t0)
   23498:	00008067          	ret

000000000002349c <shift_test>:
   2349c:	c00002b7          	lui	t0,0xc0000
   234a0:	0452829b          	addiw	t0,t0,69
   234a4:	02129293          	slli	t0,t0,0x21
   234a8:	4012d593          	srai	a1,t0,0x1
   234ac:	0012d313          	srli	t1,t0,0x1
   234b0:	0250029b          	addiw	t0,zero,37
   234b4:	01f29293          	slli	t0,t0,0x1f
   234b8:	08a28293          	addi	t0,t0,138 # ffffffffc000008a <bss_begin+0xffffffffbffdb08a>
   234bc:	4012d61b          	sraiw	a2,t0,0x1
   234c0:	0012d31b          	srliw	t1,t0,0x1
   234c4:	0012969b          	slliw	a3,t0,0x1
   234c8:	0490029b          	addiw	t0,zero,73
   234cc:	01e29293          	slli	t0,t0,0x1e
   234d0:	08a28293          	addi	t0,t0,138
   234d4:	4012d61b          	sraiw	a2,t0,0x1
   234d8:	0012d31b          	srliw	t1,t0,0x1
   234dc:	0012971b          	slliw	a4,t0,0x1
   234e0:	00008067          	ret

00000000000234e4 <add_sub_test>:
   234e4:	80028593          	addi	a1,t0,-2048
   234e8:	000012b7          	lui	t0,0x1
   234ec:	a012829b          	addiw	t0,t0,-1535
   234f0:	01529293          	slli	t0,t0,0x15
   234f4:	40000337          	lui	t1,0x40000
   234f8:	70028593          	addi	a1,t0,1792 # 1700 <_start-0x20900>
   234fc:	80028593          	addi	a1,t0,-2048
   23500:	0802861b          	addiw	a2,t0,128
   23504:	006286b3          	add	a3,t0,t1
   23508:	0062873b          	addw	a4,t0,t1
   2350c:	000012b7          	lui	t0,0x1
   23510:	c012829b          	addiw	t0,t0,-1023
   23514:	01529293          	slli	t0,t0,0x15
   23518:	00200337          	lui	t1,0x200
   2351c:	40628533          	sub	a0,t0,t1
   23520:	406285bb          	subw	a1,t0,t1
   23524:	00008067          	ret

0000000000023528 <compare_and_return>:
   23528:	00b56663          	bltu	a0,a1,23534 <compare_and_return+0xc>
   2352c:	00000793          	li	a5,0
   23530:	0080006f          	j	23538 <compare_and_return+0x10>
   23534:	fff00793          	li	a5,-1
   23538:	00078513          	mv	a0,a5
   2353c:	00008067          	ret

0000000000023540 <sel_test>:
   23540:	00050663          	beqz	a0,2354c <sel_test+0xc>
   23544:	fff58793          	addi	a5,a1,-1
   23548:	0080006f          	j	23550 <sel_test+0x10>
   2354c:	00258793          	addi	a5,a1,2
   23550:	00078513          	mv	a0,a5
   23554:	00008067          	ret

0000000000023558 <my_memcpy_test>:
   23558:	000202b7          	lui	t0,0x20
   2355c:	00021337          	lui	t1,0x21
   23560:	02028393          	addi	t2,t0,32 # 20020 <_start-0x1fe0>

0000000000023564 <.loop>:
   23564:	0002be03          	ld	t3,0(t0)
   23568:	01c33023          	sd	t3,0(t1) # 21000 <_start-0x1000>
   2356c:	00828293          	addi	t0,t0,8
   23570:	00830313          	addi	t1,t1,8
   23574:	fe72c8e3          	blt	t0,t2,23564 <.loop>
   23578:	00008067          	ret

000000000002357c <add_test>:
   2357c:	00b50533          	add	a0,a0,a1
   23580:	00000013          	nop
   23584:	00008067          	ret

0000000000023588 <branch_test>:
   23588:	ff810113          	addi	sp,sp,-8
   2358c:	00113023          	sd	ra,0(sp)
   23590:	00100513          	li	a0,1
   23594:	00200593          	li	a1,2
   23598:	fe5ff0ef          	jal	ra,2357c <add_test>
   2359c:	00000013          	nop
   235a0:	00013083          	ld	ra,0(sp)
   235a4:	00810113          	addi	sp,sp,8
   235a8:	00008067          	ret

00000000000235ac <__init_uart>:
   235ac:	020002b7          	lui	t0,0x2000
   235b0:	0f02829b          	addiw	t0,t0,240
   235b4:	0002a303          	lw	t1,0(t0) # 2000000 <bss_begin+0x1fdb000>
   235b8:	fff0f3b7          	lui	t2,0xfff0f
   235bc:	0ff3839b          	addiw	t2,t2,255
   235c0:	00737333          	and	t1,t1,t2
   235c4:	000303b7          	lui	t2,0x30
   235c8:	3003839b          	addiw	t2,t2,768
   235cc:	00736333          	or	t1,t1,t2
   235d0:	0062a023          	sw	t1,0(t0)
   235d4:	020022b7          	lui	t0,0x2002
   235d8:	90c2829b          	addiw	t0,t0,-1780
   235dc:	0002a303          	lw	t1,0(t0) # 2002000 <bss_begin+0x1fdd000>
   235e0:	00136313          	ori	t1,t1,1
   235e4:	0062a023          	sw	t1,0(t0)
   235e8:	020022b7          	lui	t0,0x2002
   235ec:	90c2829b          	addiw	t0,t0,-1780
   235f0:	0002a303          	lw	t1,0(t0) # 2002000 <bss_begin+0x1fdd000>
   235f4:	000103b7          	lui	t2,0x10
   235f8:	00736333          	or	t1,t1,t2
   235fc:	0062a023          	sw	t1,0(t0)
   23600:	025002b7          	lui	t0,0x2500
   23604:	0002a223          	sw	zero,4(t0) # 2500004 <bss_begin+0x24db004>
   23608:	0f700313          	li	t1,247
   2360c:	0062a423          	sw	t1,8(t0)
   23610:	0002a823          	sw	zero,16(t0)
   23614:	00c2a303          	lw	t1,12(t0)
   23618:	08036313          	ori	t1,t1,128
   2361c:	0062a623          	sw	t1,12(t0)
   23620:	00d00393          	li	t2,13
   23624:	0072a023          	sw	t2,0(t0)
   23628:	00000393          	li	t2,0
   2362c:	0072a223          	sw	t2,4(t0)
   23630:	08034313          	xori	t1,t1,128
   23634:	0062a623          	sw	t1,12(t0)
   23638:	00c2a303          	lw	t1,12(t0)
   2363c:	ff000393          	li	t2,-16
   23640:	00737333          	and	t1,t1,t2
   23644:	00300393          	li	t2,3
   23648:	00736333          	or	t1,t1,t2
   2364c:	0062a623          	sw	t1,12(t0)
   23650:	00008067          	ret

0000000000023654 <put_uart>:
   23654:	025002b7          	lui	t0,0x2500

0000000000023658 <.loop>:
   23658:	07c2a303          	lw	t1,124(t0) # 250007c <bss_begin+0x24db07c>
   2365c:	00237313          	andi	t1,t1,2
   23660:	fe030ce3          	beqz	t1,23658 <.loop>
   23664:	00a28023          	sb	a0,0(t0)
   23668:	00008067          	ret

000000000002366c <put_string_uart>:
   2366c:	00008c13          	mv	s8,ra
   23670:	00050793          	mv	a5,a0

0000000000023674 <.loop1>:
   23674:	0007c503          	lbu	a0,0(a5)
   23678:	00050863          	beqz	a0,23688 <.loop1+0x14>
   2367c:	fd9ff0ef          	jal	ra,23654 <put_uart>
   23680:	00178793          	addi	a5,a5,1
   23684:	ff1ff06f          	j	23674 <.loop1>
   23688:	000c0093          	mv	ra,s8
   2368c:	00008067          	ret

0000000000023690 <__memset_16bytes_asm>:
   23690:	00000293          	li	t0,0

0000000000023694 <.loop>:
   23694:	00b53023          	sd	a1,0(a0) # 2001000 <bss_begin+0x1fdc000>
   23698:	00b53423          	sd	a1,8(a0)
   2369c:	01028293          	addi	t0,t0,16
   236a0:	fec2cae3          	blt	t0,a2,23694 <.loop>
   236a4:	00008067          	ret

Disassembly of section .rodata:

00000000000236a8 <boot_string-0x78>:
   236a8:	706d6f63          	bltu	s10,t1,23dc6 <boot_string+0x6a6>
   236ac:	7261                	lui	tp,0xffff8
   236ae:	5f65                	li	t5,-7
   236b0:	6e61                	lui	t3,0x18
   236b2:	5f64                	lw	s1,124(a4)
   236b4:	6572                	ld	a0,280(sp)
   236b6:	7574                	ld	a3,232(a0)
   236b8:	6e72                	ld	t3,280(sp)
   236ba:	6f20                	ld	s0,88(a4)
   236bc:	000a0d6b          	0xa0d6b
   236c0:	706d6f63          	bltu	s10,t1,23dde <boot_string+0x6be>
   236c4:	7261                	lui	tp,0xffff8
   236c6:	5f65                	li	t5,-7
   236c8:	6e61                	lui	t3,0x18
   236ca:	5f64                	lw	s1,124(a4)
   236cc:	6572                	ld	a0,280(sp)
   236ce:	7574                	ld	a3,232(a0)
   236d0:	6e72                	ld	t3,280(sp)
   236d2:	6620                	ld	s0,72(a2)
   236d4:	6961                	lui	s2,0x18
   236d6:	0d6c                	addi	a1,sp,668
   236d8:	000a                	c.slli	zero,0x2
   236da:	0000                	unimp
   236dc:	0000                	unimp
   236de:	0000                	unimp
   236e0:	206c6573          	csrrsi	a0,0x206,24
   236e4:	6574                	ld	a3,200(a0)
   236e6:	6f207473          	csrrci	s0,0x6f2,0
   236ea:	000a0d6b          	0xa0d6b
   236ee:	0000                	unimp
   236f0:	7262                	ld	tp,56(sp)
   236f2:	6e61                	lui	t3,0x18
   236f4:	74206863          	bltu	zero,sp,23e44 <boot_string+0x724>
   236f8:	7365                	lui	t1,0xffff9
   236fa:	2074                	fld	fa3,192(s0)
   236fc:	6f64                	ld	s1,216(a4)
   236fe:	656e                	ld	a0,216(sp)
   23700:	0a0d                	addi	s4,s4,3
   23702:	0000                	unimp
   23704:	0000                	unimp
   23706:	0000                	unimp
   23708:	636c6557          	0x636c6557
   2370c:	20656d6f          	jal	s10,79912 <bss_begin+0x54912>
   23710:	4952                	lw	s2,20(sp)
   23712:	562d4353          	0x562d4353
   23716:	0d21                	addi	s10,s10,8
   23718:	000a                	c.slli	zero,0x2
   2371a:	0000                	unimp
   2371c:	0000                	unimp
	...

0000000000023720 <boot_string>:
   23720:	0a0d                	addi	s4,s4,3
   23722:	6f42                	ld	t5,16(sp)
   23724:	6e69746f          	jal	s0,bae0a <bss_begin+0x95e0a>
   23728:	74612067          	0x74612067
   2372c:	6120                	ld	s0,64(a0)
   2372e:	0a0d6d73          	csrrsi	s10,0xa0,26
	...

Disassembly of section .data:

0000000000024000 <stacks_start>:
	...

Disassembly of section .debug_info:

0000000000000000 <.debug_info>:
   0:	000000c3          	fmadd.s	ft1,ft0,ft0,ft0,rne
   4:	0004                	0x4
   6:	0000                	unimp
   8:	0000                	unimp
   a:	0108                	addi	a0,sp,128
   c:	00c1                	addi	ra,ra,16
   e:	0000                	unimp
  10:	620c                	ld	a1,0(a2)
  12:	0000                	unimp
  14:	0e00                	addi	s0,sp,784
  16:	0000                	unimp
  18:	4000                	lw	s0,0(s0)
  1a:	0220                	addi	s0,sp,264
  1c:	0000                	unimp
  1e:	0000                	unimp
  20:	2c00                	fld	fs0,24(s0)
  22:	0001                	nop
	...
  2c:	0200                	addi	s0,sp,256
  2e:	0601                	addi	a2,a2,0
  30:	0096                	slli	ra,ra,0x5
  32:	0000                	unimp
  34:	0102                	c.slli64	sp
  36:	9408                	0x9408
  38:	0000                	unimp
  3a:	0200                	addi	s0,sp,256
  3c:	0502                	c.slli64	a0
  3e:	0126                	slli	sp,sp,0x9
  40:	0000                	unimp
  42:	0202                	c.slli64	tp
  44:	0000ae07          	flw	ft8,0(ra)
  48:	0300                	addi	s0,sp,384
  4a:	0504                	addi	s1,sp,640
  4c:	6e69                	lui	t3,0x1a
  4e:	0074                	addi	a3,sp,12
  50:	0402                	c.slli64	s0
  52:	00007e07          	vle64.v	v28,(zero),v0.t
  56:	0200                	addi	s0,sp,256
  58:	0508                	addi	a0,sp,640
  5a:	0000                	unimp
  5c:	0000                	unimp
  5e:	0802                	c.slli64	a6
  60:	00007407          	vle64.v	v8,(zero),v0.t
  64:	0200                	addi	s0,sp,256
  66:	0508                	addi	a0,sp,640
  68:	0005                	c.nop	1
  6a:	0000                	unimp
  6c:	0802                	c.slli64	a6
  6e:	00007907          	vle64.v	v18,(zero),v0.t
  72:	0400                	addi	s0,sp,512
  74:	00a2                	slli	ra,ra,0x8
  76:	0000                	unimp
  78:	3101                	addiw	sp,sp,-32
  7a:	4806                	lw	a6,64(sp)
  7c:	0221                	addi	tp,tp,8
  7e:	0000                	unimp
  80:	0000                	unimp
  82:	2400                	fld	fs0,8(s0)
  84:	0000                	unimp
  86:	0000                	unimp
  88:	0000                	unimp
  8a:	0100                	addi	s0,sp,128
  8c:	059c                	addi	a5,sp,704
  8e:	0000008b          	0x8b
  92:	0e01                	addi	t3,t3,0
  94:	4006                	0x4006
  96:	0220                	addi	s0,sp,264
  98:	0000                	unimp
  9a:	0000                	unimp
  9c:	0800                	addi	s0,sp,16
  9e:	0001                	nop
  a0:	0000                	unimp
  a2:	0000                	unimp
  a4:	0100                	addi	s0,sp,128
  a6:	069c                	addi	a5,sp,832
  a8:	0000006f          	j	a8 <_start-0x21f58>
  ac:	1001                	c.nop	-32
  ae:	6c10                	ld	a2,24(s0)
  b0:	0000                	unimp
  b2:	0200                	addi	s0,sp,256
  b4:	6891                	lui	a7,0x4
  b6:	2106                	fld	ft2,64(sp)
  b8:	0001                	nop
  ba:	0100                	addi	s0,sp,128
  bc:	1610                	addi	a2,sp,800
  be:	006c                	addi	a1,sp,12
  c0:	0000                	unimp
  c2:	9102                	jalr	sp
  c4:	0060                	addi	s0,sp,12
  c6:	4700                	lw	s0,8(a4)
  c8:	0002                	c.slli64	zero
  ca:	0400                	addi	s0,sp,512
  cc:	6f00                	ld	s0,24(a4)
  ce:	0000                	unimp
  d0:	0800                	addi	s0,sp,16
  d2:	c101                	beqz	a0,d2 <_start-0x21f2e>
  d4:	0000                	unimp
  d6:	0c00                	addi	s0,sp,528
  d8:	013d                	addi	sp,sp,15
  da:	0000                	unimp
  dc:	000e                	c.slli	zero,0x3
  de:	0000                	unimp
  e0:	216c                	fld	fa1,192(a0)
  e2:	0002                	c.slli64	zero
  e4:	0000                	unimp
  e6:	0000                	unimp
  e8:	0268                	addi	a0,sp,268
  ea:	0000                	unimp
  ec:	0000                	unimp
  ee:	0000                	unimp
  f0:	0119                	addi	sp,sp,6
  f2:	0000                	unimp
  f4:	0102                	c.slli64	sp
  f6:	9606                	add	a2,a2,ra
  f8:	0000                	unimp
  fa:	0200                	addi	s0,sp,256
  fc:	0801                	addi	a6,a6,0
  fe:	0094                	addi	a3,sp,64
 100:	0000                	unimp
 102:	0202                	c.slli64	tp
 104:	2605                	addiw	a2,a2,1
 106:	0001                	nop
 108:	0200                	addi	s0,sp,256
 10a:	0702                	c.slli64	a4
 10c:	00ae                	slli	ra,ra,0xb
 10e:	0000                	unimp
 110:	69050403          	lb	s0,1680(a0)
 114:	746e                	ld	s0,248(sp)
 116:	0200                	addi	s0,sp,256
 118:	0704                	addi	s1,sp,896
 11a:	007e                	c.slli	zero,0x1f
 11c:	0000                	unimp
 11e:	0802                	c.slli64	a6
 120:	0005                	c.nop	1
 122:	0000                	unimp
 124:	0200                	addi	s0,sp,256
 126:	0708                	addi	a0,sp,896
 128:	0074                	addi	a3,sp,12
 12a:	0000                	unimp
 12c:	3004                	fld	fs1,32(s0)
 12e:	0001                	nop
 130:	0200                	addi	s0,sp,256
 132:	005e1c1b          	slliw	s8,t3,0x5
 136:	0000                	unimp
 138:	0802                	c.slli64	a6
 13a:	0505                	addi	a0,a0,1
 13c:	0000                	unimp
 13e:	0200                	addi	s0,sp,256
 140:	0708                	addi	a0,sp,896
 142:	0079                	c.nop	30
 144:	0000                	unimp
 146:	5605                	li	a2,-31
 148:	0001                	nop
 14a:	0100                	addi	s0,sp,128
 14c:	0749                	addi	a4,a4,18
 14e:	000000cb          	fnmsub.s	ft1,ft0,ft0,ft0,rne
 152:	2394                	fld	fa3,0(a5)
 154:	0002                	c.slli64	zero
 156:	0000                	unimp
 158:	0000                	unimp
 15a:	0040                	addi	s0,sp,4
 15c:	0000                	unimp
 15e:	0000                	unimp
 160:	0000                	unimp
 162:	9c01                	subw	s0,s0,s0
 164:	000000cb          	fnmsub.s	ft1,ft0,ft0,ft0,rne
 168:	7306                	ld	t1,96(sp)
 16a:	0100                	addi	s0,sp,128
 16c:	1449                	addi	s0,s0,-14
 16e:	000000cb          	fnmsub.s	ft1,ft0,ft0,ft0,rne
 172:	9102                	jalr	sp
 174:	0668                	addi	a0,sp,780
 176:	49010063          	beq	sp,a6,5f6 <_start-0x21a0a>
 17a:	0000491b          	0x491b
 17e:	0200                	addi	s0,sp,256
 180:	6491                	lui	s1,0x4
 182:	00017507          	vle64.v	v10,(sp),v0.t
 186:	0100                	addi	s0,sp,128
 188:	2549                	addiw	a0,a0,18
 18a:	0065                	c.nop	25
 18c:	0000                	unimp
 18e:	9102                	jalr	sp
 190:	0058                	addi	a4,sp,4
 192:	0808                	addi	a0,sp,16
 194:	5409                	li	s0,-30
 196:	0001                	nop
 198:	0100                	addi	s0,sp,128
 19a:	0e1e                	slli	t3,t3,0x7
 19c:	000000cb          	fnmsub.s	ft1,ft0,ft0,ft0,rne
 1a0:	2214                	fld	fa3,0(a2)
 1a2:	0002                	c.slli64	zero
 1a4:	0000                	unimp
 1a6:	0000                	unimp
 1a8:	0180                	addi	s0,sp,192
 1aa:	0000                	unimp
 1ac:	0000                	unimp
 1ae:	0000                	unimp
 1b0:	9c01                	subw	s0,s0,s0
 1b2:	0190                	addi	a2,sp,192
 1b4:	0000                	unimp
 1b6:	7306                	ld	t1,96(sp)
 1b8:	0100                	addi	s0,sp,128
 1ba:	1d1e                	slli	s10,s10,0x27
 1bc:	0190                	addi	a2,sp,192
 1be:	0000                	unimp
 1c0:	7fa89103          	lh	sp,2042(a7) # 47fa <_start-0x1d806>
 1c4:	6306                	ld	t1,64(sp)
 1c6:	0100                	addi	s0,sp,128
 1c8:	241e                	fld	fs0,448(sp)
 1ca:	0049                	c.nop	18
 1cc:	0000                	unimp
 1ce:	7fa49103          	lh	sp,2042(s1) # 47fa <_start-0x1d806>
 1d2:	00017507          	vle64.v	v10,(sp),v0.t
 1d6:	0100                	addi	s0,sp,128
 1d8:	2e1e                	fld	ft8,448(sp)
 1da:	0065                	c.nop	25
 1dc:	0000                	unimp
 1de:	7f989103          	lh	sp,2041(a7)
 1e2:	700a                	0x700a
 1e4:	0100                	addi	s0,sp,128
 1e6:	0820                	addi	s0,sp,24
 1e8:	0190                	addi	a2,sp,192
 1ea:	0000                	unimp
 1ec:	9102                	jalr	sp
 1ee:	0b68                	addi	a0,sp,412
 1f0:	00000137          	lui	sp,0x0
 1f4:	2101                	sext.w	sp,sp
 1f6:	7810                	ld	a2,48(s0)
 1f8:	0000                	unimp
 1fa:	0200                	addi	s0,sp,256
 1fc:	4891                	li	a7,4
 1fe:	0001970b          	addsl	a4,gp,zero,0
 202:	0100                	addi	s0,sp,128
 204:	0922                	slli	s2,s2,0x8
 206:	0065                	c.nop	25
 208:	0000                	unimp
 20a:	7fb89103          	lh	sp,2043(a7)
 20e:	00014a0b          	lrb	s4,sp,zero,0
 212:	0100                	addi	s0,sp,128
 214:	0f22                	slli	t5,t5,0x8
 216:	0065                	c.nop	25
 218:	0000                	unimp
 21a:	9102                	jalr	sp
 21c:	0a60                	addi	s0,sp,284
 21e:	006e                	c.slli	zero,0x1b
 220:	2301                	sext.w	t1,t1
 222:	4906                	lw	s2,64(sp)
 224:	0000                	unimp
 226:	0300                	addi	s0,sp,384
 228:	b491                	j	fffffffffffffc6c <bss_begin+0xfffffffffffdac6c>
 22a:	00690a7f          	0x690a7f
 22e:	2301                	sext.w	t1,t1
 230:	4909                	li	s2,2
 232:	0000                	unimp
 234:	0200                	addi	s0,sp,256
 236:	5c91                	li	s9,-28
 238:	00016d0b          	0x16d0b
 23c:	0100                	addi	s0,sp,128
 23e:	1024                	addi	s1,sp,40
 240:	0078                	addi	a4,sp,12
 242:	0000                	unimp
 244:	9102                	jalr	sp
 246:	0b40                	addi	s0,sp,404
 248:	0000014f          	fnmadd.s	ft2,ft0,ft0,ft0,rne
 24c:	2501                	sext.w	a0,a0
 24e:	7810                	ld	a2,48(s0)
 250:	0000                	unimp
 252:	0200                	addi	s0,sp,256
 254:	5091                	li	ra,-28
 256:	0c00                	addi	s0,sp,528
 258:	9608                	0x9608
 25a:	0001                	nop
 25c:	0200                	addi	s0,sp,256
 25e:	0801                	addi	a6,a6,0
 260:	009d                	addi	ra,ra,7
 262:	0000                	unimp
 264:	5d0d                	li	s10,-29
 266:	0001                	nop
 268:	0100                	addi	s0,sp,128
 26a:	0e15                	addi	t3,t3,5
 26c:	000000cb          	fnmsub.s	ft1,ft0,ft0,ft0,rne
 270:	21bc                	fld	fa5,64(a1)
 272:	0002                	c.slli64	zero
 274:	0000                	unimp
 276:	0000                	unimp
 278:	0058                	addi	a4,sp,4
 27a:	0000                	unimp
 27c:	0000                	unimp
 27e:	0000                	unimp
 280:	9c01                	subw	s0,s0,s0
 282:	000001f7          	radd16	gp,zero,zero
 286:	7306                	ld	t1,96(sp)
 288:	0100                	addi	s0,sp,128
 28a:	2415                	addiw	s0,s0,5
 28c:	000000cb          	fnmsub.s	ft1,ft0,ft0,ft0,rne
 290:	9102                	jalr	sp
 292:	0668                	addi	a0,sp,780
 294:	15010063          	beq	sp,a6,3d4 <_start-0x21c2c>
 298:	0000492b          	0x492b
 29c:	0200                	addi	s0,sp,256
 29e:	6491                	lui	s1,0x4
 2a0:	00017507          	vle64.v	v10,(sp),v0.t
 2a4:	0100                	addi	s0,sp,128
 2a6:	3515                	addiw	a0,a0,-27
 2a8:	0065                	c.nop	25
 2aa:	0000                	unimp
 2ac:	9102                	jalr	sp
 2ae:	0a58                	addi	a4,sp,276
 2b0:	7378                	ld	a4,224(a4)
 2b2:	0100                	addi	s0,sp,128
 2b4:	01900817          	auipc	a6,0x1900
 2b8:	0000                	unimp
 2ba:	9102                	jalr	sp
 2bc:	0078                	addi	a4,sp,12
 2be:	7b0e                	ld	s6,224(sp)
 2c0:	0001                	nop
 2c2:	0100                	addi	s0,sp,128
 2c4:	0d05                	addi	s10,s10,1
 2c6:	216c                	fld	fa1,192(a0)
 2c8:	0002                	c.slli64	zero
 2ca:	0000                	unimp
 2cc:	0000                	unimp
 2ce:	0050                	addi	a2,sp,4
 2d0:	0000                	unimp
 2d2:	0000                	unimp
 2d4:	0000                	unimp
 2d6:	9c01                	subw	s0,s0,s0
 2d8:	7006                	0x7006
 2da:	0100                	addi	s0,sp,128
 2dc:	2f05                	addiw	t5,t5,1
 2de:	000000cb          	fnmsub.s	ft1,ft0,ft0,ft0,rne
 2e2:	9102                	jalr	sp
 2e4:	0668                	addi	a0,sp,780
 2e6:	6176                	ld	sp,344(sp)
 2e8:	006c                	addi	a1,sp,12
 2ea:	0501                	addi	a0,a0,0
 2ec:	7840                	ld	s0,176(s0)
 2ee:	0000                	unimp
 2f0:	0200                	addi	s0,sp,256
 2f2:	6091                	lui	ra,0x4
 2f4:	00017507          	vle64.v	v10,(sp),v0.t
 2f8:	0100                	addi	s0,sp,128
 2fa:	0706                	slli	a4,a4,0x1
 2fc:	0049                	c.nop	18
 2fe:	0000                	unimp
 300:	9102                	jalr	sp
 302:	0a5c                	addi	a5,sp,276
 304:	0069                	c.nop	26
 306:	0801                	addi	a6,a6,0
 308:	4906                	lw	s2,64(sp)
 30a:	0000                	unimp
 30c:	0200                	addi	s0,sp,256
 30e:	7c91                	lui	s9,0xfffe4
 310:	0000                	unimp
 312:	0000025b          	0x25b
 316:	0004                	0x4
 318:	016a                	slli	sp,sp,0x1a
 31a:	0000                	unimp
 31c:	0108                	addi	a0,sp,128
 31e:	00c1                	addi	ra,ra,16
 320:	0000                	unimp
 322:	200c                	fld	fa1,0(s0)
 324:	0002                	c.slli64	zero
 326:	0e00                	addi	s0,sp,784
 328:	0000                	unimp
 32a:	d400                	sw	s0,40(s0)
 32c:	00000223          	sb	zero,4(zero) # 4 <_start-0x21ffc>
 330:	0000                	unimp
 332:	2c00                	fld	fs0,24(s0)
 334:	00000007          	vle8.v	v0,(zero),v0.t
 338:	0000                	unimp
 33a:	0100                	addi	s0,sp,128
 33c:	02000003          	lb	zero,32(zero) # 20 <_start-0x21fe0>
 340:	0601                	addi	a2,a2,0
 342:	0096                	slli	ra,ra,0x5
 344:	0000                	unimp
 346:	0102                	c.slli64	sp
 348:	9408                	0x9408
 34a:	0000                	unimp
 34c:	0200                	addi	s0,sp,256
 34e:	0502                	c.slli64	a0
 350:	0126                	slli	sp,sp,0x9
 352:	0000                	unimp
 354:	0202                	c.slli64	tp
 356:	0000ae07          	flw	ft8,0(ra) # 4000 <_start-0x1e000>
 35a:	0300                	addi	s0,sp,384
 35c:	0504                	addi	s1,sp,640
 35e:	6e69                	lui	t3,0x1a
 360:	0074                	addi	a3,sp,12
 362:	fa04                	sd	s1,48(a2)
 364:	0001                	nop
 366:	0300                	addi	s0,sp,384
 368:	005c160f          	0x5c160f
 36c:	0000                	unimp
 36e:	0402                	c.slli64	s0
 370:	00007e07          	vle64.v	v28,(zero),v0.t
 374:	0200                	addi	s0,sp,256
 376:	0508                	addi	a0,sp,640
 378:	0000                	unimp
 37a:	0000                	unimp
 37c:	0802                	c.slli64	a6
 37e:	00007407          	vle64.v	v8,(zero),v0.t
 382:	0200                	addi	s0,sp,256
 384:	0508                	addi	a0,sp,640
 386:	0005                	c.nop	1
 388:	0000                	unimp
 38a:	0802                	c.slli64	a6
 38c:	00007907          	vle64.v	v18,(zero),v0.t
 390:	0400                	addi	s0,sp,512
 392:	000001eb          	0x1eb
 396:	6a1c2403          	lw	s0,1697(s8)
 39a:	0000                	unimp
 39c:	0400                	addi	s0,sp,512
 39e:	00000217          	auipc	tp,0x0
 3a2:	1104                	addi	s1,sp,160
 3a4:	0000500f          	0x500f
 3a8:	0500                	addi	s0,sp,640
 3aa:	0238                	addi	a4,sp,264
 3ac:	0000                	unimp
 3ae:	d002                	sw	zero,32(sp)
 3b0:	8806                	mv	a6,ra
 3b2:	022a                	slli	tp,tp,0xa
 3b4:	0000                	unimp
 3b6:	0000                	unimp
 3b8:	7800                	ld	s0,48(s0)
 3ba:	0000                	unimp
 3bc:	0000                	unimp
 3be:	0000                	unimp
 3c0:	0100                	addi	s0,sp,128
 3c2:	069c                	addi	a5,sp,832
 3c4:	000001cb          	fnmsub.s	ft3,ft0,ft0,ft0,rne
 3c8:	b702                	fsd	ft0,424(sp)
 3ca:	940d                	srai	s0,s0,0x23
 3cc:	0229                	addi	tp,tp,10
 3ce:	0000                	unimp
 3d0:	0000                	unimp
 3d2:	f400                	sd	s0,40(s0)
 3d4:	0000                	unimp
 3d6:	0000                	unimp
 3d8:	0000                	unimp
 3da:	0100                	addi	s0,sp,128
 3dc:	ee9c                	sd	a5,24(a3)
 3de:	0000                	unimp
 3e0:	0700                	addi	s0,sp,896
 3e2:	01d6                	slli	gp,gp,0x15
 3e4:	0000                	unimp
 3e6:	b702                	fsd	ft0,424(sp)
 3e8:	00007f27          	vse64.v	v30,(zero),v0.t
 3ec:	0200                	addi	s0,sp,256
 3ee:	5891                	li	a7,-28
 3f0:	7608                	ld	a0,40(a2)
 3f2:	6c61                	lui	s8,0x18
 3f4:	0200                	addi	s0,sp,256
 3f6:	0bb9                	addi	s7,s7,14
 3f8:	0000008b          	0x8b
 3fc:	9102                	jalr	sp
 3fe:	006c                	addi	a1,sp,12
 400:	db06                	sw	ra,180(sp)
 402:	0001                	nop
 404:	0200                	addi	s0,sp,256
 406:	0dac                	addi	a1,sp,728
 408:	293c                	fld	fa5,80(a0)
 40a:	0002                	c.slli64	zero
 40c:	0000                	unimp
 40e:	0000                	unimp
 410:	0058                	addi	a4,sp,4
 412:	0000                	unimp
 414:	0000                	unimp
 416:	0000                	unimp
 418:	9c01                	subw	s0,s0,s0
 41a:	011c                	addi	a5,sp,128
 41c:	0000                	unimp
 41e:	7608                	ld	a0,40(a2)
 420:	6c61                	lui	s8,0x18
 422:	0200                	addi	s0,sp,256
 424:	0bae                	slli	s7,s7,0xb
 426:	0000008b          	0x8b
 42a:	9102                	jalr	sp
 42c:	006c                	addi	a1,sp,12
 42e:	0009                	c.nop	2
 430:	0002                	c.slli64	zero
 432:	0200                	addi	s0,sp,256
 434:	28bc0da3          	sb	a1,667(s8) # 1829b <_start-0x9d65>
 438:	0002                	c.slli64	zero
 43a:	0000                	unimp
 43c:	0000                	unimp
 43e:	0080                	addi	s0,sp,64
 440:	0000                	unimp
 442:	0000                	unimp
 444:	0000                	unimp
 446:	9c01                	subw	s0,s0,s0
 448:	b309                	j	14a <_start-0x21eb6>
 44a:	0001                	nop
 44c:	0200                	addi	s0,sp,256
 44e:	0d9c                	addi	a5,sp,720
 450:	2858                	fld	fa4,144(s0)
 452:	0002                	c.slli64	zero
 454:	0000                	unimp
 456:	0000                	unimp
 458:	0064                	addi	s1,sp,12
 45a:	0000                	unimp
 45c:	0000                	unimp
 45e:	0000                	unimp
 460:	9c01                	subw	s0,s0,s0
 462:	3009                	0x3009
 464:	0002                	c.slli64	zero
 466:	0200                	addi	s0,sp,256
 468:	0d95                	addi	s11,s11,5
 46a:	27f4                	fld	fa3,200(a5)
 46c:	0002                	c.slli64	zero
 46e:	0000                	unimp
 470:	0000                	unimp
 472:	0064                	addi	s1,sp,12
 474:	0000                	unimp
 476:	0000                	unimp
 478:	0000                	unimp
 47a:	9c01                	subw	s0,s0,s0
 47c:	bb06                	fsd	ft1,432(sp)
 47e:	0001                	nop
 480:	0200                	addi	s0,sp,256
 482:	0d71                	addi	s10,s10,28
 484:	268c                	fld	fa1,8(a3)
 486:	0002                	c.slli64	zero
 488:	0000                	unimp
 48a:	0000                	unimp
 48c:	0168                	addi	a0,sp,140
 48e:	0000                	unimp
 490:	0000                	unimp
 492:	0000                	unimp
 494:	9c01                	subw	s0,s0,s0
 496:	0198                	addi	a4,sp,192
 498:	0000                	unimp
 49a:	7608                	ld	a0,40(a2)
 49c:	6c61                	lui	s8,0x18
 49e:	0200                	addi	s0,sp,256
 4a0:	008b0b73          	0x8b0b73
 4a4:	0000                	unimp
 4a6:	9102                	jalr	sp
 4a8:	006c                	addi	a1,sp,12
 4aa:	a206                	fsd	ft1,256(sp)
 4ac:	0001                	nop
 4ae:	0200                	addi	s0,sp,256
 4b0:	24540d37          	lui	s10,0x24540
 4b4:	0002                	c.slli64	zero
 4b6:	0000                	unimp
 4b8:	0000                	unimp
 4ba:	0238                	addi	a4,sp,264
 4bc:	0000                	unimp
 4be:	0000                	unimp
 4c0:	0000                	unimp
 4c2:	9c01                	subw	s0,s0,s0
 4c4:	01c6                	slli	gp,gp,0x11
 4c6:	0000                	unimp
 4c8:	7608                	ld	a0,40(a2)
 4ca:	6c61                	lui	s8,0x18
 4cc:	0200                	addi	s0,sp,256
 4ce:	0b39                	addi	s6,s6,14
 4d0:	0000008b          	0x8b
 4d4:	9102                	jalr	sp
 4d6:	006c                	addi	a1,sp,12
 4d8:	080a                	slli	a6,a6,0x2
 4da:	0002                	c.slli64	zero
 4dc:	0200                	addi	s0,sp,256
 4de:	241c0627          	vsuxseg2ei8.v	v12,(s8),v1,v0.t
 4e2:	0002                	c.slli64	zero
 4e4:	0000                	unimp
 4e6:	0000                	unimp
 4e8:	0038                	addi	a4,sp,8
 4ea:	0000                	unimp
 4ec:	0000                	unimp
 4ee:	0000                	unimp
 4f0:	9c01                	subw	s0,s0,s0
 4f2:	000001f3          	0x1f3
 4f6:	0073750b          	0x73750b
 4fa:	2702                	fld	fa4,0(sp)
 4fc:	0000781b          	0x781b
 500:	0200                	addi	s0,sp,256
 502:	7891                	lui	a7,0xfffe4
 504:	0c00                	addi	s0,sp,528
 506:	0000020f          	0x20f
 50a:	2801                	sext.w	a6,a6
 50c:	f414                	sd	a3,40(s0)
 50e:	00000223          	sb	zero,4(zero) # 4 <_start-0x21ffc>
 512:	0000                	unimp
 514:	2800                	fld	fs0,16(s0)
 516:	0000                	unimp
 518:	0000                	unimp
 51a:	0000                	unimp
 51c:	0100                	addi	s0,sp,128
 51e:	309c                	fld	fa5,32(s1)
 520:	0002                	c.slli64	zero
 522:	0700                	addi	s0,sp,896
 524:	01d6                	slli	gp,gp,0x15
 526:	0000                	unimp
 528:	2801                	sext.w	a6,a6
 52a:	00007f2b          	0x7f2b
 52e:	0200                	addi	s0,sp,256
 530:	7891                	lui	a7,0xfffe4
 532:	00019c07          	flh	fs8,0(gp)
 536:	0100                	addi	s0,sp,128
 538:	3728                	fld	fa0,104(a4)
 53a:	0050                	addi	a2,sp,4
 53c:	0000                	unimp
 53e:	9102                	jalr	sp
 540:	0074                	addi	a3,sp,12
 542:	e40d                	bnez	s0,56c <_start-0x21a94>
 544:	0001                	nop
 546:	0100                	addi	s0,sp,128
 548:	1514                	addi	a3,sp,672
 54a:	0050                	addi	a2,sp,4
 54c:	0000                	unimp
 54e:	23d4                	fld	fa3,128(a5)
 550:	0002                	c.slli64	zero
 552:	0000                	unimp
 554:	0000                	unimp
 556:	0020                	addi	s0,sp,8
 558:	0000                	unimp
 55a:	0000                	unimp
 55c:	0000                	unimp
 55e:	9c01                	subw	s0,s0,s0
 560:	0001d607          	vle16.v	v12,(gp),v0.t
 564:	0100                	addi	s0,sp,128
 566:	2b14                	fld	fa3,16(a4)
 568:	0000007f          	0x7f
 56c:	9102                	jalr	sp
 56e:	0078                	addi	a4,sp,12
 570:	c500                	sw	s0,8(a0)
 572:	0004                	0x4
 574:	0400                	addi	s0,sp,512
 576:	7200                	ld	s0,32(a2)
 578:	0002                	c.slli64	zero
 57a:	0800                	addi	s0,sp,16
 57c:	c101                	beqz	a0,57c <_start-0x21a84>
 57e:	0000                	unimp
 580:	0c00                	addi	s0,sp,528
 582:	028d                	addi	t0,t0,3
 584:	0000                	unimp
 586:	000e                	c.slli	zero,0x3
 588:	0000                	unimp
 58a:	2b00                	fld	fs0,16(a4)
 58c:	0002                	c.slli64	zero
 58e:	0000                	unimp
 590:	0000                	unimp
 592:	094c                	addi	a1,sp,148
 594:	0000                	unimp
 596:	0000                	unimp
 598:	0000                	unimp
 59a:	0774                	addi	a3,sp,908
 59c:	0000                	unimp
 59e:	0102                	c.slli64	sp
 5a0:	9606                	add	a2,a2,ra
 5a2:	0000                	unimp
 5a4:	0300                	addi	s0,sp,384
 5a6:	02a1                	addi	t0,t0,8
 5a8:	0000                	unimp
 5aa:	40170903          	lb	s2,1025(a4)
 5ae:	0000                	unimp
 5b0:	0200                	addi	s0,sp,256
 5b2:	0801                	addi	a6,a6,0
 5b4:	0094                	addi	a3,sp,64
 5b6:	0000                	unimp
 5b8:	0202                	c.slli64	tp
 5ba:	2605                	addiw	a2,a2,1
 5bc:	0001                	nop
 5be:	0200                	addi	s0,sp,256
 5c0:	0702                	c.slli64	a4
 5c2:	00ae                	slli	ra,ra,0xb
 5c4:	0000                	unimp
 5c6:	0404                	addi	s1,sp,512
 5c8:	6905                	lui	s2,0x1
 5ca:	746e                	ld	s0,248(sp)
 5cc:	0300                	addi	s0,sp,384
 5ce:	01fa                	slli	gp,gp,0x1e
 5d0:	0000                	unimp
 5d2:	68160f03          	lb	t5,1665(a2)
 5d6:	0000                	unimp
 5d8:	0200                	addi	s0,sp,256
 5da:	0704                	addi	s1,sp,896
 5dc:	007e                	c.slli	zero,0x1f
 5de:	0000                	unimp
 5e0:	0802                	c.slli64	a6
 5e2:	0005                	c.nop	1
 5e4:	0000                	unimp
 5e6:	0200                	addi	s0,sp,256
 5e8:	0708                	addi	a0,sp,896
 5ea:	0074                	addi	a3,sp,12
 5ec:	0000                	unimp
 5ee:	0802                	c.slli64	a6
 5f0:	0505                	addi	a0,a0,1
 5f2:	0000                	unimp
 5f4:	0200                	addi	s0,sp,256
 5f6:	0708                	addi	a0,sp,896
 5f8:	0079                	c.nop	30
 5fa:	0000                	unimp
 5fc:	0001eb03          	lwu	s6,0(gp)
 600:	0300                	addi	s0,sp,384
 602:	1c24                	addi	s1,sp,568
 604:	0076                	c.slli	zero,0x1d
 606:	0000                	unimp
 608:	00025103          	lhu	sp,0(tp) # 39e <_start-0x21c62>
 60c:	0400                	addi	s0,sp,512
 60e:	1b08                	addi	a0,sp,432
 610:	000000a3          	sb	zero,1(zero) # 1 <_start-0x21fff>
 614:	0805                	addi	a6,a6,1
 616:	00000247          	fmsub.s	ft4,ft0,ft0,ft0,rne
 61a:	00021703          	lh	a4,0(tp) # 0 <_start-0x22000>
 61e:	0500                	addi	s0,sp,640
 620:	0f11                	addi	t5,t5,4
 622:	005c                	addi	a5,sp,4
 624:	0000                	unimp
 626:	6306                	ld	t1,64(sp)
 628:	0002                	c.slli64	zero
 62a:	0200                	addi	s0,sp,256
 62c:	06dc                	addi	a5,sp,836
 62e:	3388                	fld	fa0,32(a5)
 630:	0002                	c.slli64	zero
 632:	0000                	unimp
 634:	0000                	unimp
 636:	00c4                	addi	s1,sp,68
 638:	0000                	unimp
 63a:	0000                	unimp
 63c:	0000                	unimp
 63e:	9c01                	subw	s0,s0,s0
 640:	000000ff          	0xff
 644:	6c617607          	vloxseg4ei64.v	v12,(sp),v6,v0.t
 648:	0200                	addi	s0,sp,256
 64a:	1ddc                	addi	a5,sp,756
 64c:	0068                	addi	a0,sp,12
 64e:	0000                	unimp
 650:	9102                	jalr	sp
 652:	085c                	addi	a5,sp,20
 654:	0069                	c.nop	26
 656:	de02                	sw	zero,60(sp)
 658:	5509                	li	a0,-30
 65a:	0000                	unimp
 65c:	0200                	addi	s0,sp,256
 65e:	6c91                	lui	s9,0x4
 660:	c009                	beqz	s0,662 <_start-0x2199e>
 662:	0002                	c.slli64	zero
 664:	0200                	addi	s0,sp,256
 666:	09df 0055 0000      	0x5509df
 66c:	9102                	jalr	sp
 66e:	0068                	addi	a0,sp,12
 670:	b00a                	fsd	ft2,32(sp)
 672:	0002                	c.slli64	zero
 674:	0200                	addi	s0,sp,256
 676:	005505cf          	fnmadd.s	fa1,fa0,ft5,ft0,rne
 67a:	0000                	unimp
 67c:	3328                	fld	fa0,96(a4)
 67e:	0002                	c.slli64	zero
 680:	0000                	unimp
 682:	0000                	unimp
 684:	0060                	addi	s0,sp,12
 686:	0000                	unimp
 688:	0000                	unimp
 68a:	0000                	unimp
 68c:	9c01                	subw	s0,s0,s0
 68e:	0142                	slli	sp,sp,0x10
 690:	0000                	unimp
 692:	746d6607          	0x746d6607
 696:	0200                	addi	s0,sp,256
 698:	014222cf          	fnmadd.s	ft5,ft4,fs4,ft0,rdn
 69c:	0000                	unimp
 69e:	7f989103          	lh	sp,2041(a7) # fffffffffffe47f9 <bss_begin+0xfffffffffffbf7f9>
 6a2:	6176080b          	0x6176080b
 6a6:	0200                	addi	s0,sp,256
 6a8:	0ad2                	slli	s5,s5,0x14
 6aa:	00000097          	auipc	ra,0x0
 6ae:	7fa89103          	lh	sp,2042(a7)
 6b2:	0c00                	addi	s0,sp,528
 6b4:	4f08                	lw	a0,24(a4)
 6b6:	0001                	nop
 6b8:	0200                	addi	s0,sp,256
 6ba:	0801                	addi	a6,a6,0
 6bc:	009d                	addi	ra,ra,7
 6be:	0000                	unimp
 6c0:	480d                	li	a6,3
 6c2:	0001                	nop
 6c4:	0e00                	addi	s0,sp,784
 6c6:	7076                	0x7076
 6c8:	0066                	c.slli	zero,0x19
 6ca:	aa02                	fsd	ft0,272(sp)
 6cc:	550c                	lw	a1,40(a0)
 6ce:	0000                	unimp
 6d0:	6000                	ld	s0,0(s0)
 6d2:	0231                	addi	tp,tp,12
 6d4:	0000                	unimp
 6d6:	0000                	unimp
 6d8:	c800                	sw	s0,16(s0)
 6da:	0001                	nop
 6dc:	0000                	unimp
 6de:	0000                	unimp
 6e0:	0100                	addi	s0,sp,128
 6e2:	0f9c                	addi	a5,sp,976
 6e4:	0002                	c.slli64	zero
 6e6:	0700                	addi	s0,sp,896
 6e8:	6d66                	ld	s10,88(sp)
 6ea:	0074                	addi	a3,sp,12
 6ec:	aa02                	fsd	ft0,272(sp)
 6ee:	421d                	li	tp,7
 6f0:	0001                	nop
 6f2:	0300                	addi	s0,sp,384
 6f4:	b891                	j	ffffffffffffff48 <bss_begin+0xfffffffffffdaf48>
 6f6:	6176077f          	0x6176077f
 6fa:	0200                	addi	s0,sp,256
 6fc:	2aaa                	fld	fs5,136(sp)
 6fe:	00000097          	auipc	ra,0x0
 702:	7fb09103          	lh	sp,2043(ra) # ef9 <_start-0x21107>
 706:	7008                	ld	a0,32(s0)
 708:	0200                	addi	s0,sp,256
 70a:	0fac                	addi	a1,sp,984
 70c:	0142                	slli	sp,sp,0x10
 70e:	0000                	unimp
 710:	9102                	jalr	sp
 712:	0868                	addi	a0,sp,28
 714:	0071                	c.nop	28
 716:	ac02                	fsd	ft0,24(sp)
 718:	4214                	lw	a3,0(a2)
 71a:	0001                	nop
 71c:	0200                	addi	s0,sp,256
 71e:	6091                	lui	ra,0x4
 720:	6608                	ld	a0,8(a2)
 722:	0200                	addi	s0,sp,256
 724:	06ad                	addi	a3,a3,11
 726:	0055                	c.nop	21
 728:	0000                	unimp
 72a:	9102                	jalr	sp
 72c:	085c                	addi	a5,sp,20
 72e:	ad020063          	beq	tp,a6,fffffffffffff9ee <bss_begin+0xfffffffffffda9ee>
 732:	5509                	li	a0,-30
 734:	0000                	unimp
 736:	0200                	addi	s0,sp,256
 738:	5091                	li	ra,-28
 73a:	7608                	ld	a0,40(a2)
 73c:	6961                	lui	s2,0x18
 73e:	0200                	addi	s0,sp,256
 740:	0cad                	addi	s9,s9,11
 742:	0055                	c.nop	21
 744:	0000                	unimp
 746:	9102                	jalr	sp
 748:	0848                	addi	a0,sp,20
 74a:	6c70                	ld	a2,216(s0)
 74c:	0200                	addi	s0,sp,256
 74e:	11ad                	addi	gp,gp,-21
 750:	0055                	c.nop	21
 752:	0000                	unimp
 754:	9102                	jalr	sp
 756:	0844                	addi	s1,sp,20
 758:	6370                	ld	a2,192(a4)
 75a:	0200                	addi	s0,sp,256
 75c:	15ad                	addi	a1,a1,-21
 75e:	0055                	c.nop	21
 760:	0000                	unimp
 762:	9102                	jalr	sp
 764:	0854                	addi	a3,sp,20
 766:	0069                	c.nop	26
 768:	ad02                	fsd	ft0,152(sp)
 76a:	5519                	li	a0,-26
 76c:	0000                	unimp
 76e:	0200                	addi	s0,sp,256
 770:	5891                	li	a7,-28
 772:	7408                	ld	a0,40(s0)
 774:	0200                	addi	s0,sp,256
 776:	10ae                	slli	ra,ra,0x2b
 778:	0040                	addi	s0,sp,4
 77a:	0000                	unimp
 77c:	9102                	jalr	sp
 77e:	cf0f004f          	fnmadd.q	ft0,ft10,fa6,fs9,rne
 782:	0002                	c.slli64	zero
 784:	0200                	addi	s0,sp,256
 786:	0d86                	slli	s11,s11,0x1
 788:	2fa4                	fld	fs1,88(a5)
 78a:	0002                	c.slli64	zero
 78c:	0000                	unimp
 78e:	0000                	unimp
 790:	01bc                	addi	a5,sp,200
 792:	0000                	unimp
 794:	0000                	unimp
 796:	0000                	unimp
 798:	9c01                	subw	s0,s0,s0
 79a:	02b1                	addi	t0,t0,12
 79c:	0000                	unimp
 79e:	02006107          	vle32.v	v2,(zero)
 7a2:	2586                	fld	fa1,64(sp)
 7a4:	00a9                	addi	ra,ra,10
 7a6:	0000                	unimp
 7a8:	7fbc9103          	lh	sp,2043(s9) # 47fb <_start-0x1d805>
 7ac:	68736907          	vlsseg4e32.v	v18,(t1),t2,v0.t
 7b0:	0200                	addi	s0,sp,256
 7b2:	2c86                	fld	fs9,64(sp)
 7b4:	0055                	c.nop	21
 7b6:	0000                	unimp
 7b8:	7fb89103          	lh	sp,2043(a7)
 7bc:	006c7007          	0x6c7007
 7c0:	8602                	jr	a2
 7c2:	5535                	li	a0,-19
 7c4:	0000                	unimp
 7c6:	0300                	addi	s0,sp,384
 7c8:	b491                	j	20c <_start-0x21df4>
 7ca:	6370077f          	0x6370077f
 7ce:	0200                	addi	s0,sp,256
 7d0:	3d86                	fld	fs11,96(sp)
 7d2:	0055                	c.nop	21
 7d4:	0000                	unimp
 7d6:	7fb09103          	lh	sp,2043(ra) # 47fb <_start-0x1d805>
 7da:	6208                	ld	a0,0(a2)
 7dc:	6675                	lui	a2,0x1d
 7de:	0200                	addi	s0,sp,256
 7e0:	0788                	addi	a0,sp,960
 7e2:	02b1                	addi	t0,t0,12
 7e4:	0000                	unimp
 7e6:	9102                	jalr	sp
 7e8:	0940                	addi	s0,sp,148
 7ea:	029c                	addi	a5,sp,320
 7ec:	0000                	unimp
 7ee:	8902                	jr	s2
 7f0:	0000a90b          	ext	s2,ra,0,0
 7f4:	0200                	addi	s0,sp,256
 7f6:	6c91                	lui	s9,0x4
 7f8:	6908                	ld	a0,16(a0)
 7fa:	7864                	ld	s1,240(s0)
 7fc:	0200                	addi	s0,sp,256
 7fe:	068a                	slli	a3,a3,0x2
 800:	0055                	c.nop	21
 802:	0000                	unimp
 804:	9102                	jalr	sp
 806:	0868                	addi	a0,sp,28
 808:	0069                	c.nop	26
 80a:	8a02                	jr	s4
 80c:	0000550b          	srb	a0,zero,zero,0
 810:	0200                	addi	s0,sp,256
 812:	6491                	lui	s1,0x4
 814:	7408                	ld	a0,40(s0)
 816:	0200                	addi	s0,sp,256
 818:	0e8a                	slli	t4,t4,0x2
 81a:	0055                	c.nop	21
 81c:	0000                	unimp
 81e:	9102                	jalr	sp
 820:	0060                	addi	s0,sp,12
 822:	4810                	lw	a2,16(s0)
 824:	0001                	nop
 826:	c100                	sw	s0,0(a0)
 828:	0002                	c.slli64	zero
 82a:	1100                	addi	s0,sp,160
 82c:	0084                	addi	s1,sp,64
 82e:	0000                	unimp
 830:	001f 7e12 0002      	0x27e12001f
 836:	0200                	addi	s0,sp,256
 838:	00550c73          	0x550c73
 83c:	0000                	unimp
 83e:	2ec0                	fld	fs0,152(a3)
 840:	0002                	c.slli64	zero
 842:	0000                	unimp
 844:	0000                	unimp
 846:	00e4                	addi	s1,sp,76
 848:	0000                	unimp
 84a:	0000                	unimp
 84c:	0000                	unimp
 84e:	9c01                	subw	s0,s0,s0
 850:	033a                	slli	t1,t1,0xe
 852:	0000                	unimp
 854:	746d6607          	0x746d6607
 858:	0200                	addi	s0,sp,256
 85a:	01422873          	csrrs	a6,0x14,tp
 85e:	0000                	unimp
 860:	9102                	jalr	sp
 862:	0758                	addi	a4,sp,900
 864:	756e                	ld	a0,248(sp)
 866:	006d                	c.nop	27
 868:	7302                	ld	t1,32(sp)
 86a:	00033a33          	sltu	s4,t1,zero
 86e:	0200                	addi	s0,sp,256
 870:	5091                	li	ra,-28
 872:	7008                	ld	a0,32(s0)
 874:	0200                	addi	s0,sp,256
 876:	0f75                	addi	t5,t5,29
 878:	0142                	slli	sp,sp,0x10
 87a:	0000                	unimp
 87c:	9102                	jalr	sp
 87e:	0878                	addi	a4,sp,28
 880:	6572                	ld	a0,280(sp)
 882:	76020073          	0x76020073
 886:	5506                	lw	a0,96(sp)
 888:	0000                	unimp
 88a:	0200                	addi	s0,sp,256
 88c:	7491                	lui	s1,0xfffe4
 88e:	6408                	ld	a0,8(s0)
 890:	0200                	addi	s0,sp,256
 892:	0b76                	slli	s6,s6,0x1d
 894:	0055                	c.nop	21
 896:	0000                	unimp
 898:	9102                	jalr	sp
 89a:	086c                	addi	a1,sp,28
 89c:	7369                	lui	t1,0xffffa
 89e:	0064                	addi	s1,sp,12
 8a0:	7602                	ld	a2,32(sp)
 8a2:	550e                	lw	a0,224(sp)
 8a4:	0000                	unimp
 8a6:	0200                	addi	s0,sp,256
 8a8:	7091                	lui	ra,0xfffe4
 8aa:	0c00                	addi	s0,sp,528
 8ac:	5508                	lw	a0,40(a0)
 8ae:	0000                	unimp
 8b0:	0600                	addi	s0,sp,768
 8b2:	026d                	addi	tp,tp,27
 8b4:	0000                	unimp
 8b6:	6b02                	ld	s6,0(sp)
 8b8:	6006                	0x6006
 8ba:	022e                	slli	tp,tp,0xb
 8bc:	0000                	unimp
 8be:	0000                	unimp
 8c0:	6000                	ld	s0,0(s0)
 8c2:	0000                	unimp
 8c4:	0000                	unimp
 8c6:	0000                	unimp
 8c8:	0100                	addi	s0,sp,128
 8ca:	7b9c                	ld	a5,48(a5)
 8cc:	07000003          	lb	zero,112(zero) # 70 <_start-0x21f90>
 8d0:	00727473          	csrrci	s0,0x7,4
 8d4:	6b02                	ld	s6,0(sp)
 8d6:	7b1d                	lui	s6,0xfffe7
 8d8:	02000003          	lb	zero,32(zero) # 20 <_start-0x21fe0>
 8dc:	5891                	li	a7,-28
 8de:	6908                	ld	a0,16(a0)
 8e0:	0200                	addi	s0,sp,256
 8e2:	096d                	addi	s2,s2,27
 8e4:	0055                	c.nop	21
 8e6:	0000                	unimp
 8e8:	9102                	jalr	sp
 8ea:	006c                	addi	a1,sp,12
 8ec:	080c                	addi	a1,sp,16
 8ee:	0148                	addi	a0,sp,132
 8f0:	0000                	unimp
 8f2:	a60a                	fsd	ft2,264(sp)
 8f4:	0002                	c.slli64	zero
 8f6:	0200                	addi	s0,sp,256
 8f8:	01480663          	beq	a6,s4,904 <_start-0x216fc>
 8fc:	0000                	unimp
 8fe:	2e0c                	fld	fa1,24(a2)
 900:	0002                	c.slli64	zero
 902:	0000                	unimp
 904:	0000                	unimp
 906:	0054                	addi	a3,sp,4
 908:	0000                	unimp
 90a:	0000                	unimp
 90c:	0000                	unimp
 90e:	9c01                	subw	s0,s0,s0
 910:	000003b3          	add	t2,zero,zero
 914:	d609                	beqz	a2,81e <_start-0x217e2>
 916:	0001                	nop
 918:	0200                	addi	s0,sp,256
 91a:	1165                	addi	sp,sp,-7
 91c:	0000008b          	0x8b
 920:	9102                	jalr	sp
 922:	0068                	addi	a0,sp,12
 924:	c506                	sw	ra,136(sp)
 926:	0002                	c.slli64	zero
 928:	0200                	addi	s0,sp,256
 92a:	2da8065b          	0x2da8065b
 92e:	0002                	c.slli64	zero
 930:	0000                	unimp
 932:	0000                	unimp
 934:	0064                	addi	s1,sp,12
 936:	0000                	unimp
 938:	0000                	unimp
 93a:	0000                	unimp
 93c:	9c01                	subw	s0,s0,s0
 93e:	03ee                	slli	t2,t2,0x1b
 940:	0000                	unimp
 942:	02006307          	vle32.v	v6,(zero)
 946:	0148155b          	0x148155b
 94a:	0000                	unimp
 94c:	9102                	jalr	sp
 94e:	095f 01d6 0000      	0x1d6095f
 954:	5d02                	lw	s10,32(sp)
 956:	8b11                	andi	a4,a4,4
 958:	0000                	unimp
 95a:	0200                	addi	s0,sp,256
 95c:	6891                	lui	a7,0x4
 95e:	0600                	addi	s0,sp,768
 960:	0259                	addi	tp,tp,22
 962:	0000                	unimp
 964:	1f02                	slli	t5,t5,0x20
 966:	6806                	ld	a6,64(sp)
 968:	0000022b          	0x22b
 96c:	0000                	unimp
 96e:	4000                	lw	s0,0(s0)
 970:	0002                	c.slli64	zero
 972:	0000                	unimp
 974:	0000                	unimp
 976:	0100                	addi	s0,sp,128
 978:	2b9c                	fld	fa5,16(a5)
 97a:	0004                	0x4
 97c:	0900                	addi	s0,sp,144
 97e:	01d6                	slli	gp,gp,0x15
 980:	0000                	unimp
 982:	2102                	fld	ft2,0(sp)
 984:	8b11                	andi	a4,a4,4
 986:	0000                	unimp
 988:	0200                	addi	s0,sp,256
 98a:	6891                	lui	a7,0x4
 98c:	7608                	ld	a0,40(a2)
 98e:	6c61                	lui	s8,0x18
 990:	0200                	addi	s0,sp,256
 992:	0822                	slli	a6,a6,0x8
 994:	005c                	addi	a5,sp,4
 996:	0000                	unimp
 998:	9102                	jalr	sp
 99a:	0064                	addi	s1,sp,12
 99c:	00020f13          	mv	t5,tp
 9a0:	0100                	addi	s0,sp,128
 9a2:	1428                	addi	a0,sp,552
 9a4:	2b40                	fld	fs0,144(a4)
 9a6:	0002                	c.slli64	zero
 9a8:	0000                	unimp
 9aa:	0000                	unimp
 9ac:	0028                	addi	a0,sp,8
 9ae:	0000                	unimp
 9b0:	0000                	unimp
 9b2:	0000                	unimp
 9b4:	9c01                	subw	s0,s0,s0
 9b6:	0468                	addi	a0,sp,524
 9b8:	0000                	unimp
 9ba:	d614                	sw	a3,40(a2)
 9bc:	0001                	nop
 9be:	0100                	addi	s0,sp,128
 9c0:	2b28                	fld	fa0,80(a4)
 9c2:	0000008b          	0x8b
 9c6:	9102                	jalr	sp
 9c8:	1478                	addi	a4,sp,556
 9ca:	019c                	addi	a5,sp,192
 9cc:	0000                	unimp
 9ce:	2801                	sext.w	a6,a6
 9d0:	00005c37          	lui	s8,0x5
 9d4:	0200                	addi	s0,sp,256
 9d6:	7491                	lui	s1,0xfffe4
 9d8:	1200                	addi	s0,sp,288
 9da:	01e4                	addi	s1,sp,204
 9dc:	0000                	unimp
 9de:	1401                	addi	s0,s0,-32
 9e0:	5c15                	li	s8,-27
 9e2:	0000                	unimp
 9e4:	2000                	fld	fs0,0(s0)
 9e6:	0000022b          	0x22b
 9ea:	0000                	unimp
 9ec:	2000                	fld	fs0,0(s0)
 9ee:	0000                	unimp
 9f0:	0000                	unimp
 9f2:	0000                	unimp
 9f4:	0100                	addi	s0,sp,128
 9f6:	9a9c                	0x9a9c
 9f8:	0004                	0x4
 9fa:	1400                	addi	s0,sp,544
 9fc:	01d6                	slli	gp,gp,0x15
 9fe:	0000                	unimp
 a00:	1401                	addi	s0,s0,-32
 a02:	00008b2b          	0x8b2b
 a06:	0200                	addi	s0,sp,256
 a08:	7891                	lui	a7,0xfffe4
 a0a:	1500                	addi	s0,sp,672
 a0c:	02de                	slli	t0,t0,0x17
 a0e:	0000                	unimp
 a10:	0a01                	addi	s4,s4,0
 a12:	3414                	fld	fa3,40(s0)
 a14:	0000                	unimp
 a16:	0000                	unimp
 a18:	0000022b          	0x22b
 a1c:	0000                	unimp
 a1e:	2000                	fld	fs0,0(s0)
 a20:	0000                	unimp
 a22:	0000                	unimp
 a24:	0000                	unimp
 a26:	0100                	addi	s0,sp,128
 a28:	149c                	addi	a5,sp,608
 a2a:	01d6                	slli	gp,gp,0x15
 a2c:	0000                	unimp
 a2e:	0a01                	addi	s4,s4,0
 a30:	8b29                	andi	a4,a4,10
 a32:	0000                	unimp
 a34:	0200                	addi	s0,sp,256
 a36:	7891                	lui	a7,0xfffe4
 a38:	0000                	unimp
 a3a:	002a                	c.slli	zero,0xa
 a3c:	0000                	unimp
 a3e:	0002                	c.slli64	zero
 a40:	03df 0000 0108      	0x108000003df
 a46:	0e7e                	slli	t3,t3,0x1f
 a48:	0000                	unimp
 a4a:	3450                	fld	fa2,168(s0)
 a4c:	0002                	c.slli64	zero
 a4e:	0000                	unimp
 a50:	0000                	unimp
 a52:	35ac                	fld	fa1,104(a1)
 a54:	0002                	c.slli64	zero
 a56:	0000                	unimp
 a58:	0000                	unimp
 a5a:	02e4                	addi	s1,sp,332
 a5c:	0000                	unimp
 a5e:	000002f3          	0x2f3
 a62:	0342                	slli	t1,t1,0x10
 a64:	0000                	unimp
 a66:	8001                	c.srli64	s0
 a68:	002a                	c.slli	zero,0xa
 a6a:	0000                	unimp
 a6c:	0002                	c.slli64	zero
 a6e:	000003f3          	0x3f3
 a72:	0108                	addi	a0,sp,128
 a74:	1071                	c.nop	-4
 a76:	0000                	unimp
 a78:	2000                	fld	fs0,0(s0)
 a7a:	0002                	c.slli64	zero
 a7c:	0000                	unimp
 a7e:	0000                	unimp
 a80:	203c                	fld	fa5,64(s0)
 a82:	0002                	c.slli64	zero
 a84:	0000                	unimp
 a86:	0000                	unimp
 a88:	034e                	slli	t1,t1,0x13
 a8a:	0000                	unimp
 a8c:	000002f3          	0x2f3
 a90:	0342                	slli	t1,t1,0x10
 a92:	0000                	unimp
 a94:	8001                	c.srli64	s0
 a96:	002a                	c.slli	zero,0xa
 a98:	0000                	unimp
 a9a:	0002                	c.slli64	zero
 a9c:	00000407          	vle8.v	v8,(zero),v0.t
 aa0:	0108                	addi	a0,sp,128
 aa2:	10f0                	addi	a2,sp,108
 aa4:	0000                	unimp
 aa6:	35ac                	fld	fa1,104(a1)
 aa8:	0002                	c.slli64	zero
 aaa:	0000                	unimp
 aac:	0000                	unimp
 aae:	3690                	fld	fa2,40(a3)
 ab0:	0002                	c.slli64	zero
 ab2:	0000                	unimp
 ab4:	0000                	unimp
 ab6:	0359                	addi	t1,t1,22
 ab8:	0000                	unimp
 aba:	000002f3          	0x2f3
 abe:	0342                	slli	t1,t1,0x10
 ac0:	0000                	unimp
 ac2:	8001                	c.srli64	s0
 ac4:	002a                	c.slli	zero,0xa
 ac6:	0000                	unimp
 ac8:	0002                	c.slli64	zero
 aca:	0000041b          	sext.w	s0,zero
 ace:	0108                	addi	a0,sp,128
 ad0:	1269                	addi	tp,tp,-6
 ad2:	0000                	unimp
 ad4:	3690                	fld	fa2,40(a3)
 ad6:	0002                	c.slli64	zero
 ad8:	0000                	unimp
 ada:	0000                	unimp
 adc:	36a8                	fld	fa0,104(a3)
 ade:	0002                	c.slli64	zero
 ae0:	0000                	unimp
 ae2:	0000                	unimp
 ae4:	036c                	addi	a1,sp,396
 ae6:	0000                	unimp
 ae8:	000002f3          	0x2f3
 aec:	0342                	slli	t1,t1,0x10
 aee:	0000                	unimp
 af0:	8001                	c.srli64	s0

Disassembly of section .debug_abbrev:

0000000000000000 <.debug_abbrev>:
   0:	1101                	addi	sp,sp,-32
   2:	2501                	sext.w	a0,a0
   4:	130e                	slli	t1,t1,0x23
   6:	1b0e030b          	0x1b0e030b
   a:	110e                	slli	sp,sp,0x23
   c:	1201                	addi	tp,tp,-32
   e:	00171007          	flh	ft0,1(a4)
  12:	0200                	addi	s0,sp,256
  14:	0024                	addi	s1,sp,8
  16:	0b3e0b0b          	0xb3e0b0b
  1a:	00000e03          	lb	t3,0(zero) # 0 <_start-0x22000>
  1e:	0b002403          	lw	s0,176(zero) # b0 <_start-0x21f50>
  22:	030b3e0b          	extu	t3,s6,0,48
  26:	0008                	0x8
  28:	0400                	addi	s0,sp,512
  2a:	002e                	c.slli	zero,0xb
  2c:	0e03193f 0b3b0b3a 	0xb3b0b3a0e03193f
  34:	0b39                	addi	s6,s6,14
  36:	01111927          	fsh	fa7,18(sp) # 12 <_start-0x21fee>
  3a:	0712                	slli	a4,a4,0x4
  3c:	1840                	addi	s0,sp,52
  3e:	4296                	lw	t0,68(sp)
  40:	0019                	c.nop	6
  42:	0500                	addi	s0,sp,640
  44:	012e                	slli	sp,sp,0xb
  46:	0e03193f 0b3b0b3a 	0xb3b0b3a0e03193f
  4e:	0b39                	addi	s6,s6,14
  50:	01111927          	fsh	fa7,18(sp)
  54:	0712                	slli	a4,a4,0x4
  56:	1840                	addi	s0,sp,52
  58:	4296                	lw	t0,68(sp)
  5a:	0019                	c.nop	6
  5c:	0600                	addi	s0,sp,768
  5e:	0034                	addi	a3,sp,8
  60:	0b3a0e03          	lb	t3,179(s4)
  64:	0b390b3b          	0xb390b3b
  68:	1349                	addi	t1,t1,-14
  6a:	1802                	slli	a6,a6,0x20
  6c:	0000                	unimp
  6e:	0100                	addi	s0,sp,128
  70:	0111                	addi	sp,sp,4
  72:	0e25                	addi	t3,t3,9
  74:	0e030b13          	addi	s6,t1,224 # ffffffffffffa0e0 <bss_begin+0xfffffffffffd50e0>
  78:	01110e1b          	addiw	t3,sp,17
  7c:	0712                	slli	a4,a4,0x4
  7e:	1710                	addi	a2,sp,928
  80:	0000                	unimp
  82:	2402                	fld	fs0,0(sp)
  84:	0b00                	addi	s0,sp,400
  86:	030b3e0b          	extu	t3,s6,0,48
  8a:	000e                	c.slli	zero,0x3
  8c:	0300                	addi	s0,sp,384
  8e:	0024                	addi	s1,sp,8
  90:	0b3e0b0b          	0xb3e0b0b
  94:	00000803          	lb	a6,0(zero) # 0 <_start-0x22000>
  98:	1604                	addi	s1,sp,800
  9a:	0300                	addi	s0,sp,384
  9c:	3a0e                	fld	fs4,224(sp)
  9e:	390b3b0b          	extu	s6,s6,14,16
  a2:	0013490b          	lrb	s2,t1,ra,0
  a6:	0500                	addi	s0,sp,640
  a8:	012e                	slli	sp,sp,0xb
  aa:	0e03193f 0b3b0b3a 	0xb3b0b3a0e03193f
  b2:	0b39                	addi	s6,s6,14
  b4:	13491927          	fsh	fs4,306(s2) # 18132 <_start-0x9ece>
  b8:	0111                	addi	sp,sp,4
  ba:	0712                	slli	a4,a4,0x4
  bc:	1840                	addi	s0,sp,52
  be:	4296                	lw	t0,68(sp)
  c0:	0119                	addi	sp,sp,6
  c2:	06000013          	li	zero,96
  c6:	0005                	c.nop	1
  c8:	0b3a0803          	lb	a6,179(s4)
  cc:	0b390b3b          	0xb390b3b
  d0:	1349                	addi	t1,t1,-14
  d2:	1802                	slli	a6,a6,0x20
  d4:	0000                	unimp
  d6:	03000507          	vle8ff.v	v10,(zero)
  da:	3a0e                	fld	fs4,224(sp)
  dc:	390b3b0b          	extu	s6,s6,14,16
  e0:	0213490b          	lrb	s2,t1,ra,1
  e4:	0018                	0x18
  e6:	0800                	addi	s0,sp,16
  e8:	0b0b000f          	0xb0b000f
  ec:	0000                	unimp
  ee:	2e09                	addiw	t3,t3,2
  f0:	0301                	addi	t1,t1,0
  f2:	3a0e                	fld	fs4,224(sp)
  f4:	390b3b0b          	extu	s6,s6,14,16
  f8:	4919270b          	ext	a4,s2,18,17
  fc:	12011113          	0x12011113
 100:	96184007          	flq	ft0,-1695(a6) # 18ffc15 <bss_begin+0x18dac15>
 104:	1942                	slli	s2,s2,0x30
 106:	1301                	addi	t1,t1,-32
 108:	0000                	unimp
 10a:	340a                	fld	fs0,160(sp)
 10c:	0300                	addi	s0,sp,384
 10e:	3a08                	fld	fa0,48(a2)
 110:	390b3b0b          	extu	s6,s6,14,16
 114:	0213490b          	lrb	s2,t1,ra,1
 118:	0018                	0x18
 11a:	0b00                	addi	s0,sp,400
 11c:	0034                	addi	a3,sp,8
 11e:	0b3a0e03          	lb	t3,179(s4)
 122:	0b390b3b          	0xb390b3b
 126:	1349                	addi	t1,t1,-14
 128:	1802                	slli	a6,a6,0x20
 12a:	0000                	unimp
 12c:	0f0c                	addi	a1,sp,912
 12e:	0b00                	addi	s0,sp,400
 130:	0013490b          	lrb	s2,t1,ra,0
 134:	0d00                	addi	s0,sp,656
 136:	012e                	slli	sp,sp,0xb
 138:	0b3a0e03          	lb	t3,179(s4)
 13c:	0b390b3b          	0xb390b3b
 140:	13491927          	fsh	fs4,306(s2)
 144:	0111                	addi	sp,sp,4
 146:	0712                	slli	a4,a4,0x4
 148:	1840                	addi	s0,sp,52
 14a:	01194297          	auipc	t0,0x1194
 14e:	0e000013          	li	zero,224
 152:	012e                	slli	sp,sp,0xb
 154:	0b3a0e03          	lb	t3,179(s4)
 158:	0b390b3b          	0xb390b3b
 15c:	01111927          	fsh	fa7,18(sp)
 160:	0712                	slli	a4,a4,0x4
 162:	1840                	addi	s0,sp,52
 164:	00194297          	auipc	t0,0x194
 168:	0000                	unimp
 16a:	1101                	addi	sp,sp,-32
 16c:	2501                	sext.w	a0,a0
 16e:	130e                	slli	t1,t1,0x23
 170:	1b0e030b          	0x1b0e030b
 174:	110e                	slli	sp,sp,0x23
 176:	1201                	addi	tp,tp,-32
 178:	00171007          	flh	ft0,1(a4)
 17c:	0200                	addi	s0,sp,256
 17e:	0024                	addi	s1,sp,8
 180:	0b3e0b0b          	0xb3e0b0b
 184:	00000e03          	lb	t3,0(zero) # 0 <_start-0x22000>
 188:	0b002403          	lw	s0,176(zero) # b0 <_start-0x21f50>
 18c:	030b3e0b          	extu	t3,s6,0,48
 190:	0008                	0x8
 192:	0400                	addi	s0,sp,512
 194:	0016                	c.slli	zero,0x5
 196:	0b3a0e03          	lb	t3,179(s4)
 19a:	0b390b3b          	0xb390b3b
 19e:	1349                	addi	t1,t1,-14
 1a0:	0000                	unimp
 1a2:	2e05                	addiw	t3,t3,1
 1a4:	3f00                	fld	fs0,56(a4)
 1a6:	0319                	addi	t1,t1,6
 1a8:	3a0e                	fld	fs4,224(sp)
 1aa:	390b3b0b          	extu	s6,s6,14,16
 1ae:	1119270b          	ext	a4,s2,4,17
 1b2:	1201                	addi	tp,tp,-32
 1b4:	96184007          	flq	ft0,-1695(a6)
 1b8:	1942                	slli	s2,s2,0x30
 1ba:	0000                	unimp
 1bc:	2e06                	fld	ft8,64(sp)
 1be:	0301                	addi	t1,t1,0
 1c0:	3a0e                	fld	fs4,224(sp)
 1c2:	390b3b0b          	extu	s6,s6,14,16
 1c6:	1119270b          	ext	a4,s2,4,17
 1ca:	1201                	addi	tp,tp,-32
 1cc:	96184007          	flq	ft0,-1695(a6)
 1d0:	1942                	slli	s2,s2,0x30
 1d2:	1301                	addi	t1,t1,-32
 1d4:	0000                	unimp
 1d6:	03000507          	vle8ff.v	v10,(zero)
 1da:	3a0e                	fld	fs4,224(sp)
 1dc:	390b3b0b          	extu	s6,s6,14,16
 1e0:	0213490b          	lrb	s2,t1,ra,1
 1e4:	0018                	0x18
 1e6:	0800                	addi	s0,sp,16
 1e8:	0034                	addi	a3,sp,8
 1ea:	0b3a0803          	lb	a6,179(s4)
 1ee:	0b390b3b          	0xb390b3b
 1f2:	1349                	addi	t1,t1,-14
 1f4:	1802                	slli	a6,a6,0x20
 1f6:	0000                	unimp
 1f8:	2e09                	addiw	t3,t3,2
 1fa:	0300                	addi	s0,sp,384
 1fc:	3a0e                	fld	fs4,224(sp)
 1fe:	390b3b0b          	extu	s6,s6,14,16
 202:	1119270b          	ext	a4,s2,4,17
 206:	1201                	addi	tp,tp,-32
 208:	96184007          	flq	ft0,-1695(a6)
 20c:	1942                	slli	s2,s2,0x30
 20e:	0000                	unimp
 210:	2e0a                	fld	ft8,128(sp)
 212:	3f01                	addiw	t5,t5,-32
 214:	0319                	addi	t1,t1,6
 216:	3a0e                	fld	fs4,224(sp)
 218:	390b3b0b          	extu	s6,s6,14,16
 21c:	1119270b          	ext	a4,s2,4,17
 220:	1201                	addi	tp,tp,-32
 222:	97184007          	flq	ft0,-1679(a6)
 226:	1942                	slli	s2,s2,0x30
 228:	1301                	addi	t1,t1,-32
 22a:	0000                	unimp
 22c:	0300050b          	0x300050b
 230:	3a08                	fld	fa0,48(a2)
 232:	390b3b0b          	extu	s6,s6,14,16
 236:	0213490b          	lrb	s2,t1,ra,1
 23a:	0018                	0x18
 23c:	0c00                	addi	s0,sp,528
 23e:	012e                	slli	sp,sp,0xb
 240:	0b3a0e03          	lb	t3,179(s4)
 244:	0b390b3b          	0xb390b3b
 248:	01111927          	fsh	fa7,18(sp)
 24c:	0712                	slli	a4,a4,0x4
 24e:	1840                	addi	s0,sp,52
 250:	01194297          	auipc	t0,0x1194
 254:	0d000013          	li	zero,208
 258:	012e                	slli	sp,sp,0xb
 25a:	0b3a0e03          	lb	t3,179(s4)
 25e:	0b390b3b          	0xb390b3b
 262:	13491927          	fsh	fs4,306(s2)
 266:	0111                	addi	sp,sp,4
 268:	0712                	slli	a4,a4,0x4
 26a:	1840                	addi	s0,sp,52
 26c:	00194297          	auipc	t0,0x194
 270:	0000                	unimp
 272:	1101                	addi	sp,sp,-32
 274:	2501                	sext.w	a0,a0
 276:	130e                	slli	t1,t1,0x23
 278:	1b0e030b          	0x1b0e030b
 27c:	110e                	slli	sp,sp,0x23
 27e:	1201                	addi	tp,tp,-32
 280:	00171007          	flh	ft0,1(a4)
 284:	0200                	addi	s0,sp,256
 286:	0024                	addi	s1,sp,8
 288:	0b3e0b0b          	0xb3e0b0b
 28c:	00000e03          	lb	t3,0(zero) # 0 <_start-0x22000>
 290:	03001603          	lh	a2,48(zero) # 30 <_start-0x21fd0>
 294:	3a0e                	fld	fs4,224(sp)
 296:	390b3b0b          	extu	s6,s6,14,16
 29a:	0013490b          	lrb	s2,t1,ra,0
 29e:	0400                	addi	s0,sp,512
 2a0:	0024                	addi	s1,sp,8
 2a2:	0b3e0b0b          	0xb3e0b0b
 2a6:	00000803          	lb	a6,0(zero) # 0 <_start-0x22000>
 2aa:	0f05                	addi	t5,t5,1
 2ac:	0b00                	addi	s0,sp,400
 2ae:	000e030b          	0xe030b
 2b2:	0600                	addi	s0,sp,768
 2b4:	012e                	slli	sp,sp,0xb
 2b6:	0e03193f 0b3b0b3a 	0xb3b0b3a0e03193f
 2be:	0b39                	addi	s6,s6,14
 2c0:	01111927          	fsh	fa7,18(sp)
 2c4:	0712                	slli	a4,a4,0x4
 2c6:	1840                	addi	s0,sp,52
 2c8:	4296                	lw	t0,68(sp)
 2ca:	0119                	addi	sp,sp,6
 2cc:	07000013          	li	zero,112
 2d0:	0005                	c.nop	1
 2d2:	0b3a0803          	lb	a6,179(s4)
 2d6:	0b390b3b          	0xb390b3b
 2da:	1349                	addi	t1,t1,-14
 2dc:	1802                	slli	a6,a6,0x20
 2de:	0000                	unimp
 2e0:	3408                	fld	fa0,40(s0)
 2e2:	0300                	addi	s0,sp,384
 2e4:	3a08                	fld	fa0,48(a2)
 2e6:	390b3b0b          	extu	s6,s6,14,16
 2ea:	0213490b          	lrb	s2,t1,ra,1
 2ee:	0018                	0x18
 2f0:	0900                	addi	s0,sp,144
 2f2:	0034                	addi	a3,sp,8
 2f4:	0b3a0e03          	lb	t3,179(s4)
 2f8:	0b390b3b          	0xb390b3b
 2fc:	1349                	addi	t1,t1,-14
 2fe:	1802                	slli	a6,a6,0x20
 300:	0000                	unimp
 302:	2e0a                	fld	ft8,128(sp)
 304:	3f01                	addiw	t5,t5,-32
 306:	0319                	addi	t1,t1,6
 308:	3a0e                	fld	fs4,224(sp)
 30a:	390b3b0b          	extu	s6,s6,14,16
 30e:	4919270b          	ext	a4,s2,18,17
 312:	12011113          	0x12011113
 316:	96184007          	flq	ft0,-1695(a6)
 31a:	1942                	slli	s2,s2,0x30
 31c:	1301                	addi	t1,t1,-32
 31e:	0000                	unimp
 320:	0000180b          	addsl	a6,zero,zero,0
 324:	0c00                	addi	s0,sp,528
 326:	0b0b000f          	0xb0b000f
 32a:	1349                	addi	t1,t1,-14
 32c:	0000                	unimp
 32e:	260d                	addiw	a2,a2,3
 330:	4900                	lw	s0,16(a0)
 332:	0e000013          	li	zero,224
 336:	012e                	slli	sp,sp,0xb
 338:	0b3a0803          	lb	a6,179(s4)
 33c:	0b390b3b          	0xb390b3b
 340:	13491927          	fsh	fs4,306(s2)
 344:	0111                	addi	sp,sp,4
 346:	0712                	slli	a4,a4,0x4
 348:	1840                	addi	s0,sp,52
 34a:	4296                	lw	t0,68(sp)
 34c:	0119                	addi	sp,sp,6
 34e:	0f000013          	li	zero,240
 352:	012e                	slli	sp,sp,0xb
 354:	0b3a0e03          	lb	t3,179(s4)
 358:	0b390b3b          	0xb390b3b
 35c:	01111927          	fsh	fa7,18(sp)
 360:	0712                	slli	a4,a4,0x4
 362:	1840                	addi	s0,sp,52
 364:	4296                	lw	t0,68(sp)
 366:	0119                	addi	sp,sp,6
 368:	10000013          	li	zero,256
 36c:	0101                	addi	sp,sp,0
 36e:	1349                	addi	t1,t1,-14
 370:	1301                	addi	t1,t1,-32
 372:	0000                	unimp
 374:	2111                	addiw	sp,sp,4
 376:	4900                	lw	s0,16(a0)
 378:	000b2f13          	slti	t5,s6,0
 37c:	1200                	addi	s0,sp,288
 37e:	012e                	slli	sp,sp,0xb
 380:	0b3a0e03          	lb	t3,179(s4)
 384:	0b390b3b          	0xb390b3b
 388:	13491927          	fsh	fs4,306(s2)
 38c:	0111                	addi	sp,sp,4
 38e:	0712                	slli	a4,a4,0x4
 390:	1840                	addi	s0,sp,52
 392:	01194297          	auipc	t0,0x1194
 396:	13000013          	li	zero,304
 39a:	012e                	slli	sp,sp,0xb
 39c:	0b3a0e03          	lb	t3,179(s4)
 3a0:	0b390b3b          	0xb390b3b
 3a4:	01111927          	fsh	fa7,18(sp)
 3a8:	0712                	slli	a4,a4,0x4
 3aa:	1840                	addi	s0,sp,52
 3ac:	01194297          	auipc	t0,0x1194
 3b0:	14000013          	li	zero,320
 3b4:	0005                	c.nop	1
 3b6:	0b3a0e03          	lb	t3,179(s4)
 3ba:	0b390b3b          	0xb390b3b
 3be:	1349                	addi	t1,t1,-14
 3c0:	1802                	slli	a6,a6,0x20
 3c2:	0000                	unimp
 3c4:	2e15                	addiw	t3,t3,5
 3c6:	0301                	addi	t1,t1,0
 3c8:	3a0e                	fld	fs4,224(sp)
 3ca:	390b3b0b          	extu	s6,s6,14,16
 3ce:	4919270b          	ext	a4,s2,18,17
 3d2:	12011113          	0x12011113
 3d6:	97184007          	flq	ft0,-1679(a6)
 3da:	1942                	slli	s2,s2,0x30
 3dc:	0000                	unimp
 3de:	0100                	addi	s0,sp,128
 3e0:	0011                	c.nop	4
 3e2:	0610                	addi	a2,sp,768
 3e4:	0111                	addi	sp,sp,4
 3e6:	0112                	slli	sp,sp,0x4
 3e8:	0e1b0e03          	lb	t3,225(s6) # fffffffffffe70e1 <bss_begin+0xfffffffffffc20e1>
 3ec:	0e25                	addi	t3,t3,9
 3ee:	00000513          	li	a0,0
 3f2:	0100                	addi	s0,sp,128
 3f4:	0011                	c.nop	4
 3f6:	0610                	addi	a2,sp,768
 3f8:	0111                	addi	sp,sp,4
 3fa:	0112                	slli	sp,sp,0x4
 3fc:	0e1b0e03          	lb	t3,225(s6)
 400:	0e25                	addi	t3,t3,9
 402:	00000513          	li	a0,0
 406:	0100                	addi	s0,sp,128
 408:	0011                	c.nop	4
 40a:	0610                	addi	a2,sp,768
 40c:	0111                	addi	sp,sp,4
 40e:	0112                	slli	sp,sp,0x4
 410:	0e1b0e03          	lb	t3,225(s6)
 414:	0e25                	addi	t3,t3,9
 416:	00000513          	li	a0,0
 41a:	0100                	addi	s0,sp,128
 41c:	0011                	c.nop	4
 41e:	0610                	addi	a2,sp,768
 420:	0111                	addi	sp,sp,4
 422:	0112                	slli	sp,sp,0x4
 424:	0e1b0e03          	lb	t3,225(s6)
 428:	0e25                	addi	t3,t3,9
 42a:	00000513          	li	a0,0
	...

Disassembly of section .debug_aranges:

0000000000000000 <.debug_aranges>:
   0:	002c                	addi	a1,sp,8
   2:	0000                	unimp
   4:	0002                	c.slli64	zero
   6:	0000                	unimp
   8:	0000                	unimp
   a:	0008                	0x8
   c:	0000                	unimp
   e:	0000                	unimp
  10:	2040                	fld	fs0,128(s0)
  12:	0002                	c.slli64	zero
  14:	0000                	unimp
  16:	0000                	unimp
  18:	012c                	addi	a1,sp,136
	...
  2e:	0000                	unimp
  30:	002c                	addi	a1,sp,8
  32:	0000                	unimp
  34:	0002                	c.slli64	zero
  36:	000000c7          	fmsub.s	ft1,ft0,ft0,ft0,rne
  3a:	0008                	0x8
  3c:	0000                	unimp
  3e:	0000                	unimp
  40:	216c                	fld	fa1,192(a0)
  42:	0002                	c.slli64	zero
  44:	0000                	unimp
  46:	0000                	unimp
  48:	0268                	addi	a0,sp,268
	...
  5e:	0000                	unimp
  60:	002c                	addi	a1,sp,8
  62:	0000                	unimp
  64:	0002                	c.slli64	zero
  66:	0312                	slli	t1,t1,0x4
  68:	0000                	unimp
  6a:	0008                	0x8
  6c:	0000                	unimp
  6e:	0000                	unimp
  70:	23d4                	fld	fa3,128(a5)
  72:	0002                	c.slli64	zero
  74:	0000                	unimp
  76:	0000                	unimp
  78:	072c                	addi	a1,sp,904
	...
  8e:	0000                	unimp
  90:	002c                	addi	a1,sp,8
  92:	0000                	unimp
  94:	0002                	c.slli64	zero
  96:	0571                	addi	a0,a0,28
  98:	0000                	unimp
  9a:	0008                	0x8
  9c:	0000                	unimp
  9e:	0000                	unimp
  a0:	2b00                	fld	fs0,16(a4)
  a2:	0002                	c.slli64	zero
  a4:	0000                	unimp
  a6:	0000                	unimp
  a8:	094c                	addi	a1,sp,148
	...
  be:	0000                	unimp
  c0:	002c                	addi	a1,sp,8
  c2:	0000                	unimp
  c4:	0002                	c.slli64	zero
  c6:	0a3a                	slli	s4,s4,0xe
  c8:	0000                	unimp
  ca:	0008                	0x8
  cc:	0000                	unimp
  ce:	0000                	unimp
  d0:	3450                	fld	fa2,168(s0)
  d2:	0002                	c.slli64	zero
  d4:	0000                	unimp
  d6:	0000                	unimp
  d8:	015c                	addi	a5,sp,132
	...
  ee:	0000                	unimp
  f0:	002c                	addi	a1,sp,8
  f2:	0000                	unimp
  f4:	0002                	c.slli64	zero
  f6:	0a68                	addi	a0,sp,284
  f8:	0000                	unimp
  fa:	0008                	0x8
  fc:	0000                	unimp
  fe:	0000                	unimp
 100:	2000                	fld	fs0,0(s0)
 102:	0002                	c.slli64	zero
 104:	0000                	unimp
 106:	0000                	unimp
 108:	003c                	addi	a5,sp,8
	...
 11e:	0000                	unimp
 120:	002c                	addi	a1,sp,8
 122:	0000                	unimp
 124:	0002                	c.slli64	zero
 126:	0a96                	slli	s5,s5,0x5
 128:	0000                	unimp
 12a:	0008                	0x8
 12c:	0000                	unimp
 12e:	0000                	unimp
 130:	35ac                	fld	fa1,104(a1)
 132:	0002                	c.slli64	zero
 134:	0000                	unimp
 136:	0000                	unimp
 138:	00e4                	addi	s1,sp,76
	...
 14e:	0000                	unimp
 150:	002c                	addi	a1,sp,8
 152:	0000                	unimp
 154:	0002                	c.slli64	zero
 156:	0ac4                	addi	s1,sp,340
 158:	0000                	unimp
 15a:	0008                	0x8
 15c:	0000                	unimp
 15e:	0000                	unimp
 160:	3690                	fld	fa2,40(a3)
 162:	0002                	c.slli64	zero
 164:	0000                	unimp
 166:	0000                	unimp
 168:	0018                	0x18
	...

Disassembly of section .debug_line:

0000000000000000 <.debug_line>:
       0:	0115                	addi	sp,sp,5
       2:	0000                	unimp
       4:	00230003          	lb	zero,2(t1)
       8:	0000                	unimp
       a:	0101                	addi	sp,sp,0
       c:	000d0efb          	0xd0efb
      10:	0101                	addi	sp,sp,0
      12:	0101                	addi	sp,sp,0
      14:	0000                	unimp
      16:	0100                	addi	s0,sp,128
      18:	0000                	unimp
      1a:	7301                	lui	t1,0xfffe0
      1c:	6372                	ld	t1,280(sp)
      1e:	0000                	unimp
      20:	6e72656b          	0x6e72656b
      24:	6c65                	lui	s8,0x19
      26:	632e                	ld	t1,200(sp)
      28:	0100                	addi	s0,sp,128
      2a:	0000                	unimp
      2c:	0500                	addi	s0,sp,640
      2e:	0001                	nop
      30:	0209                	addi	tp,tp,2
      32:	2040                	fld	fs0,128(s0)
      34:	0002                	c.slli64	zero
      36:	0000                	unimp
      38:	0000                	unimp
      3a:	05010e03          	lb	t3,80(sp)
      3e:	0302                	c.slli64	t1
      40:	00080903          	lb	s2,0(a6)
      44:	0301                	addi	t1,t1,0
      46:	0901                	addi	s2,s2,0
      48:	0004                	0x4
      4a:	0301                	addi	t1,t1,0
      4c:	0901                	addi	s2,s2,0
      4e:	0004                	0x4
      50:	0301                	addi	t1,t1,0
      52:	0901                	addi	s2,s2,0
      54:	0004                	0x4
      56:	0501                	addi	a0,a0,0
      58:	0309                	addi	t1,t1,2
      5a:	0901                	addi	s2,s2,0
      5c:	0004                	0x4
      5e:	0501                	addi	a0,a0,0
      60:	0901030b          	0x901030b
      64:	0010                	0x10
      66:	0501                	addi	a0,a0,0
      68:	0310                	addi	a2,sp,384
      6a:	0901                	addi	s2,s2,0
      6c:	0008                	0x8
      6e:	0301                	addi	t1,t1,0
      70:	0902                	c.slli64	s2
      72:	0010                	0x10
      74:	0501                	addi	a0,a0,0
      76:	0902030f          	0x902030f
      7a:	000c                	0xc
      7c:	0501                	addi	a0,a0,0
      7e:	0901030b          	0x901030b
      82:	0010                	0x10
      84:	0501                	addi	a0,a0,0
      86:	0310                	addi	a2,sp,384
      88:	0901                	addi	s2,s2,0
      8a:	000c                	0xc
      8c:	0501                	addi	a0,a0,0
      8e:	0309                	addi	t1,t1,2
      90:	0902                	c.slli64	s2
      92:	0010                	0x10
      94:	0501                	addi	a0,a0,0
      96:	0902030f          	0x902030f
      9a:	000c                	0xc
      9c:	0501                	addi	a0,a0,0
      9e:	0901030b          	0x901030b
      a2:	0010                	0x10
      a4:	0501                	addi	a0,a0,0
      a6:	0309                	addi	t1,t1,2
      a8:	0901                	addi	s2,s2,0
      aa:	000c                	0xc
      ac:	0501                	addi	a0,a0,0
      ae:	0902030f          	0x902030f
      b2:	000c                	0xc
      b4:	0501                	addi	a0,a0,0
      b6:	0901030b          	0x901030b
      ba:	0010                	0x10
      bc:	0501                	addi	a0,a0,0
      be:	0309                	addi	t1,t1,2
      c0:	0901                	addi	s2,s2,0
      c2:	000c                	0xc
      c4:	0501                	addi	a0,a0,0
      c6:	0308                	addi	a0,sp,384
      c8:	0902                	c.slli64	s2
      ca:	000c                	0xc
      cc:	0301                	addi	t1,t1,0
      ce:	0901                	addi	s2,s2,0
      d0:	0004                	0x4
      d2:	0301                	addi	t1,t1,0
      d4:	0902                	c.slli64	s2
      d6:	0010                	0x10
      d8:	0301                	addi	t1,t1,0
      da:	0901                	addi	s2,s2,0
      dc:	0004                	0x4
      de:	0501                	addi	a0,a0,0
      e0:	0301                	addi	t1,t1,0
      e2:	0901                	addi	s2,s2,0
      e4:	000c                	0xc
      e6:	0301                	addi	t1,t1,0
      e8:	00100903          	lb	s2,1(zero) # 1 <_start-0x21fff>
      ec:	0501                	addi	a0,a0,0
      ee:	0302                	c.slli64	t1
      f0:	0901                	addi	s2,s2,0
      f2:	0008                	0x8
      f4:	0301                	addi	t1,t1,0
      f6:	0901                	addi	s2,s2,0
      f8:	0004                	0x4
      fa:	0301                	addi	t1,t1,0
      fc:	0901                	addi	s2,s2,0
      fe:	0004                	0x4
     100:	0301                	addi	t1,t1,0
     102:	0902                	c.slli64	s2
     104:	000c                	0xc
     106:	0501                	addi	a0,a0,0
     108:	0008                	0x8
     10a:	0402                	c.slli64	s0
     10c:	0301                	addi	t1,t1,0
     10e:	0902                	c.slli64	s2
     110:	0004                	0x4
     112:	0901                	addi	s2,s2,0
     114:	0004                	0x4
     116:	0100                	addi	s0,sp,128
     118:	e401                	bnez	s0,120 <_start-0x21ee0>
     11a:	0001                	nop
     11c:	0300                	addi	s0,sp,384
     11e:	3600                	fld	fs0,40(a2)
     120:	0000                	unimp
     122:	0100                	addi	s0,sp,128
     124:	fb01                	bnez	a4,34 <_start-0x21fcc>
     126:	0d0e                	slli	s10,s10,0x3
     128:	0100                	addi	s0,sp,128
     12a:	0101                	addi	sp,sp,0
     12c:	0001                	nop
     12e:	0000                	unimp
     130:	0001                	nop
     132:	0100                	addi	s0,sp,128
     134:	00637273          	csrrci	tp,0x6,6
     138:	6e69                	lui	t3,0x1a
     13a:	64756c63          	bltu	a0,t2,792 <_start-0x2186e>
     13e:	0065                	c.nop	25
     140:	6d00                	ld	s0,24(a0)
     142:	6d65                	lui	s10,0x19
     144:	2e746573          	csrrsi	a0,0x2e7,8
     148:	00010063          	beqz	sp,148 <_start-0x21eb8>
     14c:	7400                	ld	s0,40(s0)
     14e:	7079                	c.lui	zero,0xffffe
     150:	7365                	lui	t1,0xffff9
     152:	682e                	ld	a6,200(sp)
     154:	0200                	addi	s0,sp,256
     156:	0000                	unimp
     158:	0500                	addi	s0,sp,640
     15a:	0001                	nop
     15c:	0209                	addi	tp,tp,2
     15e:	216c                	fld	fa1,192(a0)
     160:	0002                	c.slli64	zero
     162:	0000                	unimp
     164:	0000                	unimp
     166:	0518                	addi	a4,sp,640
     168:	0306                	slli	t1,t1,0x1
     16a:	0901                	addi	s2,s2,0
     16c:	0014                	0x14
     16e:	0501                	addi	a0,a0,0
     170:	0302                	c.slli64	t1
     172:	0902                	c.slli64	s2
     174:	0004                	0x4
     176:	0501                	addi	a0,a0,0
     178:	0301                	addi	t1,t1,0
     17a:	0909                	addi	s2,s2,2
     17c:	002c                	addi	a1,sp,8
     17e:	0301                	addi	t1,t1,0
     180:	000c0903          	lb	s2,0(s8) # 19000 <_start-0x9000>
     184:	0501                	addi	a0,a0,0
     186:	0308                	addi	a0,sp,384
     188:	0901                	addi	s2,s2,0
     18a:	0014                	0x14
     18c:	0301                	addi	t1,t1,0
     18e:	0902                	c.slli64	s2
     190:	0008                	0x8
     192:	0501                	addi	a0,a0,0
     194:	0306                	slli	t1,t1,0x1
     196:	0901                	addi	s2,s2,0
     198:	0004                	0x4
     19a:	0501                	addi	a0,a0,0
     19c:	0309                	addi	t1,t1,2
     19e:	0900                	addi	s0,sp,144
     1a0:	000c                	0xc
     1a2:	0501                	addi	a0,a0,0
     1a4:	030e                	slli	t1,t1,0x3
     1a6:	000c097f          	0xc097f
     1aa:	0501                	addi	a0,a0,0
     1ac:	0308                	addi	a0,sp,384
     1ae:	0900                	addi	s0,sp,144
     1b0:	000c                	0xc
     1b2:	0501                	addi	a0,a0,0
     1b4:	0309                	addi	t1,t1,2
     1b6:	0902                	c.slli64	s2
     1b8:	0004                	0x4
     1ba:	0501                	addi	a0,a0,0
     1bc:	0301                	addi	t1,t1,0
     1be:	0901                	addi	s2,s2,0
     1c0:	0004                	0x4
     1c2:	0301                	addi	t1,t1,0
     1c4:	000c0903          	lb	s2,0(s8)
     1c8:	0501                	addi	a0,a0,0
     1ca:	0308                	addi	a0,sp,384
     1cc:	0901                	addi	s2,s2,0
     1ce:	0018                	0x18
     1d0:	0501                	addi	a0,a0,0
     1d2:	0310                	addi	a2,sp,384
     1d4:	0901                	addi	s2,s2,0
     1d6:	0008                	0x8
     1d8:	0501                	addi	a0,a0,0
     1da:	0901030f          	0x901030f
     1de:	0008                	0x8
     1e0:	0501                	addi	a0,a0,0
     1e2:	0310                	addi	a2,sp,384
     1e4:	0902                	c.slli64	s2
     1e6:	0008                	0x8
     1e8:	0301                	addi	t1,t1,0
     1ea:	0901                	addi	s2,s2,0
     1ec:	0008                	0x8
     1ee:	0501                	addi	a0,a0,0
     1f0:	0309                	addi	t1,t1,2
     1f2:	0905                	addi	s2,s2,1
     1f4:	0004                	0x4
     1f6:	0501                	addi	a0,a0,0
     1f8:	0302                	c.slli64	t1
     1fa:	0900                	addi	s0,sp,144
     1fc:	0004                	0x4
     1fe:	0501                	addi	a0,a0,0
     200:	001f 0402 0303      	0x3030402001f
     206:	0901                	addi	s2,s2,0
     208:	0004                	0x4
     20a:	0501                	addi	a0,a0,0
     20c:	002d                	c.nop	11
     20e:	0402                	c.slli64	s0
     210:	09000303          	lb	t1,144(zero) # 90 <_start-0x21f70>
     214:	0008                	0x8
     216:	0501                	addi	a0,a0,0
     218:	04020027          	vsuxei8.v	v0,(tp),v0,v0.t
     21c:	09000303          	lb	t1,144(zero) # 90 <_start-0x21f70>
     220:	000c                	0xc
     222:	0501                	addi	a0,a0,0
     224:	0008                	0x8
     226:	0402                	c.slli64	s0
     228:	09000303          	lb	t1,144(zero) # 90 <_start-0x21f70>
     22c:	0004                	0x4
     22e:	0501                	addi	a0,a0,0
     230:	0016                	c.slli	zero,0x5
     232:	0402                	c.slli64	s0
     234:	097f0303          	lb	t1,151(t5)
     238:	000c                	0xc
     23a:	0501                	addi	a0,a0,0
     23c:	0002                	c.slli64	zero
     23e:	0402                	c.slli64	s0
     240:	0301                	addi	t1,t1,0
     242:	0900                	addi	s0,sp,144
     244:	000c                	0xc
     246:	0501                	addi	a0,a0,0
     248:	09040317          	auipc	t1,0x9040
     24c:	0010                	0x10
     24e:	0501                	addi	a0,a0,0
     250:	030e                	slli	t1,t1,0x3
     252:	0900                	addi	s0,sp,144
     254:	0008                	0x8
     256:	0501                	addi	a0,a0,0
     258:	0305                	addi	t1,t1,1
     25a:	0900                	addi	s0,sp,144
     25c:	0008                	0x8
     25e:	0501                	addi	a0,a0,0
     260:	0902031b          	addiw	t1,tp,144
     264:	0004                	0x4
     266:	0501                	addi	a0,a0,0
     268:	0308                	addi	a0,sp,384
     26a:	0900                	addi	s0,sp,144
     26c:	0008                	0x8
     26e:	0301                	addi	t1,t1,0
     270:	0901                	addi	s2,s2,0
     272:	000c                	0xc
     274:	0501                	addi	a0,a0,0
     276:	09010303          	lb	t1,144(sp)
     27a:	0010                	0x10
     27c:	0501                	addi	a0,a0,0
     27e:	0305                	addi	t1,t1,1
     280:	0901                	addi	s2,s2,0
     282:	0014                	0x14
     284:	0501                	addi	a0,a0,0
     286:	0308                	addi	a0,sp,384
     288:	0901                	addi	s2,s2,0
     28a:	0010                	0x10
     28c:	0501                	addi	a0,a0,0
     28e:	0305                	addi	t1,t1,1
     290:	0904                	addi	s1,sp,144
     292:	0010                	0x10
     294:	0501                	addi	a0,a0,0
     296:	030c                	addi	a1,sp,384
     298:	0901                	addi	s2,s2,0
     29a:	000c                	0xc
     29c:	0501                	addi	a0,a0,0
     29e:	0305                	addi	t1,t1,1
     2a0:	0900                	addi	s0,sp,144
     2a2:	000c                	0xc
     2a4:	0501                	addi	a0,a0,0
     2a6:	0308                	addi	a0,sp,384
     2a8:	0901                	addi	s2,s2,0
     2aa:	0004                	0x4
     2ac:	0501                	addi	a0,a0,0
     2ae:	09050303          	lb	t1,144(a0)
     2b2:	0010                	0x10
     2b4:	0501                	addi	a0,a0,0
     2b6:	0306                	slli	t1,t1,0x1
     2b8:	001c0903          	lb	s2,1(s8)
     2bc:	0501                	addi	a0,a0,0
     2be:	031a                	slli	t1,t1,0x6
     2c0:	0901                	addi	s2,s2,0
     2c2:	0008                	0x8
     2c4:	0501                	addi	a0,a0,0
     2c6:	0316                	slli	t1,t1,0x5
     2c8:	0900                	addi	s0,sp,144
     2ca:	0010                	0x10
     2cc:	0501                	addi	a0,a0,0
     2ce:	0304                	addi	s1,sp,384
     2d0:	0900                	addi	s0,sp,144
     2d2:	0008                	0x8
     2d4:	0501                	addi	a0,a0,0
     2d6:	0309                	addi	t1,t1,2
     2d8:	00140903          	lb	s2,1(s0)
     2dc:	0501                	addi	a0,a0,0
     2de:	0301                	addi	t1,t1,0
     2e0:	0901                	addi	s2,s2,0
     2e2:	0004                	0x4
     2e4:	0301                	addi	t1,t1,0
     2e6:	00100903          	lb	s2,1(zero) # 1 <_start-0x21fff>
     2ea:	0501                	addi	a0,a0,0
     2ec:	0309                	addi	t1,t1,2
     2ee:	0901                	addi	s2,s2,0
     2f0:	0018                	0x18
     2f2:	0501                	addi	a0,a0,0
     2f4:	0301                	addi	t1,t1,0
     2f6:	0901                	addi	s2,s2,0
     2f8:	0018                	0x18
     2fa:	0901                	addi	s2,s2,0
     2fc:	0010                	0x10
     2fe:	0100                	addi	s0,sp,128
     300:	6f01                	0x6f01
     302:	0004                	0x4
     304:	0300                	addi	s0,sp,384
     306:	4d00                	lw	s0,24(a0)
     308:	0000                	unimp
     30a:	0100                	addi	s0,sp,128
     30c:	fb01                	bnez	a4,21c <_start-0x21de4>
     30e:	0d0e                	slli	s10,s10,0x3
     310:	0100                	addi	s0,sp,128
     312:	0101                	addi	sp,sp,0
     314:	0001                	nop
     316:	0000                	unimp
     318:	0001                	nop
     31a:	0100                	addi	s0,sp,128
     31c:	6e69                	lui	t3,0x1a
     31e:	64756c63          	bltu	a0,t2,976 <_start-0x2168a>
     322:	0065                	c.nop	25
     324:	00637273          	csrrci	tp,0x6,6
     328:	6900                	ld	s0,16(a0)
     32a:	00682e6f          	jal	t3,82330 <bss_begin+0x5d330>
     32e:	0001                	nop
     330:	7300                	ld	s0,32(a4)
     332:	7379                	lui	t1,0xffffe
     334:	632d                	lui	t1,0xb
     336:	6f6c                	ld	a1,216(a4)
     338:	632e6b63          	bltu	t3,s2,96e <_start-0x21692>
     33c:	0200                	addi	s0,sp,256
     33e:	0000                	unimp
     340:	7974                	ld	a3,240(a0)
     342:	6570                	ld	a2,200(a0)
     344:	00682e73          	csrrs	t3,0x6,a6
     348:	0001                	nop
     34a:	7300                	ld	s0,32(a4)
     34c:	6474                	ld	a3,200(s0)
     34e:	6e69                	lui	t3,0x1a
     350:	2e74                	fld	fa3,216(a2)
     352:	0068                	addi	a0,sp,12
     354:	0001                	nop
     356:	0000                	unimp
     358:	0105                	addi	sp,sp,1
     35a:	0900                	addi	s0,sp,144
     35c:	d402                	sw	zero,40(sp)
     35e:	00000223          	sb	zero,4(zero) # 4 <_start-0x21ffc>
     362:	0000                	unimp
     364:	0300                	addi	s0,sp,384
     366:	0114                	addi	a3,sp,128
     368:	0c05                	addi	s8,s8,1
     36a:	08090103          	lb	sp,128(s2)
     36e:	0100                	addi	s0,sp,128
     370:	0a05                	addi	s4,s4,1
     372:	04090003          	lb	zero,64(s2)
     376:	0100                	addi	s0,sp,128
     378:	0105                	addi	sp,sp,1
     37a:	08090103          	lb	sp,128(s2)
     37e:	0100                	addi	s0,sp,128
     380:	0c091203          	lh	tp,192(s2)
     384:	0100                	addi	s0,sp,128
     386:	0405                	addi	s0,s0,1
     388:	10090103          	lb	sp,256(s2)
     38c:	0100                	addi	s0,sp,128
     38e:	1e05                	addi	t3,t3,-31
     390:	04090003          	lb	zero,64(s2)
     394:	0100                	addi	s0,sp,128
     396:	0105                	addi	sp,sp,1
     398:	08090103          	lb	sp,128(s2)
     39c:	0100                	addi	s0,sp,128
     39e:	0204                	addi	s1,sp,256
     3a0:	0c097d03          	0xc097d03
     3a4:	0100                	addi	s0,sp,128
     3a6:	0505                	addi	a0,a0,1
     3a8:	08090803          	lb	a6,128(s2)
     3ac:	0100                	addi	s0,sp,128
     3ae:	0705                	addi	a4,a4,1
     3b0:	0c090103          	lb	sp,192(s2)
     3b4:	0100                	addi	s0,sp,128
     3b6:	0a05                	addi	s4,s4,1
     3b8:	0200                	addi	s0,sp,256
     3ba:	0104                	addi	s1,sp,128
     3bc:	04090003          	lb	zero,64(s2)
     3c0:	0100                	addi	s0,sp,128
     3c2:	0705                	addi	a4,a4,1
     3c4:	0200                	addi	s0,sp,256
     3c6:	0104                	addi	s1,sp,128
     3c8:	0c090003          	lb	zero,192(s2)
     3cc:	0100                	addi	s0,sp,128
     3ce:	0105                	addi	sp,sp,1
     3d0:	04090403          	lb	s0,64(s2)
     3d4:	0100                	addi	s0,sp,128
     3d6:	10090303          	lb	t1,256(s2)
     3da:	0100                	addi	s0,sp,128
     3dc:	0205                	addi	tp,tp,1
     3de:	08090403          	lb	s0,128(s2)
     3e2:	0100                	addi	s0,sp,128
     3e4:	10090103          	lb	sp,256(s2)
     3e8:	0100                	addi	s0,sp,128
     3ea:	0805                	addi	a6,a6,1
     3ec:	08090303          	lb	t1,128(s2)
     3f0:	0100                	addi	s0,sp,128
     3f2:	0605                	addi	a2,a2,1
     3f4:	10090103          	lb	sp,256(s2)
     3f8:	0100                	addi	s0,sp,128
     3fa:	0205                	addi	tp,tp,1
     3fc:	14090103          	lb	sp,320(s2)
     400:	0100                	addi	s0,sp,128
     402:	0805                	addi	a6,a6,1
     404:	10090303          	lb	t1,256(s2)
     408:	0100                	addi	s0,sp,128
     40a:	0605                	addi	a2,a2,1
     40c:	10090103          	lb	sp,256(s2)
     410:	0100                	addi	s0,sp,128
     412:	0205                	addi	tp,tp,1
     414:	10090103          	lb	sp,256(s2)
     418:	0100                	addi	s0,sp,128
     41a:	10090103          	lb	sp,256(s2)
     41e:	0100                	addi	s0,sp,128
     420:	0805                	addi	a6,a6,1
     422:	08090303          	lb	t1,128(s2)
     426:	0100                	addi	s0,sp,128
     428:	0605                	addi	a2,a2,1
     42a:	10090103          	lb	sp,256(s2)
     42e:	0100                	addi	s0,sp,128
     430:	14090103          	lb	sp,320(s2)
     434:	0100                	addi	s0,sp,128
     436:	0205                	addi	tp,tp,1
     438:	14090103          	lb	sp,320(s2)
     43c:	0100                	addi	s0,sp,128
     43e:	0805                	addi	a6,a6,1
     440:	10090303          	lb	t1,256(s2)
     444:	0100                	addi	s0,sp,128
     446:	0605                	addi	a2,a2,1
     448:	10090103          	lb	sp,256(s2)
     44c:	0100                	addi	s0,sp,128
     44e:	0205                	addi	tp,tp,1
     450:	10090103          	lb	sp,256(s2)
     454:	0100                	addi	s0,sp,128
     456:	0805                	addi	a6,a6,1
     458:	10090303          	lb	t1,256(s2)
     45c:	0100                	addi	s0,sp,128
     45e:	0605                	addi	a2,a2,1
     460:	10090103          	lb	sp,256(s2)
     464:	0100                	addi	s0,sp,128
     466:	0205                	addi	tp,tp,1
     468:	10090103          	lb	sp,256(s2)
     46c:	0100                	addi	s0,sp,128
     46e:	0705                	addi	a4,a4,1
     470:	10090303          	lb	t1,256(s2)
     474:	0100                	addi	s0,sp,128
     476:	0a05                	addi	s4,s4,1
     478:	0200                	addi	s0,sp,256
     47a:	0104                	addi	s1,sp,128
     47c:	04090003          	lb	zero,64(s2)
     480:	0100                	addi	s0,sp,128
     482:	2905                	addiw	s2,s2,1
     484:	0200                	addi	s0,sp,256
     486:	0104                	addi	s1,sp,128
     488:	10090003          	lb	zero,256(s2)
     48c:	0100                	addi	s0,sp,128
     48e:	0705                	addi	a4,a4,1
     490:	0200                	addi	s0,sp,256
     492:	0104                	addi	s1,sp,128
     494:	10090003          	lb	zero,256(s2)
     498:	0100                	addi	s0,sp,128
     49a:	0205                	addi	tp,tp,1
     49c:	04090103          	lb	sp,64(s2)
     4a0:	0100                	addi	s0,sp,128
     4a2:	0805                	addi	a6,a6,1
     4a4:	08090303          	lb	t1,128(s2)
     4a8:	0100                	addi	s0,sp,128
     4aa:	0605                	addi	a2,a2,1
     4ac:	10090103          	lb	sp,256(s2)
     4b0:	0100                	addi	s0,sp,128
     4b2:	0205                	addi	tp,tp,1
     4b4:	10090103          	lb	sp,256(s2)
     4b8:	0100                	addi	s0,sp,128
     4ba:	0805                	addi	a6,a6,1
     4bc:	10090303          	lb	t1,256(s2)
     4c0:	0100                	addi	s0,sp,128
     4c2:	0605                	addi	a2,a2,1
     4c4:	10090103          	lb	sp,256(s2)
     4c8:	0100                	addi	s0,sp,128
     4ca:	0205                	addi	tp,tp,1
     4cc:	14090103          	lb	sp,320(s2)
     4d0:	0100                	addi	s0,sp,128
     4d2:	10090103          	lb	sp,256(s2)
     4d6:	0100                	addi	s0,sp,128
     4d8:	0805                	addi	a6,a6,1
     4da:	08090303          	lb	t1,128(s2)
     4de:	0100                	addi	s0,sp,128
     4e0:	0605                	addi	a2,a2,1
     4e2:	14090103          	lb	sp,320(s2)
     4e6:	0100                	addi	s0,sp,128
     4e8:	14090103          	lb	sp,320(s2)
     4ec:	0100                	addi	s0,sp,128
     4ee:	0205                	addi	tp,tp,1
     4f0:	14090103          	lb	sp,320(s2)
     4f4:	0100                	addi	s0,sp,128
     4f6:	14090103          	lb	sp,320(s2)
     4fa:	0100                	addi	s0,sp,128
     4fc:	0105                	addi	sp,sp,1
     4fe:	08090103          	lb	sp,128(s2)
     502:	0100                	addi	s0,sp,128
     504:	10090303          	lb	t1,256(s2)
     508:	0100                	addi	s0,sp,128
     50a:	0505                	addi	a0,a0,1
     50c:	08090403          	lb	s0,128(s2)
     510:	0100                	addi	s0,sp,128
     512:	0405                	addi	s0,s0,1
     514:	18090003          	lb	zero,384(s2)
     518:	0100                	addi	s0,sp,128
     51a:	0805                	addi	a6,a6,1
     51c:	04090403          	lb	s0,64(s2)
     520:	0100                	addi	s0,sp,128
     522:	0605                	addi	a2,a2,1
     524:	14090103          	lb	sp,320(s2)
     528:	0100                	addi	s0,sp,128
     52a:	0205                	addi	tp,tp,1
     52c:	14090103          	lb	sp,320(s2)
     530:	0100                	addi	s0,sp,128
     532:	14090303          	lb	t1,320(s2)
     536:	0100                	addi	s0,sp,128
     538:	0805                	addi	a6,a6,1
     53a:	14090303          	lb	t1,320(s2)
     53e:	0100                	addi	s0,sp,128
     540:	0605                	addi	a2,a2,1
     542:	14090103          	lb	sp,320(s2)
     546:	0100                	addi	s0,sp,128
     548:	0205                	addi	tp,tp,1
     54a:	10090103          	lb	sp,256(s2)
     54e:	0100                	addi	s0,sp,128
     550:	0805                	addi	a6,a6,1
     552:	14090303          	lb	t1,320(s2)
     556:	0100                	addi	s0,sp,128
     558:	0605                	addi	a2,a2,1
     55a:	14090103          	lb	sp,320(s2)
     55e:	0100                	addi	s0,sp,128
     560:	0205                	addi	tp,tp,1
     562:	10090103          	lb	sp,256(s2)
     566:	0100                	addi	s0,sp,128
     568:	0705                	addi	a4,a4,1
     56a:	14090303          	lb	t1,320(s2)
     56e:	0100                	addi	s0,sp,128
     570:	0a05                	addi	s4,s4,1
     572:	0200                	addi	s0,sp,256
     574:	0104                	addi	s1,sp,128
     576:	04090003          	lb	zero,64(s2)
     57a:	0100                	addi	s0,sp,128
     57c:	2905                	addiw	s2,s2,1
     57e:	0200                	addi	s0,sp,256
     580:	0104                	addi	s1,sp,128
     582:	14090003          	lb	zero,320(s2)
     586:	0100                	addi	s0,sp,128
     588:	0705                	addi	a4,a4,1
     58a:	0200                	addi	s0,sp,256
     58c:	0104                	addi	s1,sp,128
     58e:	10090003          	lb	zero,256(s2)
     592:	0100                	addi	s0,sp,128
     594:	0205                	addi	tp,tp,1
     596:	04090103          	lb	sp,64(s2)
     59a:	0100                	addi	s0,sp,128
     59c:	0805                	addi	a6,a6,1
     59e:	08090303          	lb	t1,128(s2)
     5a2:	0100                	addi	s0,sp,128
     5a4:	0605                	addi	a2,a2,1
     5a6:	14090103          	lb	sp,320(s2)
     5aa:	0100                	addi	s0,sp,128
     5ac:	0205                	addi	tp,tp,1
     5ae:	14090103          	lb	sp,320(s2)
     5b2:	0100                	addi	s0,sp,128
     5b4:	0305                	addi	t1,t1,1
     5b6:	18096503          	lwu	a0,384(s2)
     5ba:	0100                	addi	s0,sp,128
     5bc:	0105                	addi	sp,sp,1
     5be:	04091c03          	lh	s8,64(s2)
     5c2:	0100                	addi	s0,sp,128
     5c4:	0c090303          	lb	t1,192(s2)
     5c8:	0100                	addi	s0,sp,128
     5ca:	0205                	addi	tp,tp,1
     5cc:	08090103          	lb	sp,128(s2)
     5d0:	0100                	addi	s0,sp,128
     5d2:	2205                	addiw	tp,tp,1
     5d4:	10090103          	lb	sp,256(s2)
     5d8:	0100                	addi	s0,sp,128
     5da:	0205                	addi	tp,tp,1
     5dc:	14090003          	lb	zero,320(s2)
     5e0:	0100                	addi	s0,sp,128
     5e2:	20090103          	lb	sp,512(s2)
     5e6:	0100                	addi	s0,sp,128
     5e8:	0105                	addi	sp,sp,1
     5ea:	08090103          	lb	sp,128(s2)
     5ee:	0100                	addi	s0,sp,128
     5f0:	10090303          	lb	t1,256(s2)
     5f4:	0100                	addi	s0,sp,128
     5f6:	0205                	addi	tp,tp,1
     5f8:	08090103          	lb	sp,128(s2)
     5fc:	0100                	addi	s0,sp,128
     5fe:	3105                	addiw	sp,sp,-31
     600:	10090103          	lb	sp,256(s2)
     604:	0100                	addi	s0,sp,128
     606:	0205                	addi	tp,tp,1
     608:	14090003          	lb	zero,320(s2)
     60c:	0100                	addi	s0,sp,128
     60e:	20090103          	lb	sp,512(s2)
     612:	0100                	addi	s0,sp,128
     614:	0105                	addi	sp,sp,1
     616:	08090103          	lb	sp,128(s2)
     61a:	0100                	addi	s0,sp,128
     61c:	10090303          	lb	t1,256(s2)
     620:	0100                	addi	s0,sp,128
     622:	2205                	addiw	tp,tp,1
     624:	08090203          	lb	tp,128(s2)
     628:	0100                	addi	s0,sp,128
     62a:	0205                	addi	tp,tp,1
     62c:	14090003          	lb	zero,320(s2)
     630:	0100                	addi	s0,sp,128
     632:	20090103          	lb	sp,512(s2)
     636:	0100                	addi	s0,sp,128
     638:	2205                	addiw	tp,tp,1
     63a:	08090203          	lb	tp,128(s2)
     63e:	0100                	addi	s0,sp,128
     640:	0205                	addi	tp,tp,1
     642:	14090003          	lb	zero,320(s2)
     646:	0100                	addi	s0,sp,128
     648:	0105                	addi	sp,sp,1
     64a:	18090103          	lb	sp,384(s2)
     64e:	0100                	addi	s0,sp,128
     650:	10090303          	lb	t1,256(s2)
     654:	0100                	addi	s0,sp,128
     656:	0805                	addi	a6,a6,1
     658:	08090403          	lb	s0,128(s2)
     65c:	0100                	addi	s0,sp,128
     65e:	0605                	addi	a2,a2,1
     660:	14090103          	lb	sp,320(s2)
     664:	0100                	addi	s0,sp,128
     666:	0205                	addi	tp,tp,1
     668:	10090103          	lb	sp,256(s2)
     66c:	0100                	addi	s0,sp,128
     66e:	14090103          	lb	sp,320(s2)
     672:	0100                	addi	s0,sp,128
     674:	0105                	addi	sp,sp,1
     676:	08090103          	lb	sp,128(s2)
     67a:	0100                	addi	s0,sp,128
     67c:	10090303          	lb	t1,256(s2)
     680:	0100                	addi	s0,sp,128
     682:	0705                	addi	a4,a4,1
     684:	0c090303          	lb	t1,192(s2)
     688:	0100                	addi	s0,sp,128
     68a:	0505                	addi	a0,a0,1
     68c:	10090003          	lb	zero,256(s2)
     690:	0100                	addi	s0,sp,128
     692:	0405                	addi	s0,s0,1
     694:	04090003          	lb	zero,64(s2)
     698:	0100                	addi	s0,sp,128
     69a:	0905                	addi	s2,s2,1
     69c:	04090203          	lb	tp,64(s2)
     6a0:	0100                	addi	s0,sp,128
     6a2:	0305                	addi	t1,t1,1
     6a4:	10090103          	lb	sp,256(s2)
     6a8:	0100                	addi	s0,sp,128
     6aa:	0905                	addi	s2,s2,1
     6ac:	1c090303          	lb	t1,448(s2)
     6b0:	0100                	addi	s0,sp,128
     6b2:	0705                	addi	a4,a4,1
     6b4:	10090103          	lb	sp,256(s2)
     6b8:	0100                	addi	s0,sp,128
     6ba:	0305                	addi	t1,t1,1
     6bc:	10090103          	lb	sp,256(s2)
     6c0:	0100                	addi	s0,sp,128
     6c2:	0805                	addi	a6,a6,1
     6c4:	10090303          	lb	t1,256(s2)
     6c8:	0100                	addi	s0,sp,128
     6ca:	0b05                	addi	s6,s6,1
     6cc:	0200                	addi	s0,sp,256
     6ce:	0104                	addi	s1,sp,128
     6d0:	04090003          	lb	zero,64(s2)
     6d4:	0100                	addi	s0,sp,128
     6d6:	1805                	addi	a6,a6,-31
     6d8:	0200                	addi	s0,sp,256
     6da:	0104                	addi	s1,sp,128
     6dc:	10090003          	lb	zero,256(s2)
     6e0:	0100                	addi	s0,sp,128
     6e2:	0805                	addi	a6,a6,1
     6e4:	0200                	addi	s0,sp,256
     6e6:	0104                	addi	s1,sp,128
     6e8:	10090003          	lb	zero,256(s2)
     6ec:	0100                	addi	s0,sp,128
     6ee:	0305                	addi	t1,t1,1
     6f0:	04090103          	lb	sp,64(s2)
     6f4:	0100                	addi	s0,sp,128
     6f6:	0905                	addi	s2,s2,1
     6f8:	08090303          	lb	t1,128(s2)
     6fc:	0100                	addi	s0,sp,128
     6fe:	0705                	addi	a4,a4,1
     700:	10090103          	lb	sp,256(s2)
     704:	0100                	addi	s0,sp,128
     706:	0305                	addi	t1,t1,1
     708:	14090103          	lb	sp,320(s2)
     70c:	0100                	addi	s0,sp,128
     70e:	0105                	addi	sp,sp,1
     710:	10090203          	lb	tp,256(s2)
     714:	0100                	addi	s0,sp,128
     716:	10090303          	lb	t1,256(s2)
     71a:	0100                	addi	s0,sp,128
     71c:	0205                	addi	tp,tp,1
     71e:	08090103          	lb	sp,128(s2)
     722:	0100                	addi	s0,sp,128
     724:	04090103          	lb	sp,64(s2)
     728:	0100                	addi	s0,sp,128
     72a:	04090103          	lb	sp,64(s2)
     72e:	0100                	addi	s0,sp,128
     730:	04090103          	lb	sp,64(s2)
     734:	0100                	addi	s0,sp,128
     736:	04090103          	lb	sp,64(s2)
     73a:	0100                	addi	s0,sp,128
     73c:	04090103          	lb	sp,64(s2)
     740:	0100                	addi	s0,sp,128
     742:	04090103          	lb	sp,64(s2)
     746:	0100                	addi	s0,sp,128
     748:	0c090103          	lb	sp,192(s2)
     74c:	0100                	addi	s0,sp,128
     74e:	0c090103          	lb	sp,192(s2)
     752:	0100                	addi	s0,sp,128
     754:	0c090103          	lb	sp,192(s2)
     758:	0100                	addi	s0,sp,128
     75a:	0c090103          	lb	sp,192(s2)
     75e:	0100                	addi	s0,sp,128
     760:	0c090103          	lb	sp,192(s2)
     764:	0100                	addi	s0,sp,128
     766:	0105                	addi	sp,sp,1
     768:	0c090103          	lb	sp,192(s2)
     76c:	0100                	addi	s0,sp,128
     76e:	1009                	c.nop	-30
     770:	0000                	unimp
     772:	0101                	addi	sp,sp,0
     774:	0706                	slli	a4,a4,0x1
     776:	0000                	unimp
     778:	00580003          	lb	zero,5(a6)
     77c:	0000                	unimp
     77e:	0101                	addi	sp,sp,0
     780:	000d0efb          	0xd0efb
     784:	0101                	addi	sp,sp,0
     786:	0101                	addi	sp,sp,0
     788:	0000                	unimp
     78a:	0100                	addi	s0,sp,128
     78c:	0000                	unimp
     78e:	6901                	0x6901
     790:	636e                	ld	t1,216(sp)
     792:	756c                	ld	a1,232(a0)
     794:	6564                	ld	s1,200(a0)
     796:	7300                	ld	s0,32(a4)
     798:	6372                	ld	t1,280(sp)
     79a:	0000                	unimp
     79c:	6f69                	lui	t5,0x1a
     79e:	682e                	ld	a6,200(sp)
     7a0:	0100                	addi	s0,sp,128
     7a2:	0000                	unimp
     7a4:	2d737973          	csrrci	s2,0x2d7,6
     7a8:	6175                	addi	sp,sp,368
     7aa:	7472                	ld	s0,312(sp)
     7ac:	632e                	ld	t1,200(sp)
     7ae:	0200                	addi	s0,sp,256
     7b0:	0000                	unimp
     7b2:	7974                	ld	a3,240(a0)
     7b4:	6570                	ld	a2,200(a0)
     7b6:	00682e73          	csrrs	t3,0x6,a6
     7ba:	0001                	nop
     7bc:	7300                	ld	s0,32(a4)
     7be:	6474                	ld	a3,200(s0)
     7c0:	7261                	lui	tp,0xffff8
     7c2:	00682e67          	0x682e67
     7c6:	0001                	nop
     7c8:	7300                	ld	s0,32(a4)
     7ca:	6474                	ld	a3,200(s0)
     7cc:	6e69                	lui	t3,0x1a
     7ce:	2e74                	fld	fa3,216(a2)
     7d0:	0068                	addi	a0,sp,12
     7d2:	0001                	nop
     7d4:	0000                	unimp
     7d6:	0105                	addi	sp,sp,1
     7d8:	0900                	addi	s0,sp,144
     7da:	0002                	c.slli64	zero
     7dc:	0000022b          	0x22b
     7e0:	0000                	unimp
     7e2:	0300                	addi	s0,sp,384
     7e4:	010a                	slli	sp,sp,0x2
     7e6:	0c05                	addi	s8,s8,1
     7e8:	08090103          	lb	sp,128(s2)
     7ec:	0100                	addi	s0,sp,128
     7ee:	0a05                	addi	s4,s4,1
     7f0:	04090003          	lb	zero,64(s2)
     7f4:	0100                	addi	s0,sp,128
     7f6:	0105                	addi	sp,sp,1
     7f8:	08090103          	lb	sp,128(s2)
     7fc:	0100                	addi	s0,sp,128
     7fe:	0c090803          	lb	a6,192(s2)
     802:	0100                	addi	s0,sp,128
     804:	0c05                	addi	s8,s8,1
     806:	08090103          	lb	sp,128(s2)
     80a:	0100                	addi	s0,sp,128
     80c:	0a05                	addi	s4,s4,1
     80e:	04090003          	lb	zero,64(s2)
     812:	0100                	addi	s0,sp,128
     814:	0105                	addi	sp,sp,1
     816:	08090103          	lb	sp,128(s2)
     81a:	0100                	addi	s0,sp,128
     81c:	0c091203          	lh	tp,192(s2)
     820:	0100                	addi	s0,sp,128
     822:	0405                	addi	s0,s0,1
     824:	10090103          	lb	sp,256(s2)
     828:	0100                	addi	s0,sp,128
     82a:	1e05                	addi	t3,t3,-31
     82c:	04090003          	lb	zero,64(s2)
     830:	0100                	addi	s0,sp,128
     832:	0105                	addi	sp,sp,1
     834:	08090103          	lb	sp,128(s2)
     838:	0100                	addi	s0,sp,128
     83a:	0204                	addi	s1,sp,256
     83c:	0c097503          	0xc097503
     840:	0100                	addi	s0,sp,128
     842:	0e05                	addi	t3,t3,1
     844:	08091103          	lh	sp,128(s2)
     848:	0100                	addi	s0,sp,128
     84a:	0f05                	addi	t5,t5,1
     84c:	0c090103          	lb	sp,192(s2)
     850:	0100                	addi	s0,sp,128
     852:	0d05                	addi	s10,s10,1
     854:	10090103          	lb	sp,256(s2)
     858:	0100                	addi	s0,sp,128
     85a:	14090103          	lb	sp,320(s2)
     85e:	0100                	addi	s0,sp,128
     860:	0905                	addi	s2,s2,1
     862:	0c090103          	lb	sp,192(s2)
     866:	0100                	addi	s0,sp,128
     868:	0f05                	addi	t5,t5,1
     86a:	10090203          	lb	tp,256(s2)
     86e:	0100                	addi	s0,sp,128
     870:	0d05                	addi	s10,s10,1
     872:	10090103          	lb	sp,256(s2)
     876:	0100                	addi	s0,sp,128
     878:	14090103          	lb	sp,320(s2)
     87c:	0100                	addi	s0,sp,128
     87e:	0905                	addi	s2,s2,1
     880:	10090103          	lb	sp,256(s2)
     884:	0100                	addi	s0,sp,128
     886:	0705                	addi	a4,a4,1
     888:	10090303          	lb	t1,256(s2)
     88c:	0100                	addi	s0,sp,128
     88e:	0805                	addi	a6,a6,1
     890:	0c090103          	lb	sp,192(s2)
     894:	0100                	addi	s0,sp,128
     896:	0605                	addi	a2,a2,1
     898:	10090103          	lb	sp,256(s2)
     89c:	0100                	addi	s0,sp,128
     89e:	0205                	addi	tp,tp,1
     8a0:	0c090103          	lb	sp,192(s2)
     8a4:	0100                	addi	s0,sp,128
     8a6:	0705                	addi	a4,a4,1
     8a8:	10090303          	lb	t1,256(s2)
     8ac:	0100                	addi	s0,sp,128
     8ae:	0805                	addi	a6,a6,1
     8b0:	0c090103          	lb	sp,192(s2)
     8b4:	0100                	addi	s0,sp,128
     8b6:	0605                	addi	a2,a2,1
     8b8:	10090103          	lb	sp,256(s2)
     8bc:	0100                	addi	s0,sp,128
     8be:	0205                	addi	tp,tp,1
     8c0:	10090103          	lb	sp,256(s2)
     8c4:	0100                	addi	s0,sp,128
     8c6:	0705                	addi	a4,a4,1
     8c8:	10090303          	lb	t1,256(s2)
     8cc:	0100                	addi	s0,sp,128
     8ce:	0205                	addi	tp,tp,1
     8d0:	08090103          	lb	sp,128(s2)
     8d4:	0100                	addi	s0,sp,128
     8d6:	14090103          	lb	sp,320(s2)
     8da:	0100                	addi	s0,sp,128
     8dc:	14090103          	lb	sp,320(s2)
     8e0:	0100                	addi	s0,sp,128
     8e2:	0805                	addi	a6,a6,1
     8e4:	14090103          	lb	sp,320(s2)
     8e8:	0100                	addi	s0,sp,128
     8ea:	0605                	addi	a2,a2,1
     8ec:	18090103          	lb	sp,384(s2)
     8f0:	0100                	addi	s0,sp,128
     8f2:	0205                	addi	tp,tp,1
     8f4:	0c090103          	lb	sp,192(s2)
     8f8:	0100                	addi	s0,sp,128
     8fa:	18090103          	lb	sp,384(s2)
     8fe:	0100                	addi	s0,sp,128
     900:	0c090103          	lb	sp,192(s2)
     904:	0100                	addi	s0,sp,128
     906:	0805                	addi	a6,a6,1
     908:	14090103          	lb	sp,320(s2)
     90c:	0100                	addi	s0,sp,128
     90e:	0605                	addi	a2,a2,1
     910:	18090103          	lb	sp,384(s2)
     914:	0100                	addi	s0,sp,128
     916:	0205                	addi	tp,tp,1
     918:	0c090103          	lb	sp,192(s2)
     91c:	0100                	addi	s0,sp,128
     91e:	0805                	addi	a6,a6,1
     920:	18090103          	lb	sp,384(s2)
     924:	0100                	addi	s0,sp,128
     926:	0605                	addi	a2,a2,1
     928:	18090103          	lb	sp,384(s2)
     92c:	0100                	addi	s0,sp,128
     92e:	0c090103          	lb	sp,192(s2)
     932:	0100                	addi	s0,sp,128
     934:	0205                	addi	tp,tp,1
     936:	0c090103          	lb	sp,192(s2)
     93a:	0100                	addi	s0,sp,128
     93c:	0105                	addi	sp,sp,1
     93e:	18090103          	lb	sp,384(s2)
     942:	0100                	addi	s0,sp,128
     944:	10090303          	lb	t1,256(s2)
     948:	0100                	addi	s0,sp,128
     94a:	1105                	addi	sp,sp,-31
     94c:	10090103          	lb	sp,256(s2)
     950:	0100                	addi	s0,sp,128
     952:	0705                	addi	a4,a4,1
     954:	08090203          	lb	tp,128(s2)
     958:	0100                	addi	s0,sp,128
     95a:	0905                	addi	s2,s2,1
     95c:	0200                	addi	s0,sp,256
     95e:	0104                	addi	s1,sp,128
     960:	04090003          	lb	zero,64(s2)
     964:	0100                	addi	s0,sp,128
     966:	1d05                	addi	s10,s10,-31
     968:	0200                	addi	s0,sp,256
     96a:	0104                	addi	s1,sp,128
     96c:	18090003          	lb	zero,384(s2)
     970:	0100                	addi	s0,sp,128
     972:	0705                	addi	a4,a4,1
     974:	0200                	addi	s0,sp,256
     976:	0104                	addi	s1,sp,128
     978:	08090003          	lb	zero,128(s2)
     97c:	0100                	addi	s0,sp,128
     97e:	0205                	addi	tp,tp,1
     980:	04090103          	lb	sp,64(s2)
     984:	0100                	addi	s0,sp,128
     986:	0105                	addi	sp,sp,1
     988:	14090103          	lb	sp,320(s2)
     98c:	0100                	addi	s0,sp,128
     98e:	10090303          	lb	t1,256(s2)
     992:	0100                	addi	s0,sp,128
     994:	1105                	addi	sp,sp,-31
     996:	08090103          	lb	sp,128(s2)
     99a:	0100                	addi	s0,sp,128
     99c:	0705                	addi	a4,a4,1
     99e:	08090203          	lb	tp,128(s2)
     9a2:	0100                	addi	s0,sp,128
     9a4:	0905                	addi	s2,s2,1
     9a6:	0200                	addi	s0,sp,256
     9a8:	0104                	addi	s1,sp,128
     9aa:	04090003          	lb	zero,64(s2)
     9ae:	0100                	addi	s0,sp,128
     9b0:	1d05                	addi	s10,s10,-31
     9b2:	0200                	addi	s0,sp,256
     9b4:	0104                	addi	s1,sp,128
     9b6:	18090003          	lb	zero,384(s2)
     9ba:	0100                	addi	s0,sp,128
     9bc:	0705                	addi	a4,a4,1
     9be:	0200                	addi	s0,sp,256
     9c0:	0104                	addi	s1,sp,128
     9c2:	08090003          	lb	zero,128(s2)
     9c6:	0100                	addi	s0,sp,128
     9c8:	0905                	addi	s2,s2,1
     9ca:	04090103          	lb	sp,64(s2)
     9ce:	0100                	addi	s0,sp,128
     9d0:	0105                	addi	sp,sp,1
     9d2:	0c090103          	lb	sp,192(s2)
     9d6:	0100                	addi	s0,sp,128
     9d8:	10090303          	lb	t1,256(s2)
     9dc:	0100                	addi	s0,sp,128
     9de:	0c05                	addi	s8,s8,1
     9e0:	0c090303          	lb	t1,192(s2)
     9e4:	0100                	addi	s0,sp,128
     9e6:	0505                	addi	a0,a0,1
     9e8:	04090003          	lb	zero,64(s2)
     9ec:	0100                	addi	s0,sp,128
     9ee:	1d05                	addi	s10,s10,-31
     9f0:	0200                	addi	s0,sp,256
     9f2:	0304                	addi	s1,sp,384
     9f4:	04090103          	lb	sp,64(s2)
     9f8:	0100                	addi	s0,sp,128
     9fa:	0905                	addi	s2,s2,1
     9fc:	0200                	addi	s0,sp,256
     9fe:	0304                	addi	s1,sp,384
     a00:	0c090003          	lb	zero,192(s2)
     a04:	0100                	addi	s0,sp,128
     a06:	2205                	addiw	tp,tp,1
     a08:	0200                	addi	s0,sp,256
     a0a:	0304                	addi	s1,sp,384
     a0c:	0c097f03          	0xc097f03
     a10:	0100                	addi	s0,sp,128
     a12:	1405                	addi	s0,s0,-31
     a14:	0200                	addi	s0,sp,256
     a16:	0104                	addi	s1,sp,128
     a18:	0c090003          	lb	zero,192(s2)
     a1c:	0100                	addi	s0,sp,128
     a1e:	0505                	addi	a0,a0,1
     a20:	0200                	addi	s0,sp,256
     a22:	0104                	addi	s1,sp,128
     a24:	10090003          	lb	zero,256(s2)
     a28:	0100                	addi	s0,sp,128
     a2a:	0105                	addi	sp,sp,1
     a2c:	04090203          	lb	tp,64(s2)
     a30:	0100                	addi	s0,sp,128
     a32:	14090303          	lb	t1,320(s2)
     a36:	0100                	addi	s0,sp,128
     a38:	0605                	addi	a2,a2,1
     a3a:	0c090403          	lb	s0,192(s2)
     a3e:	0100                	addi	s0,sp,128
     a40:	0805                	addi	a6,a6,1
     a42:	04090103          	lb	sp,64(s2)
     a46:	0100                	addi	s0,sp,128
     a48:	0205                	addi	tp,tp,1
     a4a:	08090003          	lb	zero,128(s2)
     a4e:	0100                	addi	s0,sp,128
     a50:	0a05                	addi	s4,s4,1
     a52:	04090203          	lb	tp,64(s2)
     a56:	0100                	addi	s0,sp,128
     a58:	1405                	addi	s0,s0,-31
     a5a:	08090003          	lb	zero,128(s2)
     a5e:	0100                	addi	s0,sp,128
     a60:	1705                	addi	a4,a4,-31
     a62:	0200                	addi	s0,sp,256
     a64:	0104                	addi	s1,sp,128
     a66:	0c090003          	lb	zero,192(s2)
     a6a:	0100                	addi	s0,sp,128
     a6c:	1405                	addi	s0,s0,-31
     a6e:	0200                	addi	s0,sp,256
     a70:	0104                	addi	s1,sp,128
     a72:	08090003          	lb	zero,128(s2)
     a76:	0100                	addi	s0,sp,128
     a78:	0200                	addi	s0,sp,256
     a7a:	0304                	addi	s1,sp,384
     a7c:	0306                	slli	t1,t1,0x1
     a7e:	0900                	addi	s0,sp,144
     a80:	000c                	0xc
     a82:	0001                	nop
     a84:	0402                	c.slli64	s0
     a86:	0304                	addi	s1,sp,384
     a88:	0900                	addi	s0,sp,144
     a8a:	0008                	0x8
     a8c:	0501                	addi	a0,a0,0
     a8e:	04020007          	vluxei8.v	v0,(tp),v0,v0.t
     a92:	0606                	slli	a2,a2,0x1
     a94:	04090003          	lb	zero,64(s2)
     a98:	0100                	addi	s0,sp,128
     a9a:	0505                	addi	a0,a0,1
     a9c:	0200                	addi	s0,sp,256
     a9e:	0604                	addi	s1,sp,768
     aa0:	04090103          	lb	sp,64(s2)
     aa4:	0100                	addi	s0,sp,128
     aa6:	0705                	addi	a4,a4,1
     aa8:	0200                	addi	s0,sp,256
     aaa:	0204                	addi	s1,sp,256
     aac:	0c090203          	lb	tp,192(s2)
     ab0:	0100                	addi	s0,sp,128
     ab2:	0505                	addi	a0,a0,1
     ab4:	0200                	addi	s0,sp,256
     ab6:	0204                	addi	s1,sp,256
     ab8:	0c090003          	lb	zero,192(s2)
     abc:	0100                	addi	s0,sp,128
     abe:	0705                	addi	a4,a4,1
     ac0:	0200                	addi	s0,sp,256
     ac2:	0204                	addi	s1,sp,256
     ac4:	08090103          	lb	sp,128(s2)
     ac8:	0100                	addi	s0,sp,128
     aca:	0200                	addi	s0,sp,256
     acc:	0204                	addi	s1,sp,256
     ace:	18090103          	lb	sp,384(s2)
     ad2:	0100                	addi	s0,sp,128
     ad4:	1e05                	addi	t3,t3,-31
     ad6:	0200                	addi	s0,sp,256
     ad8:	0204                	addi	s1,sp,256
     ada:	10097903          	0x10097903
     ade:	0100                	addi	s0,sp,128
     ae0:	0f05                	addi	t5,t5,1
     ae2:	0200                	addi	s0,sp,256
     ae4:	0104                	addi	s1,sp,128
     ae6:	0c090003          	lb	zero,192(s2)
     aea:	0100                	addi	s0,sp,128
     aec:	0205                	addi	tp,tp,1
     aee:	0200                	addi	s0,sp,256
     af0:	0104                	addi	s1,sp,128
     af2:	08090003          	lb	zero,128(s2)
     af6:	0100                	addi	s0,sp,128
     af8:	0405                	addi	s0,s0,1
     afa:	08090403          	lb	s0,128(s2)
     afe:	0100                	addi	s0,sp,128
     b00:	0705                	addi	a4,a4,1
     b02:	04090503          	lb	a0,64(s2)
     b06:	0100                	addi	s0,sp,128
     b08:	1205                	addi	tp,tp,-31
     b0a:	0c090103          	lb	sp,192(s2)
     b0e:	0100                	addi	s0,sp,128
     b10:	0a05                	addi	s4,s4,1
     b12:	0c090003          	lb	zero,192(s2)
     b16:	0100                	addi	s0,sp,128
     b18:	0105                	addi	sp,sp,1
     b1a:	04090103          	lb	sp,64(s2)
     b1e:	0100                	addi	s0,sp,128
     b20:	0c090303          	lb	t1,192(s2)
     b24:	0100                	addi	s0,sp,128
     b26:	0805                	addi	a6,a6,1
     b28:	2c090503          	lb	a0,704(s2)
     b2c:	0100                	addi	s0,sp,128
     b2e:	0205                	addi	tp,tp,1
     b30:	04090003          	lb	zero,64(s2)
     b34:	0100                	addi	s0,sp,128
     b36:	0a05                	addi	s4,s4,1
     b38:	0200                	addi	s0,sp,256
     b3a:	0304                	addi	s1,sp,384
     b3c:	04090103          	lb	sp,64(s2)
     b40:	0100                	addi	s0,sp,128
     b42:	1f05                	addi	t5,t5,-31
     b44:	0200                	addi	s0,sp,256
     b46:	0304                	addi	s1,sp,384
     b48:	18097f03          	0x18097f03
     b4c:	0100                	addi	s0,sp,128
     b4e:	0f05                	addi	t5,t5,1
     b50:	0200                	addi	s0,sp,256
     b52:	0104                	addi	s1,sp,128
     b54:	0c090003          	lb	zero,192(s2)
     b58:	0100                	addi	s0,sp,128
     b5a:	0205                	addi	tp,tp,1
     b5c:	0200                	addi	s0,sp,256
     b5e:	0104                	addi	s1,sp,128
     b60:	04090003          	lb	zero,64(s2)
     b64:	0100                	addi	s0,sp,128
     b66:	0705                	addi	a4,a4,1
     b68:	0c090203          	lb	tp,192(s2)
     b6c:	0100                	addi	s0,sp,128
     b6e:	0405                	addi	s0,s0,1
     b70:	08090103          	lb	sp,128(s2)
     b74:	0100                	addi	s0,sp,128
     b76:	0805                	addi	a6,a6,1
     b78:	0c090103          	lb	sp,192(s2)
     b7c:	0100                	addi	s0,sp,128
     b7e:	0605                	addi	a2,a2,1
     b80:	08090203          	lb	tp,128(s2)
     b84:	0100                	addi	s0,sp,128
     b86:	0905                	addi	s2,s2,1
     b88:	04090203          	lb	tp,64(s2)
     b8c:	0100                	addi	s0,sp,128
     b8e:	0505                	addi	a0,a0,1
     b90:	10090003          	lb	zero,256(s2)
     b94:	0100                	addi	s0,sp,128
     b96:	04090103          	lb	sp,64(s2)
     b9a:	0100                	addi	s0,sp,128
     b9c:	1605                	addi	a2,a2,-31
     b9e:	10090103          	lb	sp,256(s2)
     ba2:	0100                	addi	s0,sp,128
     ba4:	0d05                	addi	s10,s10,1
     ba6:	10090003          	lb	zero,256(s2)
     baa:	0100                	addi	s0,sp,128
     bac:	1105                	addi	sp,sp,-31
     bae:	14090203          	lb	tp,320(s2)
     bb2:	0100                	addi	s0,sp,128
     bb4:	0d05                	addi	s10,s10,1
     bb6:	10090003          	lb	zero,256(s2)
     bba:	0100                	addi	s0,sp,128
     bbc:	0505                	addi	a0,a0,1
     bbe:	10090103          	lb	sp,256(s2)
     bc2:	0100                	addi	s0,sp,128
     bc4:	0605                	addi	a2,a2,1
     bc6:	10090103          	lb	sp,256(s2)
     bca:	0100                	addi	s0,sp,128
     bcc:	0205                	addi	tp,tp,1
     bce:	0c090103          	lb	sp,192(s2)
     bd2:	0100                	addi	s0,sp,128
     bd4:	0405                	addi	s0,s0,1
     bd6:	0c090203          	lb	tp,192(s2)
     bda:	0100                	addi	s0,sp,128
     bdc:	0905                	addi	s2,s2,1
     bde:	0c090203          	lb	tp,192(s2)
     be2:	0100                	addi	s0,sp,128
     be4:	0505                	addi	a0,a0,1
     be6:	04090003          	lb	zero,64(s2)
     bea:	0100                	addi	s0,sp,128
     bec:	0705                	addi	a4,a4,1
     bee:	0c090103          	lb	sp,192(s2)
     bf2:	0100                	addi	s0,sp,128
     bf4:	0505                	addi	a0,a0,1
     bf6:	08090103          	lb	sp,128(s2)
     bfa:	0100                	addi	s0,sp,128
     bfc:	0805                	addi	a6,a6,1
     bfe:	14090103          	lb	sp,320(s2)
     c02:	0100                	addi	s0,sp,128
     c04:	0b05                	addi	s6,s6,1
     c06:	08090203          	lb	tp,128(s2)
     c0a:	0100                	addi	s0,sp,128
     c0c:	0805                	addi	a6,a6,1
     c0e:	10090203          	lb	tp,256(s2)
     c12:	0100                	addi	s0,sp,128
     c14:	0205                	addi	tp,tp,1
     c16:	0c090003          	lb	zero,192(s2)
     c1a:	0100                	addi	s0,sp,128
     c1c:	0305                	addi	t1,t1,1
     c1e:	0200                	addi	s0,sp,256
     c20:	0304                	addi	s1,sp,384
     c22:	04090103          	lb	sp,64(s2)
     c26:	0100                	addi	s0,sp,128
     c28:	1c05                	addi	s8,s8,-31
     c2a:	0200                	addi	s0,sp,256
     c2c:	0304                	addi	s1,sp,384
     c2e:	18097f03          	0x18097f03
     c32:	0100                	addi	s0,sp,128
     c34:	0205                	addi	tp,tp,1
     c36:	0200                	addi	s0,sp,256
     c38:	0104                	addi	s1,sp,128
     c3a:	0c090003          	lb	zero,192(s2)
     c3e:	0100                	addi	s0,sp,128
     c40:	0105                	addi	sp,sp,1
     c42:	0c090203          	lb	tp,192(s2)
     c46:	0100                	addi	s0,sp,128
     c48:	14090303          	lb	t1,320(s2)
     c4c:	0100                	addi	s0,sp,128
     c4e:	0505                	addi	a0,a0,1
     c50:	10090503          	lb	a0,256(s2)
     c54:	0100                	addi	s0,sp,128
     c56:	0805                	addi	a6,a6,1
     c58:	08090103          	lb	sp,128(s2)
     c5c:	0100                	addi	s0,sp,128
     c5e:	0205                	addi	tp,tp,1
     c60:	08090003          	lb	zero,128(s2)
     c64:	0100                	addi	s0,sp,128
     c66:	0505                	addi	a0,a0,1
     c68:	04090203          	lb	tp,64(s2)
     c6c:	0100                	addi	s0,sp,128
     c6e:	0605                	addi	a2,a2,1
     c70:	04090103          	lb	sp,64(s2)
     c74:	0100                	addi	s0,sp,128
     c76:	0705                	addi	a4,a4,1
     c78:	04090103          	lb	sp,64(s2)
     c7c:	0100                	addi	s0,sp,128
     c7e:	0505                	addi	a0,a0,1
     c80:	08090003          	lb	zero,128(s2)
     c84:	0100                	addi	s0,sp,128
     c86:	04090103          	lb	sp,64(s2)
     c8a:	0100                	addi	s0,sp,128
     c8c:	0605                	addi	a2,a2,1
     c8e:	08090103          	lb	sp,128(s2)
     c92:	0100                	addi	s0,sp,128
     c94:	0505                	addi	a0,a0,1
     c96:	08090003          	lb	zero,128(s2)
     c9a:	0100                	addi	s0,sp,128
     c9c:	0605                	addi	a2,a2,1
     c9e:	0c090203          	lb	tp,192(s2)
     ca2:	0100                	addi	s0,sp,128
     ca4:	0505                	addi	a0,a0,1
     ca6:	08090103          	lb	sp,128(s2)
     caa:	0100                	addi	s0,sp,128
     cac:	0705                	addi	a4,a4,1
     cae:	0c090103          	lb	sp,192(s2)
     cb2:	0100                	addi	s0,sp,128
     cb4:	0605                	addi	a2,a2,1
     cb6:	08090003          	lb	zero,128(s2)
     cba:	0100                	addi	s0,sp,128
     cbc:	1405                	addi	s0,s0,-31
     cbe:	0200                	addi	s0,sp,256
     cc0:	0104                	addi	s1,sp,128
     cc2:	0c090003          	lb	zero,192(s2)
     cc6:	0100                	addi	s0,sp,128
     cc8:	1105                	addi	sp,sp,-31
     cca:	0200                	addi	s0,sp,256
     ccc:	0104                	addi	s1,sp,128
     cce:	08090003          	lb	zero,128(s2)
     cd2:	0100                	addi	s0,sp,128
     cd4:	0a05                	addi	s4,s4,1
     cd6:	0c090103          	lb	sp,192(s2)
     cda:	0100                	addi	s0,sp,128
     cdc:	0705                	addi	a4,a4,1
     cde:	18090003          	lb	zero,384(s2)
     ce2:	0100                	addi	s0,sp,128
     ce4:	0805                	addi	a6,a6,1
     ce6:	0c090103          	lb	sp,192(s2)
     cea:	0100                	addi	s0,sp,128
     cec:	0605                	addi	a2,a2,1
     cee:	08090003          	lb	zero,128(s2)
     cf2:	0100                	addi	s0,sp,128
     cf4:	0505                	addi	a0,a0,1
     cf6:	04090203          	lb	tp,64(s2)
     cfa:	0100                	addi	s0,sp,128
     cfc:	1105                	addi	sp,sp,-31
     cfe:	0200                	addi	s0,sp,256
     d00:	0104                	addi	s1,sp,128
     d02:	10090003          	lb	zero,256(s2)
     d06:	0100                	addi	s0,sp,128
     d08:	0805                	addi	a6,a6,1
     d0a:	10090203          	lb	tp,256(s2)
     d0e:	0100                	addi	s0,sp,128
     d10:	0405                	addi	s0,s0,1
     d12:	14090103          	lb	sp,320(s2)
     d16:	0100                	addi	s0,sp,128
     d18:	0a05                	addi	s4,s4,1
     d1a:	38090403          	lb	s0,896(s2)
     d1e:	0100                	addi	s0,sp,128
     d20:	0405                	addi	s0,s0,1
     d22:	04090003          	lb	zero,64(s2)
     d26:	0100                	addi	s0,sp,128
     d28:	1005                	c.nop	-31
     d2a:	0200                	addi	s0,sp,256
     d2c:	0304                	addi	s1,sp,384
     d2e:	04090103          	lb	sp,64(s2)
     d32:	0100                	addi	s0,sp,128
     d34:	0505                	addi	a0,a0,1
     d36:	0200                	addi	s0,sp,256
     d38:	0304                	addi	s1,sp,384
     d3a:	0c090003          	lb	zero,192(s2)
     d3e:	0100                	addi	s0,sp,128
     d40:	1d05                	addi	s10,s10,-31
     d42:	0200                	addi	s0,sp,256
     d44:	0304                	addi	s1,sp,384
     d46:	0c097f03          	0xc097f03
     d4a:	0100                	addi	s0,sp,128
     d4c:	1105                	addi	sp,sp,-31
     d4e:	0200                	addi	s0,sp,256
     d50:	0104                	addi	s1,sp,128
     d52:	0c090003          	lb	zero,192(s2)
     d56:	0100                	addi	s0,sp,128
     d58:	1605                	addi	a2,a2,-31
     d5a:	0200                	addi	s0,sp,256
     d5c:	0104                	addi	s1,sp,128
     d5e:	04090003          	lb	zero,64(s2)
     d62:	0100                	addi	s0,sp,128
     d64:	0405                	addi	s0,s0,1
     d66:	0200                	addi	s0,sp,256
     d68:	0104                	addi	s1,sp,128
     d6a:	0c090003          	lb	zero,192(s2)
     d6e:	0100                	addi	s0,sp,128
     d70:	0805                	addi	a6,a6,1
     d72:	04090203          	lb	tp,64(s2)
     d76:	0100                	addi	s0,sp,128
     d78:	0200                	addi	s0,sp,256
     d7a:	0104                	addi	s1,sp,128
     d7c:	0306                	slli	t1,t1,0x1
     d7e:	0900                	addi	s0,sp,144
     d80:	000c                	0xc
     d82:	0001                	nop
     d84:	0402                	c.slli64	s0
     d86:	0302                	c.slli64	t1
     d88:	0900                	addi	s0,sp,144
     d8a:	000c                	0xc
     d8c:	0501                	addi	a0,a0,0
     d8e:	0006                	c.slli	zero,0x1
     d90:	0402                	c.slli64	s0
     d92:	0604                	addi	s1,sp,768
     d94:	08090003          	lb	zero,128(s2)
     d98:	0100                	addi	s0,sp,128
     d9a:	0405                	addi	s0,s0,1
     d9c:	0200                	addi	s0,sp,256
     d9e:	0404                	addi	s1,sp,512
     da0:	04090103          	lb	sp,64(s2)
     da4:	0100                	addi	s0,sp,128
     da6:	1c05                	addi	s8,s8,-31
     da8:	0200                	addi	s0,sp,256
     daa:	0204                	addi	s1,sp,256
     dac:	0c096803          	lwu	a6,192(s2)
     db0:	0100                	addi	s0,sp,128
     db2:	0f05                	addi	t5,t5,1
     db4:	0200                	addi	s0,sp,256
     db6:	0104                	addi	s1,sp,128
     db8:	0c090003          	lb	zero,192(s2)
     dbc:	0100                	addi	s0,sp,128
     dbe:	0205                	addi	tp,tp,1
     dc0:	0200                	addi	s0,sp,256
     dc2:	0104                	addi	s1,sp,128
     dc4:	08090003          	lb	zero,128(s2)
     dc8:	0100                	addi	s0,sp,128
     dca:	0905                	addi	s2,s2,1
     dcc:	04091b03          	lh	s6,64(s2)
     dd0:	0100                	addi	s0,sp,128
     dd2:	0105                	addi	sp,sp,1
     dd4:	04090103          	lb	sp,64(s2)
     dd8:	0100                	addi	s0,sp,128
     dda:	10090303          	lb	t1,256(s2)
     dde:	0100                	addi	s0,sp,128
     de0:	0205                	addi	tp,tp,1
     de2:	28090403          	lb	s0,640(s2)
     de6:	0100                	addi	s0,sp,128
     de8:	14090103          	lb	sp,320(s2)
     dec:	0100                	addi	s0,sp,128
     dee:	0905                	addi	s2,s2,1
     df0:	10090303          	lb	t1,256(s2)
     df4:	0100                	addi	s0,sp,128
     df6:	0105                	addi	sp,sp,1
     df8:	04090103          	lb	sp,64(s2)
     dfc:	0100                	addi	s0,sp,128
     dfe:	10090403          	lb	s0,256(s2)
     e02:	0100                	addi	s0,sp,128
     e04:	0505                	addi	a0,a0,1
     e06:	10090403          	lb	s0,256(s2)
     e0a:	0100                	addi	s0,sp,128
     e0c:	08090103          	lb	sp,128(s2)
     e10:	0100                	addi	s0,sp,128
     e12:	0c05                	addi	s8,s8,1
     e14:	08090203          	lb	tp,128(s2)
     e18:	0100                	addi	s0,sp,128
     e1a:	0505                	addi	a0,a0,1
     e1c:	08090003          	lb	zero,128(s2)
     e20:	0100                	addi	s0,sp,128
     e22:	1705                	addi	a4,a4,-31
     e24:	04090203          	lb	tp,64(s2)
     e28:	0100                	addi	s0,sp,128
     e2a:	1305                	addi	t1,t1,-31
     e2c:	0c090003          	lb	zero,192(s2)
     e30:	0100                	addi	s0,sp,128
     e32:	1c05                	addi	s8,s8,-31
     e34:	10090003          	lb	zero,256(s2)
     e38:	0100                	addi	s0,sp,128
     e3a:	0e05                	addi	t3,t3,1
     e3c:	04090003          	lb	zero,64(s2)
     e40:	0100                	addi	s0,sp,128
     e42:	0c05                	addi	s8,s8,1
     e44:	08090103          	lb	sp,128(s2)
     e48:	0100                	addi	s0,sp,128
     e4a:	0d05                	addi	s10,s10,1
     e4c:	10090103          	lb	sp,256(s2)
     e50:	0100                	addi	s0,sp,128
     e52:	1c090203          	lb	tp,448(s2)
     e56:	0100                	addi	s0,sp,128
     e58:	1a05                	addi	s4,s4,-31
     e5a:	0200                	addi	s0,sp,256
     e5c:	0204                	addi	s1,sp,256
     e5e:	18097a03          	0x18097a03
     e62:	0100                	addi	s0,sp,128
     e64:	0505                	addi	a0,a0,1
     e66:	0200                	addi	s0,sp,256
     e68:	0104                	addi	s1,sp,128
     e6a:	0c090003          	lb	zero,192(s2)
     e6e:	0100                	addi	s0,sp,128
     e70:	0105                	addi	sp,sp,1
     e72:	0c090803          	lb	a6,192(s2)
     e76:	0100                	addi	s0,sp,128
     e78:	1409                	addi	s0,s0,-30
     e7a:	0000                	unimp
     e7c:	0101                	addi	sp,sp,0
     e7e:	000001ef          	jal	gp,e7e <_start-0x21182>
     e82:	00250003          	lb	zero,2(a0)
     e86:	0000                	unimp
     e88:	0101                	addi	sp,sp,0
     e8a:	000d0efb          	0xd0efb
     e8e:	0101                	addi	sp,sp,0
     e90:	0101                	addi	sp,sp,0
     e92:	0000                	unimp
     e94:	0100                	addi	s0,sp,128
     e96:	0000                	unimp
     e98:	7301                	lui	t1,0xfffe0
     e9a:	6372                	ld	t1,280(sp)
     e9c:	0000                	unimp
     e9e:	7361                	lui	t1,0xffff8
     ea0:	5f6d                	li	t5,-5
     ea2:	6574                	ld	a3,200(a0)
     ea4:	532e7473          	csrrci	s0,0x532,28
     ea8:	0100                	addi	s0,sp,128
     eaa:	0000                	unimp
     eac:	0000                	unimp
     eae:	0209                	addi	tp,tp,2
     eb0:	3458                	fld	fa4,168(s0)
     eb2:	0002                	c.slli64	zero
     eb4:	0000                	unimp
     eb6:	0000                	unimp
     eb8:	03010a03          	lb	s4,48(sp)
     ebc:	0902                	c.slli64	s2
     ebe:	0004                	0x4
     ec0:	0301                	addi	t1,t1,0
     ec2:	0901                	addi	s2,s2,0
     ec4:	0004                	0x4
     ec6:	0301                	addi	t1,t1,0
     ec8:	0901                	addi	s2,s2,0
     eca:	0004                	0x4
     ecc:	0301                	addi	t1,t1,0
     ece:	0901                	addi	s2,s2,0
     ed0:	0004                	0x4
     ed2:	0301                	addi	t1,t1,0
     ed4:	0901                	addi	s2,s2,0
     ed6:	0004                	0x4
     ed8:	0301                	addi	t1,t1,0
     eda:	0902                	c.slli64	s2
     edc:	0004                	0x4
     ede:	0301                	addi	t1,t1,0
     ee0:	0901                	addi	s2,s2,0
     ee2:	0004                	0x4
     ee4:	0301                	addi	t1,t1,0
     ee6:	0902                	c.slli64	s2
     ee8:	0004                	0x4
     eea:	0301                	addi	t1,t1,0
     eec:	0901                	addi	s2,s2,0
     eee:	0008                	0x8
     ef0:	0301                	addi	t1,t1,0
     ef2:	0902                	c.slli64	s2
     ef4:	0008                	0x8
     ef6:	0301                	addi	t1,t1,0
     ef8:	0904                	addi	s1,sp,144
     efa:	0004                	0x4
     efc:	0301                	addi	t1,t1,0
     efe:	0901                	addi	s2,s2,0
     f00:	0004                	0x4
     f02:	0301                	addi	t1,t1,0
     f04:	0901                	addi	s2,s2,0
     f06:	0004                	0x4
     f08:	0301                	addi	t1,t1,0
     f0a:	0901                	addi	s2,s2,0
     f0c:	0004                	0x4
     f0e:	0301                	addi	t1,t1,0
     f10:	0904                	addi	s1,sp,144
     f12:	0004                	0x4
     f14:	0301                	addi	t1,t1,0
     f16:	0901                	addi	s2,s2,0
     f18:	000c                	0xc
     f1a:	0301                	addi	t1,t1,0
     f1c:	0901                	addi	s2,s2,0
     f1e:	0004                	0x4
     f20:	0301                	addi	t1,t1,0
     f22:	0902                	c.slli64	s2
     f24:	0004                	0x4
     f26:	0301                	addi	t1,t1,0
     f28:	0901                	addi	s2,s2,0
     f2a:	000c                	0xc
     f2c:	0301                	addi	t1,t1,0
     f2e:	0901                	addi	s2,s2,0
     f30:	0004                	0x4
     f32:	0301                	addi	t1,t1,0
     f34:	0901                	addi	s2,s2,0
     f36:	0004                	0x4
     f38:	0301                	addi	t1,t1,0
     f3a:	0902                	c.slli64	s2
     f3c:	0004                	0x4
     f3e:	0301                	addi	t1,t1,0
     f40:	0901                	addi	s2,s2,0
     f42:	000c                	0xc
     f44:	0301                	addi	t1,t1,0
     f46:	0901                	addi	s2,s2,0
     f48:	0004                	0x4
     f4a:	0301                	addi	t1,t1,0
     f4c:	0901                	addi	s2,s2,0
     f4e:	0004                	0x4
     f50:	0301                	addi	t1,t1,0
     f52:	0901                	addi	s2,s2,0
     f54:	0004                	0x4
     f56:	0301                	addi	t1,t1,0
     f58:	0906                	slli	s2,s2,0x1
     f5a:	0004                	0x4
     f5c:	0301                	addi	t1,t1,0
     f5e:	0902                	c.slli64	s2
     f60:	0004                	0x4
     f62:	0301                	addi	t1,t1,0
     f64:	0901                	addi	s2,s2,0
     f66:	000c                	0xc
     f68:	0301                	addi	t1,t1,0
     f6a:	0902                	c.slli64	s2
     f6c:	0004                	0x4
     f6e:	0301                	addi	t1,t1,0
     f70:	0901                	addi	s2,s2,0
     f72:	0004                	0x4
     f74:	0301                	addi	t1,t1,0
     f76:	0901                	addi	s2,s2,0
     f78:	0004                	0x4
     f7a:	0301                	addi	t1,t1,0
     f7c:	0902                	c.slli64	s2
     f7e:	0004                	0x4
     f80:	0301                	addi	t1,t1,0
     f82:	0901                	addi	s2,s2,0
     f84:	0004                	0x4
     f86:	0301                	addi	t1,t1,0
     f88:	0902                	c.slli64	s2
     f8a:	0004                	0x4
     f8c:	0301                	addi	t1,t1,0
     f8e:	0901                	addi	s2,s2,0
     f90:	000c                	0xc
     f92:	0301                	addi	t1,t1,0
     f94:	0902                	c.slli64	s2
     f96:	0004                	0x4
     f98:	0301                	addi	t1,t1,0
     f9a:	0901                	addi	s2,s2,0
     f9c:	0004                	0x4
     f9e:	0301                	addi	t1,t1,0
     fa0:	0901                	addi	s2,s2,0
     fa2:	0004                	0x4
     fa4:	0301                	addi	t1,t1,0
     fa6:	0904                	addi	s1,sp,144
     fa8:	0004                	0x4
     faa:	0301                	addi	t1,t1,0
     fac:	0901                	addi	s2,s2,0
     fae:	0004                	0x4
     fb0:	0301                	addi	t1,t1,0
     fb2:	0901                	addi	s2,s2,0
     fb4:	0004                	0x4
     fb6:	0301                	addi	t1,t1,0
     fb8:	0902                	c.slli64	s2
     fba:	0004                	0x4
     fbc:	0301                	addi	t1,t1,0
     fbe:	0902                	c.slli64	s2
     fc0:	0004                	0x4
     fc2:	0301                	addi	t1,t1,0
     fc4:	0901                	addi	s2,s2,0
     fc6:	0004                	0x4
     fc8:	0301                	addi	t1,t1,0
     fca:	0904                	addi	s1,sp,144
     fcc:	0004                	0x4
     fce:	0301                	addi	t1,t1,0
     fd0:	0901                	addi	s2,s2,0
     fd2:	0004                	0x4
     fd4:	0301                	addi	t1,t1,0
     fd6:	0901                	addi	s2,s2,0
     fd8:	0004                	0x4
     fda:	0301                	addi	t1,t1,0
     fdc:	0902                	c.slli64	s2
     fde:	0004                	0x4
     fe0:	0301                	addi	t1,t1,0
     fe2:	0902                	c.slli64	s2
     fe4:	0004                	0x4
     fe6:	0301                	addi	t1,t1,0
     fe8:	0901                	addi	s2,s2,0
     fea:	0004                	0x4
     fec:	0301                	addi	t1,t1,0
     fee:	0904                	addi	s1,sp,144
     ff0:	0004                	0x4
     ff2:	0301                	addi	t1,t1,0
     ff4:	0901                	addi	s2,s2,0
     ff6:	0004                	0x4
     ff8:	0301                	addi	t1,t1,0
     ffa:	0901                	addi	s2,s2,0
     ffc:	0004                	0x4
     ffe:	0301                	addi	t1,t1,0
    1000:	00040903          	lb	s2,0(s0)
    1004:	0301                	addi	t1,t1,0
    1006:	0901                	addi	s2,s2,0
    1008:	0004                	0x4
    100a:	0301                	addi	t1,t1,0
    100c:	0901                	addi	s2,s2,0
    100e:	0004                	0x4
    1010:	0301                	addi	t1,t1,0
    1012:	0901                	addi	s2,s2,0
    1014:	0004                	0x4
    1016:	0301                	addi	t1,t1,0
    1018:	0901                	addi	s2,s2,0
    101a:	0004                	0x4
    101c:	0301                	addi	t1,t1,0
    101e:	0902                	c.slli64	s2
    1020:	0004                	0x4
    1022:	0301                	addi	t1,t1,0
    1024:	0904                	addi	s1,sp,144
    1026:	0004                	0x4
    1028:	0301                	addi	t1,t1,0
    102a:	0901                	addi	s2,s2,0
    102c:	0004                	0x4
    102e:	0301                	addi	t1,t1,0
    1030:	0901                	addi	s2,s2,0
    1032:	0004                	0x4
    1034:	0301                	addi	t1,t1,0
    1036:	0905                	addi	s2,s2,1
    1038:	0004                	0x4
    103a:	0301                	addi	t1,t1,0
    103c:	0901                	addi	s2,s2,0
    103e:	0004                	0x4
    1040:	0301                	addi	t1,t1,0
    1042:	0902                	c.slli64	s2
    1044:	0004                	0x4
    1046:	0301                	addi	t1,t1,0
    1048:	0901                	addi	s2,s2,0
    104a:	0004                	0x4
    104c:	0301                	addi	t1,t1,0
    104e:	0902                	c.slli64	s2
    1050:	0004                	0x4
    1052:	0301                	addi	t1,t1,0
    1054:	0901                	addi	s2,s2,0
    1056:	0004                	0x4
    1058:	0301                	addi	t1,t1,0
    105a:	00040903          	lb	s2,0(s0)
    105e:	0301                	addi	t1,t1,0
    1060:	0901                	addi	s2,s2,0
    1062:	0004                	0x4
    1064:	0301                	addi	t1,t1,0
    1066:	0901                	addi	s2,s2,0
    1068:	0004                	0x4
    106a:	0901                	addi	s2,s2,0
    106c:	0004                	0x4
    106e:	0100                	addi	s0,sp,128
    1070:	7b01                	lui	s6,0xfffe0
    1072:	0000                	unimp
    1074:	0300                	addi	s0,sp,384
    1076:	2100                	fld	fs0,0(a0)
    1078:	0000                	unimp
    107a:	0100                	addi	s0,sp,128
    107c:	fb01                	bnez	a4,f8c <_start-0x21074>
    107e:	0d0e                	slli	s10,s10,0x3
    1080:	0100                	addi	s0,sp,128
    1082:	0101                	addi	sp,sp,0
    1084:	0001                	nop
    1086:	0000                	unimp
    1088:	0001                	nop
    108a:	0100                	addi	s0,sp,128
    108c:	00637273          	csrrci	tp,0x6,6
    1090:	6200                	ld	s0,0(a2)
    1092:	2e746f6f          	jal	t5,47b78 <bss_begin+0x22b78>
    1096:	00010053          	fadd.s	ft0,ft2,ft0,rne
    109a:	0000                	unimp
    109c:	0900                	addi	s0,sp,144
    109e:	0002                	c.slli64	zero
    10a0:	0220                	addi	s0,sp,264
    10a2:	0000                	unimp
    10a4:	0000                	unimp
    10a6:	1700                	addi	s0,sp,928
    10a8:	04090203          	lb	tp,64(s2)
    10ac:	0100                	addi	s0,sp,128
    10ae:	04090103          	lb	sp,64(s2)
    10b2:	0100                	addi	s0,sp,128
    10b4:	08090303          	lb	t1,128(s2)
    10b8:	0100                	addi	s0,sp,128
    10ba:	08090103          	lb	sp,128(s2)
    10be:	0100                	addi	s0,sp,128
    10c0:	04090103          	lb	sp,64(s2)
    10c4:	0100                	addi	s0,sp,128
    10c6:	04090303          	lb	t1,64(s2)
    10ca:	0100                	addi	s0,sp,128
    10cc:	04090403          	lb	s0,64(s2)
    10d0:	0100                	addi	s0,sp,128
    10d2:	04090203          	lb	tp,64(s2)
    10d6:	0100                	addi	s0,sp,128
    10d8:	08090103          	lb	sp,128(s2)
    10dc:	0100                	addi	s0,sp,128
    10de:	04090303          	lb	t1,64(s2)
    10e2:	0100                	addi	s0,sp,128
    10e4:	04090103          	lb	sp,64(s2)
    10e8:	0100                	addi	s0,sp,128
    10ea:	0409                	addi	s0,s0,2
    10ec:	0000                	unimp
    10ee:	0101                	addi	sp,sp,0
    10f0:	0175                	addi	sp,sp,29
    10f2:	0000                	unimp
    10f4:	00290003          	lb	zero,2(s2)
    10f8:	0000                	unimp
    10fa:	0101                	addi	sp,sp,0
    10fc:	000d0efb          	0xd0efb
    1100:	0101                	addi	sp,sp,0
    1102:	0101                	addi	sp,sp,0
    1104:	0000                	unimp
    1106:	0100                	addi	s0,sp,128
    1108:	0000                	unimp
    110a:	7301                	lui	t1,0xfffe0
    110c:	6372                	ld	t1,280(sp)
    110e:	0000                	unimp
    1110:	6165                	addi	sp,sp,112
    1112:	6c72                	ld	s8,280(sp)
    1114:	5f79                	li	t5,-2
    1116:	7270                	ld	a2,224(a2)
    1118:	6e69                	lui	t3,0x1a
    111a:	6b74                	ld	a3,208(a4)
    111c:	532e                	lw	t1,232(sp)
    111e:	0100                	addi	s0,sp,128
    1120:	0000                	unimp
    1122:	0000                	unimp
    1124:	0209                	addi	tp,tp,2
    1126:	35ac                	fld	fa1,104(a1)
    1128:	0002                	c.slli64	zero
    112a:	0000                	unimp
    112c:	0000                	unimp
    112e:	03010903          	lb	s2,48(sp)
    1132:	0901                	addi	s2,s2,0
    1134:	0008                	0x8
    1136:	0301                	addi	t1,t1,0
    1138:	00040903          	lb	s2,0(s0)
    113c:	0301                	addi	t1,t1,0
    113e:	0901                	addi	s2,s2,0
    1140:	0008                	0x8
    1142:	0301                	addi	t1,t1,0
    1144:	00040903          	lb	s2,0(s0)
    1148:	0301                	addi	t1,t1,0
    114a:	0901                	addi	s2,s2,0
    114c:	0008                	0x8
    114e:	0301                	addi	t1,t1,0
    1150:	00040903          	lb	s2,0(s0)
    1154:	0301                	addi	t1,t1,0
    1156:	00040907          	vle8.v	v18,(s0),v0.t
    115a:	0301                	addi	t1,t1,0
    115c:	0901                	addi	s2,s2,0
    115e:	0008                	0x8
    1160:	0301                	addi	t1,t1,0
    1162:	0901                	addi	s2,s2,0
    1164:	0004                	0x4
    1166:	0301                	addi	t1,t1,0
    1168:	0901                	addi	s2,s2,0
    116a:	0004                	0x4
    116c:	0301                	addi	t1,t1,0
    116e:	0906                	slli	s2,s2,0x1
    1170:	0004                	0x4
    1172:	0301                	addi	t1,t1,0
    1174:	0901                	addi	s2,s2,0
    1176:	0008                	0x8
    1178:	0301                	addi	t1,t1,0
    117a:	0901                	addi	s2,s2,0
    117c:	0004                	0x4
    117e:	0301                	addi	t1,t1,0
    1180:	0901                	addi	s2,s2,0
    1182:	0004                	0x4
    1184:	0301                	addi	t1,t1,0
    1186:	0901                	addi	s2,s2,0
    1188:	0004                	0x4
    118a:	0301                	addi	t1,t1,0
    118c:	0911                	addi	s2,s2,4
    118e:	0004                	0x4
    1190:	0301                	addi	t1,t1,0
    1192:	00040903          	lb	s2,0(s0)
    1196:	0301                	addi	t1,t1,0
    1198:	00040903          	lb	s2,0(s0)
    119c:	0301                	addi	t1,t1,0
    119e:	0901                	addi	s2,s2,0
    11a0:	0004                	0x4
    11a2:	0301                	addi	t1,t1,0
    11a4:	00040903          	lb	s2,0(s0)
    11a8:	0301                	addi	t1,t1,0
    11aa:	00040903          	lb	s2,0(s0)
    11ae:	0301                	addi	t1,t1,0
    11b0:	0901                	addi	s2,s2,0
    11b2:	0004                	0x4
    11b4:	0301                	addi	t1,t1,0
    11b6:	0901                	addi	s2,s2,0
    11b8:	0004                	0x4
    11ba:	0301                	addi	t1,t1,0
    11bc:	0904                	addi	s1,sp,144
    11be:	0004                	0x4
    11c0:	0301                	addi	t1,t1,0
    11c2:	0901                	addi	s2,s2,0
    11c4:	0004                	0x4
    11c6:	0301                	addi	t1,t1,0
    11c8:	0901                	addi	s2,s2,0
    11ca:	0004                	0x4
    11cc:	0301                	addi	t1,t1,0
    11ce:	0901                	addi	s2,s2,0
    11d0:	0004                	0x4
    11d2:	0301                	addi	t1,t1,0
    11d4:	00040903          	lb	s2,0(s0)
    11d8:	0301                	addi	t1,t1,0
    11da:	0901                	addi	s2,s2,0
    11dc:	0004                	0x4
    11de:	0301                	addi	t1,t1,0
    11e0:	00040903          	lb	s2,0(s0)
    11e4:	0301                	addi	t1,t1,0
    11e6:	0901                	addi	s2,s2,0
    11e8:	0004                	0x4
    11ea:	0301                	addi	t1,t1,0
    11ec:	0901                	addi	s2,s2,0
    11ee:	0004                	0x4
    11f0:	0301                	addi	t1,t1,0
    11f2:	0901                	addi	s2,s2,0
    11f4:	0004                	0x4
    11f6:	0301                	addi	t1,t1,0
    11f8:	0901                	addi	s2,s2,0
    11fa:	0004                	0x4
    11fc:	0301                	addi	t1,t1,0
    11fe:	0901                	addi	s2,s2,0
    1200:	0004                	0x4
    1202:	0301                	addi	t1,t1,0
    1204:	0902                	c.slli64	s2
    1206:	0004                	0x4
    1208:	0301                	addi	t1,t1,0
    120a:	0904                	addi	s1,sp,144
    120c:	0004                	0x4
    120e:	0301                	addi	t1,t1,0
    1210:	00040903          	lb	s2,0(s0)
    1214:	0301                	addi	t1,t1,0
    1216:	0901                	addi	s2,s2,0
    1218:	0004                	0x4
    121a:	0301                	addi	t1,t1,0
    121c:	0901                	addi	s2,s2,0
    121e:	0004                	0x4
    1220:	0301                	addi	t1,t1,0
    1222:	0901                	addi	s2,s2,0
    1224:	0004                	0x4
    1226:	0301                	addi	t1,t1,0
    1228:	0902                	c.slli64	s2
    122a:	0004                	0x4
    122c:	0301                	addi	t1,t1,0
    122e:	0905                	addi	s2,s2,1
    1230:	0004                	0x4
    1232:	0301                	addi	t1,t1,0
    1234:	0901                	addi	s2,s2,0
    1236:	0004                	0x4
    1238:	0301                	addi	t1,t1,0
    123a:	00040903          	lb	s2,0(s0)
    123e:	0301                	addi	t1,t1,0
    1240:	0901                	addi	s2,s2,0
    1242:	0004                	0x4
    1244:	0301                	addi	t1,t1,0
    1246:	0901                	addi	s2,s2,0
    1248:	0004                	0x4
    124a:	0301                	addi	t1,t1,0
    124c:	0901                	addi	s2,s2,0
    124e:	0004                	0x4
    1250:	0301                	addi	t1,t1,0
    1252:	0901                	addi	s2,s2,0
    1254:	0004                	0x4
    1256:	0301                	addi	t1,t1,0
    1258:	00040903          	lb	s2,0(s0)
    125c:	0301                	addi	t1,t1,0
    125e:	0901                	addi	s2,s2,0
    1260:	0004                	0x4
    1262:	0901                	addi	s2,s2,0
    1264:	0004                	0x4
    1266:	0100                	addi	s0,sp,128
    1268:	5901                	li	s2,-32
    126a:	0000                	unimp
    126c:	0300                	addi	s0,sp,384
    126e:	2300                	fld	fs0,0(a4)
    1270:	0000                	unimp
    1272:	0100                	addi	s0,sp,128
    1274:	fb01                	bnez	a4,1184 <_start-0x20e7c>
    1276:	0d0e                	slli	s10,s10,0x3
    1278:	0100                	addi	s0,sp,128
    127a:	0101                	addi	sp,sp,0
    127c:	0001                	nop
    127e:	0000                	unimp
    1280:	0001                	nop
    1282:	0100                	addi	s0,sp,128
    1284:	00637273          	csrrci	tp,0x6,6
    1288:	6d00                	ld	s0,24(a0)
    128a:	6d65                	lui	s10,0x19
    128c:	2e746573          	csrrsi	a0,0x2e7,8
    1290:	00010053          	fadd.s	ft0,ft2,ft0,rne
    1294:	0000                	unimp
    1296:	0900                	addi	s0,sp,144
    1298:	9002                	ebreak
    129a:	0236                	slli	tp,tp,0xd
    129c:	0000                	unimp
    129e:	0000                	unimp
    12a0:	1400                	addi	s0,sp,544
    12a2:	04090203          	lb	tp,64(s2)
    12a6:	0100                	addi	s0,sp,128
    12a8:	04090103          	lb	sp,64(s2)
    12ac:	0100                	addi	s0,sp,128
    12ae:	04090103          	lb	sp,64(s2)
    12b2:	0100                	addi	s0,sp,128
    12b4:	04090103          	lb	sp,64(s2)
    12b8:	0100                	addi	s0,sp,128
    12ba:	04090203          	lb	tp,64(s2)
    12be:	0100                	addi	s0,sp,128
    12c0:	0409                	addi	s0,s0,2
    12c2:	0000                	unimp
    12c4:	0101                	addi	sp,sp,0

Disassembly of section .debug_str:

0000000000000000 <.debug_str>:
   0:	6f6c                	ld	a1,216(a4)
   2:	676e                	ld	a4,216(sp)
   4:	6c20                	ld	s0,88(s0)
   6:	20676e6f          	jal	t3,7620c <bss_begin+0x5120c>
   a:	6e69                	lui	t3,0x1a
   c:	0074                	addi	a3,sp,12
   e:	3a45                	addiw	s4,s4,-15
  10:	5c5c                	lw	a5,60(s0)
  12:	3164                	fld	fs1,224(a0)
  14:	72705f73          	csrrwi	t5,0x727,0
  18:	63656a6f          	jal	s4,5664e <bss_begin+0x3164e>
  1c:	7374                	ld	a3,224(a4)
  1e:	5c5c                	lw	a5,60(s0)
  20:	6972                	ld	s2,280(sp)
  22:	5f766373          	csrrsi	t1,shpmcounter23,12
  26:	7270                	ld	a2,224(a2)
  28:	6172676f          	jal	a4,26e3e <bss_begin+0x1e3e>
  2c:	6d6d                	lui	s10,0x1b
  2e:	6e69                	lui	t3,0x1a
  30:	72705f67          	0x72705f67
  34:	6361                	lui	t1,0x18
  36:	6974                	ld	a3,208(a0)
  38:	662d6563          	bltu	s10,sp,6a2 <_start-0x2195e>
  3c:	642d726f          	jal	tp,d767e <bss_begin+0xb267e>
  40:	73676e6f          	jal	t3,76776 <bss_begin+0x51776>
  44:	6168                	ld	a0,192(a0)
  46:	5c6e                	lw	s8,248(sp)
  48:	635c                	ld	a5,128(a4)
  4a:	6168                	ld	a0,192(a0)
  4c:	7470                	ld	a2,232(s0)
  4e:	7265                	lui	tp,0xffff9
  50:	335f 5c5c 616c      	0x616c5c5c335f
  56:	3362                	fld	ft6,56(sp)
  58:	385f 5c5c 6562      	0x65625c5c385f
  5e:	6f6e                	ld	t5,216(sp)
  60:	72730073          	0x72730073
  64:	656b2f63          	0x656b2f63
  68:	6e72                	ld	t3,280(sp)
  6a:	6c65                	lui	s8,0x19
  6c:	632e                	ld	t1,200(sp)
  6e:	7600                	ld	s0,40(a2)
  70:	6c61                	lui	s8,0x18
  72:	0031                	c.nop	12
  74:	6f6c                	ld	a1,216(a4)
  76:	676e                	ld	a4,216(sp)
  78:	6c20                	ld	s0,88(s0)
  7a:	20676e6f          	jal	t3,76280 <bss_begin+0x51280>
  7e:	6e75                	lui	t3,0x1d
  80:	6e676973          	csrrsi	s2,0x6e6,14
  84:	6465                	lui	s0,0x19
  86:	6920                	ld	s0,80(a0)
  88:	746e                	ld	s0,248(sp)
  8a:	6100                	ld	s0,0(a0)
  8c:	745f6d73          	csrrsi	s10,0x745,30
  90:	7365                	lui	t1,0xffff9
  92:	0074                	addi	a3,sp,12
  94:	6e75                	lui	t3,0x1d
  96:	6e676973          	csrrsi	s2,0x6e6,14
  9a:	6465                	lui	s0,0x19
  9c:	6320                	ld	s0,64(a4)
  9e:	6168                	ld	a0,192(a0)
  a0:	0072                	c.slli	zero,0x1c
  a2:	6e72656b          	0x6e72656b
  a6:	6c65                	lui	s8,0x19
  a8:	6d5f 6961 006e      	0x6e69616d5f
  ae:	726f6873          	csrrsi	a6,0x726,30
  b2:	2074                	fld	fa3,192(s0)
  b4:	6e75                	lui	t3,0x1d
  b6:	6e676973          	csrrsi	s2,0x6e6,14
  ba:	6465                	lui	s0,0x19
  bc:	6920                	ld	s0,80(a0)
  be:	746e                	ld	s0,248(sp)
  c0:	4700                	lw	s0,8(a4)
  c2:	554e                	lw	a0,240(sp)
  c4:	4320                	lw	s0,64(a4)
  c6:	3731                	addiw	a4,a4,-20
  c8:	3120                	fld	fs0,96(a0)
  ca:	2e30                	fld	fa2,88(a2)
  cc:	2e32                	fld	ft8,264(sp)
  ce:	2030                	fld	fa2,64(s0)
  d0:	6d2d                	lui	s10,0xb
  d2:	646f6d63          	bltu	t5,t1,72c <_start-0x218d4>
  d6:	6c65                	lui	s8,0x19
  d8:	6d3d                	lui	s10,0xf
  da:	6465                	lui	s0,0x19
  dc:	6e61                	lui	t3,0x18
  de:	2079                	0x2079
  e0:	6d2d                	lui	s10,0xb
  e2:	6261                	lui	tp,0x18
  e4:	3d69                	addiw	s10,s10,-6
  e6:	706c                	ld	a1,224(s0)
  e8:	3436                	fld	fs0,360(sp)
  ea:	2d20                	fld	fs0,88(a0)
  ec:	616d                	addi	sp,sp,240
  ee:	6372                	ld	t1,280(sp)
  f0:	3d68                	fld	fa0,248(a0)
  f2:	7672                	ld	a2,312(sp)
  f4:	3436                	fld	fs0,360(sp)
  f6:	6d69                	lui	s10,0x1a
  f8:	6661                	lui	a2,0x18
  fa:	2064                	fld	fs1,192(s0)
  fc:	672d                	lui	a4,0xb
  fe:	2d20                	fld	fs0,88(a0)
 100:	2d20304f          	fnmadd.h	ft0,ft0,fs2,ft5,rup
 104:	6e66                	ld	t3,88(sp)
 106:	49502d6f          	jal	s10,2d9a <_start-0x1f266>
 10a:	2045                	0x2045
 10c:	662d                	lui	a2,0xb
 10e:	74696d6f          	jal	s10,96854 <bss_begin+0x71854>
 112:	662d                	lui	a2,0xb
 114:	6172                	ld	sp,280(sp)
 116:	656d                	lui	a0,0x1b
 118:	702d                	c.lui	zero,0xfffeb
 11a:	746e696f          	jal	s2,e6860 <bss_begin+0xc1860>
 11e:	7265                	lui	tp,0xffff9
 120:	7600                	ld	s0,40(a2)
 122:	6c61                	lui	s8,0x18
 124:	0032                	c.slli	zero,0xc
 126:	726f6873          	csrrsi	a6,0x726,30
 12a:	2074                	fld	fa3,192(s0)
 12c:	6e69                	lui	t3,0x1a
 12e:	0074                	addi	a3,sp,12
 130:	657a6973          	csrrsi	s2,0x657,20
 134:	745f 6100 696c      	0x696c6100745f
 13a:	73006e67          	0x73006e67
 13e:	6372                	ld	t1,280(sp)
 140:	6d656d2f          	0x6d656d2f
 144:	2e746573          	csrrsi	a0,0x2e7,8
 148:	656c0063          	beq	s8,s6,788 <_start-0x21878>
 14c:	7466                	ld	s0,120(sp)
 14e:	6400                	ld	s0,8(s0)
 150:	7461                	lui	s0,0xffff8
 152:	0061                	c.nop	24
 154:	5f5f 656d 736d      	0x736d656d5f5f
 15a:	7465                	lui	s0,0xffff9
 15c:	5f00                	lw	s0,56(a4)
 15e:	6d5f 6d65 6573      	0x65736d656d5f
 164:	5f74                	lw	a3,124(a4)
 166:	6231                	lui	tp,0xc
 168:	7479                	lui	s0,0xffffe
 16a:	7365                	lui	t1,0xffff9
 16c:	6100                	ld	s0,0(a0)
 16e:	6464                	ld	s1,200(s0)
 170:	6572                	ld	a0,280(sp)
 172:	63007373          	csrrci	t1,0x630,0
 176:	746e756f          	jal	a0,e78bc <bss_begin+0xc28bc>
 17a:	5f00                	lw	s0,56(a4)
 17c:	6d5f 6d65 6573      	0x65736d656d5f
 182:	5f74                	lw	a3,124(a4)
 184:	3631                	addiw	a2,a2,-20
 186:	7962                	ld	s2,56(sp)
 188:	6574                	ld	a3,200(a0)
 18a:	6e695f73          	csrrwi	t5,0x6e6,18
 18e:	696c                	ld	a1,208(a0)
 190:	656e                	ld	a0,216(sp)
 192:	615f 6d73 7300      	0x73006d73615f
 198:	7a69                	lui	s4,0xffffa
 19a:	0065                	c.nop	25
 19c:	6176                	ld	sp,344(sp)
 19e:	756c                	ld	a1,232(a0)
 1a0:	0065                	c.nop	25
 1a2:	5f746573          	csrrsi	a0,shpmcounter23,8
 1a6:	6c70                	ld	a2,216(s0)
 1a8:	5f6c                	lw	a1,124(a4)
 1aa:	78757063          	bgeu	a0,t2,92a <_start-0x216d6>
 1ae:	615f 6978 7300      	0x73006978615f
 1b4:	7465                	lui	s0,0xffff9
 1b6:	615f 6270 7300      	0x73006270615f
 1bc:	7465                	lui	s0,0xffff9
 1be:	705f 6c6c 705f      	0x705f6c6c705f
 1c4:	7265                	lui	tp,0xffff9
 1c6:	7069                	c.lui	zero,0xffffa
 1c8:	3068                	fld	fa0,224(s0)
 1ca:	7300                	ld	s0,32(a4)
 1cc:	7465                	lui	s0,0xffff9
 1ce:	6d5f 646f 6c75      	0x6c75646f6d5f
 1d4:	0065                	c.nop	25
 1d6:	6461                	lui	s0,0x18
 1d8:	7264                	ld	s1,224(a2)
 1da:	7300                	ld	s0,32(a4)
 1dc:	7465                	lui	s0,0xffff9
 1de:	6d5f 7562 0073      	0x7375626d5f
 1e4:	6572                	ld	a0,280(sp)
 1e6:	6461                	lui	s0,0x18
 1e8:	76003233          	0x76003233
 1ec:	7269                	lui	tp,0xffffa
 1ee:	7574                	ld	a3,232(a0)
 1f0:	6c61                	lui	s8,0x18
 1f2:	615f 6464 5f72      	0x5f726464615f
 1f8:	0074                	addi	a3,sp,12
 1fa:	3375                	addiw	t1,t1,-3
 1fc:	5f32                	lw	t5,44(sp)
 1fe:	0074                	addi	a3,sp,12
 200:	5f746573          	csrrsi	a0,shpmcounter23,8
 204:	6d64                	ld	s1,216(a0)
 206:	0061                	c.nop	24
 208:	6c656473          	csrrsi	s0,0x6c6,10
 20c:	7961                	lui	s2,0xffff8
 20e:	7700                	ld	s0,40(a4)
 210:	6972                	ld	s2,280(sp)
 212:	6574                	ld	a3,200(a0)
 214:	75003233          	0x75003233
 218:	6e69                	lui	t3,0x1a
 21a:	3374                	fld	fa3,224(a4)
 21c:	5f32                	lw	t5,44(sp)
 21e:	0074                	addi	a3,sp,12
 220:	2f637273          	csrrci	tp,0x2f6,6
 224:	2d737973          	csrrci	s2,0x2d7,6
 228:	636f6c63          	bltu	t5,s6,860 <_start-0x217a0>
 22c:	00632e6b          	0x632e6b
 230:	5f746573          	csrrsi	a0,shpmcounter23,8
 234:	6861                	lui	a6,0x18
 236:	0062                	c.slli	zero,0x18
 238:	5f737973          	csrrci	s2,shpmcounter23,6
 23c:	636f6c63          	bltu	t5,s6,874 <_start-0x2178c>
 240:	6e695f6b          	0x6e695f6b
 244:	7469                	lui	s0,0xffffa
 246:	5f00                	lw	s0,56(a4)
 248:	625f 6975 746c      	0x746c6975625f
 24e:	6e69                	lui	t3,0x1a
 250:	765f 5f61 696c      	0x696c5f61765f
 256:	75007473          	csrrci	s0,0x750,0
 25a:	7261                	lui	tp,0xffff8
 25c:	5f74                	lw	a3,124(a4)
 25e:	6e69                	lui	t3,0x1a
 260:	7469                	lui	s0,0xffffa
 262:	7000                	ld	s0,32(s0)
 264:	6972                	ld	s2,280(sp)
 266:	746e                	ld	s0,248(sp)
 268:	685f 7865 7500      	0x75007865685f
 26e:	7261                	lui	tp,0xffff8
 270:	5f74                	lw	a3,124(a4)
 272:	646e6573          	csrrsi	a0,0x646,28
 276:	735f 7274 6e69      	0x6e697274735f
 27c:	70760067          	jr	1799(a2) # b707 <_start-0x168f9>
 280:	5f66                	lw	t5,120(sp)
 282:	5f727473          	csrrci	s0,shpmcounter23,4
 286:	6f74                	ld	a3,216(a4)
 288:	6e5f 6d75 7300      	0x73006d756e5f
 28e:	6372                	ld	t1,280(sp)
 290:	7379732f          	0x7379732f
 294:	752d                	lui	a0,0xfffeb
 296:	7261                	lui	tp,0xffff8
 298:	2e74                	fld	fa3,216(a2)
 29a:	61620063          	beq	tp,s6,89a <_start-0x21766>
 29e:	75006573          	csrrsi	a0,0x750,0
 2a2:	5f38                	lw	a4,120(a4)
 2a4:	0074                	addi	a3,sp,12
 2a6:	6175                	addi	sp,sp,368
 2a8:	7472                	ld	s0,312(sp)
 2aa:	725f 6365 0076      	0x766365725f
 2b0:	5f737973          	csrrci	s2,shpmcounter23,6
 2b4:	6175                	addi	sp,sp,368
 2b6:	7472                	ld	s0,312(sp)
 2b8:	705f 6972 746e      	0x746e6972705f
 2be:	0066                	c.slli	zero,0x19
 2c0:	6962                	ld	s2,24(sp)
 2c2:	7374                	ld	a3,224(a4)
 2c4:	7500                	ld	s0,40(a0)
 2c6:	7261                	lui	tp,0xffff8
 2c8:	5f74                	lw	a3,124(a4)
 2ca:	646e6573          	csrrsi	a0,0x646,28
 2ce:	7600                	ld	s0,40(a2)
 2d0:	6670                	ld	a2,200(a2)
 2d2:	6e5f 6d75 745f      	0x745f6d756e5f
 2d8:	74735f6f          	jal	t5,3621e <bss_begin+0x1121e>
 2dc:	0072                	c.slli	zero,0x1c
 2de:	6572                	ld	a0,280(sp)
 2e0:	6461                	lui	s0,0x18
 2e2:	0038                	addi	a4,sp,8
 2e4:	2f637273          	csrrci	tp,0x2f6,6
 2e8:	7361                	lui	t1,0xffff8
 2ea:	5f6d                	li	t5,-5
 2ec:	6574                	ld	a3,200(a0)
 2ee:	532e7473          	csrrci	s0,0x532,28
 2f2:	4500                	lw	s0,8(a0)
 2f4:	5c3a                	lw	s8,172(sp)
 2f6:	3164                	fld	fs1,224(a0)
 2f8:	72705f73          	csrrwi	t5,0x727,0
 2fc:	63656a6f          	jal	s4,56932 <bss_begin+0x31932>
 300:	7374                	ld	a3,224(a4)
 302:	725c                	ld	a5,160(a2)
 304:	7369                	lui	t1,0xffffa
 306:	705f7663          	bgeu	t5,t0,a12 <_start-0x215ee>
 30a:	6f72                	ld	t5,280(sp)
 30c:	6d617267          	0x6d617267
 310:	696d                	lui	s2,0x1b
 312:	676e                	ld	a4,216(sp)
 314:	705f 6172 7463      	0x74636172705f
 31a:	6369                	lui	t1,0x1a
 31c:	2d65                	addiw	s10,s10,25
 31e:	6f66                	ld	t5,88(sp)
 320:	2d72                	fld	fs10,280(sp)
 322:	6f64                	ld	s1,216(a4)
 324:	676e                	ld	a4,216(sp)
 326:	6e616873          	csrrsi	a6,0x6e6,2
 32a:	635c                	ld	a5,128(a4)
 32c:	6168                	ld	a0,192(a0)
 32e:	7470                	ld	a2,232(s0)
 330:	7265                	lui	tp,0xffff9
 332:	335f 6c5c 6261      	0x62616c5c335f
 338:	5c385f33          	0x5c385f33
 33c:	6562                	ld	a0,24(sp)
 33e:	6f6e                	ld	t5,216(sp)
 340:	4e470073          	0x4e470073
 344:	2055                	0x2055
 346:	5341                	li	t1,-16
 348:	3220                	fld	fs0,96(a2)
 34a:	332e                	fld	ft6,232(sp)
 34c:	0035                	c.nop	13
 34e:	2f637273          	csrrci	tp,0x2f6,6
 352:	6f62                	ld	t5,24(sp)
 354:	532e746f          	jal	s0,e7886 <bss_begin+0xc2886>
 358:	7300                	ld	s0,32(a4)
 35a:	6372                	ld	t1,280(sp)
 35c:	7261652f          	0x7261652f
 360:	796c                	ld	a1,240(a0)
 362:	705f 6972 746e      	0x746e6972705f
 368:	00532e6b          	0x532e6b
 36c:	2f637273          	csrrci	tp,0x2f6,6
 370:	656d                	lui	a0,0x1b
 372:	736d                	lui	t1,0xffffb
 374:	7465                	lui	s0,0xffff9
 376:	532e                	lw	t1,232(sp)
	...

Disassembly of section .comment:

0000000000000000 <.comment>:
   0:	3a434347          	fmsub.d	ft6,ft6,ft4,ft7,rmm
   4:	2820                	fld	fs0,80(s0)
   6:	7558                	ld	a4,168(a0)
   8:	6e61                	lui	t3,0x18
   a:	6974                	ld	a3,208(a0)
   c:	2d65                	addiw	s10,s10,25
   e:	3039                	0x3039
  10:	2030                	fld	fa2,64(s0)
  12:	6c65                	lui	s8,0x19
  14:	2066                	fld	ft0,88(sp)
  16:	656e                	ld	a0,216(sp)
  18:	62696c77          	0x62696c77
  1c:	6720                	ld	s0,72(a4)
  1e:	54206363          	bltu	zero,sp,564 <_start-0x21a9c>
  22:	636c6f6f          	jal	t5,c6658 <bss_begin+0xa1658>
  26:	6168                	ld	a0,192(a0)
  28:	6e69                	lui	t3,0x1a
  2a:	5620                	lw	s0,104(a2)
  2c:	2e32                	fld	ft8,264(sp)
  2e:	2e36                	fld	ft8,328(sp)
  30:	2031                	0x2031
  32:	2d42                	fld	fs10,16(sp)
  34:	3032                	fld	ft0,296(sp)
  36:	3232                	fld	ft4,296(sp)
  38:	3930                	fld	fa2,112(a0)
  3a:	3630                	fld	fa2,104(a2)
  3c:	2029                	0x2029
  3e:	3031                	0x3031
  40:	322e                	fld	ft4,232(sp)
  42:	302e                	fld	ft0,232(sp)
	...

Disassembly of section .riscv.attributes:

0000000000000000 <.riscv.attributes>:
   0:	3341                	addiw	t1,t1,-16
   2:	0000                	unimp
   4:	7200                	ld	s0,32(a2)
   6:	7369                	lui	t1,0xffffa
   8:	01007663          	bgeu	zero,a6,14 <_start-0x21fec>
   c:	0029                	c.nop	10
   e:	0000                	unimp
  10:	1004                	addi	s1,sp,32
  12:	7205                	lui	tp,0xfffe1
  14:	3676                	fld	fa2,376(sp)
  16:	6934                	ld	a3,80(a0)
  18:	7032                	0x7032
  1a:	5f30                	lw	a2,120(a4)
  1c:	326d                	addiw	tp,tp,-5
  1e:	3070                	fld	fa2,224(s0)
  20:	615f 7032 5f30      	0x5f307032615f
  26:	3266                	fld	ft4,120(sp)
  28:	3070                	fld	fa2,224(s0)
  2a:	645f 7032 0030      	0x307032645f
  30:	0108                	addi	a0,sp,128
  32:	0b0a                	slli	s6,s6,0x2

Disassembly of section .debug_frame:

0000000000000000 <.debug_frame>:
   0:	000c                	0xc
   2:	0000                	unimp
   4:	ffffffff          	0xffffffff
   8:	7c010003          	lb	zero,1984(sp)
   c:	0d01                	addi	s10,s10,0
   e:	0002                	c.slli64	zero
  10:	0024                	addi	s1,sp,8
  12:	0000                	unimp
  14:	0000                	unimp
  16:	0000                	unimp
  18:	2040                	fld	fs0,128(s0)
  1a:	0002                	c.slli64	zero
  1c:	0000                	unimp
  1e:	0000                	unimp
  20:	0108                	addi	a0,sp,128
  22:	0000                	unimp
  24:	0000                	unimp
  26:	0000                	unimp
  28:	0e44                	addi	s1,sp,788
  2a:	4420                	lw	s0,72(s0)
  2c:	0281                	addi	t0,t0,0
  2e:	c100f803          	0xc100f803
  32:	0e44                	addi	s1,sp,788
  34:	0000                	unimp
  36:	0000                	unimp
  38:	001c                	0x1c
  3a:	0000                	unimp
  3c:	0000                	unimp
  3e:	0000                	unimp
  40:	2148                	fld	fa0,128(a0)
  42:	0002                	c.slli64	zero
  44:	0000                	unimp
  46:	0000                	unimp
  48:	0024                	addi	s1,sp,8
  4a:	0000                	unimp
  4c:	0000                	unimp
  4e:	0000                	unimp
  50:	0e44                	addi	s1,sp,788
  52:	4410                	lw	a2,8(s0)
  54:	0281                	addi	t0,t0,0
  56:	0000                	unimp
  58:	000c                	0xc
  5a:	0000                	unimp
  5c:	ffffffff          	0xffffffff
  60:	7c010003          	lb	zero,1984(sp)
  64:	0d01                	addi	s10,s10,0
  66:	0002                	c.slli64	zero
  68:	001c                	0x1c
  6a:	0000                	unimp
  6c:	0058                	addi	a4,sp,4
  6e:	0000                	unimp
  70:	216c                	fld	fa1,192(a0)
  72:	0002                	c.slli64	zero
  74:	0000                	unimp
  76:	0000                	unimp
  78:	0050                	addi	a2,sp,4
  7a:	0000                	unimp
  7c:	0000                	unimp
  7e:	0000                	unimp
  80:	0e44                	addi	s1,sp,788
  82:	0230                	addi	a2,sp,264
  84:	0e48                	addi	a0,sp,788
  86:	0000                	unimp
  88:	001c                	0x1c
  8a:	0000                	unimp
  8c:	0058                	addi	a4,sp,4
  8e:	0000                	unimp
  90:	21bc                	fld	fa5,64(a1)
  92:	0002                	c.slli64	zero
  94:	0000                	unimp
  96:	0000                	unimp
  98:	0058                	addi	a4,sp,4
  9a:	0000                	unimp
  9c:	0000                	unimp
  9e:	0000                	unimp
  a0:	0e44                	addi	s1,sp,788
  a2:	0230                	addi	a2,sp,264
  a4:	0e50                	addi	a2,sp,788
  a6:	0000                	unimp
  a8:	0024                	addi	s1,sp,8
  aa:	0000                	unimp
  ac:	0058                	addi	a4,sp,4
  ae:	0000                	unimp
  b0:	2214                	fld	fa3,0(a2)
  b2:	0002                	c.slli64	zero
  b4:	0000                	unimp
  b6:	0000                	unimp
  b8:	0180                	addi	s0,sp,192
  ba:	0000                	unimp
  bc:	0000                	unimp
  be:	0000                	unimp
  c0:	0e44                	addi	s1,sp,788
  c2:	4470                	lw	a2,76(s0)
  c4:	0281                	addi	t0,t0,0
  c6:	c1017003          	0xc1017003
  ca:	0e44                	addi	s1,sp,788
  cc:	0000                	unimp
  ce:	0000                	unimp
  d0:	0024                	addi	s1,sp,8
  d2:	0000                	unimp
  d4:	0058                	addi	a4,sp,4
  d6:	0000                	unimp
  d8:	2394                	fld	fa3,0(a5)
  da:	0002                	c.slli64	zero
  dc:	0000                	unimp
  de:	0000                	unimp
  e0:	0040                	addi	s0,sp,4
  e2:	0000                	unimp
  e4:	0000                	unimp
  e6:	0000                	unimp
  e8:	0e44                	addi	s1,sp,788
  ea:	4430                	lw	a2,72(s0)
  ec:	0281                	addi	t0,t0,0
  ee:	c170                	sw	a2,68(a0)
  f0:	0e44                	addi	s1,sp,788
  f2:	0000                	unimp
  f4:	0000                	unimp
  f6:	0000                	unimp
  f8:	000c                	0xc
  fa:	0000                	unimp
  fc:	ffffffff          	0xffffffff
 100:	7c010003          	lb	zero,1984(sp)
 104:	0d01                	addi	s10,s10,0
 106:	0002                	c.slli64	zero
 108:	001c                	0x1c
 10a:	0000                	unimp
 10c:	00f8                	addi	a4,sp,76
 10e:	0000                	unimp
 110:	23d4                	fld	fa3,128(a5)
 112:	0002                	c.slli64	zero
 114:	0000                	unimp
 116:	0000                	unimp
 118:	0020                	addi	s0,sp,8
 11a:	0000                	unimp
 11c:	0000                	unimp
 11e:	0000                	unimp
 120:	0e44                	addi	s1,sp,788
 122:	5810                	lw	a2,48(s0)
 124:	000e                	c.slli	zero,0x3
 126:	0000                	unimp
 128:	001c                	0x1c
 12a:	0000                	unimp
 12c:	00f8                	addi	a4,sp,76
 12e:	0000                	unimp
 130:	23f4                	fld	fa3,192(a5)
 132:	0002                	c.slli64	zero
 134:	0000                	unimp
 136:	0000                	unimp
 138:	0028                	addi	a0,sp,8
 13a:	0000                	unimp
 13c:	0000                	unimp
 13e:	0000                	unimp
 140:	0e44                	addi	s1,sp,788
 142:	6010                	ld	a2,0(s0)
 144:	000e                	c.slli	zero,0x3
 146:	0000                	unimp
 148:	001c                	0x1c
 14a:	0000                	unimp
 14c:	00f8                	addi	a4,sp,76
 14e:	0000                	unimp
 150:	241c                	fld	fa5,8(s0)
 152:	0002                	c.slli64	zero
 154:	0000                	unimp
 156:	0000                	unimp
 158:	0038                	addi	a4,sp,8
 15a:	0000                	unimp
 15c:	0000                	unimp
 15e:	0000                	unimp
 160:	0e44                	addi	s1,sp,788
 162:	7010                	ld	a2,32(s0)
 164:	000e                	c.slli	zero,0x3
 166:	0000                	unimp
 168:	0024                	addi	s1,sp,8
 16a:	0000                	unimp
 16c:	00f8                	addi	a4,sp,76
 16e:	0000                	unimp
 170:	2454                	fld	fa3,136(s0)
 172:	0002                	c.slli64	zero
 174:	0000                	unimp
 176:	0000                	unimp
 178:	0238                	addi	a4,sp,264
 17a:	0000                	unimp
 17c:	0000                	unimp
 17e:	0000                	unimp
 180:	0e44                	addi	s1,sp,788
 182:	4420                	lw	s0,72(s0)
 184:	0281                	addi	t0,t0,0
 186:	c1022803          	lw	a6,-1008(tp) # fffffffffffe0c10 <bss_begin+0xfffffffffffbbc10>
 18a:	0e44                	addi	s1,sp,788
 18c:	0000                	unimp
 18e:	0000                	unimp
 190:	0024                	addi	s1,sp,8
 192:	0000                	unimp
 194:	00f8                	addi	a4,sp,76
 196:	0000                	unimp
 198:	268c                	fld	fa1,8(a3)
 19a:	0002                	c.slli64	zero
 19c:	0000                	unimp
 19e:	0000                	unimp
 1a0:	0168                	addi	a0,sp,140
 1a2:	0000                	unimp
 1a4:	0000                	unimp
 1a6:	0000                	unimp
 1a8:	0e44                	addi	s1,sp,788
 1aa:	4420                	lw	s0,72(s0)
 1ac:	0281                	addi	t0,t0,0
 1ae:	c1015803          	lhu	a6,-1008(sp)
 1b2:	0e44                	addi	s1,sp,788
 1b4:	0000                	unimp
 1b6:	0000                	unimp
 1b8:	0024                	addi	s1,sp,8
 1ba:	0000                	unimp
 1bc:	00f8                	addi	a4,sp,76
 1be:	0000                	unimp
 1c0:	27f4                	fld	fa3,200(a5)
 1c2:	0002                	c.slli64	zero
 1c4:	0000                	unimp
 1c6:	0000                	unimp
 1c8:	0064                	addi	s1,sp,12
 1ca:	0000                	unimp
 1cc:	0000                	unimp
 1ce:	0000                	unimp
 1d0:	0e44                	addi	s1,sp,788
 1d2:	4410                	lw	a2,8(s0)
 1d4:	0281                	addi	t0,t0,0
 1d6:	5402                	lw	s0,32(sp)
 1d8:	44c1                	li	s1,16
 1da:	000e                	c.slli	zero,0x3
 1dc:	0000                	unimp
 1de:	0000                	unimp
 1e0:	0024                	addi	s1,sp,8
 1e2:	0000                	unimp
 1e4:	00f8                	addi	a4,sp,76
 1e6:	0000                	unimp
 1e8:	2858                	fld	fa4,144(s0)
 1ea:	0002                	c.slli64	zero
 1ec:	0000                	unimp
 1ee:	0000                	unimp
 1f0:	0064                	addi	s1,sp,12
 1f2:	0000                	unimp
 1f4:	0000                	unimp
 1f6:	0000                	unimp
 1f8:	0e44                	addi	s1,sp,788
 1fa:	4410                	lw	a2,8(s0)
 1fc:	0281                	addi	t0,t0,0
 1fe:	5402                	lw	s0,32(sp)
 200:	44c1                	li	s1,16
 202:	000e                	c.slli	zero,0x3
 204:	0000                	unimp
 206:	0000                	unimp
 208:	0024                	addi	s1,sp,8
 20a:	0000                	unimp
 20c:	00f8                	addi	a4,sp,76
 20e:	0000                	unimp
 210:	28bc                	fld	fa5,80(s1)
 212:	0002                	c.slli64	zero
 214:	0000                	unimp
 216:	0000                	unimp
 218:	0080                	addi	s0,sp,64
 21a:	0000                	unimp
 21c:	0000                	unimp
 21e:	0000                	unimp
 220:	0e44                	addi	s1,sp,788
 222:	4410                	lw	a2,8(s0)
 224:	0281                	addi	t0,t0,0
 226:	7002                	0x7002
 228:	44c1                	li	s1,16
 22a:	000e                	c.slli	zero,0x3
 22c:	0000                	unimp
 22e:	0000                	unimp
 230:	0024                	addi	s1,sp,8
 232:	0000                	unimp
 234:	00f8                	addi	a4,sp,76
 236:	0000                	unimp
 238:	293c                	fld	fa5,80(a0)
 23a:	0002                	c.slli64	zero
 23c:	0000                	unimp
 23e:	0000                	unimp
 240:	0058                	addi	a4,sp,4
 242:	0000                	unimp
 244:	0000                	unimp
 246:	0000                	unimp
 248:	0e44                	addi	s1,sp,788
 24a:	4420                	lw	s0,72(s0)
 24c:	0281                	addi	t0,t0,0
 24e:	4802                	lw	a6,0(sp)
 250:	44c1                	li	s1,16
 252:	000e                	c.slli	zero,0x3
 254:	0000                	unimp
 256:	0000                	unimp
 258:	0024                	addi	s1,sp,8
 25a:	0000                	unimp
 25c:	00f8                	addi	a4,sp,76
 25e:	0000                	unimp
 260:	2994                	fld	fa3,16(a1)
 262:	0002                	c.slli64	zero
 264:	0000                	unimp
 266:	0000                	unimp
 268:	00f4                	addi	a3,sp,76
 26a:	0000                	unimp
 26c:	0000                	unimp
 26e:	0000                	unimp
 270:	0e44                	addi	s1,sp,788
 272:	4430                	lw	a2,72(s0)
 274:	0281                	addi	t0,t0,0
 276:	c100e403          	lwu	s0,-1008(ra) # fffffffffffe3c10 <bss_begin+0xfffffffffffbec10>
 27a:	0e44                	addi	s1,sp,788
 27c:	0000                	unimp
 27e:	0000                	unimp
 280:	0024                	addi	s1,sp,8
 282:	0000                	unimp
 284:	00f8                	addi	a4,sp,76
 286:	0000                	unimp
 288:	2a88                	fld	fa0,16(a3)
 28a:	0002                	c.slli64	zero
 28c:	0000                	unimp
 28e:	0000                	unimp
 290:	0078                	addi	a4,sp,12
 292:	0000                	unimp
 294:	0000                	unimp
 296:	0000                	unimp
 298:	0e44                	addi	s1,sp,788
 29a:	4410                	lw	a2,8(s0)
 29c:	0281                	addi	t0,t0,0
 29e:	6802                	ld	a6,0(sp)
 2a0:	44c1                	li	s1,16
 2a2:	000e                	c.slli	zero,0x3
 2a4:	0000                	unimp
 2a6:	0000                	unimp
 2a8:	000c                	0xc
 2aa:	0000                	unimp
 2ac:	ffffffff          	0xffffffff
 2b0:	7c010003          	lb	zero,1984(sp)
 2b4:	0d01                	addi	s10,s10,0
 2b6:	0002                	c.slli64	zero
 2b8:	001c                	0x1c
 2ba:	0000                	unimp
 2bc:	02a8                	addi	a0,sp,328
 2be:	0000                	unimp
 2c0:	2b00                	fld	fs0,16(a4)
 2c2:	0002                	c.slli64	zero
 2c4:	0000                	unimp
 2c6:	0000                	unimp
 2c8:	0020                	addi	s0,sp,8
 2ca:	0000                	unimp
 2cc:	0000                	unimp
 2ce:	0000                	unimp
 2d0:	0e44                	addi	s1,sp,788
 2d2:	5810                	lw	a2,48(s0)
 2d4:	000e                	c.slli	zero,0x3
 2d6:	0000                	unimp
 2d8:	001c                	0x1c
 2da:	0000                	unimp
 2dc:	02a8                	addi	a0,sp,328
 2de:	0000                	unimp
 2e0:	2b20                	fld	fs0,80(a4)
 2e2:	0002                	c.slli64	zero
 2e4:	0000                	unimp
 2e6:	0000                	unimp
 2e8:	0020                	addi	s0,sp,8
 2ea:	0000                	unimp
 2ec:	0000                	unimp
 2ee:	0000                	unimp
 2f0:	0e44                	addi	s1,sp,788
 2f2:	5810                	lw	a2,48(s0)
 2f4:	000e                	c.slli	zero,0x3
 2f6:	0000                	unimp
 2f8:	001c                	0x1c
 2fa:	0000                	unimp
 2fc:	02a8                	addi	a0,sp,328
 2fe:	0000                	unimp
 300:	2b40                	fld	fs0,144(a4)
 302:	0002                	c.slli64	zero
 304:	0000                	unimp
 306:	0000                	unimp
 308:	0028                	addi	a0,sp,8
 30a:	0000                	unimp
 30c:	0000                	unimp
 30e:	0000                	unimp
 310:	0e44                	addi	s1,sp,788
 312:	6010                	ld	a2,0(s0)
 314:	000e                	c.slli	zero,0x3
 316:	0000                	unimp
 318:	0024                	addi	s1,sp,8
 31a:	0000                	unimp
 31c:	02a8                	addi	a0,sp,328
 31e:	0000                	unimp
 320:	2b68                	fld	fa0,208(a4)
 322:	0002                	c.slli64	zero
 324:	0000                	unimp
 326:	0000                	unimp
 328:	0240                	addi	s0,sp,260
 32a:	0000                	unimp
 32c:	0000                	unimp
 32e:	0000                	unimp
 330:	0e44                	addi	s1,sp,788
 332:	4420                	lw	s0,72(s0)
 334:	0281                	addi	t0,t0,0
 336:	c1023003          	ld	zero,-1008(tp) # fffffffffffffc10 <bss_begin+0xfffffffffffdac10>
 33a:	0e44                	addi	s1,sp,788
 33c:	0000                	unimp
 33e:	0000                	unimp
 340:	0024                	addi	s1,sp,8
 342:	0000                	unimp
 344:	02a8                	addi	a0,sp,328
 346:	0000                	unimp
 348:	2da8                	fld	fa0,88(a1)
 34a:	0002                	c.slli64	zero
 34c:	0000                	unimp
 34e:	0000                	unimp
 350:	0064                	addi	s1,sp,12
 352:	0000                	unimp
 354:	0000                	unimp
 356:	0000                	unimp
 358:	0e44                	addi	s1,sp,788
 35a:	4430                	lw	a2,72(s0)
 35c:	0281                	addi	t0,t0,0
 35e:	5402                	lw	s0,32(sp)
 360:	44c1                	li	s1,16
 362:	000e                	c.slli	zero,0x3
 364:	0000                	unimp
 366:	0000                	unimp
 368:	0024                	addi	s1,sp,8
 36a:	0000                	unimp
 36c:	02a8                	addi	a0,sp,328
 36e:	0000                	unimp
 370:	2e0c                	fld	fa1,24(a2)
 372:	0002                	c.slli64	zero
 374:	0000                	unimp
 376:	0000                	unimp
 378:	0054                	addi	a3,sp,4
 37a:	0000                	unimp
 37c:	0000                	unimp
 37e:	0000                	unimp
 380:	0e44                	addi	s1,sp,788
 382:	4420                	lw	s0,72(s0)
 384:	0281                	addi	t0,t0,0
 386:	4402                	lw	s0,0(sp)
 388:	44c1                	li	s1,16
 38a:	000e                	c.slli	zero,0x3
 38c:	0000                	unimp
 38e:	0000                	unimp
 390:	0024                	addi	s1,sp,8
 392:	0000                	unimp
 394:	02a8                	addi	a0,sp,328
 396:	0000                	unimp
 398:	2e60                	fld	fs0,216(a2)
 39a:	0002                	c.slli64	zero
 39c:	0000                	unimp
 39e:	0000                	unimp
 3a0:	0060                	addi	s0,sp,12
 3a2:	0000                	unimp
 3a4:	0000                	unimp
 3a6:	0000                	unimp
 3a8:	0e44                	addi	s1,sp,788
 3aa:	4430                	lw	a2,72(s0)
 3ac:	0281                	addi	t0,t0,0
 3ae:	5002                	0x5002
 3b0:	44c1                	li	s1,16
 3b2:	000e                	c.slli	zero,0x3
 3b4:	0000                	unimp
 3b6:	0000                	unimp
 3b8:	001c                	0x1c
 3ba:	0000                	unimp
 3bc:	02a8                	addi	a0,sp,328
 3be:	0000                	unimp
 3c0:	2ec0                	fld	fs0,152(a3)
 3c2:	0002                	c.slli64	zero
 3c4:	0000                	unimp
 3c6:	0000                	unimp
 3c8:	00e4                	addi	s1,sp,76
 3ca:	0000                	unimp
 3cc:	0000                	unimp
 3ce:	0000                	unimp
 3d0:	0e44                	addi	s1,sp,788
 3d2:	0230                	addi	a2,sp,264
 3d4:	0edc                	addi	a5,sp,852
 3d6:	0000                	unimp
 3d8:	0024                	addi	s1,sp,8
 3da:	0000                	unimp
 3dc:	02a8                	addi	a0,sp,328
 3de:	0000                	unimp
 3e0:	2fa4                	fld	fs1,88(a5)
 3e2:	0002                	c.slli64	zero
 3e4:	0000                	unimp
 3e6:	0000                	unimp
 3e8:	01bc                	addi	a5,sp,200
 3ea:	0000                	unimp
 3ec:	0000                	unimp
 3ee:	0000                	unimp
 3f0:	0e44                	addi	s1,sp,788
 3f2:	4450                	lw	a2,12(s0)
 3f4:	0281                	addi	t0,t0,0
 3f6:	c101ac03          	lw	s8,-1008(gp)
 3fa:	0e44                	addi	s1,sp,788
 3fc:	0000                	unimp
 3fe:	0000                	unimp
 400:	0024                	addi	s1,sp,8
 402:	0000                	unimp
 404:	02a8                	addi	a0,sp,328
 406:	0000                	unimp
 408:	3160                	fld	fs0,224(a0)
 40a:	0002                	c.slli64	zero
 40c:	0000                	unimp
 40e:	0000                	unimp
 410:	01c8                	addi	a0,sp,196
 412:	0000                	unimp
 414:	0000                	unimp
 416:	0000                	unimp
 418:	0e44                	addi	s1,sp,788
 41a:	4450                	lw	a2,12(s0)
 41c:	0281                	addi	t0,t0,0
 41e:	c101b803          	ld	a6,-1008(gp)
 422:	0e44                	addi	s1,sp,788
 424:	0000                	unimp
 426:	0000                	unimp
 428:	0024                	addi	s1,sp,8
 42a:	0000                	unimp
 42c:	02a8                	addi	a0,sp,328
 42e:	0000                	unimp
 430:	3328                	fld	fa0,96(a4)
 432:	0002                	c.slli64	zero
 434:	0000                	unimp
 436:	0000                	unimp
 438:	0060                	addi	s0,sp,12
 43a:	0000                	unimp
 43c:	0000                	unimp
 43e:	0000                	unimp
 440:	0e44                	addi	s1,sp,788
 442:	4470                	lw	a2,76(s0)
 444:	1281                	addi	t0,t0,-32
 446:	5002                	0x5002
 448:	44c1                	li	s1,16
 44a:	000e                	c.slli	zero,0x3
 44c:	0000                	unimp
 44e:	0000                	unimp
 450:	0024                	addi	s1,sp,8
 452:	0000                	unimp
 454:	02a8                	addi	a0,sp,328
 456:	0000                	unimp
 458:	3388                	fld	fa0,32(a5)
 45a:	0002                	c.slli64	zero
 45c:	0000                	unimp
 45e:	0000                	unimp
 460:	00c4                	addi	s1,sp,68
 462:	0000                	unimp
 464:	0000                	unimp
 466:	0000                	unimp
 468:	0e44                	addi	s1,sp,788
 46a:	4430                	lw	a2,72(s0)
 46c:	0281                	addi	t0,t0,0
 46e:	b402                	fsd	ft0,40(sp)
 470:	44c1                	li	s1,16
 472:	000e                	c.slli	zero,0x3
 474:	0000                	unimp
	...
