	.file	"sbi_trap.c"
	.option nopic
	.attribute arch, "rv64i2p0_m2p0_a2p0_f2p0_d2p0"
	.attribute unaligned_access, 0
	.attribute stack_align, 16
	.text
.Ltext0:
	.cfi_sections	.debug_frame
	.align	2
	.type	sbi_ecall_handle, @function
sbi_ecall_handle:
.LFB3:
	.file 1 "sbi/sbi_trap.c"
	.loc 1 8 1
	.cfi_startproc
	addi	sp,sp,-48
	.cfi_def_cfa_offset 48
	sd	ra,40(sp)
	sd	s0,32(sp)
	.cfi_offset 1, -8
	.cfi_offset 8, -16
	addi	s0,sp,48
	.cfi_def_cfa 8, 0
	mv	a5,a0
	sd	a1,-48(s0)
	sw	a5,-36(s0)
	.loc 1 9 6
	sw	zero,-20(s0)
	.loc 1 11 2
	lw	a5,-36(s0)
	sext.w	a4,a5
	li	a5,1
	bne	a4,a5,.L2
	.loc 1 13 15
	ld	a5,-48(s0)
	ld	a5,80(a5)
	.loc 1 13 3
	sext.w	a5,a5
	mv	a0,a5
	call	putchar
	.loc 1 14 7
	sw	zero,-20(s0)
	.loc 1 15 3
	nop
.L2:
	.loc 1 19 5
	lw	a5,-20(s0)
	sext.w	a5,a5
	bne	a5,zero,.L3
	.loc 1 20 14
	ld	a5,-48(s0)
	ld	a5,0(a5)
	addi	a4,a5,4
	ld	a5,-48(s0)
	sd	a4,0(a5)
.L3:
	.loc 1 22 9
	lw	a5,-20(s0)
	.loc 1 23 1
	mv	a0,a5
	ld	ra,40(sp)
	.cfi_restore 1
	ld	s0,32(sp)
	.cfi_restore 8
	.cfi_def_cfa 2, 48
	addi	sp,sp,48
	.cfi_def_cfa_offset 0
	jr	ra
	.cfi_endproc
.LFE3:
	.size	sbi_ecall_handle, .-sbi_ecall_handle
	.align	2
	.globl	sbi_trap_handler
	.type	sbi_trap_handler, @function
sbi_trap_handler:
.LFB4:
	.loc 1 26 1
	.cfi_startproc
	addi	sp,sp,-64
	.cfi_def_cfa_offset 64
	sd	ra,56(sp)
	sd	s0,48(sp)
	sd	s1,40(sp)
	.cfi_offset 1, -8
	.cfi_offset 8, -16
	.cfi_offset 9, -24
	addi	s0,sp,64
	.cfi_def_cfa 8, 0
	sd	a0,-56(s0)
.LBB2:
	.loc 1 27 56
 #APP
# 27 "sbi/sbi_trap.c" 1
	csrr a5, mcause
# 0 "" 2
 #NO_APP
	mv	s1,a5
	.loc 1 27 127
	mv	a5,s1
.LBE2:
	.loc 1 27 16
	sd	a5,-40(s0)
	.loc 1 28 16
	ld	a5,-56(s0)
	ld	a5,136(a5)
	sd	a5,-48(s0)
	.loc 1 30 2
	ld	a4,-40(s0)
	li	a5,9
	bne	a4,a5,.L8
	.loc 1 32 3
	ld	a5,-48(s0)
	sext.w	a5,a5
	ld	a1,-56(s0)
	mv	a0,a5
	call	sbi_ecall_handle
	.loc 1 33 3
	j	.L7
.L8:
	.loc 1 35 3
	nop
.L7:
	.loc 1 37 1
	nop
	ld	ra,56(sp)
	.cfi_restore 1
	ld	s0,48(sp)
	.cfi_restore 8
	.cfi_def_cfa 2, 64
	ld	s1,40(sp)
	.cfi_restore 9
	addi	sp,sp,64
	.cfi_def_cfa_offset 0
	jr	ra
	.cfi_endproc
.LFE4:
	.size	sbi_trap_handler, .-sbi_trap_handler
	.align	2
	.globl	sbi_trap_init
	.type	sbi_trap_init, @function
sbi_trap_init:
.LFB5:
	.loc 1 42 1
	.cfi_startproc
	addi	sp,sp,-32
	.cfi_def_cfa_offset 32
	sd	s0,24(sp)
	.cfi_offset 8, -8
	addi	s0,sp,32
	.cfi_def_cfa 8, 0
.LBB3:
	.loc 1 44 19
	lla	a5,sbi_exception_vector
	sd	a5,-24(s0)
	.loc 1 44 64
	ld	a5,-24(s0)
 #APP
# 44 "sbi/sbi_trap.c" 1
	csrw mtvec, a5
# 0 "" 2
 #NO_APP
.LBE3:
.LBB4:
	.loc 1 46 19
	sd	zero,-32(s0)
	.loc 1 46 45
	ld	a5,-32(s0)
 #APP
# 46 "sbi/sbi_trap.c" 1
	csrw mie, a5
# 0 "" 2
 #NO_APP
.LBE4:
	.loc 1 47 1
	nop
	ld	s0,24(sp)
	.cfi_restore 8
	.cfi_def_cfa 2, 32
	addi	sp,sp,32
	.cfi_def_cfa_offset 0
	jr	ra
	.cfi_endproc
.LFE5:
	.size	sbi_trap_init, .-sbi_trap_init
.Letext0:
	.file 2 "sbi/sbi_trap_regs.h"