
benos_payload.elf:     file format elf64-littleriscv


Disassembly of section .text.boot:

0000000000020000 <_start>:
   20000:	0300006f          	j	20030 <reset>
   20004:	4765                	li	a4,25
   20006:	422e4e4f          	fnmadd.d	ft8,ft8,ft2,fs0,rmm
   2000a:	3054                	fld	fa3,160(s0)
   2000c:	5678                	lw	a4,108(a2)
   2000e:	1234                	addi	a3,sp,296
   20010:	5000                	lw	s0,32(s0)
   20012:	0000                	unimp
   20014:	0030                	addi	a2,sp,8
   20016:	0000                	unimp
   20018:	30303033          	0x30303033
   2001c:	0000                	unimp
   2001e:	0002                	c.slli64	zero
   20020:	0000                	unimp
   20022:	0002                	c.slli64	zero
	...
   2002c:	2e34                	fld	fa3,88(a2)
   2002e:	0030                	addi	a2,sp,8

0000000000020030 <reset>:
   20030:	00001117          	auipc	sp,0x1
   20034:	fd010113          	addi	sp,sp,-48 # 21000 <stacks_start>
   20038:	000012b7          	lui	t0,0x1
   2003c:	00510133          	add	sp,sp,t0
   20040:	4a00006f          	j	204e0 <sbi_main>

Disassembly of section .text:

0000000000020044 <read_csr_num>:
   20044:	fd010113          	addi	sp,sp,-48
   20048:	02813423          	sd	s0,40(sp)
   2004c:	02913023          	sd	s1,32(sp)
   20050:	03010413          	addi	s0,sp,48
   20054:	00050793          	mv	a5,a0
   20058:	fcf42e23          	sw	a5,-36(s0)
   2005c:	fe043423          	sd	zero,-24(s0)
   20060:	fdc42783          	lw	a5,-36(s0)
   20064:	c607869b          	addiw	a3,a5,-928
   20068:	0006871b          	sext.w	a4,a3
   2006c:	01700793          	li	a5,23
   20070:	0ee7e463          	bltu	a5,a4,20158 <read_csr_num+0x114>
   20074:	02069793          	slli	a5,a3,0x20
   20078:	0207d793          	srli	a5,a5,0x20
   2007c:	00279713          	slli	a4,a5,0x2
   20080:	00000797          	auipc	a5,0x0
   20084:	53878793          	addi	a5,a5,1336 # 205b8 <sbi_main+0xd8>
   20088:	00f707b3          	add	a5,a4,a5
   2008c:	0007a783          	lw	a5,0(a5)
   20090:	0007871b          	sext.w	a4,a5
   20094:	00000797          	auipc	a5,0x0
   20098:	52478793          	addi	a5,a5,1316 # 205b8 <sbi_main+0xd8>
   2009c:	00f707b3          	add	a5,a4,a5
   200a0:	00078067          	jr	a5
   200a4:	3a0027f3          	csrr	a5,pmpcfg0
   200a8:	00078493          	mv	s1,a5
   200ac:	00048793          	mv	a5,s1
   200b0:	fef43423          	sd	a5,-24(s0)
   200b4:	0a80006f          	j	2015c <read_csr_num+0x118>
   200b8:	3b0027f3          	csrr	a5,pmpaddr0
   200bc:	00078493          	mv	s1,a5
   200c0:	00048793          	mv	a5,s1
   200c4:	fef43423          	sd	a5,-24(s0)
   200c8:	0940006f          	j	2015c <read_csr_num+0x118>
   200cc:	3b1027f3          	csrr	a5,pmpaddr1
   200d0:	00078493          	mv	s1,a5
   200d4:	00048793          	mv	a5,s1
   200d8:	fef43423          	sd	a5,-24(s0)
   200dc:	0800006f          	j	2015c <read_csr_num+0x118>
   200e0:	3b2027f3          	csrr	a5,pmpaddr2
   200e4:	00078493          	mv	s1,a5
   200e8:	00048793          	mv	a5,s1
   200ec:	fef43423          	sd	a5,-24(s0)
   200f0:	06c0006f          	j	2015c <read_csr_num+0x118>
   200f4:	3b3027f3          	csrr	a5,pmpaddr3
   200f8:	00078493          	mv	s1,a5
   200fc:	00048793          	mv	a5,s1
   20100:	fef43423          	sd	a5,-24(s0)
   20104:	0580006f          	j	2015c <read_csr_num+0x118>
   20108:	3b4027f3          	csrr	a5,pmpaddr4
   2010c:	00078493          	mv	s1,a5
   20110:	00048793          	mv	a5,s1
   20114:	fef43423          	sd	a5,-24(s0)
   20118:	0440006f          	j	2015c <read_csr_num+0x118>
   2011c:	3b5027f3          	csrr	a5,pmpaddr5
   20120:	00078493          	mv	s1,a5
   20124:	00048793          	mv	a5,s1
   20128:	fef43423          	sd	a5,-24(s0)
   2012c:	0300006f          	j	2015c <read_csr_num+0x118>
   20130:	3b6027f3          	csrr	a5,pmpaddr6
   20134:	00078493          	mv	s1,a5
   20138:	00048793          	mv	a5,s1
   2013c:	fef43423          	sd	a5,-24(s0)
   20140:	01c0006f          	j	2015c <read_csr_num+0x118>
   20144:	3b7027f3          	csrr	a5,pmpaddr7
   20148:	00078493          	mv	s1,a5
   2014c:	00048793          	mv	a5,s1
   20150:	fef43423          	sd	a5,-24(s0)
   20154:	0080006f          	j	2015c <read_csr_num+0x118>
   20158:	00000013          	nop
   2015c:	fe843783          	ld	a5,-24(s0)
   20160:	00078513          	mv	a0,a5
   20164:	02813403          	ld	s0,40(sp)
   20168:	02013483          	ld	s1,32(sp)
   2016c:	03010113          	addi	sp,sp,48
   20170:	00008067          	ret

0000000000020174 <write_csr_num>:
   20174:	f9010113          	addi	sp,sp,-112
   20178:	06813423          	sd	s0,104(sp)
   2017c:	07010413          	addi	s0,sp,112
   20180:	00050793          	mv	a5,a0
   20184:	f8b43823          	sd	a1,-112(s0)
   20188:	f8f42e23          	sw	a5,-100(s0)
   2018c:	f9c42783          	lw	a5,-100(s0)
   20190:	c607869b          	addiw	a3,a5,-928
   20194:	0006871b          	sext.w	a4,a3
   20198:	01700793          	li	a5,23
   2019c:	0ee7e463          	bltu	a5,a4,20284 <write_csr_num+0x110>
   201a0:	02069793          	slli	a5,a3,0x20
   201a4:	0207d793          	srli	a5,a5,0x20
   201a8:	00279713          	slli	a4,a5,0x2
   201ac:	00000797          	auipc	a5,0x0
   201b0:	46c78793          	addi	a5,a5,1132 # 20618 <sbi_main+0x138>
   201b4:	00f707b3          	add	a5,a4,a5
   201b8:	0007a783          	lw	a5,0(a5)
   201bc:	0007871b          	sext.w	a4,a5
   201c0:	00000797          	auipc	a5,0x0
   201c4:	45878793          	addi	a5,a5,1112 # 20618 <sbi_main+0x138>
   201c8:	00f707b3          	add	a5,a4,a5
   201cc:	00078067          	jr	a5
   201d0:	f9043783          	ld	a5,-112(s0)
   201d4:	faf43423          	sd	a5,-88(s0)
   201d8:	fa843783          	ld	a5,-88(s0)
   201dc:	3a079073          	csrw	pmpcfg0,a5
   201e0:	0a80006f          	j	20288 <write_csr_num+0x114>
   201e4:	f9043783          	ld	a5,-112(s0)
   201e8:	faf43823          	sd	a5,-80(s0)
   201ec:	fb043783          	ld	a5,-80(s0)
   201f0:	3b079073          	csrw	pmpaddr0,a5
   201f4:	0940006f          	j	20288 <write_csr_num+0x114>
   201f8:	f9043783          	ld	a5,-112(s0)
   201fc:	faf43c23          	sd	a5,-72(s0)
   20200:	fb843783          	ld	a5,-72(s0)
   20204:	3b179073          	csrw	pmpaddr1,a5
   20208:	0800006f          	j	20288 <write_csr_num+0x114>
   2020c:	f9043783          	ld	a5,-112(s0)
   20210:	fcf43023          	sd	a5,-64(s0)
   20214:	fc043783          	ld	a5,-64(s0)
   20218:	3b279073          	csrw	pmpaddr2,a5
   2021c:	06c0006f          	j	20288 <write_csr_num+0x114>
   20220:	f9043783          	ld	a5,-112(s0)
   20224:	fcf43423          	sd	a5,-56(s0)
   20228:	fc843783          	ld	a5,-56(s0)
   2022c:	3b379073          	csrw	pmpaddr3,a5
   20230:	0580006f          	j	20288 <write_csr_num+0x114>
   20234:	f9043783          	ld	a5,-112(s0)
   20238:	fcf43823          	sd	a5,-48(s0)
   2023c:	fd043783          	ld	a5,-48(s0)
   20240:	3b479073          	csrw	pmpaddr4,a5
   20244:	0440006f          	j	20288 <write_csr_num+0x114>
   20248:	f9043783          	ld	a5,-112(s0)
   2024c:	fcf43c23          	sd	a5,-40(s0)
   20250:	fd843783          	ld	a5,-40(s0)
   20254:	3b579073          	csrw	pmpaddr5,a5
   20258:	0300006f          	j	20288 <write_csr_num+0x114>
   2025c:	f9043783          	ld	a5,-112(s0)
   20260:	fef43023          	sd	a5,-32(s0)
   20264:	fe043783          	ld	a5,-32(s0)
   20268:	3b679073          	csrw	pmpaddr6,a5
   2026c:	01c0006f          	j	20288 <write_csr_num+0x114>
   20270:	f9043783          	ld	a5,-112(s0)
   20274:	fef43423          	sd	a5,-24(s0)
   20278:	fe843783          	ld	a5,-24(s0)
   2027c:	3b779073          	csrw	pmpaddr7,a5
   20280:	0080006f          	j	20288 <write_csr_num+0x114>
   20284:	00000013          	nop
   20288:	00000013          	nop
   2028c:	06813403          	ld	s0,104(sp)
   20290:	07010113          	addi	sp,sp,112
   20294:	00008067          	ret

0000000000020298 <log2roundup>:
   20298:	fd010113          	addi	sp,sp,-48
   2029c:	02813423          	sd	s0,40(sp)
   202a0:	03010413          	addi	s0,sp,48
   202a4:	fca43c23          	sd	a0,-40(s0)
   202a8:	fe043423          	sd	zero,-24(s0)
   202ac:	02c0006f          	j	202d8 <log2roundup+0x40>
   202b0:	fe843783          	ld	a5,-24(s0)
   202b4:	0007879b          	sext.w	a5,a5
   202b8:	00078713          	mv	a4,a5
   202bc:	00100793          	li	a5,1
   202c0:	00e797b3          	sll	a5,a5,a4
   202c4:	fd843703          	ld	a4,-40(s0)
   202c8:	02e7f063          	bgeu	a5,a4,202e8 <log2roundup+0x50>
   202cc:	fe843783          	ld	a5,-24(s0)
   202d0:	00178793          	addi	a5,a5,1
   202d4:	fef43423          	sd	a5,-24(s0)
   202d8:	fe843703          	ld	a4,-24(s0)
   202dc:	03f00793          	li	a5,63
   202e0:	fce7f8e3          	bgeu	a5,a4,202b0 <log2roundup+0x18>
   202e4:	0080006f          	j	202ec <log2roundup+0x54>
   202e8:	00000013          	nop
   202ec:	fe843783          	ld	a5,-24(s0)
   202f0:	00078513          	mv	a0,a5
   202f4:	02813403          	ld	s0,40(sp)
   202f8:	03010113          	addi	sp,sp,48
   202fc:	00008067          	ret

0000000000020300 <sbi_set_pmp>:
   20300:	fa010113          	addi	sp,sp,-96
   20304:	04113c23          	sd	ra,88(sp)
   20308:	04813823          	sd	s0,80(sp)
   2030c:	06010413          	addi	s0,sp,96
   20310:	00050793          	mv	a5,a0
   20314:	fab43823          	sd	a1,-80(s0)
   20318:	fac43423          	sd	a2,-88(s0)
   2031c:	fad43023          	sd	a3,-96(s0)
   20320:	faf42e23          	sw	a5,-68(s0)
   20324:	fbc42783          	lw	a5,-68(s0)
   20328:	0007871b          	sext.w	a4,a5
   2032c:	00800793          	li	a5,8
   20330:	00e7d663          	bge	a5,a4,2033c <sbi_set_pmp+0x3c>
   20334:	fff00793          	li	a5,-1
   20338:	1940006f          	j	204cc <sbi_set_pmp+0x1cc>
   2033c:	fa843503          	ld	a0,-88(s0)
   20340:	f59ff0ef          	jal	ra,20298 <log2roundup>
   20344:	00050793          	mv	a5,a0
   20348:	fef42223          	sw	a5,-28(s0)
   2034c:	fe442783          	lw	a5,-28(s0)
   20350:	0007871b          	sext.w	a4,a5
   20354:	00100793          	li	a5,1
   20358:	00e7c663          	blt	a5,a4,20364 <sbi_set_pmp+0x64>
   2035c:	fff00793          	li	a5,-1
   20360:	16c0006f          	j	204cc <sbi_set_pmp+0x1cc>
   20364:	fb043783          	ld	a5,-80(s0)
   20368:	0027d793          	srli	a5,a5,0x2
   2036c:	fef43423          	sd	a5,-24(s0)
   20370:	fbc42783          	lw	a5,-68(s0)
   20374:	4027d79b          	sraiw	a5,a5,0x2
   20378:	0007879b          	sext.w	a5,a5
   2037c:	3a07879b          	addiw	a5,a5,928
   20380:	0007879b          	sext.w	a5,a5
   20384:	ffe7f793          	andi	a5,a5,-2
   20388:	fef42023          	sw	a5,-32(s0)
   2038c:	fbc42783          	lw	a5,-68(s0)
   20390:	0037979b          	slliw	a5,a5,0x3
   20394:	0007879b          	sext.w	a5,a5
   20398:	0387f793          	andi	a5,a5,56
   2039c:	fcf42e23          	sw	a5,-36(s0)
   203a0:	fbc42783          	lw	a5,-68(s0)
   203a4:	3b07879b          	addiw	a5,a5,944
   203a8:	fcf42c23          	sw	a5,-40(s0)
   203ac:	fa043783          	ld	a5,-96(s0)
   203b0:	fe77f793          	andi	a5,a5,-25
   203b4:	faf43023          	sd	a5,-96(s0)
   203b8:	fe442783          	lw	a5,-28(s0)
   203bc:	0007871b          	sext.w	a4,a5
   203c0:	00200793          	li	a5,2
   203c4:	00f71663          	bne	a4,a5,203d0 <sbi_set_pmp+0xd0>
   203c8:	01000793          	li	a5,16
   203cc:	0080006f          	j	203d4 <sbi_set_pmp+0xd4>
   203d0:	01800793          	li	a5,24
   203d4:	fa043703          	ld	a4,-96(s0)
   203d8:	00f767b3          	or	a5,a4,a5
   203dc:	faf43023          	sd	a5,-96(s0)
   203e0:	fdc42783          	lw	a5,-36(s0)
   203e4:	0ff00713          	li	a4,255
   203e8:	00f717b3          	sll	a5,a4,a5
   203ec:	fff7c793          	not	a5,a5
   203f0:	fcf43823          	sd	a5,-48(s0)
   203f4:	fe042783          	lw	a5,-32(s0)
   203f8:	00078513          	mv	a0,a5
   203fc:	c49ff0ef          	jal	ra,20044 <read_csr_num>
   20400:	00050713          	mv	a4,a0
   20404:	fd043783          	ld	a5,-48(s0)
   20408:	00e7f7b3          	and	a5,a5,a4
   2040c:	fcf43423          	sd	a5,-56(s0)
   20410:	fdc42783          	lw	a5,-36(s0)
   20414:	fa043703          	ld	a4,-96(s0)
   20418:	00f71733          	sll	a4,a4,a5
   2041c:	fd043783          	ld	a5,-48(s0)
   20420:	fff7c793          	not	a5,a5
   20424:	00f777b3          	and	a5,a4,a5
   20428:	fc843703          	ld	a4,-56(s0)
   2042c:	00f767b3          	or	a5,a4,a5
   20430:	fcf43423          	sd	a5,-56(s0)
   20434:	fe442783          	lw	a5,-28(s0)
   20438:	0007871b          	sext.w	a4,a5
   2043c:	00200793          	li	a5,2
   20440:	06e7d463          	bge	a5,a4,204a8 <sbi_set_pmp+0x1a8>
   20444:	fe442783          	lw	a5,-28(s0)
   20448:	0007871b          	sext.w	a4,a5
   2044c:	04000793          	li	a5,64
   20450:	00f71863          	bne	a4,a5,20460 <sbi_set_pmp+0x160>
   20454:	fff00793          	li	a5,-1
   20458:	fef43423          	sd	a5,-24(s0)
   2045c:	04c0006f          	j	204a8 <sbi_set_pmp+0x1a8>
   20460:	fe442783          	lw	a5,-28(s0)
   20464:	ffe7879b          	addiw	a5,a5,-2
   20468:	0007879b          	sext.w	a5,a5
   2046c:	00078713          	mv	a4,a5
   20470:	00100793          	li	a5,1
   20474:	00e797b3          	sll	a5,a5,a4
   20478:	fff78793          	addi	a5,a5,-1
   2047c:	fcf43023          	sd	a5,-64(s0)
   20480:	fc043783          	ld	a5,-64(s0)
   20484:	fff7c793          	not	a5,a5
   20488:	fe843703          	ld	a4,-24(s0)
   2048c:	00f777b3          	and	a5,a4,a5
   20490:	fef43423          	sd	a5,-24(s0)
   20494:	fc043783          	ld	a5,-64(s0)
   20498:	0017d793          	srli	a5,a5,0x1
   2049c:	fe843703          	ld	a4,-24(s0)
   204a0:	00f767b3          	or	a5,a4,a5
   204a4:	fef43423          	sd	a5,-24(s0)
   204a8:	fd842783          	lw	a5,-40(s0)
   204ac:	fe843583          	ld	a1,-24(s0)
   204b0:	00078513          	mv	a0,a5
   204b4:	cc1ff0ef          	jal	ra,20174 <write_csr_num>
   204b8:	fe042783          	lw	a5,-32(s0)
   204bc:	fc843583          	ld	a1,-56(s0)
   204c0:	00078513          	mv	a0,a5
   204c4:	cb1ff0ef          	jal	ra,20174 <write_csr_num>
   204c8:	00000793          	li	a5,0
   204cc:	00078513          	mv	a0,a5
   204d0:	05813083          	ld	ra,88(sp)
   204d4:	05013403          	ld	s0,80(sp)
   204d8:	06010113          	addi	sp,sp,96
   204dc:	00008067          	ret

00000000000204e0 <sbi_main>:
   204e0:	fa010113          	addi	sp,sp,-96
   204e4:	04113c23          	sd	ra,88(sp)
   204e8:	04813823          	sd	s0,80(sp)
   204ec:	04913423          	sd	s1,72(sp)
   204f0:	06010413          	addi	s0,sp,96
   204f4:	00700693          	li	a3,7
   204f8:	fff00613          	li	a2,-1
   204fc:	00000593          	li	a1,0
   20500:	00000513          	li	a0,0
   20504:	dfdff0ef          	jal	ra,20300 <sbi_set_pmp>
   20508:	300027f3          	csrr	a5,mstatus
   2050c:	00078493          	mv	s1,a5
   20510:	00048793          	mv	a5,s1
   20514:	fcf43c23          	sd	a5,-40(s0)
   20518:	fd843703          	ld	a4,-40(s0)
   2051c:	ffffe7b7          	lui	a5,0xffffe
   20520:	7ff78793          	addi	a5,a5,2047 # ffffffffffffe7ff <_payload_end+0xfffffffffffd97ff>
   20524:	00f77733          	and	a4,a4,a5
   20528:	000017b7          	lui	a5,0x1
   2052c:	80078793          	addi	a5,a5,-2048 # 800 <__bin_size-0x4800>
   20530:	00f767b3          	or	a5,a4,a5
   20534:	fcf43c23          	sd	a5,-40(s0)
   20538:	fd843783          	ld	a5,-40(s0)
   2053c:	f7f7f793          	andi	a5,a5,-129
   20540:	fcf43c23          	sd	a5,-40(s0)
   20544:	fd843783          	ld	a5,-40(s0)
   20548:	fcf43823          	sd	a5,-48(s0)
   2054c:	fd043783          	ld	a5,-48(s0)
   20550:	30079073          	csrw	mstatus,a5
   20554:	000227b7          	lui	a5,0x22
   20558:	fcf43423          	sd	a5,-56(s0)
   2055c:	fc843783          	ld	a5,-56(s0)
   20560:	34179073          	csrw	mepc,a5
   20564:	000207b7          	lui	a5,0x20
   20568:	fcf43023          	sd	a5,-64(s0)
   2056c:	fc043783          	ld	a5,-64(s0)
   20570:	30579073          	csrw	mtvec,a5
   20574:	000227b7          	lui	a5,0x22
   20578:	faf43c23          	sd	a5,-72(s0)
   2057c:	fb843783          	ld	a5,-72(s0)
   20580:	10579073          	csrw	stvec,a5
   20584:	fa043823          	sd	zero,-80(s0)
   20588:	fb043783          	ld	a5,-80(s0)
   2058c:	10479073          	csrw	sie,a5
   20590:	fa043423          	sd	zero,-88(s0)
   20594:	fa843783          	ld	a5,-88(s0)
   20598:	18079073          	csrw	satp,a5
   2059c:	30200073          	mret
   205a0:	00000013          	nop
   205a4:	05813083          	ld	ra,88(sp)
   205a8:	05013403          	ld	s0,80(sp)
   205ac:	04813483          	ld	s1,72(sp)
   205b0:	06010113          	addi	sp,sp,96
   205b4:	00008067          	ret

Disassembly of section .payload:

0000000000022000 <bss_begin>:
   22000:	10401073          	csrw	sie,zero
   22004:	0cd010ef          	jal	ra,238d0 <bss_begin+0x18d0>
   22008:	00000097          	auipc	ra,0x0
   2200c:	01c080e7          	jalr	28(ra) # 22024 <bss_begin+0x24>
   22010:	00002117          	auipc	sp,0x2
   22014:	ff010113          	addi	sp,sp,-16 # 24000 <bss_begin+0x2000>
   22018:	000012b7          	lui	t0,0x1
   2201c:	00510133          	add	sp,sp,t0
   22020:	22c0006f          	j	2224c <bss_begin+0x24c>
   22024:	00008493          	mv	s1,ra
   22028:	00002517          	auipc	a0,0x2
   2202c:	a4050513          	addi	a0,a0,-1472 # 23a68 <bss_begin+0x1a68>
   22030:	161010ef          	jal	ra,23990 <bss_begin+0x1990>
   22034:	00048093          	mv	ra,s1
   22038:	00008067          	ret
   2203c:	0000                	unimp
   2203e:	0000                	unimp
   22040:	fc010113          	addi	sp,sp,-64
   22044:	02113c23          	sd	ra,56(sp)
   22048:	02813823          	sd	s0,48(sp)
   2204c:	04010413          	addi	s0,sp,64
   22050:	fca43423          	sd	a0,-56(s0)
   22054:	fe042623          	sw	zero,-20(s0)
   22058:	0300006f          	j	22088 <bss_begin+0x88>
   2205c:	00001717          	auipc	a4,0x1
   22060:	7d470713          	addi	a4,a4,2004 # 23830 <bss_begin+0x1830>
   22064:	fec42783          	lw	a5,-20(s0)
   22068:	00379793          	slli	a5,a5,0x3
   2206c:	00f707b3          	add	a5,a4,a5
   22070:	0007b783          	ld	a5,0(a5) # 22000 <bss_begin>
   22074:	fc843703          	ld	a4,-56(s0)
   22078:	02f70663          	beq	a4,a5,220a4 <bss_begin+0xa4>
   2207c:	fec42783          	lw	a5,-20(s0)
   22080:	0017879b          	addiw	a5,a5,1
   22084:	fef42623          	sw	a5,-20(s0)
   22088:	fec42703          	lw	a4,-20(s0)
   2208c:	00001797          	auipc	a5,0x1
   22090:	7d478793          	addi	a5,a5,2004 # 23860 <bss_begin+0x1860>
   22094:	0007b783          	ld	a5,0(a5)
   22098:	fcf762e3          	bltu	a4,a5,2205c <bss_begin+0x5c>
   2209c:	00000793          	li	a5,0
   220a0:	0880006f          	j	22128 <bss_begin+0x128>
   220a4:	00000013          	nop
   220a8:	00001797          	auipc	a5,0x1
   220ac:	7a078793          	addi	a5,a5,1952 # 23848 <bss_begin+0x1848>
   220b0:	fef43023          	sd	a5,-32(s0)
   220b4:	fec42783          	lw	a5,-20(s0)
   220b8:	0007879b          	sext.w	a5,a5
   220bc:	00079863          	bnez	a5,220cc <bss_begin+0xcc>
   220c0:	fe043783          	ld	a5,-32(s0)
   220c4:	fcf43c23          	sd	a5,-40(s0)
   220c8:	0480006f          	j	22110 <bss_begin+0x110>
   220cc:	fe043783          	ld	a5,-32(s0)
   220d0:	00178793          	addi	a5,a5,1
   220d4:	fef43023          	sd	a5,-32(s0)
   220d8:	fe043783          	ld	a5,-32(s0)
   220dc:	0007c783          	lbu	a5,0(a5)
   220e0:	00079863          	bnez	a5,220f0 <bss_begin+0xf0>
   220e4:	fec42783          	lw	a5,-20(s0)
   220e8:	fff7879b          	addiw	a5,a5,-1
   220ec:	fef42623          	sw	a5,-20(s0)
   220f0:	fec42783          	lw	a5,-20(s0)
   220f4:	0007879b          	sext.w	a5,a5
   220f8:	fc079ae3          	bnez	a5,220cc <bss_begin+0xcc>
   220fc:	fe043783          	ld	a5,-32(s0)
   22100:	00178793          	addi	a5,a5,1
   22104:	fef43023          	sd	a5,-32(s0)
   22108:	fe043783          	ld	a5,-32(s0)
   2210c:	fcf43c23          	sd	a5,-40(s0)
   22110:	fd843503          	ld	a0,-40(s0)
   22114:	759000ef          	jal	ra,2306c <bss_begin+0x106c>
   22118:	00002517          	auipc	a0,0x2
   2211c:	8b850513          	addi	a0,a0,-1864 # 239d0 <bss_begin+0x19d0>
   22120:	74d000ef          	jal	ra,2306c <bss_begin+0x106c>
   22124:	00000793          	li	a5,0
   22128:	00078513          	mv	a0,a5
   2212c:	03813083          	ld	ra,56(sp)
   22130:	03013403          	ld	s0,48(sp)
   22134:	04010113          	addi	sp,sp,64
   22138:	00008067          	ret
   2213c:	fe010113          	addi	sp,sp,-32
   22140:	00113c23          	sd	ra,24(sp)
   22144:	00813823          	sd	s0,16(sp)
   22148:	02010413          	addi	s0,sp,32
   2214c:	584010ef          	jal	ra,236d0 <bss_begin+0x16d0>
   22150:	5b4010ef          	jal	ra,23704 <bss_begin+0x1704>
   22154:	5f8010ef          	jal	ra,2374c <bss_begin+0x174c>
   22158:	644010ef          	jal	ra,2379c <bss_begin+0x179c>
   2215c:	664010ef          	jal	ra,237c0 <bss_begin+0x17c0>
   22160:	02800613          	li	a2,40
   22164:	05500593          	li	a1,85
   22168:	00021537          	lui	a0,0x21
   2216c:	31c000ef          	jal	ra,22488 <bss_begin+0x488>
   22170:	00900593          	li	a1,9
   22174:	00a00513          	li	a0,10
   22178:	66c010ef          	jal	ra,237e4 <bss_begin+0x17e4>
   2217c:	fea43423          	sd	a0,-24(s0)
   22180:	fe843783          	ld	a5,-24(s0)
   22184:	00079863          	bnez	a5,22194 <bss_begin+0x194>
   22188:	00002517          	auipc	a0,0x2
   2218c:	85050513          	addi	a0,a0,-1968 # 239d8 <bss_begin+0x19d8>
   22190:	6dd000ef          	jal	ra,2306c <bss_begin+0x106c>
   22194:	00a00593          	li	a1,10
   22198:	00900513          	li	a0,9
   2219c:	648010ef          	jal	ra,237e4 <bss_begin+0x17e4>
   221a0:	fea43023          	sd	a0,-32(s0)
   221a4:	fe043703          	ld	a4,-32(s0)
   221a8:	fff00793          	li	a5,-1
   221ac:	00f71863          	bne	a4,a5,221bc <bss_begin+0x1bc>
   221b0:	00002517          	auipc	a0,0x2
   221b4:	82850513          	addi	a0,a0,-2008 # 239d8 <bss_begin+0x19d8>
   221b8:	6b5000ef          	jal	ra,2306c <bss_begin+0x106c>
   221bc:	00900593          	li	a1,9
   221c0:	00000513          	li	a0,0
   221c4:	638010ef          	jal	ra,237fc <bss_begin+0x17fc>
   221c8:	fea43423          	sd	a0,-24(s0)
   221cc:	00200593          	li	a1,2
   221d0:	00500513          	li	a0,5
   221d4:	628010ef          	jal	ra,237fc <bss_begin+0x17fc>
   221d8:	fea43023          	sd	a0,-32(s0)
   221dc:	638010ef          	jal	ra,23814 <bss_begin+0x1814>
   221e0:	00002517          	auipc	a0,0x2
   221e4:	81850513          	addi	a0,a0,-2024 # 239f8 <bss_begin+0x19f8>
   221e8:	685000ef          	jal	ra,2306c <bss_begin+0x106c>
   221ec:	00500593          	li	a1,5
   221f0:	00500513          	li	a0,5
   221f4:	684010ef          	jal	ra,23878 <bss_begin+0x1878>
   221f8:	fea43423          	sd	a0,-24(s0)
   221fc:	fe843703          	ld	a4,-24(s0)
   22200:	00a00793          	li	a5,10
   22204:	00f71863          	bne	a4,a5,22214 <bss_begin+0x214>
   22208:	00002517          	auipc	a0,0x2
   2220c:	80850513          	addi	a0,a0,-2040 # 23a10 <bss_begin+0x1a10>
   22210:	65d000ef          	jal	ra,2306c <bss_begin+0x106c>
   22214:	00500593          	li	a1,5
   22218:	00500513          	li	a0,5
   2221c:	684010ef          	jal	ra,238a0 <bss_begin+0x18a0>
   22220:	fea43023          	sd	a0,-32(s0)
   22224:	fe043783          	ld	a5,-32(s0)
   22228:	00079863          	bnez	a5,22238 <bss_begin+0x238>
   2222c:	00002517          	auipc	a0,0x2
   22230:	80450513          	addi	a0,a0,-2044 # 23a30 <bss_begin+0x1a30>
   22234:	639000ef          	jal	ra,2306c <bss_begin+0x106c>
   22238:	00000013          	nop
   2223c:	01813083          	ld	ra,24(sp)
   22240:	01013403          	ld	s0,16(sp)
   22244:	02010113          	addi	sp,sp,32
   22248:	00008067          	ret
   2224c:	ff010113          	addi	sp,sp,-16
   22250:	00113423          	sd	ra,8(sp)
   22254:	00813023          	sd	s0,0(sp)
   22258:	01010413          	addi	s0,sp,16
   2225c:	2b5000ef          	jal	ra,22d10 <bss_begin+0xd10>
   22260:	00001517          	auipc	a0,0x1
   22264:	7f050513          	addi	a0,a0,2032 # 23a50 <bss_begin+0x1a50>
   22268:	605000ef          	jal	ra,2306c <bss_begin+0x106c>
   2226c:	ed1ff0ef          	jal	ra,2213c <bss_begin+0x13c>
   22270:	008017b7          	lui	a5,0x801
   22274:	88078513          	addi	a0,a5,-1920 # 800880 <_payload_end+0x7db880>
   22278:	dc9ff0ef          	jal	ra,22040 <bss_begin+0x40>
   2227c:	008017b7          	lui	a5,0x801
   22280:	86078513          	addi	a0,a5,-1952 # 800860 <_payload_end+0x7db860>
   22284:	dbdff0ef          	jal	ra,22040 <bss_begin+0x40>
   22288:	008017b7          	lui	a5,0x801
   2228c:	80078513          	addi	a0,a5,-2048 # 800800 <_payload_end+0x7db800>
   22290:	db1ff0ef          	jal	ra,22040 <bss_begin+0x40>
   22294:	0000006f          	j	22294 <bss_begin+0x294>
   22298:	fc010113          	addi	sp,sp,-64
   2229c:	02813c23          	sd	s0,56(sp)
   222a0:	04010413          	addi	s0,sp,64
   222a4:	fca43c23          	sd	a0,-40(s0)
   222a8:	00058793          	mv	a5,a1
   222ac:	fcc43423          	sd	a2,-56(s0)
   222b0:	fcf42a23          	sw	a5,-44(s0)
   222b4:	fd843783          	ld	a5,-40(s0)
   222b8:	fef43423          	sd	a5,-24(s0)
   222bc:	01c0006f          	j	222d8 <bss_begin+0x2d8>
   222c0:	fe843783          	ld	a5,-24(s0)
   222c4:	00178713          	addi	a4,a5,1
   222c8:	fee43423          	sd	a4,-24(s0)
   222cc:	fd442703          	lw	a4,-44(s0)
   222d0:	0ff77713          	andi	a4,a4,255
   222d4:	00e78023          	sb	a4,0(a5)
   222d8:	fc843783          	ld	a5,-56(s0)
   222dc:	fff78713          	addi	a4,a5,-1
   222e0:	fce43423          	sd	a4,-56(s0)
   222e4:	fc079ee3          	bnez	a5,222c0 <bss_begin+0x2c0>
   222e8:	fd843783          	ld	a5,-40(s0)
   222ec:	00078513          	mv	a0,a5
   222f0:	03813403          	ld	s0,56(sp)
   222f4:	04010113          	addi	sp,sp,64
   222f8:	00008067          	ret
   222fc:	f9010113          	addi	sp,sp,-112
   22300:	06113423          	sd	ra,104(sp)
   22304:	06813023          	sd	s0,96(sp)
   22308:	07010413          	addi	s0,sp,112
   2230c:	faa43423          	sd	a0,-88(s0)
   22310:	00058793          	mv	a5,a1
   22314:	f8c43c23          	sd	a2,-104(s0)
   22318:	faf42223          	sw	a5,-92(s0)
   2231c:	fa843783          	ld	a5,-88(s0)
   22320:	fef43423          	sd	a5,-24(s0)
   22324:	01000793          	li	a5,16
   22328:	fcf43423          	sd	a5,-56(s0)
   2232c:	f9843783          	ld	a5,-104(s0)
   22330:	fef43023          	sd	a5,-32(s0)
   22334:	fe843783          	ld	a5,-24(s0)
   22338:	fcf43023          	sd	a5,-64(s0)
   2233c:	fc043823          	sd	zero,-48(s0)
   22340:	fc042e23          	sw	zero,-36(s0)
   22344:	0340006f          	j	22378 <bss_begin+0x378>
   22348:	fa442783          	lw	a5,-92(s0)
   2234c:	0ff7f793          	andi	a5,a5,255
   22350:	fdc42703          	lw	a4,-36(s0)
   22354:	0037171b          	slliw	a4,a4,0x3
   22358:	0007071b          	sext.w	a4,a4
   2235c:	00e797b3          	sll	a5,a5,a4
   22360:	fd043703          	ld	a4,-48(s0)
   22364:	00f767b3          	or	a5,a4,a5
   22368:	fcf43823          	sd	a5,-48(s0)
   2236c:	fdc42783          	lw	a5,-36(s0)
   22370:	0017879b          	addiw	a5,a5,1
   22374:	fcf42e23          	sw	a5,-36(s0)
   22378:	fdc42783          	lw	a5,-36(s0)
   2237c:	0007871b          	sext.w	a4,a5
   22380:	00700793          	li	a5,7
   22384:	fce7d2e3          	bge	a5,a4,22348 <bss_begin+0x348>
   22388:	fc843783          	ld	a5,-56(s0)
   2238c:	fff78713          	addi	a4,a5,-1
   22390:	fc043783          	ld	a5,-64(s0)
   22394:	00f777b3          	and	a5,a4,a5
   22398:	04078e63          	beqz	a5,223f4 <bss_begin+0x3f4>
   2239c:	fc843783          	ld	a5,-56(s0)
   223a0:	fff78793          	addi	a5,a5,-1
   223a4:	fc043703          	ld	a4,-64(s0)
   223a8:	00f777b3          	and	a5,a4,a5
   223ac:	faf43c23          	sd	a5,-72(s0)
   223b0:	fc843703          	ld	a4,-56(s0)
   223b4:	fb843783          	ld	a5,-72(s0)
   223b8:	40f707b3          	sub	a5,a4,a5
   223bc:	faf43c23          	sd	a5,-72(s0)
   223c0:	fa442783          	lw	a5,-92(s0)
   223c4:	fb843603          	ld	a2,-72(s0)
   223c8:	00078593          	mv	a1,a5
   223cc:	fe843503          	ld	a0,-24(s0)
   223d0:	ec9ff0ef          	jal	ra,22298 <bss_begin+0x298>
   223d4:	fe843703          	ld	a4,-24(s0)
   223d8:	fb843783          	ld	a5,-72(s0)
   223dc:	00f707b3          	add	a5,a4,a5
   223e0:	fef43423          	sd	a5,-24(s0)
   223e4:	f9843703          	ld	a4,-104(s0)
   223e8:	fb843783          	ld	a5,-72(s0)
   223ec:	40f707b3          	sub	a5,a4,a5
   223f0:	fef43023          	sd	a5,-32(s0)
   223f4:	fe043703          	ld	a4,-32(s0)
   223f8:	fc843783          	ld	a5,-56(s0)
   223fc:	06e7fa63          	bgeu	a5,a4,22470 <bss_begin+0x470>
   22400:	fe043703          	ld	a4,-32(s0)
   22404:	fc843783          	ld	a5,-56(s0)
   22408:	02f757b3          	divu	a5,a4,a5
   2240c:	faf42a23          	sw	a5,-76(s0)
   22410:	fe043703          	ld	a4,-32(s0)
   22414:	fc843783          	ld	a5,-56(s0)
   22418:	02f777b3          	remu	a5,a4,a5
   2241c:	fef43023          	sd	a5,-32(s0)
   22420:	fb442783          	lw	a5,-76(s0)
   22424:	0047979b          	slliw	a5,a5,0x4
   22428:	0007879b          	sext.w	a5,a5
   2242c:	00078613          	mv	a2,a5
   22430:	fd043583          	ld	a1,-48(s0)
   22434:	fe843503          	ld	a0,-24(s0)
   22438:	57c010ef          	jal	ra,239b4 <bss_begin+0x19b4>
   2243c:	fe043783          	ld	a5,-32(s0)
   22440:	02078863          	beqz	a5,22470 <bss_begin+0x470>
   22444:	fb442783          	lw	a5,-76(s0)
   22448:	0047979b          	slliw	a5,a5,0x4
   2244c:	0007879b          	sext.w	a5,a5
   22450:	00078713          	mv	a4,a5
   22454:	fe843783          	ld	a5,-24(s0)
   22458:	00e787b3          	add	a5,a5,a4
   2245c:	fa442703          	lw	a4,-92(s0)
   22460:	fe043603          	ld	a2,-32(s0)
   22464:	00070593          	mv	a1,a4
   22468:	00078513          	mv	a0,a5
   2246c:	e2dff0ef          	jal	ra,22298 <bss_begin+0x298>
   22470:	fa843783          	ld	a5,-88(s0)
   22474:	00078513          	mv	a0,a5
   22478:	06813083          	ld	ra,104(sp)
   2247c:	06013403          	ld	s0,96(sp)
   22480:	07010113          	addi	sp,sp,112
   22484:	00008067          	ret
   22488:	fd010113          	addi	sp,sp,-48
   2248c:	02113423          	sd	ra,40(sp)
   22490:	02813023          	sd	s0,32(sp)
   22494:	03010413          	addi	s0,sp,48
   22498:	fea43423          	sd	a0,-24(s0)
   2249c:	00058793          	mv	a5,a1
   224a0:	fcc43c23          	sd	a2,-40(s0)
   224a4:	fef42223          	sw	a5,-28(s0)
   224a8:	fe442783          	lw	a5,-28(s0)
   224ac:	fd843603          	ld	a2,-40(s0)
   224b0:	00078593          	mv	a1,a5
   224b4:	fe843503          	ld	a0,-24(s0)
   224b8:	e45ff0ef          	jal	ra,222fc <bss_begin+0x2fc>
   224bc:	00050793          	mv	a5,a0
   224c0:	00078513          	mv	a0,a5
   224c4:	02813083          	ld	ra,40(sp)
   224c8:	02013403          	ld	s0,32(sp)
   224cc:	03010113          	addi	sp,sp,48
   224d0:	00008067          	ret
   224d4:	fe010113          	addi	sp,sp,-32
   224d8:	00813c23          	sd	s0,24(sp)
   224dc:	02010413          	addi	s0,sp,32
   224e0:	fea43423          	sd	a0,-24(s0)
   224e4:	fe843783          	ld	a5,-24(s0)
   224e8:	0007a783          	lw	a5,0(a5)
   224ec:	0007879b          	sext.w	a5,a5
   224f0:	00078513          	mv	a0,a5
   224f4:	01813403          	ld	s0,24(sp)
   224f8:	02010113          	addi	sp,sp,32
   224fc:	00008067          	ret
   22500:	fe010113          	addi	sp,sp,-32
   22504:	00813c23          	sd	s0,24(sp)
   22508:	02010413          	addi	s0,sp,32
   2250c:	fea43423          	sd	a0,-24(s0)
   22510:	00058793          	mv	a5,a1
   22514:	fef42223          	sw	a5,-28(s0)
   22518:	fe843783          	ld	a5,-24(s0)
   2251c:	fe442703          	lw	a4,-28(s0)
   22520:	00e7a023          	sw	a4,0(a5)
   22524:	00000013          	nop
   22528:	01813403          	ld	s0,24(sp)
   2252c:	02010113          	addi	sp,sp,32
   22530:	00008067          	ret
   22534:	fe010113          	addi	sp,sp,-32
   22538:	00813c23          	sd	s0,24(sp)
   2253c:	02010413          	addi	s0,sp,32
   22540:	fea43423          	sd	a0,-24(s0)
   22544:	fe843783          	ld	a5,-24(s0)
   22548:	00a79793          	slli	a5,a5,0xa
   2254c:	fef43423          	sd	a5,-24(s0)
   22550:	00000013          	nop
   22554:	fe843783          	ld	a5,-24(s0)
   22558:	fff78713          	addi	a4,a5,-1
   2255c:	fee43423          	sd	a4,-24(s0)
   22560:	fe079ae3          	bnez	a5,22554 <bss_begin+0x554>
   22564:	00000013          	nop
   22568:	00000013          	nop
   2256c:	01813403          	ld	s0,24(sp)
   22570:	02010113          	addi	sp,sp,32
   22574:	00008067          	ret
   22578:	fe010113          	addi	sp,sp,-32
   2257c:	00113c23          	sd	ra,24(sp)
   22580:	00813823          	sd	s0,16(sp)
   22584:	02010413          	addi	s0,sp,32
   22588:	30100593          	li	a1,769
   2258c:	020027b7          	lui	a5,0x2002
   22590:	d0078513          	addi	a0,a5,-768 # 2001d00 <_payload_end+0x1fdcd00>
   22594:	f6dff0ef          	jal	ra,22500 <bss_begin+0x500>
   22598:	00100513          	li	a0,1
   2259c:	f99ff0ef          	jal	ra,22534 <bss_begin+0x534>
   225a0:	02001537          	lui	a0,0x2001
   225a4:	f31ff0ef          	jal	ra,224d4 <bss_begin+0x4d4>
   225a8:	00050793          	mv	a5,a0
   225ac:	fef42623          	sw	a5,-20(s0)
   225b0:	fec42703          	lw	a4,-20(s0)
   225b4:	f80007b7          	lui	a5,0xf8000
   225b8:	fff78793          	addi	a5,a5,-1 # fffffffff7ffffff <_payload_end+0xfffffffff7fdafff>
   225bc:	00f777b3          	and	a5,a4,a5
   225c0:	fef42623          	sw	a5,-20(s0)
   225c4:	fec42783          	lw	a5,-20(s0)
   225c8:	00078593          	mv	a1,a5
   225cc:	02001537          	lui	a0,0x2001
   225d0:	f31ff0ef          	jal	ra,22500 <bss_begin+0x500>
   225d4:	02001537          	lui	a0,0x2001
   225d8:	efdff0ef          	jal	ra,224d4 <bss_begin+0x4d4>
   225dc:	00050793          	mv	a5,a0
   225e0:	fef42623          	sw	a5,-20(s0)
   225e4:	fec42703          	lw	a4,-20(s0)
   225e8:	400007b7          	lui	a5,0x40000
   225ec:	00f767b3          	or	a5,a4,a5
   225f0:	fef42623          	sw	a5,-20(s0)
   225f4:	fec42783          	lw	a5,-20(s0)
   225f8:	00078593          	mv	a1,a5
   225fc:	02001537          	lui	a0,0x2001
   22600:	f01ff0ef          	jal	ra,22500 <bss_begin+0x500>
   22604:	00500513          	li	a0,5
   22608:	f2dff0ef          	jal	ra,22534 <bss_begin+0x534>
   2260c:	02001537          	lui	a0,0x2001
   22610:	ec5ff0ef          	jal	ra,224d4 <bss_begin+0x4d4>
   22614:	00050793          	mv	a5,a0
   22618:	fef42623          	sw	a5,-20(s0)
   2261c:	fec42703          	lw	a4,-20(s0)
   22620:	fffc07b7          	lui	a5,0xfffc0
   22624:	0fc78793          	addi	a5,a5,252 # fffffffffffc00fc <_payload_end+0xfffffffffff9b0fc>
   22628:	00f777b3          	and	a5,a4,a5
   2262c:	fef42623          	sw	a5,-20(s0)
   22630:	fec42703          	lw	a4,-20(s0)
   22634:	000037b7          	lui	a5,0x3
   22638:	90078793          	addi	a5,a5,-1792 # 2900 <__bin_size-0x2700>
   2263c:	00f767b3          	or	a5,a4,a5
   22640:	fef42623          	sw	a5,-20(s0)
   22644:	fec42783          	lw	a5,-20(s0)
   22648:	00078593          	mv	a1,a5
   2264c:	02001537          	lui	a0,0x2001
   22650:	eb1ff0ef          	jal	ra,22500 <bss_begin+0x500>
   22654:	02001537          	lui	a0,0x2001
   22658:	e7dff0ef          	jal	ra,224d4 <bss_begin+0x4d4>
   2265c:	00050793          	mv	a5,a0
   22660:	fef42623          	sw	a5,-20(s0)
   22664:	fec42703          	lw	a4,-20(s0)
   22668:	200007b7          	lui	a5,0x20000
   2266c:	00f767b3          	or	a5,a4,a5
   22670:	fef42623          	sw	a5,-20(s0)
   22674:	fec42783          	lw	a5,-20(s0)
   22678:	00078593          	mv	a1,a5
   2267c:	02001537          	lui	a0,0x2001
   22680:	e81ff0ef          	jal	ra,22500 <bss_begin+0x500>
   22684:	02001537          	lui	a0,0x2001
   22688:	e4dff0ef          	jal	ra,224d4 <bss_begin+0x4d4>
   2268c:	00050793          	mv	a5,a0
   22690:	fef42623          	sw	a5,-20(s0)
   22694:	fec42703          	lw	a4,-20(s0)
   22698:	800007b7          	lui	a5,0x80000
   2269c:	00f767b3          	or	a5,a4,a5
   226a0:	fef42623          	sw	a5,-20(s0)
   226a4:	fec42783          	lw	a5,-20(s0)
   226a8:	00078593          	mv	a1,a5
   226ac:	02001537          	lui	a0,0x2001
   226b0:	e51ff0ef          	jal	ra,22500 <bss_begin+0x500>
   226b4:	00000013          	nop
   226b8:	02001537          	lui	a0,0x2001
   226bc:	e19ff0ef          	jal	ra,224d4 <bss_begin+0x4d4>
   226c0:	00050793          	mv	a5,a0
   226c4:	0007879b          	sext.w	a5,a5
   226c8:	00078713          	mv	a4,a5
   226cc:	100007b7          	lui	a5,0x10000
   226d0:	00f777b3          	and	a5,a4,a5
   226d4:	0007879b          	sext.w	a5,a5
   226d8:	fe0780e3          	beqz	a5,226b8 <bss_begin+0x6b8>
   226dc:	01400513          	li	a0,20
   226e0:	e55ff0ef          	jal	ra,22534 <bss_begin+0x534>
   226e4:	02001537          	lui	a0,0x2001
   226e8:	dedff0ef          	jal	ra,224d4 <bss_begin+0x4d4>
   226ec:	00050793          	mv	a5,a0
   226f0:	fef42623          	sw	a5,-20(s0)
   226f4:	fec42703          	lw	a4,-20(s0)
   226f8:	080007b7          	lui	a5,0x8000
   226fc:	00f767b3          	or	a5,a4,a5
   22700:	fef42623          	sw	a5,-20(s0)
   22704:	fec42783          	lw	a5,-20(s0)
   22708:	00078593          	mv	a1,a5
   2270c:	02001537          	lui	a0,0x2001
   22710:	df1ff0ef          	jal	ra,22500 <bss_begin+0x500>
   22714:	02001537          	lui	a0,0x2001
   22718:	dbdff0ef          	jal	ra,224d4 <bss_begin+0x4d4>
   2271c:	00050793          	mv	a5,a0
   22720:	fef42623          	sw	a5,-20(s0)
   22724:	fec42703          	lw	a4,-20(s0)
   22728:	e00007b7          	lui	a5,0xe0000
   2272c:	fff78793          	addi	a5,a5,-1 # ffffffffdfffffff <_payload_end+0xffffffffdffdafff>
   22730:	00f777b3          	and	a5,a4,a5
   22734:	fef42623          	sw	a5,-20(s0)
   22738:	fec42783          	lw	a5,-20(s0)
   2273c:	00078593          	mv	a1,a5
   22740:	02001537          	lui	a0,0x2001
   22744:	dbdff0ef          	jal	ra,22500 <bss_begin+0x500>
   22748:	00100513          	li	a0,1
   2274c:	de9ff0ef          	jal	ra,22534 <bss_begin+0x534>
   22750:	020027b7          	lui	a5,0x2002
   22754:	d0078513          	addi	a0,a5,-768 # 2001d00 <_payload_end+0x1fdcd00>
   22758:	d7dff0ef          	jal	ra,224d4 <bss_begin+0x4d4>
   2275c:	00050793          	mv	a5,a0
   22760:	fef42623          	sw	a5,-20(s0)
   22764:	fec42703          	lw	a4,-20(s0)
   22768:	f90007b7          	lui	a5,0xf9000
   2276c:	cf078793          	addi	a5,a5,-784 # fffffffff8fffcf0 <_payload_end+0xfffffffff8fdacf0>
   22770:	00f777b3          	and	a5,a4,a5
   22774:	fef42623          	sw	a5,-20(s0)
   22778:	fec42703          	lw	a4,-20(s0)
   2277c:	050007b7          	lui	a5,0x5000
   22780:	10078793          	addi	a5,a5,256 # 5000100 <_payload_end+0x4fdb100>
   22784:	00f767b3          	or	a5,a4,a5
   22788:	fef42623          	sw	a5,-20(s0)
   2278c:	fec42783          	lw	a5,-20(s0)
   22790:	00078593          	mv	a1,a5
   22794:	020027b7          	lui	a5,0x2002
   22798:	d0078513          	addi	a0,a5,-768 # 2001d00 <_payload_end+0x1fdcd00>
   2279c:	d65ff0ef          	jal	ra,22500 <bss_begin+0x500>
   227a0:	00100513          	li	a0,1
   227a4:	d91ff0ef          	jal	ra,22534 <bss_begin+0x534>
   227a8:	00000013          	nop
   227ac:	01813083          	ld	ra,24(sp)
   227b0:	01013403          	ld	s0,16(sp)
   227b4:	02010113          	addi	sp,sp,32
   227b8:	00008067          	ret
   227bc:	fe010113          	addi	sp,sp,-32
   227c0:	00113c23          	sd	ra,24(sp)
   227c4:	00813823          	sd	s0,16(sp)
   227c8:	02010413          	addi	s0,sp,32
   227cc:	020017b7          	lui	a5,0x2001
   227d0:	02078513          	addi	a0,a5,32 # 2001020 <_payload_end+0x1fdc020>
   227d4:	d01ff0ef          	jal	ra,224d4 <bss_begin+0x4d4>
   227d8:	00050793          	mv	a5,a0
   227dc:	0007879b          	sext.w	a5,a5
   227e0:	0007879b          	sext.w	a5,a5
   227e4:	1207cc63          	bltz	a5,2291c <bss_begin+0x91c>
   227e8:	020017b7          	lui	a5,0x2001
   227ec:	51078513          	addi	a0,a5,1296 # 2001510 <_payload_end+0x1fdc510>
   227f0:	ce5ff0ef          	jal	ra,224d4 <bss_begin+0x4d4>
   227f4:	00050793          	mv	a5,a0
   227f8:	fef42623          	sw	a5,-20(s0)
   227fc:	fec42703          	lw	a4,-20(s0)
   22800:	fd0007b7          	lui	a5,0xfd000
   22804:	fff78793          	addi	a5,a5,-1 # fffffffffcffffff <_payload_end+0xfffffffffcfdafff>
   22808:	00f777b3          	and	a5,a4,a5
   2280c:	fef42623          	sw	a5,-20(s0)
   22810:	fec46703          	lwu	a4,-20(s0)
   22814:	020017b7          	lui	a5,0x2001
   22818:	51078593          	addi	a1,a5,1296 # 2001510 <_payload_end+0x1fdc510>
   2281c:	00070513          	mv	a0,a4
   22820:	ce1ff0ef          	jal	ra,22500 <bss_begin+0x500>
   22824:	000067b7          	lui	a5,0x6
   22828:	30078593          	addi	a1,a5,768 # 6300 <__bin_size+0x1300>
   2282c:	020017b7          	lui	a5,0x2001
   22830:	02078513          	addi	a0,a5,32 # 2001020 <_payload_end+0x1fdc020>
   22834:	ccdff0ef          	jal	ra,22500 <bss_begin+0x500>
   22838:	020017b7          	lui	a5,0x2001
   2283c:	02078513          	addi	a0,a5,32 # 2001020 <_payload_end+0x1fdc020>
   22840:	c95ff0ef          	jal	ra,224d4 <bss_begin+0x4d4>
   22844:	00050793          	mv	a5,a0
   22848:	fef42623          	sw	a5,-20(s0)
   2284c:	fec42703          	lw	a4,-20(s0)
   22850:	200007b7          	lui	a5,0x20000
   22854:	00f767b3          	or	a5,a4,a5
   22858:	fef42623          	sw	a5,-20(s0)
   2285c:	fec42783          	lw	a5,-20(s0)
   22860:	00078593          	mv	a1,a5
   22864:	020017b7          	lui	a5,0x2001
   22868:	02078513          	addi	a0,a5,32 # 2001020 <_payload_end+0x1fdc020>
   2286c:	c95ff0ef          	jal	ra,22500 <bss_begin+0x500>
   22870:	020017b7          	lui	a5,0x2001
   22874:	02078513          	addi	a0,a5,32 # 2001020 <_payload_end+0x1fdc020>
   22878:	c5dff0ef          	jal	ra,224d4 <bss_begin+0x4d4>
   2287c:	00050793          	mv	a5,a0
   22880:	fef42623          	sw	a5,-20(s0)
   22884:	fec42703          	lw	a4,-20(s0)
   22888:	800007b7          	lui	a5,0x80000
   2288c:	00f767b3          	or	a5,a4,a5
   22890:	fef42623          	sw	a5,-20(s0)
   22894:	fec42783          	lw	a5,-20(s0)
   22898:	00078593          	mv	a1,a5
   2289c:	020017b7          	lui	a5,0x2001
   228a0:	02078513          	addi	a0,a5,32 # 2001020 <_payload_end+0x1fdc020>
   228a4:	c5dff0ef          	jal	ra,22500 <bss_begin+0x500>
   228a8:	00000013          	nop
   228ac:	020017b7          	lui	a5,0x2001
   228b0:	02078513          	addi	a0,a5,32 # 2001020 <_payload_end+0x1fdc020>
   228b4:	c21ff0ef          	jal	ra,224d4 <bss_begin+0x4d4>
   228b8:	00050793          	mv	a5,a0
   228bc:	0007879b          	sext.w	a5,a5
   228c0:	00078713          	mv	a4,a5
   228c4:	100007b7          	lui	a5,0x10000
   228c8:	00f777b3          	and	a5,a4,a5
   228cc:	0007879b          	sext.w	a5,a5
   228d0:	fc078ee3          	beqz	a5,228ac <bss_begin+0x8ac>
   228d4:	01400513          	li	a0,20
   228d8:	c5dff0ef          	jal	ra,22534 <bss_begin+0x534>
   228dc:	020017b7          	lui	a5,0x2001
   228e0:	02078513          	addi	a0,a5,32 # 2001020 <_payload_end+0x1fdc020>
   228e4:	bf1ff0ef          	jal	ra,224d4 <bss_begin+0x4d4>
   228e8:	00050793          	mv	a5,a0
   228ec:	fef42623          	sw	a5,-20(s0)
   228f0:	fec42703          	lw	a4,-20(s0)
   228f4:	e00007b7          	lui	a5,0xe0000
   228f8:	fff78793          	addi	a5,a5,-1 # ffffffffdfffffff <_payload_end+0xffffffffdffdafff>
   228fc:	00f777b3          	and	a5,a4,a5
   22900:	fef42623          	sw	a5,-20(s0)
   22904:	fec42783          	lw	a5,-20(s0)
   22908:	00078593          	mv	a1,a5
   2290c:	020017b7          	lui	a5,0x2001
   22910:	02078513          	addi	a0,a5,32 # 2001020 <_payload_end+0x1fdc020>
   22914:	bedff0ef          	jal	ra,22500 <bss_begin+0x500>
   22918:	0080006f          	j	22920 <bss_begin+0x920>
   2291c:	00000013          	nop
   22920:	01813083          	ld	ra,24(sp)
   22924:	01013403          	ld	s0,16(sp)
   22928:	02010113          	addi	sp,sp,32
   2292c:	00008067          	ret
   22930:	ff010113          	addi	sp,sp,-16
   22934:	00113423          	sd	ra,8(sp)
   22938:	00813023          	sd	s0,0(sp)
   2293c:	01010413          	addi	s0,sp,16
   22940:	00200593          	li	a1,2
   22944:	020017b7          	lui	a5,0x2001
   22948:	51078513          	addi	a0,a5,1296 # 2001510 <_payload_end+0x1fdc510>
   2294c:	bb5ff0ef          	jal	ra,22500 <bss_begin+0x500>
   22950:	020017b7          	lui	a5,0x2001
   22954:	51078513          	addi	a0,a5,1296 # 2001510 <_payload_end+0x1fdc510>
   22958:	b7dff0ef          	jal	ra,224d4 <bss_begin+0x4d4>
   2295c:	00050793          	mv	a5,a0
   22960:	0007879b          	sext.w	a5,a5
   22964:	00078713          	mv	a4,a5
   22968:	030007b7          	lui	a5,0x3000
   2296c:	00f767b3          	or	a5,a4,a5
   22970:	0007879b          	sext.w	a5,a5
   22974:	00078593          	mv	a1,a5
   22978:	020017b7          	lui	a5,0x2001
   2297c:	51078513          	addi	a0,a5,1296 # 2001510 <_payload_end+0x1fdc510>
   22980:	b81ff0ef          	jal	ra,22500 <bss_begin+0x500>
   22984:	00100513          	li	a0,1
   22988:	badff0ef          	jal	ra,22534 <bss_begin+0x534>
   2298c:	00000013          	nop
   22990:	00813083          	ld	ra,8(sp)
   22994:	00013403          	ld	s0,0(sp)
   22998:	01010113          	addi	sp,sp,16
   2299c:	00008067          	ret
   229a0:	ff010113          	addi	sp,sp,-16
   229a4:	00113423          	sd	ra,8(sp)
   229a8:	00813023          	sd	s0,0(sp)
   229ac:	01010413          	addi	s0,sp,16
   229b0:	10200593          	li	a1,258
   229b4:	020017b7          	lui	a5,0x2001
   229b8:	52078513          	addi	a0,a5,1312 # 2001520 <_payload_end+0x1fdc520>
   229bc:	b45ff0ef          	jal	ra,22500 <bss_begin+0x500>
   229c0:	020017b7          	lui	a5,0x2001
   229c4:	52078513          	addi	a0,a5,1312 # 2001520 <_payload_end+0x1fdc520>
   229c8:	b0dff0ef          	jal	ra,224d4 <bss_begin+0x4d4>
   229cc:	00050793          	mv	a5,a0
   229d0:	0007879b          	sext.w	a5,a5
   229d4:	00078713          	mv	a4,a5
   229d8:	030007b7          	lui	a5,0x3000
   229dc:	00f767b3          	or	a5,a4,a5
   229e0:	0007879b          	sext.w	a5,a5
   229e4:	00078593          	mv	a1,a5
   229e8:	020017b7          	lui	a5,0x2001
   229ec:	52078513          	addi	a0,a5,1312 # 2001520 <_payload_end+0x1fdc520>
   229f0:	b11ff0ef          	jal	ra,22500 <bss_begin+0x500>
   229f4:	00100513          	li	a0,1
   229f8:	b3dff0ef          	jal	ra,22534 <bss_begin+0x534>
   229fc:	00000013          	nop
   22a00:	00813083          	ld	ra,8(sp)
   22a04:	00013403          	ld	s0,0(sp)
   22a08:	01010113          	addi	sp,sp,16
   22a0c:	00008067          	ret
   22a10:	ff010113          	addi	sp,sp,-16
   22a14:	00113423          	sd	ra,8(sp)
   22a18:	00813023          	sd	s0,0(sp)
   22a1c:	01010413          	addi	s0,sp,16
   22a20:	020017b7          	lui	a5,0x2001
   22a24:	70c78513          	addi	a0,a5,1804 # 200170c <_payload_end+0x1fdc70c>
   22a28:	aadff0ef          	jal	ra,224d4 <bss_begin+0x4d4>
   22a2c:	00050793          	mv	a5,a0
   22a30:	0007879b          	sext.w	a5,a5
   22a34:	00078713          	mv	a4,a5
   22a38:	000107b7          	lui	a5,0x10
   22a3c:	00f767b3          	or	a5,a4,a5
   22a40:	0007879b          	sext.w	a5,a5
   22a44:	00078593          	mv	a1,a5
   22a48:	020017b7          	lui	a5,0x2001
   22a4c:	70c78513          	addi	a0,a5,1804 # 200170c <_payload_end+0x1fdc70c>
   22a50:	ab1ff0ef          	jal	ra,22500 <bss_begin+0x500>
   22a54:	01400513          	li	a0,20
   22a58:	addff0ef          	jal	ra,22534 <bss_begin+0x534>
   22a5c:	020017b7          	lui	a5,0x2001
   22a60:	70c78513          	addi	a0,a5,1804 # 200170c <_payload_end+0x1fdc70c>
   22a64:	a71ff0ef          	jal	ra,224d4 <bss_begin+0x4d4>
   22a68:	00050793          	mv	a5,a0
   22a6c:	0007879b          	sext.w	a5,a5
   22a70:	0017e793          	ori	a5,a5,1
   22a74:	0007879b          	sext.w	a5,a5
   22a78:	00078593          	mv	a1,a5
   22a7c:	020017b7          	lui	a5,0x2001
   22a80:	70c78513          	addi	a0,a5,1804 # 200170c <_payload_end+0x1fdc70c>
   22a84:	a7dff0ef          	jal	ra,22500 <bss_begin+0x500>
   22a88:	00000013          	nop
   22a8c:	00813083          	ld	ra,8(sp)
   22a90:	00013403          	ld	s0,0(sp)
   22a94:	01010113          	addi	sp,sp,16
   22a98:	00008067          	ret
   22a9c:	fe010113          	addi	sp,sp,-32
   22aa0:	00113c23          	sd	ra,24(sp)
   22aa4:	00813823          	sd	s0,16(sp)
   22aa8:	02010413          	addi	s0,sp,32
   22aac:	020017b7          	lui	a5,0x2001
   22ab0:	54078513          	addi	a0,a5,1344 # 2001540 <_payload_end+0x1fdc540>
   22ab4:	a21ff0ef          	jal	ra,224d4 <bss_begin+0x4d4>
   22ab8:	00050793          	mv	a5,a0
   22abc:	fef42623          	sw	a5,-20(s0)
   22ac0:	fec42703          	lw	a4,-20(s0)
   22ac4:	400007b7          	lui	a5,0x40000
   22ac8:	00f767b3          	or	a5,a4,a5
   22acc:	fef42623          	sw	a5,-20(s0)
   22ad0:	fec42783          	lw	a5,-20(s0)
   22ad4:	00078593          	mv	a1,a5
   22ad8:	020017b7          	lui	a5,0x2001
   22adc:	54078513          	addi	a0,a5,1344 # 2001540 <_payload_end+0x1fdc540>
   22ae0:	a21ff0ef          	jal	ra,22500 <bss_begin+0x500>
   22ae4:	00100513          	li	a0,1
   22ae8:	a4dff0ef          	jal	ra,22534 <bss_begin+0x534>
   22aec:	00000013          	nop
   22af0:	01813083          	ld	ra,24(sp)
   22af4:	01013403          	ld	s0,16(sp)
   22af8:	02010113          	addi	sp,sp,32
   22afc:	00008067          	ret
   22b00:	fd010113          	addi	sp,sp,-48
   22b04:	02113423          	sd	ra,40(sp)
   22b08:	02813023          	sd	s0,32(sp)
   22b0c:	03010413          	addi	s0,sp,48
   22b10:	fca43c23          	sd	a0,-40(s0)
   22b14:	fd843503          	ld	a0,-40(s0)
   22b18:	9bdff0ef          	jal	ra,224d4 <bss_begin+0x4d4>
   22b1c:	00050793          	mv	a5,a0
   22b20:	0007879b          	sext.w	a5,a5
   22b24:	0007879b          	sext.w	a5,a5
   22b28:	0c07c263          	bltz	a5,22bec <bss_begin+0xbec>
   22b2c:	fd843503          	ld	a0,-40(s0)
   22b30:	9a5ff0ef          	jal	ra,224d4 <bss_begin+0x4d4>
   22b34:	00050793          	mv	a5,a0
   22b38:	fef42623          	sw	a5,-20(s0)
   22b3c:	fec42703          	lw	a4,-20(s0)
   22b40:	c00007b7          	lui	a5,0xc0000
   22b44:	00f767b3          	or	a5,a4,a5
   22b48:	0007879b          	sext.w	a5,a5
   22b4c:	00078593          	mv	a1,a5
   22b50:	fd843503          	ld	a0,-40(s0)
   22b54:	9adff0ef          	jal	ra,22500 <bss_begin+0x500>
   22b58:	fd843503          	ld	a0,-40(s0)
   22b5c:	979ff0ef          	jal	ra,224d4 <bss_begin+0x4d4>
   22b60:	00050793          	mv	a5,a0
   22b64:	fef42623          	sw	a5,-20(s0)
   22b68:	fec42703          	lw	a4,-20(s0)
   22b6c:	200007b7          	lui	a5,0x20000
   22b70:	00f767b3          	or	a5,a4,a5
   22b74:	fef42623          	sw	a5,-20(s0)
   22b78:	fec42783          	lw	a5,-20(s0)
   22b7c:	00078593          	mv	a1,a5
   22b80:	fd843503          	ld	a0,-40(s0)
   22b84:	97dff0ef          	jal	ra,22500 <bss_begin+0x500>
   22b88:	00000013          	nop
   22b8c:	fd843503          	ld	a0,-40(s0)
   22b90:	945ff0ef          	jal	ra,224d4 <bss_begin+0x4d4>
   22b94:	00050793          	mv	a5,a0
   22b98:	0007879b          	sext.w	a5,a5
   22b9c:	00078713          	mv	a4,a5
   22ba0:	100007b7          	lui	a5,0x10000
   22ba4:	00f777b3          	and	a5,a4,a5
   22ba8:	0007879b          	sext.w	a5,a5
   22bac:	fe0780e3          	beqz	a5,22b8c <bss_begin+0xb8c>
   22bb0:	01400513          	li	a0,20
   22bb4:	981ff0ef          	jal	ra,22534 <bss_begin+0x534>
   22bb8:	fd843503          	ld	a0,-40(s0)
   22bbc:	919ff0ef          	jal	ra,224d4 <bss_begin+0x4d4>
   22bc0:	00050793          	mv	a5,a0
   22bc4:	fef42623          	sw	a5,-20(s0)
   22bc8:	fec42703          	lw	a4,-20(s0)
   22bcc:	e00007b7          	lui	a5,0xe0000
   22bd0:	fff78793          	addi	a5,a5,-1 # ffffffffdfffffff <_payload_end+0xffffffffdffdafff>
   22bd4:	00f777b3          	and	a5,a4,a5
   22bd8:	fef42623          	sw	a5,-20(s0)
   22bdc:	fec42783          	lw	a5,-20(s0)
   22be0:	00078593          	mv	a1,a5
   22be4:	fd843503          	ld	a0,-40(s0)
   22be8:	919ff0ef          	jal	ra,22500 <bss_begin+0x500>
   22bec:	00000013          	nop
   22bf0:	02813083          	ld	ra,40(sp)
   22bf4:	02013403          	ld	s0,32(sp)
   22bf8:	03010113          	addi	sp,sp,48
   22bfc:	00008067          	ret
   22c00:	ff010113          	addi	sp,sp,-16
   22c04:	00113423          	sd	ra,8(sp)
   22c08:	00813023          	sd	s0,0(sp)
   22c0c:	01010413          	addi	s0,sp,16
   22c10:	969ff0ef          	jal	ra,22578 <bss_begin+0x578>
   22c14:	ba9ff0ef          	jal	ra,227bc <bss_begin+0x7bc>
   22c18:	d19ff0ef          	jal	ra,22930 <bss_begin+0x930>
   22c1c:	d85ff0ef          	jal	ra,229a0 <bss_begin+0x9a0>
   22c20:	df1ff0ef          	jal	ra,22a10 <bss_begin+0xa10>
   22c24:	e79ff0ef          	jal	ra,22a9c <bss_begin+0xa9c>
   22c28:	020017b7          	lui	a5,0x2001
   22c2c:	02078513          	addi	a0,a5,32 # 2001020 <_payload_end+0x1fdc020>
   22c30:	ed1ff0ef          	jal	ra,22b00 <bss_begin+0xb00>
   22c34:	020017b7          	lui	a5,0x2001
   22c38:	04078513          	addi	a0,a5,64 # 2001040 <_payload_end+0x1fdc040>
   22c3c:	ec5ff0ef          	jal	ra,22b00 <bss_begin+0xb00>
   22c40:	020017b7          	lui	a5,0x2001
   22c44:	04878513          	addi	a0,a5,72 # 2001048 <_payload_end+0x1fdc048>
   22c48:	eb9ff0ef          	jal	ra,22b00 <bss_begin+0xb00>
   22c4c:	020017b7          	lui	a5,0x2001
   22c50:	05878513          	addi	a0,a5,88 # 2001058 <_payload_end+0x1fdc058>
   22c54:	eadff0ef          	jal	ra,22b00 <bss_begin+0xb00>
   22c58:	020017b7          	lui	a5,0x2001
   22c5c:	07878513          	addi	a0,a5,120 # 2001078 <_payload_end+0x1fdc078>
   22c60:	ea1ff0ef          	jal	ra,22b00 <bss_begin+0xb00>
   22c64:	020017b7          	lui	a5,0x2001
   22c68:	08078513          	addi	a0,a5,128 # 2001080 <_payload_end+0x1fdc080>
   22c6c:	e95ff0ef          	jal	ra,22b00 <bss_begin+0xb00>
   22c70:	00000013          	nop
   22c74:	00813083          	ld	ra,8(sp)
   22c78:	00013403          	ld	s0,0(sp)
   22c7c:	01010113          	addi	sp,sp,16
   22c80:	00008067          	ret
   22c84:	fe010113          	addi	sp,sp,-32
   22c88:	00813c23          	sd	s0,24(sp)
   22c8c:	02010413          	addi	s0,sp,32
   22c90:	fea43423          	sd	a0,-24(s0)
   22c94:	fe843783          	ld	a5,-24(s0)
   22c98:	0007c783          	lbu	a5,0(a5)
   22c9c:	0ff7f793          	andi	a5,a5,255
   22ca0:	00078513          	mv	a0,a5
   22ca4:	01813403          	ld	s0,24(sp)
   22ca8:	02010113          	addi	sp,sp,32
   22cac:	00008067          	ret
   22cb0:	fe010113          	addi	sp,sp,-32
   22cb4:	00813c23          	sd	s0,24(sp)
   22cb8:	02010413          	addi	s0,sp,32
   22cbc:	fea43423          	sd	a0,-24(s0)
   22cc0:	fe843783          	ld	a5,-24(s0)
   22cc4:	0007a783          	lw	a5,0(a5)
   22cc8:	0007879b          	sext.w	a5,a5
   22ccc:	00078513          	mv	a0,a5
   22cd0:	01813403          	ld	s0,24(sp)
   22cd4:	02010113          	addi	sp,sp,32
   22cd8:	00008067          	ret
   22cdc:	fe010113          	addi	sp,sp,-32
   22ce0:	00813c23          	sd	s0,24(sp)
   22ce4:	02010413          	addi	s0,sp,32
   22ce8:	fea43423          	sd	a0,-24(s0)
   22cec:	00058793          	mv	a5,a1
   22cf0:	fef42223          	sw	a5,-28(s0)
   22cf4:	fe843783          	ld	a5,-24(s0)
   22cf8:	fe442703          	lw	a4,-28(s0)
   22cfc:	00e7a023          	sw	a4,0(a5)
   22d00:	00000013          	nop
   22d04:	01813403          	ld	s0,24(sp)
   22d08:	02010113          	addi	sp,sp,32
   22d0c:	00008067          	ret
   22d10:	fe010113          	addi	sp,sp,-32
   22d14:	00113c23          	sd	ra,24(sp)
   22d18:	00813823          	sd	s0,16(sp)
   22d1c:	02010413          	addi	s0,sp,32
   22d20:	020007b7          	lui	a5,0x2000
   22d24:	0f078793          	addi	a5,a5,240 # 20000f0 <_payload_end+0x1fdb0f0>
   22d28:	fef43423          	sd	a5,-24(s0)
   22d2c:	fe843503          	ld	a0,-24(s0)
   22d30:	f81ff0ef          	jal	ra,22cb0 <bss_begin+0xcb0>
   22d34:	00050793          	mv	a5,a0
   22d38:	fef42223          	sw	a5,-28(s0)
   22d3c:	fe442703          	lw	a4,-28(s0)
   22d40:	fffff7b7          	lui	a5,0xfffff
   22d44:	0ff78793          	addi	a5,a5,255 # fffffffffffff0ff <_payload_end+0xfffffffffffda0ff>
   22d48:	00f777b3          	and	a5,a4,a5
   22d4c:	fef42223          	sw	a5,-28(s0)
   22d50:	fe442783          	lw	a5,-28(s0)
   22d54:	3007e793          	ori	a5,a5,768
   22d58:	fef42223          	sw	a5,-28(s0)
   22d5c:	fe442783          	lw	a5,-28(s0)
   22d60:	00078593          	mv	a1,a5
   22d64:	fe843503          	ld	a0,-24(s0)
   22d68:	f75ff0ef          	jal	ra,22cdc <bss_begin+0xcdc>
   22d6c:	fe843503          	ld	a0,-24(s0)
   22d70:	f41ff0ef          	jal	ra,22cb0 <bss_begin+0xcb0>
   22d74:	00050793          	mv	a5,a0
   22d78:	fef42223          	sw	a5,-28(s0)
   22d7c:	fe442703          	lw	a4,-28(s0)
   22d80:	fff107b7          	lui	a5,0xfff10
   22d84:	fff78793          	addi	a5,a5,-1 # fffffffffff0ffff <_payload_end+0xffffffffffeeafff>
   22d88:	00f777b3          	and	a5,a4,a5
   22d8c:	fef42223          	sw	a5,-28(s0)
   22d90:	fe442703          	lw	a4,-28(s0)
   22d94:	000307b7          	lui	a5,0x30
   22d98:	00f767b3          	or	a5,a4,a5
   22d9c:	fef42223          	sw	a5,-28(s0)
   22da0:	fe442783          	lw	a5,-28(s0)
   22da4:	00078593          	mv	a1,a5
   22da8:	fe843503          	ld	a0,-24(s0)
   22dac:	f31ff0ef          	jal	ra,22cdc <bss_begin+0xcdc>
   22db0:	020027b7          	lui	a5,0x2002
   22db4:	90c78793          	addi	a5,a5,-1780 # 200190c <_payload_end+0x1fdc90c>
   22db8:	fef43423          	sd	a5,-24(s0)
   22dbc:	fe843503          	ld	a0,-24(s0)
   22dc0:	ef1ff0ef          	jal	ra,22cb0 <bss_begin+0xcb0>
   22dc4:	00050793          	mv	a5,a0
   22dc8:	fef42223          	sw	a5,-28(s0)
   22dcc:	fe442783          	lw	a5,-28(s0)
   22dd0:	0017e793          	ori	a5,a5,1
   22dd4:	fef42223          	sw	a5,-28(s0)
   22dd8:	fe442783          	lw	a5,-28(s0)
   22ddc:	00078593          	mv	a1,a5
   22de0:	fe843503          	ld	a0,-24(s0)
   22de4:	ef9ff0ef          	jal	ra,22cdc <bss_begin+0xcdc>
   22de8:	020027b7          	lui	a5,0x2002
   22dec:	90c78793          	addi	a5,a5,-1780 # 200190c <_payload_end+0x1fdc90c>
   22df0:	fef43423          	sd	a5,-24(s0)
   22df4:	fe843503          	ld	a0,-24(s0)
   22df8:	eb9ff0ef          	jal	ra,22cb0 <bss_begin+0xcb0>
   22dfc:	00050793          	mv	a5,a0
   22e00:	fef42223          	sw	a5,-28(s0)
   22e04:	fe442703          	lw	a4,-28(s0)
   22e08:	000107b7          	lui	a5,0x10
   22e0c:	00f767b3          	or	a5,a4,a5
   22e10:	fef42223          	sw	a5,-28(s0)
   22e14:	fe442783          	lw	a5,-28(s0)
   22e18:	00078593          	mv	a1,a5
   22e1c:	fe843503          	ld	a0,-24(s0)
   22e20:	ebdff0ef          	jal	ra,22cdc <bss_begin+0xcdc>
   22e24:	025007b7          	lui	a5,0x2500
   22e28:	fef43423          	sd	a5,-24(s0)
   22e2c:	fe843783          	ld	a5,-24(s0)
   22e30:	00478793          	addi	a5,a5,4 # 2500004 <_payload_end+0x24db004>
   22e34:	00000593          	li	a1,0
   22e38:	00078513          	mv	a0,a5
   22e3c:	ea1ff0ef          	jal	ra,22cdc <bss_begin+0xcdc>
   22e40:	fe843783          	ld	a5,-24(s0)
   22e44:	00878793          	addi	a5,a5,8
   22e48:	0f100593          	li	a1,241
   22e4c:	00078513          	mv	a0,a5
   22e50:	e8dff0ef          	jal	ra,22cdc <bss_begin+0xcdc>
   22e54:	fe843783          	ld	a5,-24(s0)
   22e58:	01078793          	addi	a5,a5,16
   22e5c:	00000593          	li	a1,0
   22e60:	00078513          	mv	a0,a5
   22e64:	e79ff0ef          	jal	ra,22cdc <bss_begin+0xcdc>
   22e68:	fe843783          	ld	a5,-24(s0)
   22e6c:	00c78793          	addi	a5,a5,12
   22e70:	00078513          	mv	a0,a5
   22e74:	e3dff0ef          	jal	ra,22cb0 <bss_begin+0xcb0>
   22e78:	00050793          	mv	a5,a0
   22e7c:	fef42223          	sw	a5,-28(s0)
   22e80:	fe442783          	lw	a5,-28(s0)
   22e84:	0807e793          	ori	a5,a5,128
   22e88:	fef42223          	sw	a5,-28(s0)
   22e8c:	fe843783          	ld	a5,-24(s0)
   22e90:	00c78793          	addi	a5,a5,12
   22e94:	fe442703          	lw	a4,-28(s0)
   22e98:	00070593          	mv	a1,a4
   22e9c:	00078513          	mv	a0,a5
   22ea0:	e3dff0ef          	jal	ra,22cdc <bss_begin+0xcdc>
   22ea4:	00d00593          	li	a1,13
   22ea8:	fe843503          	ld	a0,-24(s0)
   22eac:	e31ff0ef          	jal	ra,22cdc <bss_begin+0xcdc>
   22eb0:	fe843783          	ld	a5,-24(s0)
   22eb4:	00478793          	addi	a5,a5,4
   22eb8:	00000593          	li	a1,0
   22ebc:	00078513          	mv	a0,a5
   22ec0:	e1dff0ef          	jal	ra,22cdc <bss_begin+0xcdc>
   22ec4:	fe843783          	ld	a5,-24(s0)
   22ec8:	00c78793          	addi	a5,a5,12
   22ecc:	00078513          	mv	a0,a5
   22ed0:	de1ff0ef          	jal	ra,22cb0 <bss_begin+0xcb0>
   22ed4:	00050793          	mv	a5,a0
   22ed8:	fef42223          	sw	a5,-28(s0)
   22edc:	fe442783          	lw	a5,-28(s0)
   22ee0:	f7f7f793          	andi	a5,a5,-129
   22ee4:	fef42223          	sw	a5,-28(s0)
   22ee8:	fe843783          	ld	a5,-24(s0)
   22eec:	00c78793          	addi	a5,a5,12
   22ef0:	fe442703          	lw	a4,-28(s0)
   22ef4:	00070593          	mv	a1,a4
   22ef8:	00078513          	mv	a0,a5
   22efc:	de1ff0ef          	jal	ra,22cdc <bss_begin+0xcdc>
   22f00:	fe843783          	ld	a5,-24(s0)
   22f04:	00c78793          	addi	a5,a5,12
   22f08:	00078513          	mv	a0,a5
   22f0c:	da5ff0ef          	jal	ra,22cb0 <bss_begin+0xcb0>
   22f10:	00050793          	mv	a5,a0
   22f14:	fef42223          	sw	a5,-28(s0)
   22f18:	fe442783          	lw	a5,-28(s0)
   22f1c:	fe07f793          	andi	a5,a5,-32
   22f20:	fef42223          	sw	a5,-28(s0)
   22f24:	fe442783          	lw	a5,-28(s0)
   22f28:	0037e793          	ori	a5,a5,3
   22f2c:	fef42223          	sw	a5,-28(s0)
   22f30:	fe843783          	ld	a5,-24(s0)
   22f34:	00c78793          	addi	a5,a5,12
   22f38:	fe442703          	lw	a4,-28(s0)
   22f3c:	00070593          	mv	a1,a4
   22f40:	00078513          	mv	a0,a5
   22f44:	d99ff0ef          	jal	ra,22cdc <bss_begin+0xcdc>
   22f48:	00000013          	nop
   22f4c:	01813083          	ld	ra,24(sp)
   22f50:	01013403          	ld	s0,16(sp)
   22f54:	02010113          	addi	sp,sp,32
   22f58:	00008067          	ret
   22f5c:	fd010113          	addi	sp,sp,-48
   22f60:	02113423          	sd	ra,40(sp)
   22f64:	02813023          	sd	s0,32(sp)
   22f68:	03010413          	addi	s0,sp,48
   22f6c:	00050793          	mv	a5,a0
   22f70:	fcf40fa3          	sb	a5,-33(s0)
   22f74:	025007b7          	lui	a5,0x2500
   22f78:	fef43423          	sd	a5,-24(s0)
   22f7c:	00000013          	nop
   22f80:	fe843783          	ld	a5,-24(s0)
   22f84:	07c78793          	addi	a5,a5,124 # 250007c <_payload_end+0x24db07c>
   22f88:	00078513          	mv	a0,a5
   22f8c:	d25ff0ef          	jal	ra,22cb0 <bss_begin+0xcb0>
   22f90:	00050793          	mv	a5,a0
   22f94:	0007879b          	sext.w	a5,a5
   22f98:	0027f793          	andi	a5,a5,2
   22f9c:	0007879b          	sext.w	a5,a5
   22fa0:	fe0780e3          	beqz	a5,22f80 <bss_begin+0xf80>
   22fa4:	fdf44783          	lbu	a5,-33(s0)
   22fa8:	0007879b          	sext.w	a5,a5
   22fac:	00078593          	mv	a1,a5
   22fb0:	fe843503          	ld	a0,-24(s0)
   22fb4:	d29ff0ef          	jal	ra,22cdc <bss_begin+0xcdc>
   22fb8:	00000013          	nop
   22fbc:	02813083          	ld	ra,40(sp)
   22fc0:	02013403          	ld	s0,32(sp)
   22fc4:	03010113          	addi	sp,sp,48
   22fc8:	00008067          	ret
   22fcc:	fe010113          	addi	sp,sp,-32
   22fd0:	00113c23          	sd	ra,24(sp)
   22fd4:	00813823          	sd	s0,16(sp)
   22fd8:	02010413          	addi	s0,sp,32
   22fdc:	00050793          	mv	a5,a0
   22fe0:	fef42623          	sw	a5,-20(s0)
   22fe4:	fec42783          	lw	a5,-20(s0)
   22fe8:	0ff7f793          	andi	a5,a5,255
   22fec:	00078513          	mv	a0,a5
   22ff0:	f6dff0ef          	jal	ra,22f5c <bss_begin+0xf5c>
   22ff4:	fec42783          	lw	a5,-20(s0)
   22ff8:	00078513          	mv	a0,a5
   22ffc:	01813083          	ld	ra,24(sp)
   23000:	01013403          	ld	s0,16(sp)
   23004:	02010113          	addi	sp,sp,32
   23008:	00008067          	ret
   2300c:	fe010113          	addi	sp,sp,-32
   23010:	00113c23          	sd	ra,24(sp)
   23014:	00813823          	sd	s0,16(sp)
   23018:	02010413          	addi	s0,sp,32
   2301c:	025007b7          	lui	a5,0x2500
   23020:	fef43423          	sd	a5,-24(s0)
   23024:	00000013          	nop
   23028:	fe843783          	ld	a5,-24(s0)
   2302c:	07c78793          	addi	a5,a5,124 # 250007c <_payload_end+0x24db07c>
   23030:	00078513          	mv	a0,a5
   23034:	c7dff0ef          	jal	ra,22cb0 <bss_begin+0xcb0>
   23038:	00050793          	mv	a5,a0
   2303c:	0007879b          	sext.w	a5,a5
   23040:	0087f793          	andi	a5,a5,8
   23044:	0007879b          	sext.w	a5,a5
   23048:	fe0780e3          	beqz	a5,23028 <bss_begin+0x1028>
   2304c:	fe843503          	ld	a0,-24(s0)
   23050:	c35ff0ef          	jal	ra,22c84 <bss_begin+0xc84>
   23054:	00050793          	mv	a5,a0
   23058:	00078513          	mv	a0,a5
   2305c:	01813083          	ld	ra,24(sp)
   23060:	01013403          	ld	s0,16(sp)
   23064:	02010113          	addi	sp,sp,32
   23068:	00008067          	ret
   2306c:	fd010113          	addi	sp,sp,-48
   23070:	02113423          	sd	ra,40(sp)
   23074:	02813023          	sd	s0,32(sp)
   23078:	03010413          	addi	s0,sp,48
   2307c:	fca43c23          	sd	a0,-40(s0)
   23080:	fe042623          	sw	zero,-20(s0)
   23084:	04c0006f          	j	230d0 <bss_begin+0x10d0>
   23088:	fec42783          	lw	a5,-20(s0)
   2308c:	fd843703          	ld	a4,-40(s0)
   23090:	00f707b3          	add	a5,a4,a5
   23094:	0007c783          	lbu	a5,0(a5)
   23098:	00078713          	mv	a4,a5
   2309c:	00a00793          	li	a5,10
   230a0:	00f71663          	bne	a4,a5,230ac <bss_begin+0x10ac>
   230a4:	00d00513          	li	a0,13
   230a8:	eb5ff0ef          	jal	ra,22f5c <bss_begin+0xf5c>
   230ac:	fec42783          	lw	a5,-20(s0)
   230b0:	fd843703          	ld	a4,-40(s0)
   230b4:	00f707b3          	add	a5,a4,a5
   230b8:	0007c783          	lbu	a5,0(a5)
   230bc:	00078513          	mv	a0,a5
   230c0:	e9dff0ef          	jal	ra,22f5c <bss_begin+0xf5c>
   230c4:	fec42783          	lw	a5,-20(s0)
   230c8:	0017879b          	addiw	a5,a5,1
   230cc:	fef42623          	sw	a5,-20(s0)
   230d0:	fec42783          	lw	a5,-20(s0)
   230d4:	fd843703          	ld	a4,-40(s0)
   230d8:	00f707b3          	add	a5,a4,a5
   230dc:	0007c783          	lbu	a5,0(a5)
   230e0:	fa0794e3          	bnez	a5,23088 <bss_begin+0x1088>
   230e4:	00000013          	nop
   230e8:	00000013          	nop
   230ec:	02813083          	ld	ra,40(sp)
   230f0:	02013403          	ld	s0,32(sp)
   230f4:	03010113          	addi	sp,sp,48
   230f8:	00008067          	ret
   230fc:	fc010113          	addi	sp,sp,-64
   23100:	02813c23          	sd	s0,56(sp)
   23104:	04010413          	addi	s0,sp,64
   23108:	fca43423          	sd	a0,-56(s0)
   2310c:	fcb43023          	sd	a1,-64(s0)
   23110:	fe042223          	sw	zero,-28(s0)
   23114:	fc843783          	ld	a5,-56(s0)
   23118:	fef43423          	sd	a5,-24(s0)
   2311c:	0900006f          	j	231ac <bss_begin+0x11ac>
   23120:	fe843783          	ld	a5,-24(s0)
   23124:	0007c783          	lbu	a5,0(a5)
   23128:	00078713          	mv	a4,a5
   2312c:	02f00793          	li	a5,47
   23130:	02e7f063          	bgeu	a5,a4,23150 <bss_begin+0x1150>
   23134:	fe843783          	ld	a5,-24(s0)
   23138:	0007c783          	lbu	a5,0(a5)
   2313c:	00078713          	mv	a4,a5
   23140:	03900793          	li	a5,57
   23144:	00e7e663          	bltu	a5,a4,23150 <bss_begin+0x1150>
   23148:	00100793          	li	a5,1
   2314c:	0080006f          	j	23154 <bss_begin+0x1154>
   23150:	00000793          	li	a5,0
   23154:	fef42023          	sw	a5,-32(s0)
   23158:	fe042783          	lw	a5,-32(s0)
   2315c:	0007879b          	sext.w	a5,a5
   23160:	04078e63          	beqz	a5,231bc <bss_begin+0x11bc>
   23164:	fe843783          	ld	a5,-24(s0)
   23168:	0007c783          	lbu	a5,0(a5)
   2316c:	0007879b          	sext.w	a5,a5
   23170:	fd07879b          	addiw	a5,a5,-48
   23174:	fcf42e23          	sw	a5,-36(s0)
   23178:	fe442703          	lw	a4,-28(s0)
   2317c:	00070793          	mv	a5,a4
   23180:	0027979b          	slliw	a5,a5,0x2
   23184:	00e787bb          	addw	a5,a5,a4
   23188:	0017979b          	slliw	a5,a5,0x1
   2318c:	fef42223          	sw	a5,-28(s0)
   23190:	fe442703          	lw	a4,-28(s0)
   23194:	fdc42783          	lw	a5,-36(s0)
   23198:	00f707bb          	addw	a5,a4,a5
   2319c:	fef42223          	sw	a5,-28(s0)
   231a0:	fe843783          	ld	a5,-24(s0)
   231a4:	00178793          	addi	a5,a5,1
   231a8:	fef43423          	sd	a5,-24(s0)
   231ac:	fc843783          	ld	a5,-56(s0)
   231b0:	0007c783          	lbu	a5,0(a5)
   231b4:	f60796e3          	bnez	a5,23120 <bss_begin+0x1120>
   231b8:	0080006f          	j	231c0 <bss_begin+0x11c0>
   231bc:	00000013          	nop
   231c0:	fc043783          	ld	a5,-64(s0)
   231c4:	fe442703          	lw	a4,-28(s0)
   231c8:	00e7a023          	sw	a4,0(a5)
   231cc:	fe843703          	ld	a4,-24(s0)
   231d0:	fc843783          	ld	a5,-56(s0)
   231d4:	40f707b3          	sub	a5,a4,a5
   231d8:	0007879b          	sext.w	a5,a5
   231dc:	00078513          	mv	a0,a5
   231e0:	03813403          	ld	s0,56(sp)
   231e4:	04010113          	addi	sp,sp,64
   231e8:	00008067          	ret
   231ec:	fb010113          	addi	sp,sp,-80
   231f0:	04113423          	sd	ra,72(sp)
   231f4:	04813023          	sd	s0,64(sp)
   231f8:	05010413          	addi	s0,sp,80
   231fc:	00050793          	mv	a5,a0
   23200:	00068713          	mv	a4,a3
   23204:	faf42e23          	sw	a5,-68(s0)
   23208:	00058793          	mv	a5,a1
   2320c:	faf42c23          	sw	a5,-72(s0)
   23210:	00060793          	mv	a5,a2
   23214:	faf42a23          	sw	a5,-76(s0)
   23218:	00070793          	mv	a5,a4
   2321c:	faf42823          	sw	a5,-80(s0)
   23220:	fe042223          	sw	zero,-28(s0)
   23224:	0280006f          	j	2324c <bss_begin+0x124c>
   23228:	fb042783          	lw	a5,-80(s0)
   2322c:	0ff7f713          	andi	a4,a5,255
   23230:	fe442783          	lw	a5,-28(s0)
   23234:	ff040693          	addi	a3,s0,-16
   23238:	00f687b3          	add	a5,a3,a5
   2323c:	fce78823          	sb	a4,-48(a5)
   23240:	fe442783          	lw	a5,-28(s0)
   23244:	0017879b          	addiw	a5,a5,1
   23248:	fef42223          	sw	a5,-28(s0)
   2324c:	fe442783          	lw	a5,-28(s0)
   23250:	00078713          	mv	a4,a5
   23254:	01f00793          	li	a5,31
   23258:	fce7f8e3          	bgeu	a5,a4,23228 <bss_begin+0x1228>
   2325c:	00a00793          	li	a5,10
   23260:	fef42623          	sw	a5,-20(s0)
   23264:	fb842783          	lw	a5,-72(s0)
   23268:	0007879b          	sext.w	a5,a5
   2326c:	00078663          	beqz	a5,23278 <bss_begin+0x1278>
   23270:	01000793          	li	a5,16
   23274:	fef42623          	sw	a5,-20(s0)
   23278:	fe042423          	sw	zero,-24(s0)
   2327c:	fbc42703          	lw	a4,-68(s0)
   23280:	fec42783          	lw	a5,-20(s0)
   23284:	02f777bb          	remuw	a5,a4,a5
   23288:	0007879b          	sext.w	a5,a5
   2328c:	fef42023          	sw	a5,-32(s0)
   23290:	fe042783          	lw	a5,-32(s0)
   23294:	0007871b          	sext.w	a4,a5
   23298:	00900793          	li	a5,9
   2329c:	02e7d463          	bge	a5,a4,232c4 <bss_begin+0x12c4>
   232a0:	fe042783          	lw	a5,-32(s0)
   232a4:	0ff7f793          	andi	a5,a5,255
   232a8:	0577879b          	addiw	a5,a5,87
   232ac:	0ff7f713          	andi	a4,a5,255
   232b0:	fe842783          	lw	a5,-24(s0)
   232b4:	ff040693          	addi	a3,s0,-16
   232b8:	00f687b3          	add	a5,a3,a5
   232bc:	fce78823          	sb	a4,-48(a5)
   232c0:	0240006f          	j	232e4 <bss_begin+0x12e4>
   232c4:	fe042783          	lw	a5,-32(s0)
   232c8:	0ff7f793          	andi	a5,a5,255
   232cc:	0307879b          	addiw	a5,a5,48
   232d0:	0ff7f713          	andi	a4,a5,255
   232d4:	fe842783          	lw	a5,-24(s0)
   232d8:	ff040693          	addi	a3,s0,-16
   232dc:	00f687b3          	add	a5,a3,a5
   232e0:	fce78823          	sb	a4,-48(a5)
   232e4:	fbc42703          	lw	a4,-68(s0)
   232e8:	fec42783          	lw	a5,-20(s0)
   232ec:	02f757bb          	divuw	a5,a4,a5
   232f0:	faf42e23          	sw	a5,-68(s0)
   232f4:	fe842783          	lw	a5,-24(s0)
   232f8:	0017879b          	addiw	a5,a5,1
   232fc:	fef42423          	sw	a5,-24(s0)
   23300:	fbc42783          	lw	a5,-68(s0)
   23304:	0007879b          	sext.w	a5,a5
   23308:	f6079ae3          	bnez	a5,2327c <bss_begin+0x127c>
   2330c:	fb442783          	lw	a5,-76(s0)
   23310:	0007879b          	sext.w	a5,a5
   23314:	02f05c63          	blez	a5,2334c <bss_begin+0x134c>
   23318:	fb442783          	lw	a5,-76(s0)
   2331c:	00078713          	mv	a4,a5
   23320:	01f00793          	li	a5,31
   23324:	00e7f663          	bgeu	a5,a4,23330 <bss_begin+0x1330>
   23328:	01f00793          	li	a5,31
   2332c:	faf42a23          	sw	a5,-76(s0)
   23330:	fe842703          	lw	a4,-24(s0)
   23334:	fb442783          	lw	a5,-76(s0)
   23338:	0007071b          	sext.w	a4,a4
   2333c:	0007879b          	sext.w	a5,a5
   23340:	00f75663          	bge	a4,a5,2334c <bss_begin+0x134c>
   23344:	fb442783          	lw	a5,-76(s0)
   23348:	fef42423          	sw	a5,-24(s0)
   2334c:	fe842783          	lw	a5,-24(s0)
   23350:	ff040713          	addi	a4,s0,-16
   23354:	00f707b3          	add	a5,a4,a5
   23358:	fc078823          	sb	zero,-48(a5)
   2335c:	fe842783          	lw	a5,-24(s0)
   23360:	fff7879b          	addiw	a5,a5,-1
   23364:	fef42223          	sw	a5,-28(s0)
   23368:	0280006f          	j	23390 <bss_begin+0x1390>
   2336c:	fe442783          	lw	a5,-28(s0)
   23370:	ff040713          	addi	a4,s0,-16
   23374:	00f707b3          	add	a5,a4,a5
   23378:	fd07c783          	lbu	a5,-48(a5)
   2337c:	00078513          	mv	a0,a5
   23380:	bddff0ef          	jal	ra,22f5c <bss_begin+0xf5c>
   23384:	fe442783          	lw	a5,-28(s0)
   23388:	fff7879b          	addiw	a5,a5,-1
   2338c:	fef42223          	sw	a5,-28(s0)
   23390:	fe442783          	lw	a5,-28(s0)
   23394:	0007879b          	sext.w	a5,a5
   23398:	fc07dae3          	bgez	a5,2336c <bss_begin+0x136c>
   2339c:	00000013          	nop
   233a0:	00000013          	nop
   233a4:	04813083          	ld	ra,72(sp)
   233a8:	04013403          	ld	s0,64(sp)
   233ac:	05010113          	addi	sp,sp,80
   233b0:	00008067          	ret
   233b4:	fb010113          	addi	sp,sp,-80
   233b8:	04113423          	sd	ra,72(sp)
   233bc:	04813023          	sd	s0,64(sp)
   233c0:	05010413          	addi	s0,sp,80
   233c4:	faa43c23          	sd	a0,-72(s0)
   233c8:	fab43823          	sd	a1,-80(s0)
   233cc:	02000793          	li	a5,32
   233d0:	fcf42a23          	sw	a5,-44(s0)
   233d4:	fb843783          	ld	a5,-72(s0)
   233d8:	fef43423          	sd	a5,-24(s0)
   233dc:	1880006f          	j	23564 <bss_begin+0x1564>
   233e0:	fc042e23          	sw	zero,-36(s0)
   233e4:	fc042223          	sw	zero,-60(s0)
   233e8:	fe843783          	ld	a5,-24(s0)
   233ec:	0007c783          	lbu	a5,0(a5)
   233f0:	fcf42823          	sw	a5,-48(s0)
   233f4:	fe843783          	ld	a5,-24(s0)
   233f8:	fef43023          	sd	a5,-32(s0)
   233fc:	fe843783          	ld	a5,-24(s0)
   23400:	0007c783          	lbu	a5,0(a5)
   23404:	00078713          	mv	a4,a5
   23408:	02500793          	li	a5,37
   2340c:	06f71863          	bne	a4,a5,2347c <bss_begin+0x147c>
   23410:	fe843783          	ld	a5,-24(s0)
   23414:	fef43023          	sd	a5,-32(s0)
   23418:	fe843783          	ld	a5,-24(s0)
   2341c:	00178793          	addi	a5,a5,1
   23420:	fef43423          	sd	a5,-24(s0)
   23424:	fe843783          	ld	a5,-24(s0)
   23428:	0007c783          	lbu	a5,0(a5)
   2342c:	00078713          	mv	a4,a5
   23430:	02f00793          	li	a5,47
   23434:	02e7fe63          	bgeu	a5,a4,23470 <bss_begin+0x1470>
   23438:	fe843783          	ld	a5,-24(s0)
   2343c:	0007c783          	lbu	a5,0(a5)
   23440:	00078713          	mv	a4,a5
   23444:	03900793          	li	a5,57
   23448:	02e7e463          	bltu	a5,a4,23470 <bss_begin+0x1470>
   2344c:	fc440793          	addi	a5,s0,-60
   23450:	00078593          	mv	a1,a5
   23454:	fe843503          	ld	a0,-24(s0)
   23458:	ca5ff0ef          	jal	ra,230fc <bss_begin+0x10fc>
   2345c:	00050793          	mv	a5,a0
   23460:	00078713          	mv	a4,a5
   23464:	fe843783          	ld	a5,-24(s0)
   23468:	00e787b3          	add	a5,a5,a4
   2346c:	fef43423          	sd	a5,-24(s0)
   23470:	fe843783          	ld	a5,-24(s0)
   23474:	0007c783          	lbu	a5,0(a5)
   23478:	fcf42e23          	sw	a5,-36(s0)
   2347c:	fdc42783          	lw	a5,-36(s0)
   23480:	0007871b          	sext.w	a4,a5
   23484:	06400793          	li	a5,100
   23488:	00f70a63          	beq	a4,a5,2349c <bss_begin+0x149c>
   2348c:	fdc42783          	lw	a5,-36(s0)
   23490:	0007871b          	sext.w	a4,a5
   23494:	07800793          	li	a5,120
   23498:	04f71863          	bne	a4,a5,234e8 <bss_begin+0x14e8>
   2349c:	fb043783          	ld	a5,-80(s0)
   234a0:	00878713          	addi	a4,a5,8
   234a4:	fae43823          	sd	a4,-80(s0)
   234a8:	0007a783          	lw	a5,0(a5)
   234ac:	fcf42423          	sw	a5,-56(s0)
   234b0:	fc842503          	lw	a0,-56(s0)
   234b4:	fdc42783          	lw	a5,-36(s0)
   234b8:	0007871b          	sext.w	a4,a5
   234bc:	07800793          	li	a5,120
   234c0:	40f707b3          	sub	a5,a4,a5
   234c4:	0017b793          	seqz	a5,a5
   234c8:	0ff7f793          	andi	a5,a5,255
   234cc:	0007879b          	sext.w	a5,a5
   234d0:	fc442703          	lw	a4,-60(s0)
   234d4:	fd442683          	lw	a3,-44(s0)
   234d8:	00070613          	mv	a2,a4
   234dc:	00078593          	mv	a1,a5
   234e0:	d0dff0ef          	jal	ra,231ec <bss_begin+0x11ec>
   234e4:	0740006f          	j	23558 <bss_begin+0x1558>
   234e8:	fc042c23          	sw	zero,-40(s0)
   234ec:	0280006f          	j	23514 <bss_begin+0x1514>
   234f0:	fd842783          	lw	a5,-40(s0)
   234f4:	fe043703          	ld	a4,-32(s0)
   234f8:	00f707b3          	add	a5,a4,a5
   234fc:	0007c783          	lbu	a5,0(a5)
   23500:	00078513          	mv	a0,a5
   23504:	a59ff0ef          	jal	ra,22f5c <bss_begin+0xf5c>
   23508:	fd842783          	lw	a5,-40(s0)
   2350c:	0017879b          	addiw	a5,a5,1
   23510:	fcf42c23          	sw	a5,-40(s0)
   23514:	fd842703          	lw	a4,-40(s0)
   23518:	fe843683          	ld	a3,-24(s0)
   2351c:	fe043783          	ld	a5,-32(s0)
   23520:	40f687b3          	sub	a5,a3,a5
   23524:	fcf746e3          	blt	a4,a5,234f0 <bss_begin+0x14f0>
   23528:	fdc42783          	lw	a5,-36(s0)
   2352c:	0007879b          	sext.w	a5,a5
   23530:	00078863          	beqz	a5,23540 <bss_begin+0x1540>
   23534:	fdc42783          	lw	a5,-36(s0)
   23538:	0ff7f793          	andi	a5,a5,255
   2353c:	00c0006f          	j	23548 <bss_begin+0x1548>
   23540:	fd042783          	lw	a5,-48(s0)
   23544:	0ff7f793          	andi	a5,a5,255
   23548:	fcf407a3          	sb	a5,-49(s0)
   2354c:	fcf44783          	lbu	a5,-49(s0)
   23550:	00078513          	mv	a0,a5
   23554:	a09ff0ef          	jal	ra,22f5c <bss_begin+0xf5c>
   23558:	fe843783          	ld	a5,-24(s0)
   2355c:	00178793          	addi	a5,a5,1
   23560:	fef43423          	sd	a5,-24(s0)
   23564:	fe843783          	ld	a5,-24(s0)
   23568:	0007c783          	lbu	a5,0(a5)
   2356c:	e6079ae3          	bnez	a5,233e0 <bss_begin+0x13e0>
   23570:	00000793          	li	a5,0
   23574:	00078513          	mv	a0,a5
   23578:	04813083          	ld	ra,72(sp)
   2357c:	04013403          	ld	s0,64(sp)
   23580:	05010113          	addi	sp,sp,80
   23584:	00008067          	ret
   23588:	f9010113          	addi	sp,sp,-112
   2358c:	02113423          	sd	ra,40(sp)
   23590:	02813023          	sd	s0,32(sp)
   23594:	03010413          	addi	s0,sp,48
   23598:	fca43c23          	sd	a0,-40(s0)
   2359c:	00b43423          	sd	a1,8(s0)
   235a0:	00c43823          	sd	a2,16(s0)
   235a4:	00d43c23          	sd	a3,24(s0)
   235a8:	02e43023          	sd	a4,32(s0)
   235ac:	02f43423          	sd	a5,40(s0)
   235b0:	03043823          	sd	a6,48(s0)
   235b4:	03143c23          	sd	a7,56(s0)
   235b8:	04040793          	addi	a5,s0,64
   235bc:	fcf43823          	sd	a5,-48(s0)
   235c0:	fd043783          	ld	a5,-48(s0)
   235c4:	fc878793          	addi	a5,a5,-56
   235c8:	fef43423          	sd	a5,-24(s0)
   235cc:	fe843783          	ld	a5,-24(s0)
   235d0:	00078593          	mv	a1,a5
   235d4:	fd843503          	ld	a0,-40(s0)
   235d8:	dddff0ef          	jal	ra,233b4 <bss_begin+0x13b4>
   235dc:	00000793          	li	a5,0
   235e0:	00078513          	mv	a0,a5
   235e4:	02813083          	ld	ra,40(sp)
   235e8:	02013403          	ld	s0,32(sp)
   235ec:	07010113          	addi	sp,sp,112
   235f0:	00008067          	ret
   235f4:	fd010113          	addi	sp,sp,-48
   235f8:	02113423          	sd	ra,40(sp)
   235fc:	02813023          	sd	s0,32(sp)
   23600:	03010413          	addi	s0,sp,48
   23604:	00050793          	mv	a5,a0
   23608:	fcf42e23          	sw	a5,-36(s0)
   2360c:	03000513          	li	a0,48
   23610:	94dff0ef          	jal	ra,22f5c <bss_begin+0xf5c>
   23614:	07800513          	li	a0,120
   23618:	945ff0ef          	jal	ra,22f5c <bss_begin+0xf5c>
   2361c:	00700793          	li	a5,7
   23620:	fef42623          	sw	a5,-20(s0)
   23624:	07c0006f          	j	236a0 <bss_begin+0x16a0>
   23628:	fec42783          	lw	a5,-20(s0)
   2362c:	0027979b          	slliw	a5,a5,0x2
   23630:	0007879b          	sext.w	a5,a5
   23634:	00078713          	mv	a4,a5
   23638:	fdc42783          	lw	a5,-36(s0)
   2363c:	00e7d7bb          	srlw	a5,a5,a4
   23640:	0007879b          	sext.w	a5,a5
   23644:	0007879b          	sext.w	a5,a5
   23648:	00f7f793          	andi	a5,a5,15
   2364c:	fef42423          	sw	a5,-24(s0)
   23650:	fe842783          	lw	a5,-24(s0)
   23654:	0007871b          	sext.w	a4,a5
   23658:	00900793          	li	a5,9
   2365c:	02e7c063          	blt	a5,a4,2367c <bss_begin+0x167c>
   23660:	fe842783          	lw	a5,-24(s0)
   23664:	0ff7f793          	andi	a5,a5,255
   23668:	0307879b          	addiw	a5,a5,48
   2366c:	0ff7f793          	andi	a5,a5,255
   23670:	00078513          	mv	a0,a5
   23674:	8e9ff0ef          	jal	ra,22f5c <bss_begin+0xf5c>
   23678:	01c0006f          	j	23694 <bss_begin+0x1694>
   2367c:	fe842783          	lw	a5,-24(s0)
   23680:	0ff7f793          	andi	a5,a5,255
   23684:	0377879b          	addiw	a5,a5,55
   23688:	0ff7f793          	andi	a5,a5,255
   2368c:	00078513          	mv	a0,a5
   23690:	8cdff0ef          	jal	ra,22f5c <bss_begin+0xf5c>
   23694:	fec42783          	lw	a5,-20(s0)
   23698:	fff7879b          	addiw	a5,a5,-1
   2369c:	fef42623          	sw	a5,-20(s0)
   236a0:	fec42783          	lw	a5,-20(s0)
   236a4:	0007879b          	sext.w	a5,a5
   236a8:	f807d0e3          	bgez	a5,23628 <bss_begin+0x1628>
   236ac:	00000013          	nop
   236b0:	00000013          	nop
   236b4:	02813083          	ld	ra,40(sp)
   236b8:	02013403          	ld	s0,32(sp)
   236bc:	03010113          	addi	sp,sp,48
   236c0:	00008067          	ret
   236c4:	0000                	unimp
   236c6:	0000                	unimp
   236c8:	abcd                	j	23cba <bss_begin+0x1cba>
   236ca:	abcd                	j	23cbc <bss_begin+0x1cbc>
   236cc:	5678                	lw	a4,108(a2)
   236ce:	1234                	addi	a3,sp,296
   236d0:	000212b7          	lui	t0,0x21
   236d4:	00028303          	lb	t1,0(t0) # 21000 <stacks_start>
   236d8:	00428303          	lb	t1,4(t0)
   236dc:	ffc28303          	lb	t1,-4(t0)
   236e0:	0002b303          	ld	t1,0(t0)
   236e4:	00428303          	lb	t1,4(t0)
   236e8:	00000297          	auipc	t0,0x0
   236ec:	fe028293          	addi	t0,t0,-32 # 236c8 <bss_begin+0x16c8>
   236f0:	00000317          	auipc	t1,0x0
   236f4:	fd830313          	addi	t1,t1,-40 # 236c8 <bss_begin+0x16c8>
   236f8:	802002b7          	lui	t0,0x80200
   236fc:	40200337          	lui	t1,0x40200
   23700:	00008067          	ret
   23704:	c00002b7          	lui	t0,0xc0000
   23708:	0452829b          	addiw	t0,t0,69
   2370c:	02129293          	slli	t0,t0,0x21
   23710:	4012d593          	srai	a1,t0,0x1
   23714:	0012d313          	srli	t1,t0,0x1
   23718:	0250029b          	addiw	t0,zero,37
   2371c:	01f29293          	slli	t0,t0,0x1f
   23720:	08a28293          	addi	t0,t0,138 # ffffffffc000008a <_payload_end+0xffffffffbffdb08a>
   23724:	4012d61b          	sraiw	a2,t0,0x1
   23728:	0012d31b          	srliw	t1,t0,0x1
   2372c:	0012969b          	slliw	a3,t0,0x1
   23730:	0490029b          	addiw	t0,zero,73
   23734:	01e29293          	slli	t0,t0,0x1e
   23738:	08a28293          	addi	t0,t0,138
   2373c:	4012d61b          	sraiw	a2,t0,0x1
   23740:	0012d31b          	srliw	t1,t0,0x1
   23744:	0012971b          	slliw	a4,t0,0x1
   23748:	00008067          	ret
   2374c:	80028593          	addi	a1,t0,-2048
   23750:	000012b7          	lui	t0,0x1
   23754:	a012829b          	addiw	t0,t0,-1535
   23758:	01529293          	slli	t0,t0,0x15
   2375c:	40000337          	lui	t1,0x40000
   23760:	70028593          	addi	a1,t0,1792 # 1700 <__bin_size-0x3900>
   23764:	80028593          	addi	a1,t0,-2048
   23768:	0802861b          	addiw	a2,t0,128
   2376c:	006286b3          	add	a3,t0,t1
   23770:	0062873b          	addw	a4,t0,t1
   23774:	000012b7          	lui	t0,0x1
   23778:	c012829b          	addiw	t0,t0,-1023
   2377c:	01529293          	slli	t0,t0,0x15
   23780:	00200337          	lui	t1,0x200
   23784:	40628533          	sub	a0,t0,t1
   23788:	406285bb          	subw	a1,t0,t1
   2378c:	00008067          	ret
   23790:	00b50533          	add	a0,a0,a1
   23794:	00000013          	nop
   23798:	00008067          	ret
   2379c:	ff810113          	addi	sp,sp,-8
   237a0:	00113023          	sd	ra,0(sp)
   237a4:	00100513          	li	a0,1
   237a8:	00200593          	li	a1,2
   237ac:	fe5ff0ef          	jal	ra,23790 <bss_begin+0x1790>
   237b0:	00000013          	nop
   237b4:	00013083          	ld	ra,0(sp)
   237b8:	00810113          	addi	sp,sp,8
   237bc:	00008067          	ret
   237c0:	000202b7          	lui	t0,0x20
   237c4:	00021337          	lui	t1,0x21
   237c8:	02028393          	addi	t2,t0,32 # 20020 <_start+0x20>
   237cc:	0002be03          	ld	t3,0(t0)
   237d0:	01c33023          	sd	t3,0(t1) # 21000 <stacks_start>
   237d4:	00828293          	addi	t0,t0,8
   237d8:	00830313          	addi	t1,t1,8
   237dc:	fe72c8e3          	blt	t0,t2,237cc <bss_begin+0x17cc>
   237e0:	00008067          	ret
   237e4:	00b56663          	bltu	a0,a1,237f0 <bss_begin+0x17f0>
   237e8:	00000793          	li	a5,0
   237ec:	0080006f          	j	237f4 <bss_begin+0x17f4>
   237f0:	fff00793          	li	a5,-1
   237f4:	00078513          	mv	a0,a5
   237f8:	00008067          	ret
   237fc:	00050663          	beqz	a0,23808 <bss_begin+0x1808>
   23800:	fff58793          	addi	a5,a1,-1
   23804:	0080006f          	j	2380c <bss_begin+0x180c>
   23808:	00258793          	addi	a5,a1,2
   2380c:	00078513          	mv	a0,a5
   23810:	00008067          	ret
   23814:	ff010113          	addi	sp,sp,-16
   23818:	00113423          	sd	ra,8(sp)
   2381c:	fe1ff0ef          	jal	ra,237fc <bss_begin+0x17fc>
   23820:	00813083          	ld	ra,8(sp)
   23824:	01010113          	addi	sp,sp,16
   23828:	00008067          	ret
   2382c:	00000013          	nop
   23830:	0800                	addi	s0,sp,16
   23832:	0080                	addi	s0,sp,64
   23834:	0000                	unimp
   23836:	0000                	unimp
   23838:	0860                	addi	s0,sp,28
   2383a:	0080                	addi	s0,sp,64
   2383c:	0000                	unimp
   2383e:	0000                	unimp
   23840:	0880                	addi	s0,sp,80
   23842:	0080                	addi	s0,sp,64
   23844:	0000                	unimp
   23846:	0000                	unimp
   23848:	7566                	ld	a0,120(sp)
   2384a:	636e                	ld	t1,216(sp)
   2384c:	615f 6600 6e75      	0x6e756600615f
   23852:	00625f63          	bge	tp,t1,23870 <bss_begin+0x1870>
   23856:	7566                	ld	a0,120(sp)
   23858:	636e                	ld	t1,216(sp)
   2385a:	635f 0100 0000      	0x100635f
   23860:	00000003          	lb	zero,0(zero) # 0 <__bin_size-0x5000>
   23864:	0000                	unimp
   23866:	0000                	unimp
   23868:	00b50533          	add	a0,a0,a1
   2386c:	00008067          	ret
   23870:	40b50533          	sub	a0,a0,a1
   23874:	00008067          	ret
   23878:	ff010113          	addi	sp,sp,-16
   2387c:	00113423          	sd	ra,8(sp)
   23880:	00050293          	mv	t0,a0
   23884:	00058313          	mv	t1,a1
   23888:	00028513          	mv	a0,t0
   2388c:	00030593          	mv	a1,t1
   23890:	fd9ff0ef          	jal	ra,23868 <bss_begin+0x1868>
   23894:	00813083          	ld	ra,8(sp)
   23898:	01010113          	addi	sp,sp,16
   2389c:	00008067          	ret
   238a0:	ff010113          	addi	sp,sp,-16
   238a4:	00113423          	sd	ra,8(sp)
   238a8:	00050293          	mv	t0,a0
   238ac:	00058313          	mv	t1,a1
   238b0:	00028513          	mv	a0,t0
   238b4:	00030593          	mv	a1,t1
   238b8:	fb9ff0ef          	jal	ra,23870 <bss_begin+0x1870>
   238bc:	00813083          	ld	ra,8(sp)
   238c0:	01010113          	addi	sp,sp,16
   238c4:	00008067          	ret
	...
   238d0:	020002b7          	lui	t0,0x2000
   238d4:	0f02829b          	addiw	t0,t0,240
   238d8:	0002a303          	lw	t1,0(t0) # 2000000 <_payload_end+0x1fdb000>
   238dc:	fff0f3b7          	lui	t2,0xfff0f
   238e0:	0ff3839b          	addiw	t2,t2,255
   238e4:	00737333          	and	t1,t1,t2
   238e8:	000303b7          	lui	t2,0x30
   238ec:	3003839b          	addiw	t2,t2,768
   238f0:	00736333          	or	t1,t1,t2
   238f4:	0062a023          	sw	t1,0(t0)
   238f8:	020022b7          	lui	t0,0x2002
   238fc:	90c2829b          	addiw	t0,t0,-1780
   23900:	0002a303          	lw	t1,0(t0) # 2002000 <_payload_end+0x1fdd000>
   23904:	00136313          	ori	t1,t1,1
   23908:	0062a023          	sw	t1,0(t0)
   2390c:	020022b7          	lui	t0,0x2002
   23910:	90c2829b          	addiw	t0,t0,-1780
   23914:	0002a303          	lw	t1,0(t0) # 2002000 <_payload_end+0x1fdd000>
   23918:	000103b7          	lui	t2,0x10
   2391c:	00736333          	or	t1,t1,t2
   23920:	0062a023          	sw	t1,0(t0)
   23924:	025002b7          	lui	t0,0x2500
   23928:	0002a223          	sw	zero,4(t0) # 2500004 <_payload_end+0x24db004>
   2392c:	0f700313          	li	t1,247
   23930:	0062a423          	sw	t1,8(t0)
   23934:	0002a823          	sw	zero,16(t0)
   23938:	00c2a303          	lw	t1,12(t0)
   2393c:	08036313          	ori	t1,t1,128
   23940:	0062a623          	sw	t1,12(t0)
   23944:	00d00393          	li	t2,13
   23948:	0072a023          	sw	t2,0(t0)
   2394c:	00000393          	li	t2,0
   23950:	0072a223          	sw	t2,4(t0)
   23954:	08034313          	xori	t1,t1,128
   23958:	0062a623          	sw	t1,12(t0)
   2395c:	00c2a303          	lw	t1,12(t0)
   23960:	ff000393          	li	t2,-16
   23964:	00737333          	and	t1,t1,t2
   23968:	00300393          	li	t2,3
   2396c:	00736333          	or	t1,t1,t2
   23970:	0062a623          	sw	t1,12(t0)
   23974:	00008067          	ret
   23978:	025002b7          	lui	t0,0x2500
   2397c:	07c2a303          	lw	t1,124(t0) # 250007c <_payload_end+0x24db07c>
   23980:	00237313          	andi	t1,t1,2
   23984:	fe030ce3          	beqz	t1,2397c <bss_begin+0x197c>
   23988:	00a28023          	sb	a0,0(t0)
   2398c:	00008067          	ret
   23990:	00008c13          	mv	s8,ra
   23994:	00050793          	mv	a5,a0
   23998:	0007c503          	lbu	a0,0(a5)
   2399c:	00050863          	beqz	a0,239ac <bss_begin+0x19ac>
   239a0:	fd9ff0ef          	jal	ra,23978 <bss_begin+0x1978>
   239a4:	00178793          	addi	a5,a5,1
   239a8:	ff1ff06f          	j	23998 <bss_begin+0x1998>
   239ac:	000c0093          	mv	ra,s8
   239b0:	00008067          	ret
   239b4:	00000293          	li	t0,0
   239b8:	00b53023          	sd	a1,0(a0) # 2001000 <_payload_end+0x1fdc000>
   239bc:	00b53423          	sd	a1,8(a0)
   239c0:	01028293          	addi	t0,t0,16
   239c4:	fec2cae3          	blt	t0,a2,239b8 <bss_begin+0x19b8>
   239c8:	00008067          	ret
   239cc:	0000                	unimp
   239ce:	0000                	unimp
   239d0:	000a                	c.slli	zero,0x2
   239d2:	0000                	unimp
   239d4:	0000                	unimp
   239d6:	0000                	unimp
   239d8:	616c                	ld	a1,192(a0)
   239da:	3362                	fld	ft6,56(sp)
   239dc:	352d                	addiw	a0,a0,-21
   239de:	203a                	fld	ft0,392(sp)
   239e0:	706d6f63          	bltu	s10,t1,240fe <bss_begin+0x20fe>
   239e4:	7261                	lui	tp,0xffff8
   239e6:	5f65                	li	t5,-7
   239e8:	6e61                	lui	t3,0x18
   239ea:	5f64                	lw	s1,124(a4)
   239ec:	6572                	ld	a0,280(sp)
   239ee:	7574                	ld	a3,232(a0)
   239f0:	6e72                	ld	t3,280(sp)
   239f2:	6f20                	ld	s0,88(a4)
   239f4:	00000a6b          	0xa6b
   239f8:	616c                	ld	a1,192(a0)
   239fa:	3362                	fld	ft6,56(sp)
   239fc:	372d                	addiw	a4,a4,-21
   239fe:	203a                	fld	ft0,392(sp)
   23a00:	7262                	ld	tp,56(sp)
   23a02:	6e61                	lui	t3,0x18
   23a04:	74206863          	bltu	zero,sp,24154 <bss_begin+0x2154>
   23a08:	7365                	lui	t1,0xffff9
   23a0a:	2074                	fld	fa3,192(s0)
   23a0c:	000a6b6f          	jal	s6,c9a0c <_payload_end+0xa4a0c>
   23a10:	616c                	ld	a1,192(a0)
   23a12:	3562                	fld	fa0,56(sp)
   23a14:	352d                	addiw	a0,a0,-21
   23a16:	203a                	fld	ft0,392(sp)
   23a18:	616d                	addi	sp,sp,240
   23a1a:	5f6f7263          	bgeu	t5,s6,23ffe <bss_begin+0x1ffe>
   23a1e:	6574                	ld	a3,200(a0)
   23a20:	315f7473          	csrrci	s0,0x315,30
   23a24:	6f20                	ld	s0,88(a4)
   23a26:	00000a6b          	0xa6b
   23a2a:	0000                	unimp
   23a2c:	0000                	unimp
   23a2e:	0000                	unimp
   23a30:	616c                	ld	a1,192(a0)
   23a32:	3562                	fld	fa0,56(sp)
   23a34:	352d                	addiw	a0,a0,-21
   23a36:	203a                	fld	ft0,392(sp)
   23a38:	616d                	addi	sp,sp,240
   23a3a:	5f6f7263          	bgeu	t5,s6,2401e <bss_begin+0x201e>
   23a3e:	6574                	ld	a3,200(a0)
   23a40:	325f7473          	csrrci	s0,mhpmevent5,30
   23a44:	6f20                	ld	s0,88(a4)
   23a46:	00000a6b          	0xa6b
   23a4a:	0000                	unimp
   23a4c:	0000                	unimp
   23a4e:	0000                	unimp
   23a50:	636c6557          	0x636c6557
   23a54:	20656d6f          	jal	s10,79c5a <_payload_end+0x54c5a>
   23a58:	4952                	lw	s2,20(sp)
   23a5a:	562d4353          	0x562d4353
   23a5e:	0d21                	addi	s10,s10,8
   23a60:	000a                	c.slli	zero,0x2
   23a62:	0000                	unimp
   23a64:	0000                	unimp
   23a66:	0000                	unimp
   23a68:	0a0d                	addi	s4,s4,3
   23a6a:	6f42                	ld	t5,16(sp)
   23a6c:	6e69746f          	jal	s0,bb152 <_payload_end+0x96152>
   23a70:	74612067          	0x74612067
   23a74:	6120                	ld	s0,64(a0)
   23a76:	0a0d6d73          	csrrsi	s10,0xa0,26
	...
