
benos.elf:     file format elf64-littleriscv


Disassembly of section .text.boot:

0000000000022000 <_start>:
   22000:	10401073          	csrw	sie,zero
   22004:	0cd010ef          	jal	ra,238d0 <__init_uart>
   22008:	00000097          	auipc	ra,0x0
   2200c:	01c080e7          	jalr	28(ra) # 22024 <print_asm>
   22010:	00002117          	auipc	sp,0x2
   22014:	ff010113          	addi	sp,sp,-16 # 24000 <stacks_start>
   22018:	000012b7          	lui	t0,0x1
   2201c:	00510133          	add	sp,sp,t0
   22020:	22c0006f          	j	2224c <kernel_main>

0000000000022024 <print_asm>:
   22024:	00008493          	mv	s1,ra
   22028:	00002517          	auipc	a0,0x2
   2202c:	a4050513          	addi	a0,a0,-1472 # 23a68 <boot_string>
   22030:	161010ef          	jal	ra,23990 <put_string_uart>
   22034:	00048093          	mv	ra,s1
   22038:	00008067          	ret

Disassembly of section .text:

0000000000022040 <print_func_name>:
   22040:	fc010113          	addi	sp,sp,-64
   22044:	02113c23          	sd	ra,56(sp)
   22048:	02813823          	sd	s0,48(sp)
   2204c:	04010413          	addi	s0,sp,64
   22050:	fca43423          	sd	a0,-56(s0)
   22054:	fe042623          	sw	zero,-20(s0)
   22058:	0300006f          	j	22088 <print_func_name+0x48>
   2205c:	00001717          	auipc	a4,0x1
   22060:	7d470713          	addi	a4,a4,2004 # 23830 <func_addr>
   22064:	fec42783          	lw	a5,-20(s0)
   22068:	00379793          	slli	a5,a5,0x3
   2206c:	00f707b3          	add	a5,a4,a5
   22070:	0007b783          	ld	a5,0(a5)
   22074:	fc843703          	ld	a4,-56(s0)
   22078:	02f70663          	beq	a4,a5,220a4 <print_func_name+0x64>
   2207c:	fec42783          	lw	a5,-20(s0)
   22080:	0017879b          	addiw	a5,a5,1
   22084:	fef42623          	sw	a5,-20(s0)
   22088:	fec42703          	lw	a4,-20(s0)
   2208c:	00001797          	auipc	a5,0x1
   22090:	7d478793          	addi	a5,a5,2004 # 23860 <func_num_syms>
   22094:	0007b783          	ld	a5,0(a5)
   22098:	fcf762e3          	bltu	a4,a5,2205c <print_func_name+0x1c>
   2209c:	00000793          	li	a5,0
   220a0:	0880006f          	j	22128 <print_func_name+0xe8>
   220a4:	00000013          	nop
   220a8:	00001797          	auipc	a5,0x1
   220ac:	7a078793          	addi	a5,a5,1952 # 23848 <func_string>
   220b0:	fef43023          	sd	a5,-32(s0)
   220b4:	fec42783          	lw	a5,-20(s0)
   220b8:	0007879b          	sext.w	a5,a5
   220bc:	00079863          	bnez	a5,220cc <print_func_name+0x8c>
   220c0:	fe043783          	ld	a5,-32(s0)
   220c4:	fcf43c23          	sd	a5,-40(s0)
   220c8:	0480006f          	j	22110 <print_func_name+0xd0>
   220cc:	fe043783          	ld	a5,-32(s0)
   220d0:	00178793          	addi	a5,a5,1
   220d4:	fef43023          	sd	a5,-32(s0)
   220d8:	fe043783          	ld	a5,-32(s0)
   220dc:	0007c783          	lbu	a5,0(a5)
   220e0:	00079863          	bnez	a5,220f0 <print_func_name+0xb0>
   220e4:	fec42783          	lw	a5,-20(s0)
   220e8:	fff7879b          	addiw	a5,a5,-1
   220ec:	fef42623          	sw	a5,-20(s0)
   220f0:	fec42783          	lw	a5,-20(s0)
   220f4:	0007879b          	sext.w	a5,a5
   220f8:	fc079ae3          	bnez	a5,220cc <print_func_name+0x8c>
   220fc:	fe043783          	ld	a5,-32(s0)
   22100:	00178793          	addi	a5,a5,1
   22104:	fef43023          	sd	a5,-32(s0)
   22108:	fe043783          	ld	a5,-32(s0)
   2210c:	fcf43c23          	sd	a5,-40(s0)
   22110:	fd843503          	ld	a0,-40(s0)
   22114:	759000ef          	jal	ra,2306c <uart_send_string>
   22118:	00002517          	auipc	a0,0x2
   2211c:	8b850513          	addi	a0,a0,-1864 # 239d0 <_etext+0x4>
   22120:	74d000ef          	jal	ra,2306c <uart_send_string>
   22124:	00000793          	li	a5,0
   22128:	00078513          	mv	a0,a5
   2212c:	03813083          	ld	ra,56(sp)
   22130:	03013403          	ld	s0,48(sp)
   22134:	04010113          	addi	sp,sp,64
   22138:	00008067          	ret

000000000002213c <asm_test>:
   2213c:	fe010113          	addi	sp,sp,-32
   22140:	00113c23          	sd	ra,24(sp)
   22144:	00813823          	sd	s0,16(sp)
   22148:	02010413          	addi	s0,sp,32
   2214c:	584010ef          	jal	ra,236d0 <load_store_test>
   22150:	5b4010ef          	jal	ra,23704 <shift_test>
   22154:	5f8010ef          	jal	ra,2374c <add_sub_test>
   22158:	644010ef          	jal	ra,2379c <branch_test>
   2215c:	664010ef          	jal	ra,237c0 <my_memcpy_test>
   22160:	02800613          	li	a2,40
   22164:	05500593          	li	a1,85
   22168:	00021537          	lui	a0,0x21
   2216c:	31c000ef          	jal	ra,22488 <memset>
   22170:	00900593          	li	a1,9
   22174:	00a00513          	li	a0,10
   22178:	66c010ef          	jal	ra,237e4 <compare_and_return>
   2217c:	fea43423          	sd	a0,-24(s0)
   22180:	fe843783          	ld	a5,-24(s0)
   22184:	00079863          	bnez	a5,22194 <asm_test+0x58>
   22188:	00002517          	auipc	a0,0x2
   2218c:	85050513          	addi	a0,a0,-1968 # 239d8 <_etext+0xc>
   22190:	6dd000ef          	jal	ra,2306c <uart_send_string>
   22194:	00a00593          	li	a1,10
   22198:	00900513          	li	a0,9
   2219c:	648010ef          	jal	ra,237e4 <compare_and_return>
   221a0:	fea43023          	sd	a0,-32(s0)
   221a4:	fe043703          	ld	a4,-32(s0)
   221a8:	fff00793          	li	a5,-1
   221ac:	00f71863          	bne	a4,a5,221bc <asm_test+0x80>
   221b0:	00002517          	auipc	a0,0x2
   221b4:	82850513          	addi	a0,a0,-2008 # 239d8 <_etext+0xc>
   221b8:	6b5000ef          	jal	ra,2306c <uart_send_string>
   221bc:	00900593          	li	a1,9
   221c0:	00000513          	li	a0,0
   221c4:	638010ef          	jal	ra,237fc <sel_test>
   221c8:	fea43423          	sd	a0,-24(s0)
   221cc:	00200593          	li	a1,2
   221d0:	00500513          	li	a0,5
   221d4:	628010ef          	jal	ra,237fc <sel_test>
   221d8:	fea43023          	sd	a0,-32(s0)
   221dc:	638010ef          	jal	ra,23814 <bl_test>
   221e0:	00002517          	auipc	a0,0x2
   221e4:	81850513          	addi	a0,a0,-2024 # 239f8 <_etext+0x2c>
   221e8:	685000ef          	jal	ra,2306c <uart_send_string>
   221ec:	00500593          	li	a1,5
   221f0:	00500513          	li	a0,5
   221f4:	684010ef          	jal	ra,23878 <macro_test_1>
   221f8:	fea43423          	sd	a0,-24(s0)
   221fc:	fe843703          	ld	a4,-24(s0)
   22200:	00a00793          	li	a5,10
   22204:	00f71863          	bne	a4,a5,22214 <asm_test+0xd8>
   22208:	00002517          	auipc	a0,0x2
   2220c:	80850513          	addi	a0,a0,-2040 # 23a10 <_etext+0x44>
   22210:	65d000ef          	jal	ra,2306c <uart_send_string>
   22214:	00500593          	li	a1,5
   22218:	00500513          	li	a0,5
   2221c:	684010ef          	jal	ra,238a0 <macro_test_2>
   22220:	fea43023          	sd	a0,-32(s0)
   22224:	fe043783          	ld	a5,-32(s0)
   22228:	00079863          	bnez	a5,22238 <asm_test+0xfc>
   2222c:	00002517          	auipc	a0,0x2
   22230:	80450513          	addi	a0,a0,-2044 # 23a30 <_etext+0x64>
   22234:	639000ef          	jal	ra,2306c <uart_send_string>
   22238:	00000013          	nop
   2223c:	01813083          	ld	ra,24(sp)
   22240:	01013403          	ld	s0,16(sp)
   22244:	02010113          	addi	sp,sp,32
   22248:	00008067          	ret

000000000002224c <kernel_main>:
   2224c:	ff010113          	addi	sp,sp,-16
   22250:	00113423          	sd	ra,8(sp)
   22254:	00813023          	sd	s0,0(sp)
   22258:	01010413          	addi	s0,sp,16
   2225c:	2b5000ef          	jal	ra,22d10 <uart_init>
   22260:	00001517          	auipc	a0,0x1
   22264:	7f050513          	addi	a0,a0,2032 # 23a50 <_etext+0x84>
   22268:	605000ef          	jal	ra,2306c <uart_send_string>
   2226c:	ed1ff0ef          	jal	ra,2213c <asm_test>
   22270:	008017b7          	lui	a5,0x801
   22274:	88078513          	addi	a0,a5,-1920 # 800880 <bss_begin+0x7db880>
   22278:	dc9ff0ef          	jal	ra,22040 <print_func_name>
   2227c:	008017b7          	lui	a5,0x801
   22280:	86078513          	addi	a0,a5,-1952 # 800860 <bss_begin+0x7db860>
   22284:	dbdff0ef          	jal	ra,22040 <print_func_name>
   22288:	008017b7          	lui	a5,0x801
   2228c:	80078513          	addi	a0,a5,-2048 # 800800 <bss_begin+0x7db800>
   22290:	db1ff0ef          	jal	ra,22040 <print_func_name>
   22294:	0000006f          	j	22294 <kernel_main+0x48>

0000000000022298 <__memset_1bytes>:
   22298:	fc010113          	addi	sp,sp,-64
   2229c:	02813c23          	sd	s0,56(sp)
   222a0:	04010413          	addi	s0,sp,64
   222a4:	fca43c23          	sd	a0,-40(s0)
   222a8:	00058793          	mv	a5,a1
   222ac:	fcc43423          	sd	a2,-56(s0)
   222b0:	fcf42a23          	sw	a5,-44(s0)
   222b4:	fd843783          	ld	a5,-40(s0)
   222b8:	fef43423          	sd	a5,-24(s0)
   222bc:	01c0006f          	j	222d8 <__memset_1bytes+0x40>
   222c0:	fe843783          	ld	a5,-24(s0)
   222c4:	00178713          	addi	a4,a5,1
   222c8:	fee43423          	sd	a4,-24(s0)
   222cc:	fd442703          	lw	a4,-44(s0)
   222d0:	0ff77713          	andi	a4,a4,255
   222d4:	00e78023          	sb	a4,0(a5)
   222d8:	fc843783          	ld	a5,-56(s0)
   222dc:	fff78713          	addi	a4,a5,-1
   222e0:	fce43423          	sd	a4,-56(s0)
   222e4:	fc079ee3          	bnez	a5,222c0 <__memset_1bytes+0x28>
   222e8:	fd843783          	ld	a5,-40(s0)
   222ec:	00078513          	mv	a0,a5
   222f0:	03813403          	ld	s0,56(sp)
   222f4:	04010113          	addi	sp,sp,64
   222f8:	00008067          	ret

00000000000222fc <__memset>:
   222fc:	f9010113          	addi	sp,sp,-112
   22300:	06113423          	sd	ra,104(sp)
   22304:	06813023          	sd	s0,96(sp)
   22308:	07010413          	addi	s0,sp,112
   2230c:	faa43423          	sd	a0,-88(s0)
   22310:	00058793          	mv	a5,a1
   22314:	f8c43c23          	sd	a2,-104(s0)
   22318:	faf42223          	sw	a5,-92(s0)
   2231c:	fa843783          	ld	a5,-88(s0)
   22320:	fef43423          	sd	a5,-24(s0)
   22324:	01000793          	li	a5,16
   22328:	fcf43423          	sd	a5,-56(s0)
   2232c:	f9843783          	ld	a5,-104(s0)
   22330:	fef43023          	sd	a5,-32(s0)
   22334:	fe843783          	ld	a5,-24(s0)
   22338:	fcf43023          	sd	a5,-64(s0)
   2233c:	fc043823          	sd	zero,-48(s0)
   22340:	fc042e23          	sw	zero,-36(s0)
   22344:	0340006f          	j	22378 <__memset+0x7c>
   22348:	fa442783          	lw	a5,-92(s0)
   2234c:	0ff7f793          	andi	a5,a5,255
   22350:	fdc42703          	lw	a4,-36(s0)
   22354:	0037171b          	slliw	a4,a4,0x3
   22358:	0007071b          	sext.w	a4,a4
   2235c:	00e797b3          	sll	a5,a5,a4
   22360:	fd043703          	ld	a4,-48(s0)
   22364:	00f767b3          	or	a5,a4,a5
   22368:	fcf43823          	sd	a5,-48(s0)
   2236c:	fdc42783          	lw	a5,-36(s0)
   22370:	0017879b          	addiw	a5,a5,1
   22374:	fcf42e23          	sw	a5,-36(s0)
   22378:	fdc42783          	lw	a5,-36(s0)
   2237c:	0007871b          	sext.w	a4,a5
   22380:	00700793          	li	a5,7
   22384:	fce7d2e3          	bge	a5,a4,22348 <__memset+0x4c>
   22388:	fc843783          	ld	a5,-56(s0)
   2238c:	fff78713          	addi	a4,a5,-1
   22390:	fc043783          	ld	a5,-64(s0)
   22394:	00f777b3          	and	a5,a4,a5
   22398:	04078e63          	beqz	a5,223f4 <__memset+0xf8>
   2239c:	fc843783          	ld	a5,-56(s0)
   223a0:	fff78793          	addi	a5,a5,-1
   223a4:	fc043703          	ld	a4,-64(s0)
   223a8:	00f777b3          	and	a5,a4,a5
   223ac:	faf43c23          	sd	a5,-72(s0)
   223b0:	fc843703          	ld	a4,-56(s0)
   223b4:	fb843783          	ld	a5,-72(s0)
   223b8:	40f707b3          	sub	a5,a4,a5
   223bc:	faf43c23          	sd	a5,-72(s0)
   223c0:	fa442783          	lw	a5,-92(s0)
   223c4:	fb843603          	ld	a2,-72(s0)
   223c8:	00078593          	mv	a1,a5
   223cc:	fe843503          	ld	a0,-24(s0)
   223d0:	ec9ff0ef          	jal	ra,22298 <__memset_1bytes>
   223d4:	fe843703          	ld	a4,-24(s0)
   223d8:	fb843783          	ld	a5,-72(s0)
   223dc:	00f707b3          	add	a5,a4,a5
   223e0:	fef43423          	sd	a5,-24(s0)
   223e4:	f9843703          	ld	a4,-104(s0)
   223e8:	fb843783          	ld	a5,-72(s0)
   223ec:	40f707b3          	sub	a5,a4,a5
   223f0:	fef43023          	sd	a5,-32(s0)
   223f4:	fe043703          	ld	a4,-32(s0)
   223f8:	fc843783          	ld	a5,-56(s0)
   223fc:	06e7fa63          	bgeu	a5,a4,22470 <__memset+0x174>
   22400:	fe043703          	ld	a4,-32(s0)
   22404:	fc843783          	ld	a5,-56(s0)
   22408:	02f757b3          	divu	a5,a4,a5
   2240c:	faf42a23          	sw	a5,-76(s0)
   22410:	fe043703          	ld	a4,-32(s0)
   22414:	fc843783          	ld	a5,-56(s0)
   22418:	02f777b3          	remu	a5,a4,a5
   2241c:	fef43023          	sd	a5,-32(s0)
   22420:	fb442783          	lw	a5,-76(s0)
   22424:	0047979b          	slliw	a5,a5,0x4
   22428:	0007879b          	sext.w	a5,a5
   2242c:	00078613          	mv	a2,a5
   22430:	fd043583          	ld	a1,-48(s0)
   22434:	fe843503          	ld	a0,-24(s0)
   22438:	57c010ef          	jal	ra,239b4 <__memset_16bytes_asm>
   2243c:	fe043783          	ld	a5,-32(s0)
   22440:	02078863          	beqz	a5,22470 <__memset+0x174>
   22444:	fb442783          	lw	a5,-76(s0)
   22448:	0047979b          	slliw	a5,a5,0x4
   2244c:	0007879b          	sext.w	a5,a5
   22450:	00078713          	mv	a4,a5
   22454:	fe843783          	ld	a5,-24(s0)
   22458:	00e787b3          	add	a5,a5,a4
   2245c:	fa442703          	lw	a4,-92(s0)
   22460:	fe043603          	ld	a2,-32(s0)
   22464:	00070593          	mv	a1,a4
   22468:	00078513          	mv	a0,a5
   2246c:	e2dff0ef          	jal	ra,22298 <__memset_1bytes>
   22470:	fa843783          	ld	a5,-88(s0)
   22474:	00078513          	mv	a0,a5
   22478:	06813083          	ld	ra,104(sp)
   2247c:	06013403          	ld	s0,96(sp)
   22480:	07010113          	addi	sp,sp,112
   22484:	00008067          	ret

0000000000022488 <memset>:
   22488:	fd010113          	addi	sp,sp,-48
   2248c:	02113423          	sd	ra,40(sp)
   22490:	02813023          	sd	s0,32(sp)
   22494:	03010413          	addi	s0,sp,48
   22498:	fea43423          	sd	a0,-24(s0)
   2249c:	00058793          	mv	a5,a1
   224a0:	fcc43c23          	sd	a2,-40(s0)
   224a4:	fef42223          	sw	a5,-28(s0)
   224a8:	fe442783          	lw	a5,-28(s0)
   224ac:	fd843603          	ld	a2,-40(s0)
   224b0:	00078593          	mv	a1,a5
   224b4:	fe843503          	ld	a0,-24(s0)
   224b8:	e45ff0ef          	jal	ra,222fc <__memset>
   224bc:	00050793          	mv	a5,a0
   224c0:	00078513          	mv	a0,a5
   224c4:	02813083          	ld	ra,40(sp)
   224c8:	02013403          	ld	s0,32(sp)
   224cc:	03010113          	addi	sp,sp,48
   224d0:	00008067          	ret

00000000000224d4 <read32>:
   224d4:	fe010113          	addi	sp,sp,-32
   224d8:	00813c23          	sd	s0,24(sp)
   224dc:	02010413          	addi	s0,sp,32
   224e0:	fea43423          	sd	a0,-24(s0)
   224e4:	fe843783          	ld	a5,-24(s0)
   224e8:	0007a783          	lw	a5,0(a5)
   224ec:	0007879b          	sext.w	a5,a5
   224f0:	00078513          	mv	a0,a5
   224f4:	01813403          	ld	s0,24(sp)
   224f8:	02010113          	addi	sp,sp,32
   224fc:	00008067          	ret

0000000000022500 <write32>:
   22500:	fe010113          	addi	sp,sp,-32
   22504:	00813c23          	sd	s0,24(sp)
   22508:	02010413          	addi	s0,sp,32
   2250c:	fea43423          	sd	a0,-24(s0)
   22510:	00058793          	mv	a5,a1
   22514:	fef42223          	sw	a5,-28(s0)
   22518:	fe843783          	ld	a5,-24(s0)
   2251c:	fe442703          	lw	a4,-28(s0)
   22520:	00e7a023          	sw	a4,0(a5)
   22524:	00000013          	nop
   22528:	01813403          	ld	s0,24(sp)
   2252c:	02010113          	addi	sp,sp,32
   22530:	00008067          	ret

0000000000022534 <sdelay>:
   22534:	fe010113          	addi	sp,sp,-32
   22538:	00813c23          	sd	s0,24(sp)
   2253c:	02010413          	addi	s0,sp,32
   22540:	fea43423          	sd	a0,-24(s0)
   22544:	fe843783          	ld	a5,-24(s0)
   22548:	00a79793          	slli	a5,a5,0xa
   2254c:	fef43423          	sd	a5,-24(s0)
   22550:	00000013          	nop
   22554:	fe843783          	ld	a5,-24(s0)
   22558:	fff78713          	addi	a4,a5,-1
   2255c:	fee43423          	sd	a4,-24(s0)
   22560:	fe079ae3          	bnez	a5,22554 <sdelay+0x20>
   22564:	00000013          	nop
   22568:	00000013          	nop
   2256c:	01813403          	ld	s0,24(sp)
   22570:	02010113          	addi	sp,sp,32
   22574:	00008067          	ret

0000000000022578 <set_pll_cpux_axi>:
   22578:	fe010113          	addi	sp,sp,-32
   2257c:	00113c23          	sd	ra,24(sp)
   22580:	00813823          	sd	s0,16(sp)
   22584:	02010413          	addi	s0,sp,32
   22588:	30100593          	li	a1,769
   2258c:	020027b7          	lui	a5,0x2002
   22590:	d0078513          	addi	a0,a5,-768 # 2001d00 <bss_begin+0x1fdcd00>
   22594:	f6dff0ef          	jal	ra,22500 <write32>
   22598:	00100513          	li	a0,1
   2259c:	f99ff0ef          	jal	ra,22534 <sdelay>
   225a0:	02001537          	lui	a0,0x2001
   225a4:	f31ff0ef          	jal	ra,224d4 <read32>
   225a8:	00050793          	mv	a5,a0
   225ac:	fef42623          	sw	a5,-20(s0)
   225b0:	fec42703          	lw	a4,-20(s0)
   225b4:	f80007b7          	lui	a5,0xf8000
   225b8:	fff78793          	addi	a5,a5,-1 # fffffffff7ffffff <bss_begin+0xfffffffff7fdafff>
   225bc:	00f777b3          	and	a5,a4,a5
   225c0:	fef42623          	sw	a5,-20(s0)
   225c4:	fec42783          	lw	a5,-20(s0)
   225c8:	00078593          	mv	a1,a5
   225cc:	02001537          	lui	a0,0x2001
   225d0:	f31ff0ef          	jal	ra,22500 <write32>
   225d4:	02001537          	lui	a0,0x2001
   225d8:	efdff0ef          	jal	ra,224d4 <read32>
   225dc:	00050793          	mv	a5,a0
   225e0:	fef42623          	sw	a5,-20(s0)
   225e4:	fec42703          	lw	a4,-20(s0)
   225e8:	400007b7          	lui	a5,0x40000
   225ec:	00f767b3          	or	a5,a4,a5
   225f0:	fef42623          	sw	a5,-20(s0)
   225f4:	fec42783          	lw	a5,-20(s0)
   225f8:	00078593          	mv	a1,a5
   225fc:	02001537          	lui	a0,0x2001
   22600:	f01ff0ef          	jal	ra,22500 <write32>
   22604:	00500513          	li	a0,5
   22608:	f2dff0ef          	jal	ra,22534 <sdelay>
   2260c:	02001537          	lui	a0,0x2001
   22610:	ec5ff0ef          	jal	ra,224d4 <read32>
   22614:	00050793          	mv	a5,a0
   22618:	fef42623          	sw	a5,-20(s0)
   2261c:	fec42703          	lw	a4,-20(s0)
   22620:	fffc07b7          	lui	a5,0xfffc0
   22624:	0fc78793          	addi	a5,a5,252 # fffffffffffc00fc <bss_begin+0xfffffffffff9b0fc>
   22628:	00f777b3          	and	a5,a4,a5
   2262c:	fef42623          	sw	a5,-20(s0)
   22630:	fec42703          	lw	a4,-20(s0)
   22634:	000037b7          	lui	a5,0x3
   22638:	90078793          	addi	a5,a5,-1792 # 2900 <_start-0x1f700>
   2263c:	00f767b3          	or	a5,a4,a5
   22640:	fef42623          	sw	a5,-20(s0)
   22644:	fec42783          	lw	a5,-20(s0)
   22648:	00078593          	mv	a1,a5
   2264c:	02001537          	lui	a0,0x2001
   22650:	eb1ff0ef          	jal	ra,22500 <write32>
   22654:	02001537          	lui	a0,0x2001
   22658:	e7dff0ef          	jal	ra,224d4 <read32>
   2265c:	00050793          	mv	a5,a0
   22660:	fef42623          	sw	a5,-20(s0)
   22664:	fec42703          	lw	a4,-20(s0)
   22668:	200007b7          	lui	a5,0x20000
   2266c:	00f767b3          	or	a5,a4,a5
   22670:	fef42623          	sw	a5,-20(s0)
   22674:	fec42783          	lw	a5,-20(s0)
   22678:	00078593          	mv	a1,a5
   2267c:	02001537          	lui	a0,0x2001
   22680:	e81ff0ef          	jal	ra,22500 <write32>
   22684:	02001537          	lui	a0,0x2001
   22688:	e4dff0ef          	jal	ra,224d4 <read32>
   2268c:	00050793          	mv	a5,a0
   22690:	fef42623          	sw	a5,-20(s0)
   22694:	fec42703          	lw	a4,-20(s0)
   22698:	800007b7          	lui	a5,0x80000
   2269c:	00f767b3          	or	a5,a4,a5
   226a0:	fef42623          	sw	a5,-20(s0)
   226a4:	fec42783          	lw	a5,-20(s0)
   226a8:	00078593          	mv	a1,a5
   226ac:	02001537          	lui	a0,0x2001
   226b0:	e51ff0ef          	jal	ra,22500 <write32>
   226b4:	00000013          	nop
   226b8:	02001537          	lui	a0,0x2001
   226bc:	e19ff0ef          	jal	ra,224d4 <read32>
   226c0:	00050793          	mv	a5,a0
   226c4:	0007879b          	sext.w	a5,a5
   226c8:	00078713          	mv	a4,a5
   226cc:	100007b7          	lui	a5,0x10000
   226d0:	00f777b3          	and	a5,a4,a5
   226d4:	0007879b          	sext.w	a5,a5
   226d8:	fe0780e3          	beqz	a5,226b8 <set_pll_cpux_axi+0x140>
   226dc:	01400513          	li	a0,20
   226e0:	e55ff0ef          	jal	ra,22534 <sdelay>
   226e4:	02001537          	lui	a0,0x2001
   226e8:	dedff0ef          	jal	ra,224d4 <read32>
   226ec:	00050793          	mv	a5,a0
   226f0:	fef42623          	sw	a5,-20(s0)
   226f4:	fec42703          	lw	a4,-20(s0)
   226f8:	080007b7          	lui	a5,0x8000
   226fc:	00f767b3          	or	a5,a4,a5
   22700:	fef42623          	sw	a5,-20(s0)
   22704:	fec42783          	lw	a5,-20(s0)
   22708:	00078593          	mv	a1,a5
   2270c:	02001537          	lui	a0,0x2001
   22710:	df1ff0ef          	jal	ra,22500 <write32>
   22714:	02001537          	lui	a0,0x2001
   22718:	dbdff0ef          	jal	ra,224d4 <read32>
   2271c:	00050793          	mv	a5,a0
   22720:	fef42623          	sw	a5,-20(s0)
   22724:	fec42703          	lw	a4,-20(s0)
   22728:	e00007b7          	lui	a5,0xe0000
   2272c:	fff78793          	addi	a5,a5,-1 # ffffffffdfffffff <bss_begin+0xffffffffdffdafff>
   22730:	00f777b3          	and	a5,a4,a5
   22734:	fef42623          	sw	a5,-20(s0)
   22738:	fec42783          	lw	a5,-20(s0)
   2273c:	00078593          	mv	a1,a5
   22740:	02001537          	lui	a0,0x2001
   22744:	dbdff0ef          	jal	ra,22500 <write32>
   22748:	00100513          	li	a0,1
   2274c:	de9ff0ef          	jal	ra,22534 <sdelay>
   22750:	020027b7          	lui	a5,0x2002
   22754:	d0078513          	addi	a0,a5,-768 # 2001d00 <bss_begin+0x1fdcd00>
   22758:	d7dff0ef          	jal	ra,224d4 <read32>
   2275c:	00050793          	mv	a5,a0
   22760:	fef42623          	sw	a5,-20(s0)
   22764:	fec42703          	lw	a4,-20(s0)
   22768:	f90007b7          	lui	a5,0xf9000
   2276c:	cf078793          	addi	a5,a5,-784 # fffffffff8fffcf0 <bss_begin+0xfffffffff8fdacf0>
   22770:	00f777b3          	and	a5,a4,a5
   22774:	fef42623          	sw	a5,-20(s0)
   22778:	fec42703          	lw	a4,-20(s0)
   2277c:	050007b7          	lui	a5,0x5000
   22780:	10078793          	addi	a5,a5,256 # 5000100 <bss_begin+0x4fdb100>
   22784:	00f767b3          	or	a5,a4,a5
   22788:	fef42623          	sw	a5,-20(s0)
   2278c:	fec42783          	lw	a5,-20(s0)
   22790:	00078593          	mv	a1,a5
   22794:	020027b7          	lui	a5,0x2002
   22798:	d0078513          	addi	a0,a5,-768 # 2001d00 <bss_begin+0x1fdcd00>
   2279c:	d65ff0ef          	jal	ra,22500 <write32>
   227a0:	00100513          	li	a0,1
   227a4:	d91ff0ef          	jal	ra,22534 <sdelay>
   227a8:	00000013          	nop
   227ac:	01813083          	ld	ra,24(sp)
   227b0:	01013403          	ld	s0,16(sp)
   227b4:	02010113          	addi	sp,sp,32
   227b8:	00008067          	ret

00000000000227bc <set_pll_periph0>:
   227bc:	fe010113          	addi	sp,sp,-32
   227c0:	00113c23          	sd	ra,24(sp)
   227c4:	00813823          	sd	s0,16(sp)
   227c8:	02010413          	addi	s0,sp,32
   227cc:	020017b7          	lui	a5,0x2001
   227d0:	02078513          	addi	a0,a5,32 # 2001020 <bss_begin+0x1fdc020>
   227d4:	d01ff0ef          	jal	ra,224d4 <read32>
   227d8:	00050793          	mv	a5,a0
   227dc:	0007879b          	sext.w	a5,a5
   227e0:	0007879b          	sext.w	a5,a5
   227e4:	1207cc63          	bltz	a5,2291c <set_pll_periph0+0x160>
   227e8:	020017b7          	lui	a5,0x2001
   227ec:	51078513          	addi	a0,a5,1296 # 2001510 <bss_begin+0x1fdc510>
   227f0:	ce5ff0ef          	jal	ra,224d4 <read32>
   227f4:	00050793          	mv	a5,a0
   227f8:	fef42623          	sw	a5,-20(s0)
   227fc:	fec42703          	lw	a4,-20(s0)
   22800:	fd0007b7          	lui	a5,0xfd000
   22804:	fff78793          	addi	a5,a5,-1 # fffffffffcffffff <bss_begin+0xfffffffffcfdafff>
   22808:	00f777b3          	and	a5,a4,a5
   2280c:	fef42623          	sw	a5,-20(s0)
   22810:	fec46703          	lwu	a4,-20(s0)
   22814:	020017b7          	lui	a5,0x2001
   22818:	51078593          	addi	a1,a5,1296 # 2001510 <bss_begin+0x1fdc510>
   2281c:	00070513          	mv	a0,a4
   22820:	ce1ff0ef          	jal	ra,22500 <write32>
   22824:	000067b7          	lui	a5,0x6
   22828:	30078593          	addi	a1,a5,768 # 6300 <_start-0x1bd00>
   2282c:	020017b7          	lui	a5,0x2001
   22830:	02078513          	addi	a0,a5,32 # 2001020 <bss_begin+0x1fdc020>
   22834:	ccdff0ef          	jal	ra,22500 <write32>
   22838:	020017b7          	lui	a5,0x2001
   2283c:	02078513          	addi	a0,a5,32 # 2001020 <bss_begin+0x1fdc020>
   22840:	c95ff0ef          	jal	ra,224d4 <read32>
   22844:	00050793          	mv	a5,a0
   22848:	fef42623          	sw	a5,-20(s0)
   2284c:	fec42703          	lw	a4,-20(s0)
   22850:	200007b7          	lui	a5,0x20000
   22854:	00f767b3          	or	a5,a4,a5
   22858:	fef42623          	sw	a5,-20(s0)
   2285c:	fec42783          	lw	a5,-20(s0)
   22860:	00078593          	mv	a1,a5
   22864:	020017b7          	lui	a5,0x2001
   22868:	02078513          	addi	a0,a5,32 # 2001020 <bss_begin+0x1fdc020>
   2286c:	c95ff0ef          	jal	ra,22500 <write32>
   22870:	020017b7          	lui	a5,0x2001
   22874:	02078513          	addi	a0,a5,32 # 2001020 <bss_begin+0x1fdc020>
   22878:	c5dff0ef          	jal	ra,224d4 <read32>
   2287c:	00050793          	mv	a5,a0
   22880:	fef42623          	sw	a5,-20(s0)
   22884:	fec42703          	lw	a4,-20(s0)
   22888:	800007b7          	lui	a5,0x80000
   2288c:	00f767b3          	or	a5,a4,a5
   22890:	fef42623          	sw	a5,-20(s0)
   22894:	fec42783          	lw	a5,-20(s0)
   22898:	00078593          	mv	a1,a5
   2289c:	020017b7          	lui	a5,0x2001
   228a0:	02078513          	addi	a0,a5,32 # 2001020 <bss_begin+0x1fdc020>
   228a4:	c5dff0ef          	jal	ra,22500 <write32>
   228a8:	00000013          	nop
   228ac:	020017b7          	lui	a5,0x2001
   228b0:	02078513          	addi	a0,a5,32 # 2001020 <bss_begin+0x1fdc020>
   228b4:	c21ff0ef          	jal	ra,224d4 <read32>
   228b8:	00050793          	mv	a5,a0
   228bc:	0007879b          	sext.w	a5,a5
   228c0:	00078713          	mv	a4,a5
   228c4:	100007b7          	lui	a5,0x10000
   228c8:	00f777b3          	and	a5,a4,a5
   228cc:	0007879b          	sext.w	a5,a5
   228d0:	fc078ee3          	beqz	a5,228ac <set_pll_periph0+0xf0>
   228d4:	01400513          	li	a0,20
   228d8:	c5dff0ef          	jal	ra,22534 <sdelay>
   228dc:	020017b7          	lui	a5,0x2001
   228e0:	02078513          	addi	a0,a5,32 # 2001020 <bss_begin+0x1fdc020>
   228e4:	bf1ff0ef          	jal	ra,224d4 <read32>
   228e8:	00050793          	mv	a5,a0
   228ec:	fef42623          	sw	a5,-20(s0)
   228f0:	fec42703          	lw	a4,-20(s0)
   228f4:	e00007b7          	lui	a5,0xe0000
   228f8:	fff78793          	addi	a5,a5,-1 # ffffffffdfffffff <bss_begin+0xffffffffdffdafff>
   228fc:	00f777b3          	and	a5,a4,a5
   22900:	fef42623          	sw	a5,-20(s0)
   22904:	fec42783          	lw	a5,-20(s0)
   22908:	00078593          	mv	a1,a5
   2290c:	020017b7          	lui	a5,0x2001
   22910:	02078513          	addi	a0,a5,32 # 2001020 <bss_begin+0x1fdc020>
   22914:	bedff0ef          	jal	ra,22500 <write32>
   22918:	0080006f          	j	22920 <set_pll_periph0+0x164>
   2291c:	00000013          	nop
   22920:	01813083          	ld	ra,24(sp)
   22924:	01013403          	ld	s0,16(sp)
   22928:	02010113          	addi	sp,sp,32
   2292c:	00008067          	ret

0000000000022930 <set_ahb>:
   22930:	ff010113          	addi	sp,sp,-16
   22934:	00113423          	sd	ra,8(sp)
   22938:	00813023          	sd	s0,0(sp)
   2293c:	01010413          	addi	s0,sp,16
   22940:	00200593          	li	a1,2
   22944:	020017b7          	lui	a5,0x2001
   22948:	51078513          	addi	a0,a5,1296 # 2001510 <bss_begin+0x1fdc510>
   2294c:	bb5ff0ef          	jal	ra,22500 <write32>
   22950:	020017b7          	lui	a5,0x2001
   22954:	51078513          	addi	a0,a5,1296 # 2001510 <bss_begin+0x1fdc510>
   22958:	b7dff0ef          	jal	ra,224d4 <read32>
   2295c:	00050793          	mv	a5,a0
   22960:	0007879b          	sext.w	a5,a5
   22964:	00078713          	mv	a4,a5
   22968:	030007b7          	lui	a5,0x3000
   2296c:	00f767b3          	or	a5,a4,a5
   22970:	0007879b          	sext.w	a5,a5
   22974:	00078593          	mv	a1,a5
   22978:	020017b7          	lui	a5,0x2001
   2297c:	51078513          	addi	a0,a5,1296 # 2001510 <bss_begin+0x1fdc510>
   22980:	b81ff0ef          	jal	ra,22500 <write32>
   22984:	00100513          	li	a0,1
   22988:	badff0ef          	jal	ra,22534 <sdelay>
   2298c:	00000013          	nop
   22990:	00813083          	ld	ra,8(sp)
   22994:	00013403          	ld	s0,0(sp)
   22998:	01010113          	addi	sp,sp,16
   2299c:	00008067          	ret

00000000000229a0 <set_apb>:
   229a0:	ff010113          	addi	sp,sp,-16
   229a4:	00113423          	sd	ra,8(sp)
   229a8:	00813023          	sd	s0,0(sp)
   229ac:	01010413          	addi	s0,sp,16
   229b0:	10200593          	li	a1,258
   229b4:	020017b7          	lui	a5,0x2001
   229b8:	52078513          	addi	a0,a5,1312 # 2001520 <bss_begin+0x1fdc520>
   229bc:	b45ff0ef          	jal	ra,22500 <write32>
   229c0:	020017b7          	lui	a5,0x2001
   229c4:	52078513          	addi	a0,a5,1312 # 2001520 <bss_begin+0x1fdc520>
   229c8:	b0dff0ef          	jal	ra,224d4 <read32>
   229cc:	00050793          	mv	a5,a0
   229d0:	0007879b          	sext.w	a5,a5
   229d4:	00078713          	mv	a4,a5
   229d8:	030007b7          	lui	a5,0x3000
   229dc:	00f767b3          	or	a5,a4,a5
   229e0:	0007879b          	sext.w	a5,a5
   229e4:	00078593          	mv	a1,a5
   229e8:	020017b7          	lui	a5,0x2001
   229ec:	52078513          	addi	a0,a5,1312 # 2001520 <bss_begin+0x1fdc520>
   229f0:	b11ff0ef          	jal	ra,22500 <write32>
   229f4:	00100513          	li	a0,1
   229f8:	b3dff0ef          	jal	ra,22534 <sdelay>
   229fc:	00000013          	nop
   22a00:	00813083          	ld	ra,8(sp)
   22a04:	00013403          	ld	s0,0(sp)
   22a08:	01010113          	addi	sp,sp,16
   22a0c:	00008067          	ret

0000000000022a10 <set_dma>:
   22a10:	ff010113          	addi	sp,sp,-16
   22a14:	00113423          	sd	ra,8(sp)
   22a18:	00813023          	sd	s0,0(sp)
   22a1c:	01010413          	addi	s0,sp,16
   22a20:	020017b7          	lui	a5,0x2001
   22a24:	70c78513          	addi	a0,a5,1804 # 200170c <bss_begin+0x1fdc70c>
   22a28:	aadff0ef          	jal	ra,224d4 <read32>
   22a2c:	00050793          	mv	a5,a0
   22a30:	0007879b          	sext.w	a5,a5
   22a34:	00078713          	mv	a4,a5
   22a38:	000107b7          	lui	a5,0x10
   22a3c:	00f767b3          	or	a5,a4,a5
   22a40:	0007879b          	sext.w	a5,a5
   22a44:	00078593          	mv	a1,a5
   22a48:	020017b7          	lui	a5,0x2001
   22a4c:	70c78513          	addi	a0,a5,1804 # 200170c <bss_begin+0x1fdc70c>
   22a50:	ab1ff0ef          	jal	ra,22500 <write32>
   22a54:	01400513          	li	a0,20
   22a58:	addff0ef          	jal	ra,22534 <sdelay>
   22a5c:	020017b7          	lui	a5,0x2001
   22a60:	70c78513          	addi	a0,a5,1804 # 200170c <bss_begin+0x1fdc70c>
   22a64:	a71ff0ef          	jal	ra,224d4 <read32>
   22a68:	00050793          	mv	a5,a0
   22a6c:	0007879b          	sext.w	a5,a5
   22a70:	0017e793          	ori	a5,a5,1
   22a74:	0007879b          	sext.w	a5,a5
   22a78:	00078593          	mv	a1,a5
   22a7c:	020017b7          	lui	a5,0x2001
   22a80:	70c78513          	addi	a0,a5,1804 # 200170c <bss_begin+0x1fdc70c>
   22a84:	a7dff0ef          	jal	ra,22500 <write32>
   22a88:	00000013          	nop
   22a8c:	00813083          	ld	ra,8(sp)
   22a90:	00013403          	ld	s0,0(sp)
   22a94:	01010113          	addi	sp,sp,16
   22a98:	00008067          	ret

0000000000022a9c <set_mbus>:
   22a9c:	fe010113          	addi	sp,sp,-32
   22aa0:	00113c23          	sd	ra,24(sp)
   22aa4:	00813823          	sd	s0,16(sp)
   22aa8:	02010413          	addi	s0,sp,32
   22aac:	020017b7          	lui	a5,0x2001
   22ab0:	54078513          	addi	a0,a5,1344 # 2001540 <bss_begin+0x1fdc540>
   22ab4:	a21ff0ef          	jal	ra,224d4 <read32>
   22ab8:	00050793          	mv	a5,a0
   22abc:	fef42623          	sw	a5,-20(s0)
   22ac0:	fec42703          	lw	a4,-20(s0)
   22ac4:	400007b7          	lui	a5,0x40000
   22ac8:	00f767b3          	or	a5,a4,a5
   22acc:	fef42623          	sw	a5,-20(s0)
   22ad0:	fec42783          	lw	a5,-20(s0)
   22ad4:	00078593          	mv	a1,a5
   22ad8:	020017b7          	lui	a5,0x2001
   22adc:	54078513          	addi	a0,a5,1344 # 2001540 <bss_begin+0x1fdc540>
   22ae0:	a21ff0ef          	jal	ra,22500 <write32>
   22ae4:	00100513          	li	a0,1
   22ae8:	a4dff0ef          	jal	ra,22534 <sdelay>
   22aec:	00000013          	nop
   22af0:	01813083          	ld	ra,24(sp)
   22af4:	01013403          	ld	s0,16(sp)
   22af8:	02010113          	addi	sp,sp,32
   22afc:	00008067          	ret

0000000000022b00 <set_module>:
   22b00:	fd010113          	addi	sp,sp,-48
   22b04:	02113423          	sd	ra,40(sp)
   22b08:	02813023          	sd	s0,32(sp)
   22b0c:	03010413          	addi	s0,sp,48
   22b10:	fca43c23          	sd	a0,-40(s0)
   22b14:	fd843503          	ld	a0,-40(s0)
   22b18:	9bdff0ef          	jal	ra,224d4 <read32>
   22b1c:	00050793          	mv	a5,a0
   22b20:	0007879b          	sext.w	a5,a5
   22b24:	0007879b          	sext.w	a5,a5
   22b28:	0c07c263          	bltz	a5,22bec <set_module+0xec>
   22b2c:	fd843503          	ld	a0,-40(s0)
   22b30:	9a5ff0ef          	jal	ra,224d4 <read32>
   22b34:	00050793          	mv	a5,a0
   22b38:	fef42623          	sw	a5,-20(s0)
   22b3c:	fec42703          	lw	a4,-20(s0)
   22b40:	c00007b7          	lui	a5,0xc0000
   22b44:	00f767b3          	or	a5,a4,a5
   22b48:	0007879b          	sext.w	a5,a5
   22b4c:	00078593          	mv	a1,a5
   22b50:	fd843503          	ld	a0,-40(s0)
   22b54:	9adff0ef          	jal	ra,22500 <write32>
   22b58:	fd843503          	ld	a0,-40(s0)
   22b5c:	979ff0ef          	jal	ra,224d4 <read32>
   22b60:	00050793          	mv	a5,a0
   22b64:	fef42623          	sw	a5,-20(s0)
   22b68:	fec42703          	lw	a4,-20(s0)
   22b6c:	200007b7          	lui	a5,0x20000
   22b70:	00f767b3          	or	a5,a4,a5
   22b74:	fef42623          	sw	a5,-20(s0)
   22b78:	fec42783          	lw	a5,-20(s0)
   22b7c:	00078593          	mv	a1,a5
   22b80:	fd843503          	ld	a0,-40(s0)
   22b84:	97dff0ef          	jal	ra,22500 <write32>
   22b88:	00000013          	nop
   22b8c:	fd843503          	ld	a0,-40(s0)
   22b90:	945ff0ef          	jal	ra,224d4 <read32>
   22b94:	00050793          	mv	a5,a0
   22b98:	0007879b          	sext.w	a5,a5
   22b9c:	00078713          	mv	a4,a5
   22ba0:	100007b7          	lui	a5,0x10000
   22ba4:	00f777b3          	and	a5,a4,a5
   22ba8:	0007879b          	sext.w	a5,a5
   22bac:	fe0780e3          	beqz	a5,22b8c <set_module+0x8c>
   22bb0:	01400513          	li	a0,20
   22bb4:	981ff0ef          	jal	ra,22534 <sdelay>
   22bb8:	fd843503          	ld	a0,-40(s0)
   22bbc:	919ff0ef          	jal	ra,224d4 <read32>
   22bc0:	00050793          	mv	a5,a0
   22bc4:	fef42623          	sw	a5,-20(s0)
   22bc8:	fec42703          	lw	a4,-20(s0)
   22bcc:	e00007b7          	lui	a5,0xe0000
   22bd0:	fff78793          	addi	a5,a5,-1 # ffffffffdfffffff <bss_begin+0xffffffffdffdafff>
   22bd4:	00f777b3          	and	a5,a4,a5
   22bd8:	fef42623          	sw	a5,-20(s0)
   22bdc:	fec42783          	lw	a5,-20(s0)
   22be0:	00078593          	mv	a1,a5
   22be4:	fd843503          	ld	a0,-40(s0)
   22be8:	919ff0ef          	jal	ra,22500 <write32>
   22bec:	00000013          	nop
   22bf0:	02813083          	ld	ra,40(sp)
   22bf4:	02013403          	ld	s0,32(sp)
   22bf8:	03010113          	addi	sp,sp,48
   22bfc:	00008067          	ret

0000000000022c00 <sys_clock_init>:
   22c00:	ff010113          	addi	sp,sp,-16
   22c04:	00113423          	sd	ra,8(sp)
   22c08:	00813023          	sd	s0,0(sp)
   22c0c:	01010413          	addi	s0,sp,16
   22c10:	969ff0ef          	jal	ra,22578 <set_pll_cpux_axi>
   22c14:	ba9ff0ef          	jal	ra,227bc <set_pll_periph0>
   22c18:	d19ff0ef          	jal	ra,22930 <set_ahb>
   22c1c:	d85ff0ef          	jal	ra,229a0 <set_apb>
   22c20:	df1ff0ef          	jal	ra,22a10 <set_dma>
   22c24:	e79ff0ef          	jal	ra,22a9c <set_mbus>
   22c28:	020017b7          	lui	a5,0x2001
   22c2c:	02078513          	addi	a0,a5,32 # 2001020 <bss_begin+0x1fdc020>
   22c30:	ed1ff0ef          	jal	ra,22b00 <set_module>
   22c34:	020017b7          	lui	a5,0x2001
   22c38:	04078513          	addi	a0,a5,64 # 2001040 <bss_begin+0x1fdc040>
   22c3c:	ec5ff0ef          	jal	ra,22b00 <set_module>
   22c40:	020017b7          	lui	a5,0x2001
   22c44:	04878513          	addi	a0,a5,72 # 2001048 <bss_begin+0x1fdc048>
   22c48:	eb9ff0ef          	jal	ra,22b00 <set_module>
   22c4c:	020017b7          	lui	a5,0x2001
   22c50:	05878513          	addi	a0,a5,88 # 2001058 <bss_begin+0x1fdc058>
   22c54:	eadff0ef          	jal	ra,22b00 <set_module>
   22c58:	020017b7          	lui	a5,0x2001
   22c5c:	07878513          	addi	a0,a5,120 # 2001078 <bss_begin+0x1fdc078>
   22c60:	ea1ff0ef          	jal	ra,22b00 <set_module>
   22c64:	020017b7          	lui	a5,0x2001
   22c68:	08078513          	addi	a0,a5,128 # 2001080 <bss_begin+0x1fdc080>
   22c6c:	e95ff0ef          	jal	ra,22b00 <set_module>
   22c70:	00000013          	nop
   22c74:	00813083          	ld	ra,8(sp)
   22c78:	00013403          	ld	s0,0(sp)
   22c7c:	01010113          	addi	sp,sp,16
   22c80:	00008067          	ret

0000000000022c84 <read8>:
   22c84:	fe010113          	addi	sp,sp,-32
   22c88:	00813c23          	sd	s0,24(sp)
   22c8c:	02010413          	addi	s0,sp,32
   22c90:	fea43423          	sd	a0,-24(s0)
   22c94:	fe843783          	ld	a5,-24(s0)
   22c98:	0007c783          	lbu	a5,0(a5)
   22c9c:	0ff7f793          	andi	a5,a5,255
   22ca0:	00078513          	mv	a0,a5
   22ca4:	01813403          	ld	s0,24(sp)
   22ca8:	02010113          	addi	sp,sp,32
   22cac:	00008067          	ret

0000000000022cb0 <read32>:
   22cb0:	fe010113          	addi	sp,sp,-32
   22cb4:	00813c23          	sd	s0,24(sp)
   22cb8:	02010413          	addi	s0,sp,32
   22cbc:	fea43423          	sd	a0,-24(s0)
   22cc0:	fe843783          	ld	a5,-24(s0)
   22cc4:	0007a783          	lw	a5,0(a5)
   22cc8:	0007879b          	sext.w	a5,a5
   22ccc:	00078513          	mv	a0,a5
   22cd0:	01813403          	ld	s0,24(sp)
   22cd4:	02010113          	addi	sp,sp,32
   22cd8:	00008067          	ret

0000000000022cdc <write32>:
   22cdc:	fe010113          	addi	sp,sp,-32
   22ce0:	00813c23          	sd	s0,24(sp)
   22ce4:	02010413          	addi	s0,sp,32
   22ce8:	fea43423          	sd	a0,-24(s0)
   22cec:	00058793          	mv	a5,a1
   22cf0:	fef42223          	sw	a5,-28(s0)
   22cf4:	fe843783          	ld	a5,-24(s0)
   22cf8:	fe442703          	lw	a4,-28(s0)
   22cfc:	00e7a023          	sw	a4,0(a5)
   22d00:	00000013          	nop
   22d04:	01813403          	ld	s0,24(sp)
   22d08:	02010113          	addi	sp,sp,32
   22d0c:	00008067          	ret

0000000000022d10 <uart_init>:
   22d10:	fe010113          	addi	sp,sp,-32
   22d14:	00113c23          	sd	ra,24(sp)
   22d18:	00813823          	sd	s0,16(sp)
   22d1c:	02010413          	addi	s0,sp,32
   22d20:	020007b7          	lui	a5,0x2000
   22d24:	0f078793          	addi	a5,a5,240 # 20000f0 <bss_begin+0x1fdb0f0>
   22d28:	fef43423          	sd	a5,-24(s0)
   22d2c:	fe843503          	ld	a0,-24(s0)
   22d30:	f81ff0ef          	jal	ra,22cb0 <read32>
   22d34:	00050793          	mv	a5,a0
   22d38:	fef42223          	sw	a5,-28(s0)
   22d3c:	fe442703          	lw	a4,-28(s0)
   22d40:	fffff7b7          	lui	a5,0xfffff
   22d44:	0ff78793          	addi	a5,a5,255 # fffffffffffff0ff <bss_begin+0xfffffffffffda0ff>
   22d48:	00f777b3          	and	a5,a4,a5
   22d4c:	fef42223          	sw	a5,-28(s0)
   22d50:	fe442783          	lw	a5,-28(s0)
   22d54:	3007e793          	ori	a5,a5,768
   22d58:	fef42223          	sw	a5,-28(s0)
   22d5c:	fe442783          	lw	a5,-28(s0)
   22d60:	00078593          	mv	a1,a5
   22d64:	fe843503          	ld	a0,-24(s0)
   22d68:	f75ff0ef          	jal	ra,22cdc <write32>
   22d6c:	fe843503          	ld	a0,-24(s0)
   22d70:	f41ff0ef          	jal	ra,22cb0 <read32>
   22d74:	00050793          	mv	a5,a0
   22d78:	fef42223          	sw	a5,-28(s0)
   22d7c:	fe442703          	lw	a4,-28(s0)
   22d80:	fff107b7          	lui	a5,0xfff10
   22d84:	fff78793          	addi	a5,a5,-1 # fffffffffff0ffff <bss_begin+0xffffffffffeeafff>
   22d88:	00f777b3          	and	a5,a4,a5
   22d8c:	fef42223          	sw	a5,-28(s0)
   22d90:	fe442703          	lw	a4,-28(s0)
   22d94:	000307b7          	lui	a5,0x30
   22d98:	00f767b3          	or	a5,a4,a5
   22d9c:	fef42223          	sw	a5,-28(s0)
   22da0:	fe442783          	lw	a5,-28(s0)
   22da4:	00078593          	mv	a1,a5
   22da8:	fe843503          	ld	a0,-24(s0)
   22dac:	f31ff0ef          	jal	ra,22cdc <write32>
   22db0:	020027b7          	lui	a5,0x2002
   22db4:	90c78793          	addi	a5,a5,-1780 # 200190c <bss_begin+0x1fdc90c>
   22db8:	fef43423          	sd	a5,-24(s0)
   22dbc:	fe843503          	ld	a0,-24(s0)
   22dc0:	ef1ff0ef          	jal	ra,22cb0 <read32>
   22dc4:	00050793          	mv	a5,a0
   22dc8:	fef42223          	sw	a5,-28(s0)
   22dcc:	fe442783          	lw	a5,-28(s0)
   22dd0:	0017e793          	ori	a5,a5,1
   22dd4:	fef42223          	sw	a5,-28(s0)
   22dd8:	fe442783          	lw	a5,-28(s0)
   22ddc:	00078593          	mv	a1,a5
   22de0:	fe843503          	ld	a0,-24(s0)
   22de4:	ef9ff0ef          	jal	ra,22cdc <write32>
   22de8:	020027b7          	lui	a5,0x2002
   22dec:	90c78793          	addi	a5,a5,-1780 # 200190c <bss_begin+0x1fdc90c>
   22df0:	fef43423          	sd	a5,-24(s0)
   22df4:	fe843503          	ld	a0,-24(s0)
   22df8:	eb9ff0ef          	jal	ra,22cb0 <read32>
   22dfc:	00050793          	mv	a5,a0
   22e00:	fef42223          	sw	a5,-28(s0)
   22e04:	fe442703          	lw	a4,-28(s0)
   22e08:	000107b7          	lui	a5,0x10
   22e0c:	00f767b3          	or	a5,a4,a5
   22e10:	fef42223          	sw	a5,-28(s0)
   22e14:	fe442783          	lw	a5,-28(s0)
   22e18:	00078593          	mv	a1,a5
   22e1c:	fe843503          	ld	a0,-24(s0)
   22e20:	ebdff0ef          	jal	ra,22cdc <write32>
   22e24:	025007b7          	lui	a5,0x2500
   22e28:	fef43423          	sd	a5,-24(s0)
   22e2c:	fe843783          	ld	a5,-24(s0)
   22e30:	00478793          	addi	a5,a5,4 # 2500004 <bss_begin+0x24db004>
   22e34:	00000593          	li	a1,0
   22e38:	00078513          	mv	a0,a5
   22e3c:	ea1ff0ef          	jal	ra,22cdc <write32>
   22e40:	fe843783          	ld	a5,-24(s0)
   22e44:	00878793          	addi	a5,a5,8
   22e48:	0f100593          	li	a1,241
   22e4c:	00078513          	mv	a0,a5
   22e50:	e8dff0ef          	jal	ra,22cdc <write32>
   22e54:	fe843783          	ld	a5,-24(s0)
   22e58:	01078793          	addi	a5,a5,16
   22e5c:	00000593          	li	a1,0
   22e60:	00078513          	mv	a0,a5
   22e64:	e79ff0ef          	jal	ra,22cdc <write32>
   22e68:	fe843783          	ld	a5,-24(s0)
   22e6c:	00c78793          	addi	a5,a5,12
   22e70:	00078513          	mv	a0,a5
   22e74:	e3dff0ef          	jal	ra,22cb0 <read32>
   22e78:	00050793          	mv	a5,a0
   22e7c:	fef42223          	sw	a5,-28(s0)
   22e80:	fe442783          	lw	a5,-28(s0)
   22e84:	0807e793          	ori	a5,a5,128
   22e88:	fef42223          	sw	a5,-28(s0)
   22e8c:	fe843783          	ld	a5,-24(s0)
   22e90:	00c78793          	addi	a5,a5,12
   22e94:	fe442703          	lw	a4,-28(s0)
   22e98:	00070593          	mv	a1,a4
   22e9c:	00078513          	mv	a0,a5
   22ea0:	e3dff0ef          	jal	ra,22cdc <write32>
   22ea4:	00d00593          	li	a1,13
   22ea8:	fe843503          	ld	a0,-24(s0)
   22eac:	e31ff0ef          	jal	ra,22cdc <write32>
   22eb0:	fe843783          	ld	a5,-24(s0)
   22eb4:	00478793          	addi	a5,a5,4
   22eb8:	00000593          	li	a1,0
   22ebc:	00078513          	mv	a0,a5
   22ec0:	e1dff0ef          	jal	ra,22cdc <write32>
   22ec4:	fe843783          	ld	a5,-24(s0)
   22ec8:	00c78793          	addi	a5,a5,12
   22ecc:	00078513          	mv	a0,a5
   22ed0:	de1ff0ef          	jal	ra,22cb0 <read32>
   22ed4:	00050793          	mv	a5,a0
   22ed8:	fef42223          	sw	a5,-28(s0)
   22edc:	fe442783          	lw	a5,-28(s0)
   22ee0:	f7f7f793          	andi	a5,a5,-129
   22ee4:	fef42223          	sw	a5,-28(s0)
   22ee8:	fe843783          	ld	a5,-24(s0)
   22eec:	00c78793          	addi	a5,a5,12
   22ef0:	fe442703          	lw	a4,-28(s0)
   22ef4:	00070593          	mv	a1,a4
   22ef8:	00078513          	mv	a0,a5
   22efc:	de1ff0ef          	jal	ra,22cdc <write32>
   22f00:	fe843783          	ld	a5,-24(s0)
   22f04:	00c78793          	addi	a5,a5,12
   22f08:	00078513          	mv	a0,a5
   22f0c:	da5ff0ef          	jal	ra,22cb0 <read32>
   22f10:	00050793          	mv	a5,a0
   22f14:	fef42223          	sw	a5,-28(s0)
   22f18:	fe442783          	lw	a5,-28(s0)
   22f1c:	fe07f793          	andi	a5,a5,-32
   22f20:	fef42223          	sw	a5,-28(s0)
   22f24:	fe442783          	lw	a5,-28(s0)
   22f28:	0037e793          	ori	a5,a5,3
   22f2c:	fef42223          	sw	a5,-28(s0)
   22f30:	fe843783          	ld	a5,-24(s0)
   22f34:	00c78793          	addi	a5,a5,12
   22f38:	fe442703          	lw	a4,-28(s0)
   22f3c:	00070593          	mv	a1,a4
   22f40:	00078513          	mv	a0,a5
   22f44:	d99ff0ef          	jal	ra,22cdc <write32>
   22f48:	00000013          	nop
   22f4c:	01813083          	ld	ra,24(sp)
   22f50:	01013403          	ld	s0,16(sp)
   22f54:	02010113          	addi	sp,sp,32
   22f58:	00008067          	ret

0000000000022f5c <uart_send>:
   22f5c:	fd010113          	addi	sp,sp,-48
   22f60:	02113423          	sd	ra,40(sp)
   22f64:	02813023          	sd	s0,32(sp)
   22f68:	03010413          	addi	s0,sp,48
   22f6c:	00050793          	mv	a5,a0
   22f70:	fcf40fa3          	sb	a5,-33(s0)
   22f74:	025007b7          	lui	a5,0x2500
   22f78:	fef43423          	sd	a5,-24(s0)
   22f7c:	00000013          	nop
   22f80:	fe843783          	ld	a5,-24(s0)
   22f84:	07c78793          	addi	a5,a5,124 # 250007c <bss_begin+0x24db07c>
   22f88:	00078513          	mv	a0,a5
   22f8c:	d25ff0ef          	jal	ra,22cb0 <read32>
   22f90:	00050793          	mv	a5,a0
   22f94:	0007879b          	sext.w	a5,a5
   22f98:	0027f793          	andi	a5,a5,2
   22f9c:	0007879b          	sext.w	a5,a5
   22fa0:	fe0780e3          	beqz	a5,22f80 <uart_send+0x24>
   22fa4:	fdf44783          	lbu	a5,-33(s0)
   22fa8:	0007879b          	sext.w	a5,a5
   22fac:	00078593          	mv	a1,a5
   22fb0:	fe843503          	ld	a0,-24(s0)
   22fb4:	d29ff0ef          	jal	ra,22cdc <write32>
   22fb8:	00000013          	nop
   22fbc:	02813083          	ld	ra,40(sp)
   22fc0:	02013403          	ld	s0,32(sp)
   22fc4:	03010113          	addi	sp,sp,48
   22fc8:	00008067          	ret

0000000000022fcc <putchar>:
   22fcc:	fe010113          	addi	sp,sp,-32
   22fd0:	00113c23          	sd	ra,24(sp)
   22fd4:	00813823          	sd	s0,16(sp)
   22fd8:	02010413          	addi	s0,sp,32
   22fdc:	00050793          	mv	a5,a0
   22fe0:	fef42623          	sw	a5,-20(s0)
   22fe4:	fec42783          	lw	a5,-20(s0)
   22fe8:	0ff7f793          	andi	a5,a5,255
   22fec:	00078513          	mv	a0,a5
   22ff0:	f6dff0ef          	jal	ra,22f5c <uart_send>
   22ff4:	fec42783          	lw	a5,-20(s0)
   22ff8:	00078513          	mv	a0,a5
   22ffc:	01813083          	ld	ra,24(sp)
   23000:	01013403          	ld	s0,16(sp)
   23004:	02010113          	addi	sp,sp,32
   23008:	00008067          	ret

000000000002300c <uart_recv>:
   2300c:	fe010113          	addi	sp,sp,-32
   23010:	00113c23          	sd	ra,24(sp)
   23014:	00813823          	sd	s0,16(sp)
   23018:	02010413          	addi	s0,sp,32
   2301c:	025007b7          	lui	a5,0x2500
   23020:	fef43423          	sd	a5,-24(s0)
   23024:	00000013          	nop
   23028:	fe843783          	ld	a5,-24(s0)
   2302c:	07c78793          	addi	a5,a5,124 # 250007c <bss_begin+0x24db07c>
   23030:	00078513          	mv	a0,a5
   23034:	c7dff0ef          	jal	ra,22cb0 <read32>
   23038:	00050793          	mv	a5,a0
   2303c:	0007879b          	sext.w	a5,a5
   23040:	0087f793          	andi	a5,a5,8
   23044:	0007879b          	sext.w	a5,a5
   23048:	fe0780e3          	beqz	a5,23028 <uart_recv+0x1c>
   2304c:	fe843503          	ld	a0,-24(s0)
   23050:	c35ff0ef          	jal	ra,22c84 <read8>
   23054:	00050793          	mv	a5,a0
   23058:	00078513          	mv	a0,a5
   2305c:	01813083          	ld	ra,24(sp)
   23060:	01013403          	ld	s0,16(sp)
   23064:	02010113          	addi	sp,sp,32
   23068:	00008067          	ret

000000000002306c <uart_send_string>:
   2306c:	fd010113          	addi	sp,sp,-48
   23070:	02113423          	sd	ra,40(sp)
   23074:	02813023          	sd	s0,32(sp)
   23078:	03010413          	addi	s0,sp,48
   2307c:	fca43c23          	sd	a0,-40(s0)
   23080:	fe042623          	sw	zero,-20(s0)
   23084:	04c0006f          	j	230d0 <uart_send_string+0x64>
   23088:	fec42783          	lw	a5,-20(s0)
   2308c:	fd843703          	ld	a4,-40(s0)
   23090:	00f707b3          	add	a5,a4,a5
   23094:	0007c783          	lbu	a5,0(a5)
   23098:	00078713          	mv	a4,a5
   2309c:	00a00793          	li	a5,10
   230a0:	00f71663          	bne	a4,a5,230ac <uart_send_string+0x40>
   230a4:	00d00513          	li	a0,13
   230a8:	eb5ff0ef          	jal	ra,22f5c <uart_send>
   230ac:	fec42783          	lw	a5,-20(s0)
   230b0:	fd843703          	ld	a4,-40(s0)
   230b4:	00f707b3          	add	a5,a4,a5
   230b8:	0007c783          	lbu	a5,0(a5)
   230bc:	00078513          	mv	a0,a5
   230c0:	e9dff0ef          	jal	ra,22f5c <uart_send>
   230c4:	fec42783          	lw	a5,-20(s0)
   230c8:	0017879b          	addiw	a5,a5,1
   230cc:	fef42623          	sw	a5,-20(s0)
   230d0:	fec42783          	lw	a5,-20(s0)
   230d4:	fd843703          	ld	a4,-40(s0)
   230d8:	00f707b3          	add	a5,a4,a5
   230dc:	0007c783          	lbu	a5,0(a5)
   230e0:	fa0794e3          	bnez	a5,23088 <uart_send_string+0x1c>
   230e4:	00000013          	nop
   230e8:	00000013          	nop
   230ec:	02813083          	ld	ra,40(sp)
   230f0:	02013403          	ld	s0,32(sp)
   230f4:	03010113          	addi	sp,sp,48
   230f8:	00008067          	ret

00000000000230fc <vpf_str_to_num>:
   230fc:	fc010113          	addi	sp,sp,-64
   23100:	02813c23          	sd	s0,56(sp)
   23104:	04010413          	addi	s0,sp,64
   23108:	fca43423          	sd	a0,-56(s0)
   2310c:	fcb43023          	sd	a1,-64(s0)
   23110:	fe042223          	sw	zero,-28(s0)
   23114:	fc843783          	ld	a5,-56(s0)
   23118:	fef43423          	sd	a5,-24(s0)
   2311c:	0900006f          	j	231ac <vpf_str_to_num+0xb0>
   23120:	fe843783          	ld	a5,-24(s0)
   23124:	0007c783          	lbu	a5,0(a5)
   23128:	00078713          	mv	a4,a5
   2312c:	02f00793          	li	a5,47
   23130:	02e7f063          	bgeu	a5,a4,23150 <vpf_str_to_num+0x54>
   23134:	fe843783          	ld	a5,-24(s0)
   23138:	0007c783          	lbu	a5,0(a5)
   2313c:	00078713          	mv	a4,a5
   23140:	03900793          	li	a5,57
   23144:	00e7e663          	bltu	a5,a4,23150 <vpf_str_to_num+0x54>
   23148:	00100793          	li	a5,1
   2314c:	0080006f          	j	23154 <vpf_str_to_num+0x58>
   23150:	00000793          	li	a5,0
   23154:	fef42023          	sw	a5,-32(s0)
   23158:	fe042783          	lw	a5,-32(s0)
   2315c:	0007879b          	sext.w	a5,a5
   23160:	04078e63          	beqz	a5,231bc <vpf_str_to_num+0xc0>
   23164:	fe843783          	ld	a5,-24(s0)
   23168:	0007c783          	lbu	a5,0(a5)
   2316c:	0007879b          	sext.w	a5,a5
   23170:	fd07879b          	addiw	a5,a5,-48
   23174:	fcf42e23          	sw	a5,-36(s0)
   23178:	fe442703          	lw	a4,-28(s0)
   2317c:	00070793          	mv	a5,a4
   23180:	0027979b          	slliw	a5,a5,0x2
   23184:	00e787bb          	addw	a5,a5,a4
   23188:	0017979b          	slliw	a5,a5,0x1
   2318c:	fef42223          	sw	a5,-28(s0)
   23190:	fe442703          	lw	a4,-28(s0)
   23194:	fdc42783          	lw	a5,-36(s0)
   23198:	00f707bb          	addw	a5,a4,a5
   2319c:	fef42223          	sw	a5,-28(s0)
   231a0:	fe843783          	ld	a5,-24(s0)
   231a4:	00178793          	addi	a5,a5,1
   231a8:	fef43423          	sd	a5,-24(s0)
   231ac:	fc843783          	ld	a5,-56(s0)
   231b0:	0007c783          	lbu	a5,0(a5)
   231b4:	f60796e3          	bnez	a5,23120 <vpf_str_to_num+0x24>
   231b8:	0080006f          	j	231c0 <vpf_str_to_num+0xc4>
   231bc:	00000013          	nop
   231c0:	fc043783          	ld	a5,-64(s0)
   231c4:	fe442703          	lw	a4,-28(s0)
   231c8:	00e7a023          	sw	a4,0(a5)
   231cc:	fe843703          	ld	a4,-24(s0)
   231d0:	fc843783          	ld	a5,-56(s0)
   231d4:	40f707b3          	sub	a5,a4,a5
   231d8:	0007879b          	sext.w	a5,a5
   231dc:	00078513          	mv	a0,a5
   231e0:	03813403          	ld	s0,56(sp)
   231e4:	04010113          	addi	sp,sp,64
   231e8:	00008067          	ret

00000000000231ec <vpf_num_to_str>:
   231ec:	fb010113          	addi	sp,sp,-80
   231f0:	04113423          	sd	ra,72(sp)
   231f4:	04813023          	sd	s0,64(sp)
   231f8:	05010413          	addi	s0,sp,80
   231fc:	00050793          	mv	a5,a0
   23200:	00068713          	mv	a4,a3
   23204:	faf42e23          	sw	a5,-68(s0)
   23208:	00058793          	mv	a5,a1
   2320c:	faf42c23          	sw	a5,-72(s0)
   23210:	00060793          	mv	a5,a2
   23214:	faf42a23          	sw	a5,-76(s0)
   23218:	00070793          	mv	a5,a4
   2321c:	faf42823          	sw	a5,-80(s0)
   23220:	fe042223          	sw	zero,-28(s0)
   23224:	0280006f          	j	2324c <vpf_num_to_str+0x60>
   23228:	fb042783          	lw	a5,-80(s0)
   2322c:	0ff7f713          	andi	a4,a5,255
   23230:	fe442783          	lw	a5,-28(s0)
   23234:	ff040693          	addi	a3,s0,-16
   23238:	00f687b3          	add	a5,a3,a5
   2323c:	fce78823          	sb	a4,-48(a5)
   23240:	fe442783          	lw	a5,-28(s0)
   23244:	0017879b          	addiw	a5,a5,1
   23248:	fef42223          	sw	a5,-28(s0)
   2324c:	fe442783          	lw	a5,-28(s0)
   23250:	00078713          	mv	a4,a5
   23254:	01f00793          	li	a5,31
   23258:	fce7f8e3          	bgeu	a5,a4,23228 <vpf_num_to_str+0x3c>
   2325c:	00a00793          	li	a5,10
   23260:	fef42623          	sw	a5,-20(s0)
   23264:	fb842783          	lw	a5,-72(s0)
   23268:	0007879b          	sext.w	a5,a5
   2326c:	00078663          	beqz	a5,23278 <vpf_num_to_str+0x8c>
   23270:	01000793          	li	a5,16
   23274:	fef42623          	sw	a5,-20(s0)
   23278:	fe042423          	sw	zero,-24(s0)
   2327c:	fbc42703          	lw	a4,-68(s0)
   23280:	fec42783          	lw	a5,-20(s0)
   23284:	02f777bb          	remuw	a5,a4,a5
   23288:	0007879b          	sext.w	a5,a5
   2328c:	fef42023          	sw	a5,-32(s0)
   23290:	fe042783          	lw	a5,-32(s0)
   23294:	0007871b          	sext.w	a4,a5
   23298:	00900793          	li	a5,9
   2329c:	02e7d463          	bge	a5,a4,232c4 <vpf_num_to_str+0xd8>
   232a0:	fe042783          	lw	a5,-32(s0)
   232a4:	0ff7f793          	andi	a5,a5,255
   232a8:	0577879b          	addiw	a5,a5,87
   232ac:	0ff7f713          	andi	a4,a5,255
   232b0:	fe842783          	lw	a5,-24(s0)
   232b4:	ff040693          	addi	a3,s0,-16
   232b8:	00f687b3          	add	a5,a3,a5
   232bc:	fce78823          	sb	a4,-48(a5)
   232c0:	0240006f          	j	232e4 <vpf_num_to_str+0xf8>
   232c4:	fe042783          	lw	a5,-32(s0)
   232c8:	0ff7f793          	andi	a5,a5,255
   232cc:	0307879b          	addiw	a5,a5,48
   232d0:	0ff7f713          	andi	a4,a5,255
   232d4:	fe842783          	lw	a5,-24(s0)
   232d8:	ff040693          	addi	a3,s0,-16
   232dc:	00f687b3          	add	a5,a3,a5
   232e0:	fce78823          	sb	a4,-48(a5)
   232e4:	fbc42703          	lw	a4,-68(s0)
   232e8:	fec42783          	lw	a5,-20(s0)
   232ec:	02f757bb          	divuw	a5,a4,a5
   232f0:	faf42e23          	sw	a5,-68(s0)
   232f4:	fe842783          	lw	a5,-24(s0)
   232f8:	0017879b          	addiw	a5,a5,1
   232fc:	fef42423          	sw	a5,-24(s0)
   23300:	fbc42783          	lw	a5,-68(s0)
   23304:	0007879b          	sext.w	a5,a5
   23308:	f6079ae3          	bnez	a5,2327c <vpf_num_to_str+0x90>
   2330c:	fb442783          	lw	a5,-76(s0)
   23310:	0007879b          	sext.w	a5,a5
   23314:	02f05c63          	blez	a5,2334c <vpf_num_to_str+0x160>
   23318:	fb442783          	lw	a5,-76(s0)
   2331c:	00078713          	mv	a4,a5
   23320:	01f00793          	li	a5,31
   23324:	00e7f663          	bgeu	a5,a4,23330 <vpf_num_to_str+0x144>
   23328:	01f00793          	li	a5,31
   2332c:	faf42a23          	sw	a5,-76(s0)
   23330:	fe842703          	lw	a4,-24(s0)
   23334:	fb442783          	lw	a5,-76(s0)
   23338:	0007071b          	sext.w	a4,a4
   2333c:	0007879b          	sext.w	a5,a5
   23340:	00f75663          	bge	a4,a5,2334c <vpf_num_to_str+0x160>
   23344:	fb442783          	lw	a5,-76(s0)
   23348:	fef42423          	sw	a5,-24(s0)
   2334c:	fe842783          	lw	a5,-24(s0)
   23350:	ff040713          	addi	a4,s0,-16
   23354:	00f707b3          	add	a5,a4,a5
   23358:	fc078823          	sb	zero,-48(a5)
   2335c:	fe842783          	lw	a5,-24(s0)
   23360:	fff7879b          	addiw	a5,a5,-1
   23364:	fef42223          	sw	a5,-28(s0)
   23368:	0280006f          	j	23390 <vpf_num_to_str+0x1a4>
   2336c:	fe442783          	lw	a5,-28(s0)
   23370:	ff040713          	addi	a4,s0,-16
   23374:	00f707b3          	add	a5,a4,a5
   23378:	fd07c783          	lbu	a5,-48(a5)
   2337c:	00078513          	mv	a0,a5
   23380:	bddff0ef          	jal	ra,22f5c <uart_send>
   23384:	fe442783          	lw	a5,-28(s0)
   23388:	fff7879b          	addiw	a5,a5,-1
   2338c:	fef42223          	sw	a5,-28(s0)
   23390:	fe442783          	lw	a5,-28(s0)
   23394:	0007879b          	sext.w	a5,a5
   23398:	fc07dae3          	bgez	a5,2336c <vpf_num_to_str+0x180>
   2339c:	00000013          	nop
   233a0:	00000013          	nop
   233a4:	04813083          	ld	ra,72(sp)
   233a8:	04013403          	ld	s0,64(sp)
   233ac:	05010113          	addi	sp,sp,80
   233b0:	00008067          	ret

00000000000233b4 <vpf>:
   233b4:	fb010113          	addi	sp,sp,-80
   233b8:	04113423          	sd	ra,72(sp)
   233bc:	04813023          	sd	s0,64(sp)
   233c0:	05010413          	addi	s0,sp,80
   233c4:	faa43c23          	sd	a0,-72(s0)
   233c8:	fab43823          	sd	a1,-80(s0)
   233cc:	02000793          	li	a5,32
   233d0:	fcf42a23          	sw	a5,-44(s0)
   233d4:	fb843783          	ld	a5,-72(s0)
   233d8:	fef43423          	sd	a5,-24(s0)
   233dc:	1880006f          	j	23564 <vpf+0x1b0>
   233e0:	fc042e23          	sw	zero,-36(s0)
   233e4:	fc042223          	sw	zero,-60(s0)
   233e8:	fe843783          	ld	a5,-24(s0)
   233ec:	0007c783          	lbu	a5,0(a5)
   233f0:	fcf42823          	sw	a5,-48(s0)
   233f4:	fe843783          	ld	a5,-24(s0)
   233f8:	fef43023          	sd	a5,-32(s0)
   233fc:	fe843783          	ld	a5,-24(s0)
   23400:	0007c783          	lbu	a5,0(a5)
   23404:	00078713          	mv	a4,a5
   23408:	02500793          	li	a5,37
   2340c:	06f71863          	bne	a4,a5,2347c <vpf+0xc8>
   23410:	fe843783          	ld	a5,-24(s0)
   23414:	fef43023          	sd	a5,-32(s0)
   23418:	fe843783          	ld	a5,-24(s0)
   2341c:	00178793          	addi	a5,a5,1
   23420:	fef43423          	sd	a5,-24(s0)
   23424:	fe843783          	ld	a5,-24(s0)
   23428:	0007c783          	lbu	a5,0(a5)
   2342c:	00078713          	mv	a4,a5
   23430:	02f00793          	li	a5,47
   23434:	02e7fe63          	bgeu	a5,a4,23470 <vpf+0xbc>
   23438:	fe843783          	ld	a5,-24(s0)
   2343c:	0007c783          	lbu	a5,0(a5)
   23440:	00078713          	mv	a4,a5
   23444:	03900793          	li	a5,57
   23448:	02e7e463          	bltu	a5,a4,23470 <vpf+0xbc>
   2344c:	fc440793          	addi	a5,s0,-60
   23450:	00078593          	mv	a1,a5
   23454:	fe843503          	ld	a0,-24(s0)
   23458:	ca5ff0ef          	jal	ra,230fc <vpf_str_to_num>
   2345c:	00050793          	mv	a5,a0
   23460:	00078713          	mv	a4,a5
   23464:	fe843783          	ld	a5,-24(s0)
   23468:	00e787b3          	add	a5,a5,a4
   2346c:	fef43423          	sd	a5,-24(s0)
   23470:	fe843783          	ld	a5,-24(s0)
   23474:	0007c783          	lbu	a5,0(a5)
   23478:	fcf42e23          	sw	a5,-36(s0)
   2347c:	fdc42783          	lw	a5,-36(s0)
   23480:	0007871b          	sext.w	a4,a5
   23484:	06400793          	li	a5,100
   23488:	00f70a63          	beq	a4,a5,2349c <vpf+0xe8>
   2348c:	fdc42783          	lw	a5,-36(s0)
   23490:	0007871b          	sext.w	a4,a5
   23494:	07800793          	li	a5,120
   23498:	04f71863          	bne	a4,a5,234e8 <vpf+0x134>
   2349c:	fb043783          	ld	a5,-80(s0)
   234a0:	00878713          	addi	a4,a5,8
   234a4:	fae43823          	sd	a4,-80(s0)
   234a8:	0007a783          	lw	a5,0(a5)
   234ac:	fcf42423          	sw	a5,-56(s0)
   234b0:	fc842503          	lw	a0,-56(s0)
   234b4:	fdc42783          	lw	a5,-36(s0)
   234b8:	0007871b          	sext.w	a4,a5
   234bc:	07800793          	li	a5,120
   234c0:	40f707b3          	sub	a5,a4,a5
   234c4:	0017b793          	seqz	a5,a5
   234c8:	0ff7f793          	andi	a5,a5,255
   234cc:	0007879b          	sext.w	a5,a5
   234d0:	fc442703          	lw	a4,-60(s0)
   234d4:	fd442683          	lw	a3,-44(s0)
   234d8:	00070613          	mv	a2,a4
   234dc:	00078593          	mv	a1,a5
   234e0:	d0dff0ef          	jal	ra,231ec <vpf_num_to_str>
   234e4:	0740006f          	j	23558 <vpf+0x1a4>
   234e8:	fc042c23          	sw	zero,-40(s0)
   234ec:	0280006f          	j	23514 <vpf+0x160>
   234f0:	fd842783          	lw	a5,-40(s0)
   234f4:	fe043703          	ld	a4,-32(s0)
   234f8:	00f707b3          	add	a5,a4,a5
   234fc:	0007c783          	lbu	a5,0(a5)
   23500:	00078513          	mv	a0,a5
   23504:	a59ff0ef          	jal	ra,22f5c <uart_send>
   23508:	fd842783          	lw	a5,-40(s0)
   2350c:	0017879b          	addiw	a5,a5,1
   23510:	fcf42c23          	sw	a5,-40(s0)
   23514:	fd842703          	lw	a4,-40(s0)
   23518:	fe843683          	ld	a3,-24(s0)
   2351c:	fe043783          	ld	a5,-32(s0)
   23520:	40f687b3          	sub	a5,a3,a5
   23524:	fcf746e3          	blt	a4,a5,234f0 <vpf+0x13c>
   23528:	fdc42783          	lw	a5,-36(s0)
   2352c:	0007879b          	sext.w	a5,a5
   23530:	00078863          	beqz	a5,23540 <vpf+0x18c>
   23534:	fdc42783          	lw	a5,-36(s0)
   23538:	0ff7f793          	andi	a5,a5,255
   2353c:	00c0006f          	j	23548 <vpf+0x194>
   23540:	fd042783          	lw	a5,-48(s0)
   23544:	0ff7f793          	andi	a5,a5,255
   23548:	fcf407a3          	sb	a5,-49(s0)
   2354c:	fcf44783          	lbu	a5,-49(s0)
   23550:	00078513          	mv	a0,a5
   23554:	a09ff0ef          	jal	ra,22f5c <uart_send>
   23558:	fe843783          	ld	a5,-24(s0)
   2355c:	00178793          	addi	a5,a5,1
   23560:	fef43423          	sd	a5,-24(s0)
   23564:	fe843783          	ld	a5,-24(s0)
   23568:	0007c783          	lbu	a5,0(a5)
   2356c:	e6079ae3          	bnez	a5,233e0 <vpf+0x2c>
   23570:	00000793          	li	a5,0
   23574:	00078513          	mv	a0,a5
   23578:	04813083          	ld	ra,72(sp)
   2357c:	04013403          	ld	s0,64(sp)
   23580:	05010113          	addi	sp,sp,80
   23584:	00008067          	ret

0000000000023588 <sys_uart_printf>:
   23588:	f9010113          	addi	sp,sp,-112
   2358c:	02113423          	sd	ra,40(sp)
   23590:	02813023          	sd	s0,32(sp)
   23594:	03010413          	addi	s0,sp,48
   23598:	fca43c23          	sd	a0,-40(s0)
   2359c:	00b43423          	sd	a1,8(s0)
   235a0:	00c43823          	sd	a2,16(s0)
   235a4:	00d43c23          	sd	a3,24(s0)
   235a8:	02e43023          	sd	a4,32(s0)
   235ac:	02f43423          	sd	a5,40(s0)
   235b0:	03043823          	sd	a6,48(s0)
   235b4:	03143c23          	sd	a7,56(s0)
   235b8:	04040793          	addi	a5,s0,64
   235bc:	fcf43823          	sd	a5,-48(s0)
   235c0:	fd043783          	ld	a5,-48(s0)
   235c4:	fc878793          	addi	a5,a5,-56
   235c8:	fef43423          	sd	a5,-24(s0)
   235cc:	fe843783          	ld	a5,-24(s0)
   235d0:	00078593          	mv	a1,a5
   235d4:	fd843503          	ld	a0,-40(s0)
   235d8:	dddff0ef          	jal	ra,233b4 <vpf>
   235dc:	00000793          	li	a5,0
   235e0:	00078513          	mv	a0,a5
   235e4:	02813083          	ld	ra,40(sp)
   235e8:	02013403          	ld	s0,32(sp)
   235ec:	07010113          	addi	sp,sp,112
   235f0:	00008067          	ret

00000000000235f4 <print_hex>:
   235f4:	fd010113          	addi	sp,sp,-48
   235f8:	02113423          	sd	ra,40(sp)
   235fc:	02813023          	sd	s0,32(sp)
   23600:	03010413          	addi	s0,sp,48
   23604:	00050793          	mv	a5,a0
   23608:	fcf42e23          	sw	a5,-36(s0)
   2360c:	03000513          	li	a0,48
   23610:	94dff0ef          	jal	ra,22f5c <uart_send>
   23614:	07800513          	li	a0,120
   23618:	945ff0ef          	jal	ra,22f5c <uart_send>
   2361c:	00700793          	li	a5,7
   23620:	fef42623          	sw	a5,-20(s0)
   23624:	07c0006f          	j	236a0 <print_hex+0xac>
   23628:	fec42783          	lw	a5,-20(s0)
   2362c:	0027979b          	slliw	a5,a5,0x2
   23630:	0007879b          	sext.w	a5,a5
   23634:	00078713          	mv	a4,a5
   23638:	fdc42783          	lw	a5,-36(s0)
   2363c:	00e7d7bb          	srlw	a5,a5,a4
   23640:	0007879b          	sext.w	a5,a5
   23644:	0007879b          	sext.w	a5,a5
   23648:	00f7f793          	andi	a5,a5,15
   2364c:	fef42423          	sw	a5,-24(s0)
   23650:	fe842783          	lw	a5,-24(s0)
   23654:	0007871b          	sext.w	a4,a5
   23658:	00900793          	li	a5,9
   2365c:	02e7c063          	blt	a5,a4,2367c <print_hex+0x88>
   23660:	fe842783          	lw	a5,-24(s0)
   23664:	0ff7f793          	andi	a5,a5,255
   23668:	0307879b          	addiw	a5,a5,48
   2366c:	0ff7f793          	andi	a5,a5,255
   23670:	00078513          	mv	a0,a5
   23674:	8e9ff0ef          	jal	ra,22f5c <uart_send>
   23678:	01c0006f          	j	23694 <print_hex+0xa0>
   2367c:	fe842783          	lw	a5,-24(s0)
   23680:	0ff7f793          	andi	a5,a5,255
   23684:	0377879b          	addiw	a5,a5,55
   23688:	0ff7f793          	andi	a5,a5,255
   2368c:	00078513          	mv	a0,a5
   23690:	8cdff0ef          	jal	ra,22f5c <uart_send>
   23694:	fec42783          	lw	a5,-20(s0)
   23698:	fff7879b          	addiw	a5,a5,-1
   2369c:	fef42623          	sw	a5,-20(s0)
   236a0:	fec42783          	lw	a5,-20(s0)
   236a4:	0007879b          	sext.w	a5,a5
   236a8:	f807d0e3          	bgez	a5,23628 <print_hex+0x34>
   236ac:	00000013          	nop
   236b0:	00000013          	nop
   236b4:	02813083          	ld	ra,40(sp)
   236b8:	02013403          	ld	s0,32(sp)
   236bc:	03010113          	addi	sp,sp,48
   236c0:	00008067          	ret
   236c4:	0000                	unimp
	...

00000000000236c8 <my_test_data>:
   236c8:	abcd                	j	23cba <boot_string+0x252>
   236ca:	abcd                	j	23cbc <boot_string+0x254>
   236cc:	5678                	lw	a4,108(a2)
   236ce:	1234                	addi	a3,sp,296

00000000000236d0 <load_store_test>:
   236d0:	000212b7          	lui	t0,0x21
   236d4:	00028303          	lb	t1,0(t0) # 21000 <_start-0x1000>
   236d8:	00428303          	lb	t1,4(t0)
   236dc:	ffc28303          	lb	t1,-4(t0)
   236e0:	0002b303          	ld	t1,0(t0)
   236e4:	00428303          	lb	t1,4(t0)
   236e8:	00000297          	auipc	t0,0x0
   236ec:	fe028293          	addi	t0,t0,-32 # 236c8 <my_test_data>
   236f0:	00000317          	auipc	t1,0x0
   236f4:	fd830313          	addi	t1,t1,-40 # 236c8 <my_test_data>
   236f8:	802002b7          	lui	t0,0x80200
   236fc:	40200337          	lui	t1,0x40200
   23700:	00008067          	ret

0000000000023704 <shift_test>:
   23704:	c00002b7          	lui	t0,0xc0000
   23708:	0452829b          	addiw	t0,t0,69
   2370c:	02129293          	slli	t0,t0,0x21
   23710:	4012d593          	srai	a1,t0,0x1
   23714:	0012d313          	srli	t1,t0,0x1
   23718:	0250029b          	addiw	t0,zero,37
   2371c:	01f29293          	slli	t0,t0,0x1f
   23720:	08a28293          	addi	t0,t0,138 # ffffffffc000008a <bss_begin+0xffffffffbffdb08a>
   23724:	4012d61b          	sraiw	a2,t0,0x1
   23728:	0012d31b          	srliw	t1,t0,0x1
   2372c:	0012969b          	slliw	a3,t0,0x1
   23730:	0490029b          	addiw	t0,zero,73
   23734:	01e29293          	slli	t0,t0,0x1e
   23738:	08a28293          	addi	t0,t0,138
   2373c:	4012d61b          	sraiw	a2,t0,0x1
   23740:	0012d31b          	srliw	t1,t0,0x1
   23744:	0012971b          	slliw	a4,t0,0x1
   23748:	00008067          	ret

000000000002374c <add_sub_test>:
   2374c:	80028593          	addi	a1,t0,-2048
   23750:	000012b7          	lui	t0,0x1
   23754:	a012829b          	addiw	t0,t0,-1535
   23758:	01529293          	slli	t0,t0,0x15
   2375c:	40000337          	lui	t1,0x40000
   23760:	70028593          	addi	a1,t0,1792 # 1700 <_start-0x20900>
   23764:	80028593          	addi	a1,t0,-2048
   23768:	0802861b          	addiw	a2,t0,128
   2376c:	006286b3          	add	a3,t0,t1
   23770:	0062873b          	addw	a4,t0,t1
   23774:	000012b7          	lui	t0,0x1
   23778:	c012829b          	addiw	t0,t0,-1023
   2377c:	01529293          	slli	t0,t0,0x15
   23780:	00200337          	lui	t1,0x200
   23784:	40628533          	sub	a0,t0,t1
   23788:	406285bb          	subw	a1,t0,t1
   2378c:	00008067          	ret

0000000000023790 <add_test>:
   23790:	00b50533          	add	a0,a0,a1
   23794:	00000013          	nop
   23798:	00008067          	ret

000000000002379c <branch_test>:
   2379c:	ff810113          	addi	sp,sp,-8
   237a0:	00113023          	sd	ra,0(sp)
   237a4:	00100513          	li	a0,1
   237a8:	00200593          	li	a1,2
   237ac:	fe5ff0ef          	jal	ra,23790 <add_test>
   237b0:	00000013          	nop
   237b4:	00013083          	ld	ra,0(sp)
   237b8:	00810113          	addi	sp,sp,8
   237bc:	00008067          	ret

00000000000237c0 <my_memcpy_test>:
   237c0:	000202b7          	lui	t0,0x20
   237c4:	00021337          	lui	t1,0x21
   237c8:	02028393          	addi	t2,t0,32 # 20020 <_start-0x1fe0>

00000000000237cc <.loop>:
   237cc:	0002be03          	ld	t3,0(t0)
   237d0:	01c33023          	sd	t3,0(t1) # 21000 <_start-0x1000>
   237d4:	00828293          	addi	t0,t0,8
   237d8:	00830313          	addi	t1,t1,8
   237dc:	fe72c8e3          	blt	t0,t2,237cc <.loop>
   237e0:	00008067          	ret

00000000000237e4 <compare_and_return>:
   237e4:	00b56663          	bltu	a0,a1,237f0 <compare_and_return+0xc>
   237e8:	00000793          	li	a5,0
   237ec:	0080006f          	j	237f4 <compare_and_return+0x10>
   237f0:	fff00793          	li	a5,-1
   237f4:	00078513          	mv	a0,a5
   237f8:	00008067          	ret

00000000000237fc <sel_test>:
   237fc:	00050663          	beqz	a0,23808 <sel_test+0xc>
   23800:	fff58793          	addi	a5,a1,-1
   23804:	0080006f          	j	2380c <sel_test+0x10>
   23808:	00258793          	addi	a5,a1,2
   2380c:	00078513          	mv	a0,a5
   23810:	00008067          	ret

0000000000023814 <bl_test>:
   23814:	ff010113          	addi	sp,sp,-16
   23818:	00113423          	sd	ra,8(sp)
   2381c:	fe1ff0ef          	jal	ra,237fc <sel_test>
   23820:	00813083          	ld	ra,8(sp)
   23824:	01010113          	addi	sp,sp,16
   23828:	00008067          	ret
   2382c:	00000013          	nop

0000000000023830 <func_addr>:
   23830:	0800                	addi	s0,sp,16
   23832:	0080                	addi	s0,sp,64
   23834:	0000                	unimp
   23836:	0000                	unimp
   23838:	0860                	addi	s0,sp,28
   2383a:	0080                	addi	s0,sp,64
   2383c:	0000                	unimp
   2383e:	0000                	unimp
   23840:	0880                	addi	s0,sp,80
   23842:	0080                	addi	s0,sp,64
   23844:	0000                	unimp
	...

0000000000023848 <func_string>:
   23848:	7566                	ld	a0,120(sp)
   2384a:	636e                	ld	t1,216(sp)
   2384c:	615f 6600 6e75      	0x6e756600615f
   23852:	00625f63          	bge	tp,t1,23870 <op_2>
   23856:	7566                	ld	a0,120(sp)
   23858:	636e                	ld	t1,216(sp)
   2385a:	635f 0100 0000      	0x100635f

0000000000023860 <func_num_syms>:
   23860:	00000003          	lb	zero,0(zero) # 0 <_start-0x22000>
   23864:	0000                	unimp
	...

0000000000023868 <op_1>:
   23868:	00b50533          	add	a0,a0,a1
   2386c:	00008067          	ret

0000000000023870 <op_2>:
   23870:	40b50533          	sub	a0,a0,a1
   23874:	00008067          	ret

0000000000023878 <macro_test_1>:
   23878:	ff010113          	addi	sp,sp,-16
   2387c:	00113423          	sd	ra,8(sp)
   23880:	00050293          	mv	t0,a0
   23884:	00058313          	mv	t1,a1
   23888:	00028513          	mv	a0,t0
   2388c:	00030593          	mv	a1,t1
   23890:	fd9ff0ef          	jal	ra,23868 <op_1>
   23894:	00813083          	ld	ra,8(sp)
   23898:	01010113          	addi	sp,sp,16
   2389c:	00008067          	ret

00000000000238a0 <macro_test_2>:
   238a0:	ff010113          	addi	sp,sp,-16
   238a4:	00113423          	sd	ra,8(sp)
   238a8:	00050293          	mv	t0,a0
   238ac:	00058313          	mv	t1,a1
   238b0:	00028513          	mv	a0,t0
   238b4:	00030593          	mv	a1,t1
   238b8:	fb9ff0ef          	jal	ra,23870 <op_2>
   238bc:	00813083          	ld	ra,8(sp)
   238c0:	01010113          	addi	sp,sp,16
   238c4:	00008067          	ret
	...

00000000000238d0 <__init_uart>:
   238d0:	020002b7          	lui	t0,0x2000
   238d4:	0f02829b          	addiw	t0,t0,240
   238d8:	0002a303          	lw	t1,0(t0) # 2000000 <bss_begin+0x1fdb000>
   238dc:	fff0f3b7          	lui	t2,0xfff0f
   238e0:	0ff3839b          	addiw	t2,t2,255
   238e4:	00737333          	and	t1,t1,t2
   238e8:	000303b7          	lui	t2,0x30
   238ec:	3003839b          	addiw	t2,t2,768
   238f0:	00736333          	or	t1,t1,t2
   238f4:	0062a023          	sw	t1,0(t0)
   238f8:	020022b7          	lui	t0,0x2002
   238fc:	90c2829b          	addiw	t0,t0,-1780
   23900:	0002a303          	lw	t1,0(t0) # 2002000 <bss_begin+0x1fdd000>
   23904:	00136313          	ori	t1,t1,1
   23908:	0062a023          	sw	t1,0(t0)
   2390c:	020022b7          	lui	t0,0x2002
   23910:	90c2829b          	addiw	t0,t0,-1780
   23914:	0002a303          	lw	t1,0(t0) # 2002000 <bss_begin+0x1fdd000>
   23918:	000103b7          	lui	t2,0x10
   2391c:	00736333          	or	t1,t1,t2
   23920:	0062a023          	sw	t1,0(t0)
   23924:	025002b7          	lui	t0,0x2500
   23928:	0002a223          	sw	zero,4(t0) # 2500004 <bss_begin+0x24db004>
   2392c:	0f700313          	li	t1,247
   23930:	0062a423          	sw	t1,8(t0)
   23934:	0002a823          	sw	zero,16(t0)
   23938:	00c2a303          	lw	t1,12(t0)
   2393c:	08036313          	ori	t1,t1,128
   23940:	0062a623          	sw	t1,12(t0)
   23944:	00d00393          	li	t2,13
   23948:	0072a023          	sw	t2,0(t0)
   2394c:	00000393          	li	t2,0
   23950:	0072a223          	sw	t2,4(t0)
   23954:	08034313          	xori	t1,t1,128
   23958:	0062a623          	sw	t1,12(t0)
   2395c:	00c2a303          	lw	t1,12(t0)
   23960:	ff000393          	li	t2,-16
   23964:	00737333          	and	t1,t1,t2
   23968:	00300393          	li	t2,3
   2396c:	00736333          	or	t1,t1,t2
   23970:	0062a623          	sw	t1,12(t0)
   23974:	00008067          	ret

0000000000023978 <put_uart>:
   23978:	025002b7          	lui	t0,0x2500

000000000002397c <.loop>:
   2397c:	07c2a303          	lw	t1,124(t0) # 250007c <bss_begin+0x24db07c>
   23980:	00237313          	andi	t1,t1,2
   23984:	fe030ce3          	beqz	t1,2397c <.loop>
   23988:	00a28023          	sb	a0,0(t0)
   2398c:	00008067          	ret

0000000000023990 <put_string_uart>:
   23990:	00008c13          	mv	s8,ra
   23994:	00050793          	mv	a5,a0

0000000000023998 <.loop1>:
   23998:	0007c503          	lbu	a0,0(a5)
   2399c:	00050863          	beqz	a0,239ac <.loop1+0x14>
   239a0:	fd9ff0ef          	jal	ra,23978 <put_uart>
   239a4:	00178793          	addi	a5,a5,1
   239a8:	ff1ff06f          	j	23998 <.loop1>
   239ac:	000c0093          	mv	ra,s8
   239b0:	00008067          	ret

00000000000239b4 <__memset_16bytes_asm>:
   239b4:	00000293          	li	t0,0

00000000000239b8 <.loop>:
   239b8:	00b53023          	sd	a1,0(a0) # 2001000 <bss_begin+0x1fdc000>
   239bc:	00b53423          	sd	a1,8(a0)
   239c0:	01028293          	addi	t0,t0,16
   239c4:	fec2cae3          	blt	t0,a2,239b8 <.loop>
   239c8:	00008067          	ret

Disassembly of section .rodata:

00000000000239d0 <boot_string-0x98>:
   239d0:	000a                	c.slli	zero,0x2
   239d2:	0000                	unimp
   239d4:	0000                	unimp
   239d6:	0000                	unimp
   239d8:	616c                	ld	a1,192(a0)
   239da:	3362                	fld	ft6,56(sp)
   239dc:	352d                	addiw	a0,a0,-21
   239de:	203a                	fld	ft0,392(sp)
   239e0:	706d6f63          	bltu	s10,t1,240fe <stacks_start+0xfe>
   239e4:	7261                	lui	tp,0xffff8
   239e6:	5f65                	li	t5,-7
   239e8:	6e61                	lui	t3,0x18
   239ea:	5f64                	lw	s1,124(a4)
   239ec:	6572                	ld	a0,280(sp)
   239ee:	7574                	ld	a3,232(a0)
   239f0:	6e72                	ld	t3,280(sp)
   239f2:	6f20                	ld	s0,88(a4)
   239f4:	00000a6b          	0xa6b
   239f8:	616c                	ld	a1,192(a0)
   239fa:	3362                	fld	ft6,56(sp)
   239fc:	372d                	addiw	a4,a4,-21
   239fe:	203a                	fld	ft0,392(sp)
   23a00:	7262                	ld	tp,56(sp)
   23a02:	6e61                	lui	t3,0x18
   23a04:	74206863          	bltu	zero,sp,24154 <stacks_start+0x154>
   23a08:	7365                	lui	t1,0xffff9
   23a0a:	2074                	fld	fa3,192(s0)
   23a0c:	000a6b6f          	jal	s6,c9a0c <bss_begin+0xa4a0c>
   23a10:	616c                	ld	a1,192(a0)
   23a12:	3562                	fld	fa0,56(sp)
   23a14:	352d                	addiw	a0,a0,-21
   23a16:	203a                	fld	ft0,392(sp)
   23a18:	616d                	addi	sp,sp,240
   23a1a:	5f6f7263          	bgeu	t5,s6,23ffe <boot_string+0x596>
   23a1e:	6574                	ld	a3,200(a0)
   23a20:	315f7473          	csrrci	s0,0x315,30
   23a24:	6f20                	ld	s0,88(a4)
   23a26:	00000a6b          	0xa6b
   23a2a:	0000                	unimp
   23a2c:	0000                	unimp
   23a2e:	0000                	unimp
   23a30:	616c                	ld	a1,192(a0)
   23a32:	3562                	fld	fa0,56(sp)
   23a34:	352d                	addiw	a0,a0,-21
   23a36:	203a                	fld	ft0,392(sp)
   23a38:	616d                	addi	sp,sp,240
   23a3a:	5f6f7263          	bgeu	t5,s6,2401e <stacks_start+0x1e>
   23a3e:	6574                	ld	a3,200(a0)
   23a40:	325f7473          	csrrci	s0,mhpmevent5,30
   23a44:	6f20                	ld	s0,88(a4)
   23a46:	00000a6b          	0xa6b
   23a4a:	0000                	unimp
   23a4c:	0000                	unimp
   23a4e:	0000                	unimp
   23a50:	636c6557          	0x636c6557
   23a54:	20656d6f          	jal	s10,79c5a <bss_begin+0x54c5a>
   23a58:	4952                	lw	s2,20(sp)
   23a5a:	562d4353          	0x562d4353
   23a5e:	0d21                	addi	s10,s10,8
   23a60:	000a                	c.slli	zero,0x2
   23a62:	0000                	unimp
   23a64:	0000                	unimp
	...

0000000000023a68 <boot_string>:
   23a68:	0a0d                	addi	s4,s4,3
   23a6a:	6f42                	ld	t5,16(sp)
   23a6c:	6e69746f          	jal	s0,bb152 <bss_begin+0x96152>
   23a70:	74612067          	0x74612067
   23a74:	6120                	ld	s0,64(a0)
   23a76:	0a0d6d73          	csrrsi	s10,0xa0,26
	...

Disassembly of section .data:

0000000000024000 <stacks_start>:
	...

Disassembly of section .debug_info:

0000000000000000 <.debug_info>:
   0:	017e                	slli	sp,sp,0x1f
   2:	0000                	unimp
   4:	0004                	0x4
   6:	0000                	unimp
   8:	0000                	unimp
   a:	0108                	addi	a0,sp,128
   c:	0052                	c.slli	zero,0x14
   e:	0000                	unimp
  10:	600c                	ld	a1,0(s0)
  12:	0001                	nop
  14:	b500                	fsd	fs0,40(a0)
  16:	0000                	unimp
  18:	4000                	lw	s0,0(s0)
  1a:	0220                	addi	s0,sp,264
  1c:	0000                	unimp
  1e:	0000                	unimp
  20:	5800                	lw	s0,48(s0)
  22:	0002                	c.slli64	zero
	...
  2c:	0200                	addi	s0,sp,256
  2e:	0601                	addi	a2,a2,0
  30:	0000001b          	sext.w	zero,zero
  34:	0102                	c.slli64	sp
  36:	1908                	addi	a0,sp,176
  38:	0000                	unimp
  3a:	0200                	addi	s0,sp,256
  3c:	0502                	c.slli64	a0
  3e:	013e                	slli	sp,sp,0xf
  40:	0000                	unimp
  42:	0202                	c.slli64	tp
  44:	00003507          	fld	fa0,0(zero) # 0 <_start-0x22000>
  48:	0300                	addi	s0,sp,384
  4a:	0504                	addi	s1,sp,640
  4c:	6e69                	lui	t3,0x1a
  4e:	0074                	addi	a3,sp,12
  50:	0402                	c.slli64	s0
  52:	00012307          	flw	ft6,0(sp)
  56:	0200                	addi	s0,sp,256
  58:	0508                	addi	a0,sp,640
  5a:	0130                	addi	a2,sp,136
  5c:	0000                	unimp
  5e:	0802                	c.slli64	a6
  60:	00011907          	flh	fs2,0(sp)
  64:	0200                	addi	s0,sp,256
  66:	0508                	addi	a0,sp,640
  68:	0135                	addi	sp,sp,13
  6a:	0000                	unimp
  6c:	0802                	c.slli64	a6
  6e:	00011e07          	flh	ft8,0(sp)
  72:	0400                	addi	s0,sp,512
  74:	006c                	addi	a1,sp,12
  76:	0000                	unimp
  78:	007e                	c.slli	zero,0x1f
  7a:	0000                	unimp
  7c:	0005                	c.nop	1
  7e:	0f06                	slli	t5,t5,0x1
  80:	0000                	unimp
  82:	0100                	addi	s0,sp,128
  84:	1611                	addi	a2,a2,-28
  86:	00000073          	ecall
  8a:	2706                	fld	fa4,64(sp)
  8c:	0000                	unimp
  8e:	0100                	addi	s0,sp,128
  90:	1612                	slli	a2,a2,0x24
  92:	006c                	addi	a1,sp,12
  94:	0000                	unimp
  96:	4806                	lw	a6,64(sp)
  98:	0001                	nop
  9a:	0100                	addi	s0,sp,128
  9c:	00a20d13          	addi	s10,tp,10 # ffffffffffff800a <bss_begin+0xfffffffffffd300a>
  a0:	0000                	unimp
  a2:	0102                	c.slli64	sp
  a4:	2208                	fld	fa0,0(a2)
  a6:	0000                	unimp
  a8:	0700                	addi	s0,sp,896
  aa:	0154                	addi	a3,sp,132
  ac:	0000                	unimp
  ae:	6301                	0x6301
  b0:	4c06                	lw	s8,64(sp)
  b2:	0222                	slli	tp,tp,0x8
  b4:	0000                	unimp
  b6:	0000                	unimp
  b8:	4c00                	lw	s0,24(s0)
  ba:	0000                	unimp
  bc:	0000                	unimp
  be:	0000                	unimp
  c0:	0100                	addi	s0,sp,128
  c2:	089c                	addi	a5,sp,80
  c4:	0006                	c.slli	zero,0x1
  c6:	0000                	unimp
  c8:	3d01                	addiw	s10,s10,-32
  ca:	3c06                	fld	fs8,96(sp)
  cc:	0221                	addi	tp,tp,8
  ce:	0000                	unimp
  d0:	0000                	unimp
  d2:	1000                	addi	s0,sp,32
  d4:	0001                	nop
  d6:	0000                	unimp
  d8:	0000                	unimp
  da:	0100                	addi	s0,sp,128
  dc:	009c                	addi	a5,sp,64
  de:	0001                	nop
  e0:	0900                	addi	s0,sp,144
  e2:	0048                	addi	a0,sp,4
  e4:	0000                	unimp
  e6:	3f01                	addiw	t5,t5,-32
  e8:	6c10                	ld	a2,24(s0)
  ea:	0000                	unimp
  ec:	0200                	addi	s0,sp,256
  ee:	6891                	lui	a7,0x4
  f0:	4d09                	li	s10,2
  f2:	0000                	unimp
  f4:	0100                	addi	s0,sp,128
  f6:	006c163f 91020000 	0x91020000006c163f
  fe:	0060                	addi	s0,sp,12
 100:	090a                	slli	s2,s2,0x2
 102:	0001                	nop
 104:	0100                	addi	s0,sp,128
 106:	0c15                	addi	s8,s8,5
 108:	0049                	c.nop	18
 10a:	0000                	unimp
 10c:	2040                	fld	fs0,128(s0)
 10e:	0002                	c.slli64	zero
 110:	0000                	unimp
 112:	0000                	unimp
 114:	00fc                	addi	a5,sp,76
 116:	0000                	unimp
 118:	0000                	unimp
 11a:	0000                	unimp
 11c:	9c01                	subw	s0,s0,s0
 11e:	0000017b          	0x17b
 122:	0000140b          	addsl	s0,zero,zero,0
 126:	0100                	addi	s0,sp,128
 128:	2a15                	addiw	s4,s4,5
 12a:	006c                	addi	a1,sp,12
 12c:	0000                	unimp
 12e:	9102                	jalr	sp
 130:	0c48                	addi	a0,sp,532
 132:	0069                	c.nop	26
 134:	1701                	addi	a4,a4,-32
 136:	4906                	lw	s2,64(sp)
 138:	0000                	unimp
 13a:	0200                	addi	s0,sp,256
 13c:	6c91                	lui	s9,0x4
 13e:	700c                	ld	a1,32(s0)
 140:	0100                	addi	s0,sp,128
 142:	0818                	addi	a4,sp,16
 144:	0000017b          	0x17b
 148:	9102                	jalr	sp
 14a:	0960                	addi	s0,sp,156
 14c:	014d                	addi	sp,sp,19
 14e:	0000                	unimp
 150:	1801                	addi	a6,a6,-32
 152:	7b0c                	ld	a1,48(a4)
 154:	0001                	nop
 156:	0200                	addi	s0,sp,256
 158:	5891                	li	a7,-28
 15a:	000d                	c.nop	3
 15c:	0000                	unimp
 15e:	0100                	addi	s0,sp,128
 160:	0121                	addi	sp,sp,8
 162:	20a8                	fld	fa0,64(s1)
 164:	0002                	c.slli64	zero
 166:	0000                	unimp
 168:	0000                	unimp
 16a:	6d0d                	lui	s10,0x3
 16c:	0001                	nop
 16e:	0100                	addi	s0,sp,128
 170:	0136                	slli	sp,sp,0xd
 172:	2110                	fld	fa2,0(a0)
 174:	0002                	c.slli64	zero
 176:	0000                	unimp
 178:	0000                	unimp
 17a:	0e00                	addi	s0,sp,784
 17c:	a208                	fsd	fa0,0(a2)
 17e:	0000                	unimp
 180:	0000                	unimp
 182:	01f0                	addi	a2,sp,204
 184:	0000                	unimp
 186:	0004                	0x4
 188:	00e8                	addi	a0,sp,76
 18a:	0000                	unimp
 18c:	0108                	addi	a0,sp,128
 18e:	0052                	c.slli	zero,0x14
 190:	0000                	unimp
 192:	7f0c                	ld	a1,56(a4)
 194:	0001                	nop
 196:	b500                	fsd	fs0,40(a0)
 198:	0000                	unimp
 19a:	9800                	0x9800
 19c:	0222                	slli	tp,tp,0x8
 19e:	0000                	unimp
 1a0:	0000                	unimp
 1a2:	3c00                	fld	fs0,56(s0)
 1a4:	0002                	c.slli64	zero
 1a6:	0000                	unimp
 1a8:	0000                	unimp
 1aa:	f500                	sd	s0,40(a0)
 1ac:	0001                	nop
 1ae:	0200                	addi	s0,sp,256
 1b0:	0601                	addi	a2,a2,0
 1b2:	0000001b          	sext.w	zero,zero
 1b6:	0102                	c.slli64	sp
 1b8:	1908                	addi	a0,sp,176
 1ba:	0000                	unimp
 1bc:	0200                	addi	s0,sp,256
 1be:	0502                	c.slli64	a0
 1c0:	013e                	slli	sp,sp,0xf
 1c2:	0000                	unimp
 1c4:	0202                	c.slli64	tp
 1c6:	00003507          	fld	fa0,0(zero) # 0 <_start-0x22000>
 1ca:	0300                	addi	s0,sp,384
 1cc:	0504                	addi	s1,sp,640
 1ce:	6e69                	lui	t3,0x1a
 1d0:	0074                	addi	a3,sp,12
 1d2:	0402                	c.slli64	s0
 1d4:	00012307          	flw	ft6,0(sp)
 1d8:	0200                	addi	s0,sp,256
 1da:	0508                	addi	a0,sp,640
 1dc:	0130                	addi	a2,sp,136
 1de:	0000                	unimp
 1e0:	0802                	c.slli64	a6
 1e2:	00011907          	flh	fs2,0(sp)
 1e6:	0400                	addi	s0,sp,512
 1e8:	0172                	slli	sp,sp,0x1c
 1ea:	0000                	unimp
 1ec:	1b02                	slli	s6,s6,0x20
 1ee:	5e1c                	lw	a5,56(a2)
 1f0:	0000                	unimp
 1f2:	0200                	addi	s0,sp,256
 1f4:	0508                	addi	a0,sp,640
 1f6:	0135                	addi	sp,sp,13
 1f8:	0000                	unimp
 1fa:	0802                	c.slli64	a6
 1fc:	00011e07          	flh	ft8,0(sp)
 200:	0500                	addi	s0,sp,640
 202:	0198                	addi	a4,sp,192
 204:	0000                	unimp
 206:	3401                	addiw	s0,s0,-32
 208:	0000cb07          	flq	fs6,0(ra)
 20c:	8800                	0x8800
 20e:	0224                	addi	s1,sp,264
 210:	0000                	unimp
 212:	0000                	unimp
 214:	4c00                	lw	s0,24(s0)
 216:	0000                	unimp
 218:	0000                	unimp
 21a:	0000                	unimp
 21c:	0100                	addi	s0,sp,128
 21e:	cb9c                	sw	a5,16(a5)
 220:	0000                	unimp
 222:	0600                	addi	s0,sp,768
 224:	34010073          	0x34010073
 228:	cb14                	sw	a3,16(a4)
 22a:	0000                	unimp
 22c:	0200                	addi	s0,sp,256
 22e:	6891                	lui	a7,0x4
 230:	6306                	ld	t1,64(sp)
 232:	0100                	addi	s0,sp,128
 234:	1b34                	addi	a3,sp,440
 236:	0049                	c.nop	18
 238:	0000                	unimp
 23a:	9102                	jalr	sp
 23c:	0764                	addi	s1,sp,908
 23e:	000001b7          	lui	gp,0x0
 242:	3401                	addiw	s0,s0,-32
 244:	6525                	lui	a0,0x9
 246:	0000                	unimp
 248:	0200                	addi	s0,sp,256
 24a:	5891                	li	a7,-28
 24c:	0800                	addi	s0,sp,16
 24e:	0908                	addi	a0,sp,144
 250:	0196                	slli	gp,gp,0x5
 252:	0000                	unimp
 254:	0e01                	addi	t3,t3,0
 256:	cb0e                	sw	gp,148(sp)
 258:	0000                	unimp
 25a:	fc00                	sd	s0,56(s0)
 25c:	0222                	slli	tp,tp,0x8
 25e:	0000                	unimp
 260:	0000                	unimp
 262:	8c00                	0x8c00
 264:	0001                	nop
 266:	0000                	unimp
 268:	0000                	unimp
 26a:	0100                	addi	s0,sp,128
 26c:	909c                	0x909c
 26e:	0001                	nop
 270:	0600                	addi	s0,sp,768
 272:	0e010073          	0xe010073
 276:	901d                	srli	s0,s0,0x27
 278:	0001                	nop
 27a:	0300                	addi	s0,sp,384
 27c:	a891                	j	2d0 <_start-0x21d30>
 27e:	0063067f          	0x63067f
 282:	0e01                	addi	t3,t3,0
 284:	4924                	lw	s1,80(a0)
 286:	0000                	unimp
 288:	0300                	addi	s0,sp,384
 28a:	a491                	j	4ce <_start-0x21b32>
 28c:	01b7077f          	0x1b7077f
 290:	0000                	unimp
 292:	0e01                	addi	t3,t3,0
 294:	652e                	ld	a0,200(sp)
 296:	0000                	unimp
 298:	0300                	addi	s0,sp,384
 29a:	9891                	andi	s1,s1,-28
 29c:	00700a7f          	0x700a7f
 2a0:	1001                	c.nop	-32
 2a2:	9008                	0x9008
 2a4:	0001                	nop
 2a6:	0200                	addi	s0,sp,256
 2a8:	6891                	lui	a7,0x4
 2aa:	0001790b          	0x1790b
 2ae:	0100                	addi	s0,sp,128
 2b0:	1011                	c.nop	-28
 2b2:	0078                	addi	a4,sp,12
 2b4:	0000                	unimp
 2b6:	9102                	jalr	sp
 2b8:	0b48                	addi	a0,sp,404
 2ba:	01bd                	addi	gp,gp,15
 2bc:	0000                	unimp
 2be:	1201                	addi	tp,tp,-32
 2c0:	6509                	lui	a0,0x2
 2c2:	0000                	unimp
 2c4:	0300                	addi	s0,sp,384
 2c6:	b891                	j	fffffffffffffb1a <bss_begin+0xfffffffffffdab1a>
 2c8:	018c0b7f          	0x18c0b7f
 2cc:	0000                	unimp
 2ce:	1201                	addi	tp,tp,-32
 2d0:	0000650f          	0x650f
 2d4:	0200                	addi	s0,sp,256
 2d6:	6091                	lui	ra,0x4
 2d8:	6e0a                	ld	t3,128(sp)
 2da:	0100                	addi	s0,sp,128
 2dc:	00490613          	addi	a2,s2,4
 2e0:	0000                	unimp
 2e2:	7fb49103          	lh	sp,2043(s1)
 2e6:	690a                	ld	s2,128(sp)
 2e8:	0100                	addi	s0,sp,128
 2ea:	00490913          	addi	s2,s2,4
 2ee:	0000                	unimp
 2f0:	9102                	jalr	sp
 2f2:	0b5c                	addi	a5,sp,404
 2f4:	000001af          	vamoaddei8.v	zero,(zero),v0,v3,v0.t
 2f8:	1401                	addi	s0,s0,-32
 2fa:	7810                	ld	a2,48(s0)
 2fc:	0000                	unimp
 2fe:	0200                	addi	s0,sp,256
 300:	4091                	li	ra,4
 302:	0001910b          	addsl	sp,gp,zero,0
 306:	0100                	addi	s0,sp,128
 308:	1015                	c.nop	-27
 30a:	0078                	addi	a4,sp,12
 30c:	0000                	unimp
 30e:	9102                	jalr	sp
 310:	0050                	addi	a2,sp,4
 312:	080c                	addi	a1,sp,16
 314:	0196                	slli	gp,gp,0x5
 316:	0000                	unimp
 318:	0102                	c.slli64	sp
 31a:	2208                	fld	fa0,0(a2)
 31c:	0000                	unimp
 31e:	0d00                	addi	s0,sp,656
 320:	019f 0000 0501      	0x5010000019f
 326:	cb0e                	sw	gp,148(sp)
 328:	0000                	unimp
 32a:	9800                	0x9800
 32c:	0222                	slli	tp,tp,0x8
 32e:	0000                	unimp
 330:	0000                	unimp
 332:	6400                	ld	s0,8(s0)
 334:	0000                	unimp
 336:	0000                	unimp
 338:	0000                	unimp
 33a:	0100                	addi	s0,sp,128
 33c:	069c                	addi	a5,sp,832
 33e:	05010073          	0x5010073
 342:	cb24                	sw	s1,80(a4)
 344:	0000                	unimp
 346:	0200                	addi	s0,sp,256
 348:	5891                	li	a7,-28
 34a:	6306                	ld	t1,64(sp)
 34c:	0100                	addi	s0,sp,128
 34e:	2b05                	addiw	s6,s6,1
 350:	0049                	c.nop	18
 352:	0000                	unimp
 354:	9102                	jalr	sp
 356:	0754                	addi	a3,sp,900
 358:	000001b7          	lui	gp,0x0
 35c:	0501                	addi	a0,a0,0
 35e:	6535                	lui	a0,0xd
 360:	0000                	unimp
 362:	0200                	addi	s0,sp,256
 364:	4891                	li	a7,4
 366:	780a                	ld	a6,160(sp)
 368:	07010073          	0x7010073
 36c:	9008                	0x9008
 36e:	0001                	nop
 370:	0200                	addi	s0,sp,256
 372:	6891                	lui	a7,0x4
 374:	0000                	unimp
 376:	0000025b          	0x25b
 37a:	0004                	0x4
 37c:	01c9                	addi	gp,gp,18
 37e:	0000                	unimp
 380:	0108                	addi	a0,sp,128
 382:	0052                	c.slli	zero,0x14
 384:	0000                	unimp
 386:	410c                	lw	a1,0(a0)
 388:	0002                	c.slli64	zero
 38a:	b500                	fsd	fs0,40(a0)
 38c:	0000                	unimp
 38e:	d400                	sw	s0,40(s0)
 390:	0224                	addi	s1,sp,264
 392:	0000                	unimp
 394:	0000                	unimp
 396:	b000                	fsd	fs0,32(s0)
 398:	00000007          	vle8.v	v0,(zero),v0.t
 39c:	0000                	unimp
 39e:	c700                	sw	s0,8(a4)
 3a0:	02000003          	lb	zero,32(zero) # 20 <_start-0x21fe0>
 3a4:	0601                	addi	a2,a2,0
 3a6:	0000001b          	sext.w	zero,zero
 3aa:	0102                	c.slli64	sp
 3ac:	1908                	addi	a0,sp,176
 3ae:	0000                	unimp
 3b0:	0200                	addi	s0,sp,256
 3b2:	0502                	c.slli64	a0
 3b4:	013e                	slli	sp,sp,0xf
 3b6:	0000                	unimp
 3b8:	0202                	c.slli64	tp
 3ba:	00003507          	fld	fa0,0(zero) # 0 <_start-0x22000>
 3be:	0300                	addi	s0,sp,384
 3c0:	0504                	addi	s1,sp,640
 3c2:	6e69                	lui	t3,0x1a
 3c4:	0074                	addi	a3,sp,12
 3c6:	1404                	addi	s1,sp,544
 3c8:	0002                	c.slli64	zero
 3ca:	0300                	addi	s0,sp,384
 3cc:	005c160f          	0x5c160f
 3d0:	0000                	unimp
 3d2:	0402                	c.slli64	s0
 3d4:	00012307          	flw	ft6,0(sp)
 3d8:	0200                	addi	s0,sp,256
 3da:	0508                	addi	a0,sp,640
 3dc:	0130                	addi	a2,sp,136
 3de:	0000                	unimp
 3e0:	0802                	c.slli64	a6
 3e2:	00011907          	flh	fs2,0(sp)
 3e6:	0200                	addi	s0,sp,256
 3e8:	0508                	addi	a0,sp,640
 3ea:	0135                	addi	sp,sp,13
 3ec:	0000                	unimp
 3ee:	0802                	c.slli64	a6
 3f0:	00011e07          	flh	ft8,0(sp)
 3f4:	0400                	addi	s0,sp,512
 3f6:	021a                	slli	tp,tp,0x6
 3f8:	0000                	unimp
 3fa:	6a1c2403          	lw	s0,1697(s8)
 3fe:	0000                	unimp
 400:	0400                	addi	s0,sp,512
 402:	0238                	addi	a4,sp,264
 404:	0000                	unimp
 406:	1104                	addi	s1,sp,160
 408:	0000500f          	0x500f
 40c:	0500                	addi	s0,sp,640
 40e:	0259                	addi	tp,tp,22
 410:	0000                	unimp
 412:	d002                	sw	zero,32(sp)
 414:	0006                	c.slli	zero,0x1
 416:	022c                	addi	a1,sp,264
 418:	0000                	unimp
 41a:	0000                	unimp
 41c:	8400                	0x8400
 41e:	0000                	unimp
 420:	0000                	unimp
 422:	0000                	unimp
 424:	0100                	addi	s0,sp,128
 426:	069c                	addi	a5,sp,832
 428:	01f1                	addi	gp,gp,28
 42a:	0000                	unimp
 42c:	b702                	fsd	ft0,424(sp)
 42e:	000d                	c.nop	3
 430:	0000022b          	0x22b
 434:	0000                	unimp
 436:	0000                	unimp
 438:	0001                	nop
 43a:	0000                	unimp
 43c:	0000                	unimp
 43e:	0100                	addi	s0,sp,128
 440:	ee9c                	sd	a5,24(a3)
 442:	0000                	unimp
 444:	0700                	addi	s0,sp,896
 446:	0014                	0x14
 448:	0000                	unimp
 44a:	b702                	fsd	ft0,424(sp)
 44c:	00007f27          	vse64.v	v30,(zero),v0.t
 450:	0200                	addi	s0,sp,256
 452:	5891                	li	a7,-28
 454:	7608                	ld	a0,40(a2)
 456:	6c61                	lui	s8,0x18
 458:	0200                	addi	s0,sp,256
 45a:	0bb9                	addi	s7,s7,14
 45c:	0000008b          	0x8b
 460:	9102                	jalr	sp
 462:	006c                	addi	a1,sp,12
 464:	0406                	slli	s0,s0,0x1
 466:	0002                	c.slli64	zero
 468:	0200                	addi	s0,sp,256
 46a:	0dac                	addi	a1,sp,728
 46c:	2a9c                	fld	fa5,16(a3)
 46e:	0002                	c.slli64	zero
 470:	0000                	unimp
 472:	0000                	unimp
 474:	0064                	addi	s1,sp,12
 476:	0000                	unimp
 478:	0000                	unimp
 47a:	0000                	unimp
 47c:	9c01                	subw	s0,s0,s0
 47e:	011c                	addi	a5,sp,128
 480:	0000                	unimp
 482:	7608                	ld	a0,40(a2)
 484:	6c61                	lui	s8,0x18
 486:	0200                	addi	s0,sp,256
 488:	0bae                	slli	s7,s7,0xb
 48a:	0000008b          	0x8b
 48e:	9102                	jalr	sp
 490:	006c                	addi	a1,sp,12
 492:	2909                	addiw	s2,s2,2
 494:	0002                	c.slli64	zero
 496:	0200                	addi	s0,sp,256
 498:	2a100da3          	sb	ra,699(zero) # 2bb <_start-0x21d45>
 49c:	0002                	c.slli64	zero
 49e:	0000                	unimp
 4a0:	0000                	unimp
 4a2:	008c                	addi	a1,sp,64
 4a4:	0000                	unimp
 4a6:	0000                	unimp
 4a8:	0000                	unimp
 4aa:	9c01                	subw	s0,s0,s0
 4ac:	d909                	beqz	a0,3be <_start-0x21c42>
 4ae:	0001                	nop
 4b0:	0200                	addi	s0,sp,256
 4b2:	0d9c                	addi	a5,sp,720
 4b4:	29a0                	fld	fs0,80(a1)
 4b6:	0002                	c.slli64	zero
 4b8:	0000                	unimp
 4ba:	0000                	unimp
 4bc:	0070                	addi	a2,sp,12
 4be:	0000                	unimp
 4c0:	0000                	unimp
 4c2:	0000                	unimp
 4c4:	9c01                	subw	s0,s0,s0
 4c6:	5109                	li	sp,-30
 4c8:	0002                	c.slli64	zero
 4ca:	0200                	addi	s0,sp,256
 4cc:	0d95                	addi	s11,s11,5
 4ce:	2930                	fld	fa2,80(a0)
 4d0:	0002                	c.slli64	zero
 4d2:	0000                	unimp
 4d4:	0000                	unimp
 4d6:	0070                	addi	a2,sp,12
 4d8:	0000                	unimp
 4da:	0000                	unimp
 4dc:	0000                	unimp
 4de:	9c01                	subw	s0,s0,s0
 4e0:	e106                	sd	ra,128(sp)
 4e2:	0001                	nop
 4e4:	0200                	addi	s0,sp,256
 4e6:	0d71                	addi	s10,s10,28
 4e8:	27bc                	fld	fa5,72(a5)
 4ea:	0002                	c.slli64	zero
 4ec:	0000                	unimp
 4ee:	0000                	unimp
 4f0:	0174                	addi	a3,sp,140
 4f2:	0000                	unimp
 4f4:	0000                	unimp
 4f6:	0000                	unimp
 4f8:	9c01                	subw	s0,s0,s0
 4fa:	0198                	addi	a4,sp,192
 4fc:	0000                	unimp
 4fe:	7608                	ld	a0,40(a2)
 500:	6c61                	lui	s8,0x18
 502:	0200                	addi	s0,sp,256
 504:	008b0b73          	0x8b0b73
 508:	0000                	unimp
 50a:	9102                	jalr	sp
 50c:	006c                	addi	a1,sp,12
 50e:	c806                	sw	ra,16(sp)
 510:	0001                	nop
 512:	0200                	addi	s0,sp,256
 514:	25780d37          	lui	s10,0x25780
 518:	0002                	c.slli64	zero
 51a:	0000                	unimp
 51c:	0000                	unimp
 51e:	0244                	addi	s1,sp,260
 520:	0000                	unimp
 522:	0000                	unimp
 524:	0000                	unimp
 526:	9c01                	subw	s0,s0,s0
 528:	01c6                	slli	gp,gp,0x11
 52a:	0000                	unimp
 52c:	7608                	ld	a0,40(a2)
 52e:	6c61                	lui	s8,0x18
 530:	0200                	addi	s0,sp,256
 532:	0b39                	addi	s6,s6,14
 534:	0000008b          	0x8b
 538:	9102                	jalr	sp
 53a:	006c                	addi	a1,sp,12
 53c:	310a                	fld	ft2,160(sp)
 53e:	0002                	c.slli64	zero
 540:	0200                	addi	s0,sp,256
 542:	25340627          	vsuxseg2ei8.v	v12,(s0),v19,v0.t
 546:	0002                	c.slli64	zero
 548:	0000                	unimp
 54a:	0000                	unimp
 54c:	0044                	addi	s1,sp,4
 54e:	0000                	unimp
 550:	0000                	unimp
 552:	0000                	unimp
 554:	9c01                	subw	s0,s0,s0
 556:	000001f3          	0x1f3
 55a:	0073750b          	0x73750b
 55e:	2702                	fld	fa4,0(sp)
 560:	0000781b          	0x781b
 564:	0200                	addi	s0,sp,256
 566:	6891                	lui	a7,0x4
 568:	0c00                	addi	s0,sp,528
 56a:	01fc                	addi	a5,sp,204
 56c:	0000                	unimp
 56e:	2801                	sext.w	a6,a6
 570:	0014                	0x14
 572:	0225                	addi	tp,tp,9
 574:	0000                	unimp
 576:	0000                	unimp
 578:	3400                	fld	fs0,40(s0)
 57a:	0000                	unimp
 57c:	0000                	unimp
 57e:	0000                	unimp
 580:	0100                	addi	s0,sp,128
 582:	309c                	fld	fa5,32(s1)
 584:	0002                	c.slli64	zero
 586:	0700                	addi	s0,sp,896
 588:	0014                	0x14
 58a:	0000                	unimp
 58c:	2801                	sext.w	a6,a6
 58e:	00007f2b          	0x7f2b
 592:	0200                	addi	s0,sp,256
 594:	6891                	lui	a7,0x4
 596:	0001c207          	flq	ft4,0(gp) # 0 <_start-0x22000>
 59a:	0100                	addi	s0,sp,128
 59c:	3728                	fld	fa0,104(a4)
 59e:	0050                	addi	a2,sp,4
 5a0:	0000                	unimp
 5a2:	9102                	jalr	sp
 5a4:	0064                	addi	s1,sp,12
 5a6:	0d0d                	addi	s10,s10,3
 5a8:	0002                	c.slli64	zero
 5aa:	0100                	addi	s0,sp,128
 5ac:	1514                	addi	a3,sp,672
 5ae:	0050                	addi	a2,sp,4
 5b0:	0000                	unimp
 5b2:	24d4                	fld	fa3,136(s1)
 5b4:	0002                	c.slli64	zero
 5b6:	0000                	unimp
 5b8:	0000                	unimp
 5ba:	002c                	addi	a1,sp,8
 5bc:	0000                	unimp
 5be:	0000                	unimp
 5c0:	0000                	unimp
 5c2:	9c01                	subw	s0,s0,s0
 5c4:	00001407          	flh	fs0,0(zero) # 0 <_start-0x22000>
 5c8:	0100                	addi	s0,sp,128
 5ca:	2b14                	fld	fa3,16(a4)
 5cc:	0000007f          	0x7f
 5d0:	9102                	jalr	sp
 5d2:	0068                	addi	a0,sp,12
 5d4:	f500                	sd	s0,40(a0)
 5d6:	0004                	0x4
 5d8:	0400                	addi	s0,sp,512
 5da:	d100                	sw	s0,32(a0)
 5dc:	0002                	c.slli64	zero
 5de:	0800                	addi	s0,sp,16
 5e0:	5201                	li	tp,-32
 5e2:	0000                	unimp
 5e4:	0c00                	addi	s0,sp,528
 5e6:	02ae                	slli	t0,t0,0xb
 5e8:	0000                	unimp
 5ea:	00b5                	addi	ra,ra,13
 5ec:	0000                	unimp
 5ee:	2c84                	fld	fs1,24(s1)
 5f0:	0002                	c.slli64	zero
 5f2:	0000                	unimp
 5f4:	0000                	unimp
 5f6:	0a40                	addi	s0,sp,276
 5f8:	0000                	unimp
 5fa:	0000                	unimp
 5fc:	0000                	unimp
 5fe:	083a                	slli	a6,a6,0xe
 600:	0000                	unimp
 602:	0102                	c.slli64	sp
 604:	1b06                	slli	s6,s6,0x21
 606:	0000                	unimp
 608:	0300                	addi	s0,sp,384
 60a:	02ca                	slli	t0,t0,0x12
 60c:	0000                	unimp
 60e:	40170903          	lb	s2,1025(a4)
 612:	0000                	unimp
 614:	0200                	addi	s0,sp,256
 616:	0801                	addi	a6,a6,0
 618:	0019                	c.nop	6
 61a:	0000                	unimp
 61c:	0202                	c.slli64	tp
 61e:	3e05                	addiw	t3,t3,-31
 620:	0001                	nop
 622:	0200                	addi	s0,sp,256
 624:	0702                	c.slli64	a4
 626:	0035                	c.nop	13
 628:	0000                	unimp
 62a:	0404                	addi	s1,sp,512
 62c:	6905                	lui	s2,0x1
 62e:	746e                	ld	s0,248(sp)
 630:	0300                	addi	s0,sp,384
 632:	0214                	addi	a3,sp,256
 634:	0000                	unimp
 636:	68160f03          	lb	t5,1665(a2)
 63a:	0000                	unimp
 63c:	0200                	addi	s0,sp,256
 63e:	0704                	addi	s1,sp,896
 640:	00000123          	sb	zero,2(zero) # 2 <_start-0x21ffe>
 644:	0802                	c.slli64	a6
 646:	3005                	0x3005
 648:	0001                	nop
 64a:	0200                	addi	s0,sp,256
 64c:	0708                	addi	a0,sp,896
 64e:	0119                	addi	sp,sp,6
 650:	0000                	unimp
 652:	0802                	c.slli64	a6
 654:	3505                	addiw	a0,a0,-31
 656:	0001                	nop
 658:	0200                	addi	s0,sp,256
 65a:	0708                	addi	a0,sp,896
 65c:	011e                	slli	sp,sp,0x7
 65e:	0000                	unimp
 660:	00021a03          	lh	s4,0(tp) # 0 <_start-0x22000>
 664:	0300                	addi	s0,sp,384
 666:	1c24                	addi	s1,sp,568
 668:	0076                	c.slli	zero,0x1d
 66a:	0000                	unimp
 66c:	00027203          	0x27203
 670:	0400                	addi	s0,sp,512
 672:	1b08                	addi	a0,sp,432
 674:	000000a3          	sb	zero,1(zero) # 1 <_start-0x21fff>
 678:	0805                	addi	a6,a6,1
 67a:	0268                	addi	a0,sp,268
 67c:	0000                	unimp
 67e:	00023803          	ld	a6,0(tp) # 0 <_start-0x22000>
 682:	0500                	addi	s0,sp,640
 684:	0f11                	addi	t5,t5,4
 686:	005c                	addi	a5,sp,4
 688:	0000                	unimp
 68a:	8406                	mv	s0,ra
 68c:	0002                	c.slli64	zero
 68e:	0200                	addi	s0,sp,256
 690:	35f406e7          	jalr	a3,863(s0)
 694:	0002                	c.slli64	zero
 696:	0000                	unimp
 698:	0000                	unimp
 69a:	00d0                	addi	a2,sp,68
 69c:	0000                	unimp
 69e:	0000                	unimp
 6a0:	0000                	unimp
 6a2:	9c01                	subw	s0,s0,s0
 6a4:	000000ff          	0xff
 6a8:	6c617607          	vloxseg4ei64.v	v12,(sp),v6,v0.t
 6ac:	0200                	addi	s0,sp,256
 6ae:	00681de7          	0x681de7
 6b2:	0000                	unimp
 6b4:	9102                	jalr	sp
 6b6:	085c                	addi	a5,sp,20
 6b8:	0069                	c.nop	26
 6ba:	e902                	sd	zero,144(sp)
 6bc:	5509                	li	a0,-30
 6be:	0000                	unimp
 6c0:	0200                	addi	s0,sp,256
 6c2:	6c91                	lui	s9,0x4
 6c4:	e909                	bnez	a0,6d6 <_start-0x2192a>
 6c6:	0002                	c.slli64	zero
 6c8:	0200                	addi	s0,sp,256
 6ca:	09ea                	slli	s3,s3,0x1a
 6cc:	0055                	c.nop	21
 6ce:	0000                	unimp
 6d0:	9102                	jalr	sp
 6d2:	0068                	addi	a0,sp,12
 6d4:	d90a                	sw	sp,176(sp)
 6d6:	0002                	c.slli64	zero
 6d8:	0200                	addi	s0,sp,256
 6da:	05da                	slli	a1,a1,0x16
 6dc:	0055                	c.nop	21
 6de:	0000                	unimp
 6e0:	3588                	fld	fa0,40(a1)
 6e2:	0002                	c.slli64	zero
 6e4:	0000                	unimp
 6e6:	0000                	unimp
 6e8:	006c                	addi	a1,sp,12
 6ea:	0000                	unimp
 6ec:	0000                	unimp
 6ee:	0000                	unimp
 6f0:	9c01                	subw	s0,s0,s0
 6f2:	0142                	slli	sp,sp,0x10
 6f4:	0000                	unimp
 6f6:	746d6607          	0x746d6607
 6fa:	0200                	addi	s0,sp,256
 6fc:	22da                	fld	ft5,400(sp)
 6fe:	0142                	slli	sp,sp,0x10
 700:	0000                	unimp
 702:	7f989103          	lh	sp,2041(a7) # 47f9 <_start-0x1d807>
 706:	6176080b          	0x6176080b
 70a:	0200                	addi	s0,sp,256
 70c:	0add                	addi	s5,s5,23
 70e:	00000097          	auipc	ra,0x0
 712:	7fa89103          	lh	sp,2042(a7)
 716:	0c00                	addi	s0,sp,528
 718:	4f08                	lw	a0,24(a4)
 71a:	0001                	nop
 71c:	0200                	addi	s0,sp,256
 71e:	0801                	addi	a6,a6,0
 720:	0022                	c.slli	zero,0x8
 722:	0000                	unimp
 724:	480d                	li	a6,3
 726:	0001                	nop
 728:	0e00                	addi	s0,sp,784
 72a:	7076                	0x7076
 72c:	0066                	c.slli	zero,0x19
 72e:	b502                	fsd	ft0,168(sp)
 730:	550c                	lw	a1,40(a0)
 732:	0000                	unimp
 734:	b400                	fsd	fs0,40(s0)
 736:	00000233          	add	tp,zero,zero
 73a:	0000                	unimp
 73c:	d400                	sw	s0,40(s0)
 73e:	0001                	nop
 740:	0000                	unimp
 742:	0000                	unimp
 744:	0100                	addi	s0,sp,128
 746:	0f9c                	addi	a5,sp,976
 748:	0002                	c.slli64	zero
 74a:	0700                	addi	s0,sp,896
 74c:	6d66                	ld	s10,88(sp)
 74e:	0074                	addi	a3,sp,12
 750:	b502                	fsd	ft0,168(sp)
 752:	421d                	li	tp,7
 754:	0001                	nop
 756:	0300                	addi	s0,sp,384
 758:	b891                	j	ffffffffffffffac <bss_begin+0xfffffffffffdafac>
 75a:	6176077f          	0x6176077f
 75e:	0200                	addi	s0,sp,256
 760:	2ab5                	addiw	s5,s5,13
 762:	00000097          	auipc	ra,0x0
 766:	7fb09103          	lh	sp,2043(ra) # f5d <_start-0x210a3>
 76a:	7008                	ld	a0,32(s0)
 76c:	0200                	addi	s0,sp,256
 76e:	01420fb7          	lui	t6,0x1420
 772:	0000                	unimp
 774:	9102                	jalr	sp
 776:	0868                	addi	a0,sp,28
 778:	0071                	c.nop	28
 77a:	b702                	fsd	ft0,424(sp)
 77c:	4214                	lw	a3,0(a2)
 77e:	0001                	nop
 780:	0200                	addi	s0,sp,256
 782:	6091                	lui	ra,0x4
 784:	6608                	ld	a0,8(a2)
 786:	0200                	addi	s0,sp,256
 788:	06b8                	addi	a4,sp,840
 78a:	0055                	c.nop	21
 78c:	0000                	unimp
 78e:	9102                	jalr	sp
 790:	085c                	addi	a5,sp,20
 792:	b8020063          	beqz	tp,fffffffffffffb12 <bss_begin+0xfffffffffffdab12>
 796:	5509                	li	a0,-30
 798:	0000                	unimp
 79a:	0200                	addi	s0,sp,256
 79c:	5091                	li	ra,-28
 79e:	7608                	ld	a0,40(a2)
 7a0:	6961                	lui	s2,0x18
 7a2:	0200                	addi	s0,sp,256
 7a4:	0cb8                	addi	a4,sp,600
 7a6:	0055                	c.nop	21
 7a8:	0000                	unimp
 7aa:	9102                	jalr	sp
 7ac:	0848                	addi	a0,sp,20
 7ae:	6c70                	ld	a2,216(s0)
 7b0:	0200                	addi	s0,sp,256
 7b2:	11b8                	addi	a4,sp,232
 7b4:	0055                	c.nop	21
 7b6:	0000                	unimp
 7b8:	9102                	jalr	sp
 7ba:	0844                	addi	s1,sp,20
 7bc:	6370                	ld	a2,192(a4)
 7be:	0200                	addi	s0,sp,256
 7c0:	15b8                	addi	a4,sp,744
 7c2:	0055                	c.nop	21
 7c4:	0000                	unimp
 7c6:	9102                	jalr	sp
 7c8:	0854                	addi	a3,sp,20
 7ca:	0069                	c.nop	26
 7cc:	b802                	fsd	ft0,48(sp)
 7ce:	5519                	li	a0,-26
 7d0:	0000                	unimp
 7d2:	0200                	addi	s0,sp,256
 7d4:	5891                	li	a7,-28
 7d6:	7408                	ld	a0,40(s0)
 7d8:	0200                	addi	s0,sp,256
 7da:	10b9                	addi	ra,ra,-18
 7dc:	0040                	addi	s0,sp,4
 7de:	0000                	unimp
 7e0:	9102                	jalr	sp
 7e2:	f80f004f          	fnmadd.s	ft0,ft10,ft0,ft11,rne
 7e6:	0002                	c.slli64	zero
 7e8:	0200                	addi	s0,sp,256
 7ea:	0d91                	addi	s11,s11,4
 7ec:	31ec                	fld	fa1,224(a1)
 7ee:	0002                	c.slli64	zero
 7f0:	0000                	unimp
 7f2:	0000                	unimp
 7f4:	01c8                	addi	a0,sp,196
 7f6:	0000                	unimp
 7f8:	0000                	unimp
 7fa:	0000                	unimp
 7fc:	9c01                	subw	s0,s0,s0
 7fe:	02b1                	addi	t0,t0,12
 800:	0000                	unimp
 802:	02006107          	vle32.v	v2,(zero)
 806:	2591                	addiw	a1,a1,4
 808:	00a9                	addi	ra,ra,10
 80a:	0000                	unimp
 80c:	7fbc9103          	lh	sp,2043(s9) # 47fb <_start-0x1d805>
 810:	68736907          	vlsseg4e32.v	v18,(t1),t2,v0.t
 814:	0200                	addi	s0,sp,256
 816:	2c91                	addiw	s9,s9,4
 818:	0055                	c.nop	21
 81a:	0000                	unimp
 81c:	7fb89103          	lh	sp,2043(a7)
 820:	006c7007          	0x6c7007
 824:	9102                	jalr	sp
 826:	5535                	li	a0,-19
 828:	0000                	unimp
 82a:	0300                	addi	s0,sp,384
 82c:	b491                	j	270 <_start-0x21d90>
 82e:	6370077f          	0x6370077f
 832:	0200                	addi	s0,sp,256
 834:	3d91                	addiw	s11,s11,-28
 836:	0055                	c.nop	21
 838:	0000                	unimp
 83a:	7fb09103          	lh	sp,2043(ra) # 47fb <_start-0x1d805>
 83e:	6208                	ld	a0,0(a2)
 840:	6675                	lui	a2,0x1d
 842:	0200                	addi	s0,sp,256
 844:	02b10793          	addi	a5,sp,43
 848:	0000                	unimp
 84a:	9102                	jalr	sp
 84c:	0940                	addi	s0,sp,148
 84e:	02bd                	addi	t0,t0,15
 850:	0000                	unimp
 852:	9402                	jalr	s0
 854:	0000a90b          	ext	s2,ra,0,0
 858:	0200                	addi	s0,sp,256
 85a:	6c91                	lui	s9,0x4
 85c:	6908                	ld	a0,16(a0)
 85e:	7864                	ld	s1,240(s0)
 860:	0200                	addi	s0,sp,256
 862:	0695                	addi	a3,a3,5
 864:	0055                	c.nop	21
 866:	0000                	unimp
 868:	9102                	jalr	sp
 86a:	0868                	addi	a0,sp,28
 86c:	0069                	c.nop	26
 86e:	9502                	jalr	a0
 870:	0000550b          	srb	a0,zero,zero,0
 874:	0200                	addi	s0,sp,256
 876:	6491                	lui	s1,0x4
 878:	7408                	ld	a0,40(s0)
 87a:	0200                	addi	s0,sp,256
 87c:	0e95                	addi	t4,t4,5
 87e:	0055                	c.nop	21
 880:	0000                	unimp
 882:	9102                	jalr	sp
 884:	0060                	addi	s0,sp,12
 886:	4810                	lw	a2,16(s0)
 888:	0001                	nop
 88a:	c100                	sw	s0,0(a0)
 88c:	0002                	c.slli64	zero
 88e:	1100                	addi	s0,sp,160
 890:	0084                	addi	s1,sp,64
 892:	0000                	unimp
 894:	001f 9f12 0002      	0x29f12001f
 89a:	0200                	addi	s0,sp,256
 89c:	0c7e                	slli	s8,s8,0x1f
 89e:	0055                	c.nop	21
 8a0:	0000                	unimp
 8a2:	30fc                	fld	fa5,224(s1)
 8a4:	0002                	c.slli64	zero
 8a6:	0000                	unimp
 8a8:	0000                	unimp
 8aa:	00f0                	addi	a2,sp,76
 8ac:	0000                	unimp
 8ae:	0000                	unimp
 8b0:	0000                	unimp
 8b2:	9c01                	subw	s0,s0,s0
 8b4:	033a                	slli	t1,t1,0xe
 8b6:	0000                	unimp
 8b8:	746d6607          	0x746d6607
 8bc:	0200                	addi	s0,sp,256
 8be:	287e                	fld	fa6,472(sp)
 8c0:	0142                	slli	sp,sp,0x10
 8c2:	0000                	unimp
 8c4:	9102                	jalr	sp
 8c6:	0748                	addi	a0,sp,900
 8c8:	756e                	ld	a0,248(sp)
 8ca:	006d                	c.nop	27
 8cc:	7e02                	ld	t3,32(sp)
 8ce:	00033a33          	sltu	s4,t1,zero
 8d2:	0200                	addi	s0,sp,256
 8d4:	4091                	li	ra,4
 8d6:	7008                	ld	a0,32(s0)
 8d8:	0200                	addi	s0,sp,256
 8da:	0f80                	addi	s0,sp,976
 8dc:	0142                	slli	sp,sp,0x10
 8de:	0000                	unimp
 8e0:	9102                	jalr	sp
 8e2:	0868                	addi	a0,sp,28
 8e4:	6572                	ld	a0,280(sp)
 8e6:	81020073          	0x81020073
 8ea:	5506                	lw	a0,96(sp)
 8ec:	0000                	unimp
 8ee:	0200                	addi	s0,sp,256
 8f0:	6491                	lui	s1,0x4
 8f2:	6408                	ld	a0,8(s0)
 8f4:	0200                	addi	s0,sp,256
 8f6:	0b81                	addi	s7,s7,0
 8f8:	0055                	c.nop	21
 8fa:	0000                	unimp
 8fc:	9102                	jalr	sp
 8fe:	085c                	addi	a5,sp,20
 900:	7369                	lui	t1,0xffffa
 902:	0064                	addi	s1,sp,12
 904:	8102                	jr	sp
 906:	550e                	lw	a0,224(sp)
 908:	0000                	unimp
 90a:	0200                	addi	s0,sp,256
 90c:	6091                	lui	ra,0x4
 90e:	0c00                	addi	s0,sp,528
 910:	5508                	lw	a0,40(a0)
 912:	0000                	unimp
 914:	0600                	addi	s0,sp,768
 916:	028e                	slli	t0,t0,0x3
 918:	0000                	unimp
 91a:	7202                	ld	tp,32(sp)
 91c:	6c06                	ld	s8,64(sp)
 91e:	0230                	addi	a2,sp,264
 920:	0000                	unimp
 922:	0000                	unimp
 924:	9000                	0x9000
 926:	0000                	unimp
 928:	0000                	unimp
 92a:	0000                	unimp
 92c:	0100                	addi	s0,sp,128
 92e:	7b9c                	ld	a5,48(a5)
 930:	07000003          	lb	zero,112(zero) # 70 <_start-0x21f90>
 934:	00727473          	csrrci	s0,0x7,4
 938:	7202                	ld	tp,32(sp)
 93a:	7b1d                	lui	s6,0xfffe7
 93c:	02000003          	lb	zero,32(zero) # 20 <_start-0x21fe0>
 940:	5891                	li	a7,-28
 942:	6908                	ld	a0,16(a0)
 944:	0200                	addi	s0,sp,256
 946:	0974                	addi	a3,sp,156
 948:	0055                	c.nop	21
 94a:	0000                	unimp
 94c:	9102                	jalr	sp
 94e:	006c                	addi	a1,sp,12
 950:	080c                	addi	a1,sp,16
 952:	0148                	addi	a0,sp,132
 954:	0000                	unimp
 956:	cf0a                	sw	sp,156(sp)
 958:	0002                	c.slli64	zero
 95a:	0200                	addi	s0,sp,256
 95c:	066a                	slli	a2,a2,0x1a
 95e:	0148                	addi	a0,sp,132
 960:	0000                	unimp
 962:	300c                	fld	fa1,32(s0)
 964:	0002                	c.slli64	zero
 966:	0000                	unimp
 968:	0000                	unimp
 96a:	0060                	addi	s0,sp,12
 96c:	0000                	unimp
 96e:	0000                	unimp
 970:	0000                	unimp
 972:	9c01                	subw	s0,s0,s0
 974:	000003b3          	add	t2,zero,zero
 978:	1409                	addi	s0,s0,-30
 97a:	0000                	unimp
 97c:	0200                	addi	s0,sp,256
 97e:	116c                	addi	a1,sp,172
 980:	0000008b          	0x8b
 984:	9102                	jalr	sp
 986:	0068                	addi	a0,sp,12
 988:	c20a                	sw	sp,4(sp)
 98a:	0002                	c.slli64	zero
 98c:	0200                	addi	s0,sp,256
 98e:	0564                	addi	s1,sp,652
 990:	0055                	c.nop	21
 992:	0000                	unimp
 994:	2fcc                	fld	fa1,152(a5)
 996:	0002                	c.slli64	zero
 998:	0000                	unimp
 99a:	0000                	unimp
 99c:	0040                	addi	s0,sp,4
 99e:	0000                	unimp
 9a0:	0000                	unimp
 9a2:	0000                	unimp
 9a4:	9c01                	subw	s0,s0,s0
 9a6:	000003e3          	beqz	zero,11ac <_start-0x20e54>
 9aa:	02006307          	vle32.v	v6,(zero)
 9ae:	1164                	addi	s1,sp,172
 9b0:	0055                	c.nop	21
 9b2:	0000                	unimp
 9b4:	9102                	jalr	sp
 9b6:	006c                	addi	a1,sp,12
 9b8:	ee06                	sd	ra,280(sp)
 9ba:	0002                	c.slli64	zero
 9bc:	0200                	addi	s0,sp,256
 9be:	065c                	addi	a5,sp,772
 9c0:	2f5c                	fld	fa5,152(a4)
 9c2:	0002                	c.slli64	zero
 9c4:	0000                	unimp
 9c6:	0000                	unimp
 9c8:	0070                	addi	a2,sp,12
 9ca:	0000                	unimp
 9cc:	0000                	unimp
 9ce:	0000                	unimp
 9d0:	9c01                	subw	s0,s0,s0
 9d2:	041e                	slli	s0,s0,0x7
 9d4:	0000                	unimp
 9d6:	02006307          	vle32.v	v6,(zero)
 9da:	155c                	addi	a5,sp,676
 9dc:	0148                	addi	a0,sp,132
 9de:	0000                	unimp
 9e0:	9102                	jalr	sp
 9e2:	095f 0014 0000      	0x14095f
 9e8:	5e02                	lw	t3,32(sp)
 9ea:	8b11                	andi	a4,a4,4
 9ec:	0000                	unimp
 9ee:	0200                	addi	s0,sp,256
 9f0:	6891                	lui	a7,0x4
 9f2:	0600                	addi	s0,sp,768
 9f4:	027a                	slli	tp,tp,0x1e
 9f6:	0000                	unimp
 9f8:	1f02                	slli	t5,t5,0x20
 9fa:	1006                	c.slli	zero,0x21
 9fc:	022d                	addi	tp,tp,11
 9fe:	0000                	unimp
 a00:	0000                	unimp
 a02:	4c00                	lw	s0,24(s0)
 a04:	0002                	c.slli64	zero
 a06:	0000                	unimp
 a08:	0000                	unimp
 a0a:	0100                	addi	s0,sp,128
 a0c:	5b9c                	lw	a5,48(a5)
 a0e:	0004                	0x4
 a10:	0900                	addi	s0,sp,144
 a12:	0014                	0x14
 a14:	0000                	unimp
 a16:	2102                	fld	ft2,0(sp)
 a18:	8b11                	andi	a4,a4,4
 a1a:	0000                	unimp
 a1c:	0200                	addi	s0,sp,256
 a1e:	6891                	lui	a7,0x4
 a20:	7608                	ld	a0,40(a2)
 a22:	6c61                	lui	s8,0x18
 a24:	0200                	addi	s0,sp,256
 a26:	0822                	slli	a6,a6,0x8
 a28:	005c                	addi	a5,sp,4
 a2a:	0000                	unimp
 a2c:	9102                	jalr	sp
 a2e:	0064                	addi	s1,sp,12
 a30:	0001fc13          	andi	s8,gp,0
 a34:	0100                	addi	s0,sp,128
 a36:	1428                	addi	a0,sp,552
 a38:	2cdc                	fld	fa5,152(s1)
 a3a:	0002                	c.slli64	zero
 a3c:	0000                	unimp
 a3e:	0000                	unimp
 a40:	0034                	addi	a3,sp,8
 a42:	0000                	unimp
 a44:	0000                	unimp
 a46:	0000                	unimp
 a48:	9c01                	subw	s0,s0,s0
 a4a:	0498                	addi	a4,sp,576
 a4c:	0000                	unimp
 a4e:	1414                	addi	a3,sp,544
 a50:	0000                	unimp
 a52:	0100                	addi	s0,sp,128
 a54:	2b28                	fld	fa0,80(a4)
 a56:	0000008b          	0x8b
 a5a:	9102                	jalr	sp
 a5c:	1468                	addi	a0,sp,556
 a5e:	01c2                	slli	gp,gp,0x10
 a60:	0000                	unimp
 a62:	2801                	sext.w	a6,a6
 a64:	00005c37          	lui	s8,0x5
 a68:	0200                	addi	s0,sp,256
 a6a:	6491                	lui	s1,0x4
 a6c:	1200                	addi	s0,sp,288
 a6e:	020d                	addi	tp,tp,3
 a70:	0000                	unimp
 a72:	1401                	addi	s0,s0,-32
 a74:	5c15                	li	s8,-27
 a76:	0000                	unimp
 a78:	b000                	fsd	fs0,32(s0)
 a7a:	022c                	addi	a1,sp,264
 a7c:	0000                	unimp
 a7e:	0000                	unimp
 a80:	2c00                	fld	fs0,24(s0)
 a82:	0000                	unimp
 a84:	0000                	unimp
 a86:	0000                	unimp
 a88:	0100                	addi	s0,sp,128
 a8a:	ca9c                	sw	a5,16(a3)
 a8c:	0004                	0x4
 a8e:	1400                	addi	s0,sp,544
 a90:	0014                	0x14
 a92:	0000                	unimp
 a94:	1401                	addi	s0,s0,-32
 a96:	00008b2b          	0x8b2b
 a9a:	0200                	addi	s0,sp,256
 a9c:	6891                	lui	a7,0x4
 a9e:	1500                	addi	s0,sp,672
 aa0:	00000307          	vle8.v	v6,(zero),v0.t
 aa4:	0a01                	addi	s4,s4,0
 aa6:	3414                	fld	fa3,40(s0)
 aa8:	0000                	unimp
 aaa:	8400                	0x8400
 aac:	022c                	addi	a1,sp,264
 aae:	0000                	unimp
 ab0:	0000                	unimp
 ab2:	2c00                	fld	fs0,24(s0)
 ab4:	0000                	unimp
 ab6:	0000                	unimp
 ab8:	0000                	unimp
 aba:	0100                	addi	s0,sp,128
 abc:	149c                	addi	a5,sp,608
 abe:	0014                	0x14
 ac0:	0000                	unimp
 ac2:	0a01                	addi	s4,s4,0
 ac4:	8b29                	andi	a4,a4,10
 ac6:	0000                	unimp
 ac8:	0200                	addi	s0,sp,256
 aca:	6891                	lui	a7,0x4
 acc:	0000                	unimp
 ace:	002a                	c.slli	zero,0xa
 ad0:	0000                	unimp
 ad2:	0002                	c.slli64	zero
 ad4:	043e                	slli	s0,s0,0xf
 ad6:	0000                	unimp
 ad8:	0108                	addi	a0,sp,128
 ada:	0f7a                	slli	t5,t5,0x1e
 adc:	0000                	unimp
 ade:	36c8                	fld	fa0,168(a3)
 ae0:	0002                	c.slli64	zero
 ae2:	0000                	unimp
 ae4:	0000                	unimp
 ae6:	38c8                	fld	fa0,176(s1)
 ae8:	0002                	c.slli64	zero
 aea:	0000                	unimp
 aec:	0000                	unimp
 aee:	030d                	addi	t1,t1,3
 af0:	0000                	unimp
 af2:	031c                	addi	a5,sp,384
 af4:	0000                	unimp
 af6:	0000036b          	0x36b
 afa:	8001                	c.srli64	s0
 afc:	002a                	c.slli	zero,0xa
 afe:	0000                	unimp
 b00:	0002                	c.slli64	zero
 b02:	0452                	slli	s0,s0,0x14
 b04:	0000                	unimp
 b06:	0108                	addi	a0,sp,128
 b08:	000011ef          	jal	gp,1b08 <_start-0x204f8>
 b0c:	2000                	fld	fs0,0(s0)
 b0e:	0002                	c.slli64	zero
 b10:	0000                	unimp
 b12:	0000                	unimp
 b14:	203c                	fld	fa5,64(s0)
 b16:	0002                	c.slli64	zero
 b18:	0000                	unimp
 b1a:	0000                	unimp
 b1c:	00000377          	radd16	t1,zero,zero
 b20:	031c                	addi	a5,sp,384
 b22:	0000                	unimp
 b24:	0000036b          	0x36b
 b28:	8001                	c.srli64	s0
 b2a:	002a                	c.slli	zero,0xa
 b2c:	0000                	unimp
 b2e:	0002                	c.slli64	zero
 b30:	0466                	slli	s0,s0,0x19
 b32:	0000                	unimp
 b34:	0108                	addi	a0,sp,128
 b36:	126e                	slli	tp,tp,0x3b
 b38:	0000                	unimp
 b3a:	38d0                	fld	fa2,176(s1)
 b3c:	0002                	c.slli64	zero
 b3e:	0000                	unimp
 b40:	0000                	unimp
 b42:	39b4                	fld	fa3,112(a1)
 b44:	0002                	c.slli64	zero
 b46:	0000                	unimp
 b48:	0000                	unimp
 b4a:	0382                	c.slli64	t2
 b4c:	0000                	unimp
 b4e:	031c                	addi	a5,sp,384
 b50:	0000                	unimp
 b52:	0000036b          	0x36b
 b56:	8001                	c.srli64	s0
 b58:	002a                	c.slli	zero,0xa
 b5a:	0000                	unimp
 b5c:	0002                	c.slli64	zero
 b5e:	047a                	slli	s0,s0,0x1e
 b60:	0000                	unimp
 b62:	0108                	addi	a0,sp,128
 b64:	000013e7          	0x13e7
 b68:	39b4                	fld	fa3,112(a1)
 b6a:	0002                	c.slli64	zero
 b6c:	0000                	unimp
 b6e:	0000                	unimp
 b70:	39cc                	fld	fa1,176(a1)
 b72:	0002                	c.slli64	zero
 b74:	0000                	unimp
 b76:	0000                	unimp
 b78:	0395                	addi	t2,t2,5
 b7a:	0000                	unimp
 b7c:	031c                	addi	a5,sp,384
 b7e:	0000                	unimp
 b80:	0000036b          	0x36b
 b84:	8001                	c.srli64	s0

Disassembly of section .debug_abbrev:

0000000000000000 <.debug_abbrev>:
   0:	1101                	addi	sp,sp,-32
   2:	2501                	sext.w	a0,a0
   4:	130e                	slli	t1,t1,0x23
   6:	1b0e030b          	0x1b0e030b
   a:	110e                	slli	sp,sp,0x23
   c:	1201                	addi	tp,tp,-32
   e:	00171007          	flh	ft0,1(a4)
  12:	0200                	addi	s0,sp,256
  14:	0024                	addi	s1,sp,8
  16:	0b3e0b0b          	0xb3e0b0b
  1a:	00000e03          	lb	t3,0(zero) # 0 <_start-0x22000>
  1e:	0b002403          	lw	s0,176(zero) # b0 <_start-0x21f50>
  22:	030b3e0b          	extu	t3,s6,0,48
  26:	0008                	0x8
  28:	0400                	addi	s0,sp,512
  2a:	0101                	addi	sp,sp,0
  2c:	1349                	addi	t1,t1,-14
  2e:	1301                	addi	t1,t1,-32
  30:	0000                	unimp
  32:	2105                	addiw	sp,sp,1
  34:	0000                	unimp
  36:	0600                	addi	s0,sp,768
  38:	0034                	addi	a3,sp,8
  3a:	0b3a0e03          	lb	t3,179(s4)
  3e:	0b390b3b          	0xb390b3b
  42:	1349                	addi	t1,t1,-14
  44:	193c193f 2e070000 	0x2e070000193c193f
  4c:	3f00                	fld	fs0,56(a4)
  4e:	0319                	addi	t1,t1,6
  50:	3a0e                	fld	fs4,224(sp)
  52:	390b3b0b          	extu	s6,s6,14,16
  56:	1119270b          	ext	a4,s2,4,17
  5a:	1201                	addi	tp,tp,-32
  5c:	96184007          	flq	ft0,-1695(a6)
  60:	1942                	slli	s2,s2,0x30
  62:	0000                	unimp
  64:	2e08                	fld	fa0,24(a2)
  66:	3f01                	addiw	t5,t5,-32
  68:	0319                	addi	t1,t1,6
  6a:	3a0e                	fld	fs4,224(sp)
  6c:	390b3b0b          	extu	s6,s6,14,16
  70:	1119270b          	ext	a4,s2,4,17
  74:	1201                	addi	tp,tp,-32
  76:	96184007          	flq	ft0,-1695(a6)
  7a:	1942                	slli	s2,s2,0x30
  7c:	1301                	addi	t1,t1,-32
  7e:	0000                	unimp
  80:	3409                	addiw	s0,s0,-30
  82:	0300                	addi	s0,sp,384
  84:	3a0e                	fld	fs4,224(sp)
  86:	390b3b0b          	extu	s6,s6,14,16
  8a:	0213490b          	lrb	s2,t1,ra,1
  8e:	0018                	0x18
  90:	0a00                	addi	s0,sp,272
  92:	012e                	slli	sp,sp,0xb
  94:	0b3a0e03          	lb	t3,179(s4)
  98:	0b390b3b          	0xb390b3b
  9c:	13491927          	fsh	fs4,306(s2) # 18132 <_start-0x9ece>
  a0:	0111                	addi	sp,sp,4
  a2:	0712                	slli	a4,a4,0x4
  a4:	1840                	addi	s0,sp,52
  a6:	4296                	lw	t0,68(sp)
  a8:	0119                	addi	sp,sp,6
  aa:	0b000013          	li	zero,176
  ae:	0005                	c.nop	1
  b0:	0b3a0e03          	lb	t3,179(s4)
  b4:	0b390b3b          	0xb390b3b
  b8:	1349                	addi	t1,t1,-14
  ba:	1802                	slli	a6,a6,0x20
  bc:	0000                	unimp
  be:	340c                	fld	fa1,40(s0)
  c0:	0300                	addi	s0,sp,384
  c2:	3a08                	fld	fa0,48(a2)
  c4:	390b3b0b          	extu	s6,s6,14,16
  c8:	0213490b          	lrb	s2,t1,ra,1
  cc:	0018                	0x18
  ce:	0d00                	addi	s0,sp,656
  d0:	000a                	c.slli	zero,0x2
  d2:	0b3a0e03          	lb	t3,179(s4)
  d6:	0b390b3b          	0xb390b3b
  da:	0111                	addi	sp,sp,4
  dc:	0000                	unimp
  de:	0f0e                	slli	t5,t5,0x3
  e0:	0b00                	addi	s0,sp,400
  e2:	0013490b          	lrb	s2,t1,ra,0
  e6:	0000                	unimp
  e8:	1101                	addi	sp,sp,-32
  ea:	2501                	sext.w	a0,a0
  ec:	130e                	slli	t1,t1,0x23
  ee:	1b0e030b          	0x1b0e030b
  f2:	110e                	slli	sp,sp,0x23
  f4:	1201                	addi	tp,tp,-32
  f6:	00171007          	flh	ft0,1(a4)
  fa:	0200                	addi	s0,sp,256
  fc:	0024                	addi	s1,sp,8
  fe:	0b3e0b0b          	0xb3e0b0b
 102:	00000e03          	lb	t3,0(zero) # 0 <_start-0x22000>
 106:	0b002403          	lw	s0,176(zero) # b0 <_start-0x21f50>
 10a:	030b3e0b          	extu	t3,s6,0,48
 10e:	0008                	0x8
 110:	0400                	addi	s0,sp,512
 112:	0016                	c.slli	zero,0x5
 114:	0b3a0e03          	lb	t3,179(s4)
 118:	0b390b3b          	0xb390b3b
 11c:	1349                	addi	t1,t1,-14
 11e:	0000                	unimp
 120:	2e05                	addiw	t3,t3,1
 122:	3f01                	addiw	t5,t5,-32
 124:	0319                	addi	t1,t1,6
 126:	3a0e                	fld	fs4,224(sp)
 128:	390b3b0b          	extu	s6,s6,14,16
 12c:	4919270b          	ext	a4,s2,18,17
 130:	12011113          	0x12011113
 134:	96184007          	flq	ft0,-1695(a6)
 138:	1942                	slli	s2,s2,0x30
 13a:	1301                	addi	t1,t1,-32
 13c:	0000                	unimp
 13e:	0506                	slli	a0,a0,0x1
 140:	0300                	addi	s0,sp,384
 142:	3a08                	fld	fa0,48(a2)
 144:	390b3b0b          	extu	s6,s6,14,16
 148:	0213490b          	lrb	s2,t1,ra,1
 14c:	0018                	0x18
 14e:	0700                	addi	s0,sp,896
 150:	0005                	c.nop	1
 152:	0b3a0e03          	lb	t3,179(s4)
 156:	0b390b3b          	0xb390b3b
 15a:	1349                	addi	t1,t1,-14
 15c:	1802                	slli	a6,a6,0x20
 15e:	0000                	unimp
 160:	0f08                	addi	a0,sp,912
 162:	0b00                	addi	s0,sp,400
 164:	0900000b          	0x900000b
 168:	012e                	slli	sp,sp,0xb
 16a:	0b3a0e03          	lb	t3,179(s4)
 16e:	0b390b3b          	0xb390b3b
 172:	13491927          	fsh	fs4,306(s2)
 176:	0111                	addi	sp,sp,4
 178:	0712                	slli	a4,a4,0x4
 17a:	1840                	addi	s0,sp,52
 17c:	4296                	lw	t0,68(sp)
 17e:	0119                	addi	sp,sp,6
 180:	0a000013          	li	zero,160
 184:	0034                	addi	a3,sp,8
 186:	0b3a0803          	lb	a6,179(s4)
 18a:	0b390b3b          	0xb390b3b
 18e:	1349                	addi	t1,t1,-14
 190:	1802                	slli	a6,a6,0x20
 192:	0000                	unimp
 194:	0300340b          	extu	s0,zero,0,48
 198:	3a0e                	fld	fs4,224(sp)
 19a:	390b3b0b          	extu	s6,s6,14,16
 19e:	0213490b          	lrb	s2,t1,ra,1
 1a2:	0018                	0x18
 1a4:	0c00                	addi	s0,sp,528
 1a6:	0b0b000f          	0xb0b000f
 1aa:	1349                	addi	t1,t1,-14
 1ac:	0000                	unimp
 1ae:	2e0d                	addiw	t3,t3,3
 1b0:	0301                	addi	t1,t1,0
 1b2:	3a0e                	fld	fs4,224(sp)
 1b4:	390b3b0b          	extu	s6,s6,14,16
 1b8:	4919270b          	ext	a4,s2,18,17
 1bc:	12011113          	0x12011113
 1c0:	97184007          	flq	ft0,-1679(a6)
 1c4:	1942                	slli	s2,s2,0x30
 1c6:	0000                	unimp
 1c8:	0100                	addi	s0,sp,128
 1ca:	0111                	addi	sp,sp,4
 1cc:	0e25                	addi	t3,t3,9
 1ce:	0e030b13          	addi	s6,t1,224 # ffffffffffffa0e0 <bss_begin+0xfffffffffffd50e0>
 1d2:	01110e1b          	addiw	t3,sp,17
 1d6:	0712                	slli	a4,a4,0x4
 1d8:	1710                	addi	a2,sp,928
 1da:	0000                	unimp
 1dc:	2402                	fld	fs0,0(sp)
 1de:	0b00                	addi	s0,sp,400
 1e0:	030b3e0b          	extu	t3,s6,0,48
 1e4:	000e                	c.slli	zero,0x3
 1e6:	0300                	addi	s0,sp,384
 1e8:	0024                	addi	s1,sp,8
 1ea:	0b3e0b0b          	0xb3e0b0b
 1ee:	00000803          	lb	a6,0(zero) # 0 <_start-0x22000>
 1f2:	1604                	addi	s1,sp,800
 1f4:	0300                	addi	s0,sp,384
 1f6:	3a0e                	fld	fs4,224(sp)
 1f8:	390b3b0b          	extu	s6,s6,14,16
 1fc:	0013490b          	lrb	s2,t1,ra,0
 200:	0500                	addi	s0,sp,640
 202:	002e                	c.slli	zero,0xb
 204:	0e03193f 0b3b0b3a 	0xb3b0b3a0e03193f
 20c:	0b39                	addi	s6,s6,14
 20e:	01111927          	fsh	fa7,18(sp)
 212:	0712                	slli	a4,a4,0x4
 214:	1840                	addi	s0,sp,52
 216:	4296                	lw	t0,68(sp)
 218:	0019                	c.nop	6
 21a:	0600                	addi	s0,sp,768
 21c:	012e                	slli	sp,sp,0xb
 21e:	0b3a0e03          	lb	t3,179(s4)
 222:	0b390b3b          	0xb390b3b
 226:	01111927          	fsh	fa7,18(sp)
 22a:	0712                	slli	a4,a4,0x4
 22c:	1840                	addi	s0,sp,52
 22e:	4296                	lw	t0,68(sp)
 230:	0119                	addi	sp,sp,6
 232:	07000013          	li	zero,112
 236:	0005                	c.nop	1
 238:	0b3a0e03          	lb	t3,179(s4)
 23c:	0b390b3b          	0xb390b3b
 240:	1349                	addi	t1,t1,-14
 242:	1802                	slli	a6,a6,0x20
 244:	0000                	unimp
 246:	3408                	fld	fa0,40(s0)
 248:	0300                	addi	s0,sp,384
 24a:	3a08                	fld	fa0,48(a2)
 24c:	390b3b0b          	extu	s6,s6,14,16
 250:	0213490b          	lrb	s2,t1,ra,1
 254:	0018                	0x18
 256:	0900                	addi	s0,sp,144
 258:	002e                	c.slli	zero,0xb
 25a:	0b3a0e03          	lb	t3,179(s4)
 25e:	0b390b3b          	0xb390b3b
 262:	01111927          	fsh	fa7,18(sp)
 266:	0712                	slli	a4,a4,0x4
 268:	1840                	addi	s0,sp,52
 26a:	4296                	lw	t0,68(sp)
 26c:	0019                	c.nop	6
 26e:	0a00                	addi	s0,sp,272
 270:	012e                	slli	sp,sp,0xb
 272:	0e03193f 0b3b0b3a 	0xb3b0b3a0e03193f
 27a:	0b39                	addi	s6,s6,14
 27c:	01111927          	fsh	fa7,18(sp)
 280:	0712                	slli	a4,a4,0x4
 282:	1840                	addi	s0,sp,52
 284:	01194297          	auipc	t0,0x1194
 288:	0b000013          	li	zero,176
 28c:	0005                	c.nop	1
 28e:	0b3a0803          	lb	a6,179(s4)
 292:	0b390b3b          	0xb390b3b
 296:	1349                	addi	t1,t1,-14
 298:	1802                	slli	a6,a6,0x20
 29a:	0000                	unimp
 29c:	2e0c                	fld	fa1,24(a2)
 29e:	0301                	addi	t1,t1,0
 2a0:	3a0e                	fld	fs4,224(sp)
 2a2:	390b3b0b          	extu	s6,s6,14,16
 2a6:	1119270b          	ext	a4,s2,4,17
 2aa:	1201                	addi	tp,tp,-32
 2ac:	97184007          	flq	ft0,-1679(a6)
 2b0:	1942                	slli	s2,s2,0x30
 2b2:	1301                	addi	t1,t1,-32
 2b4:	0000                	unimp
 2b6:	2e0d                	addiw	t3,t3,3
 2b8:	0301                	addi	t1,t1,0
 2ba:	3a0e                	fld	fs4,224(sp)
 2bc:	390b3b0b          	extu	s6,s6,14,16
 2c0:	4919270b          	ext	a4,s2,18,17
 2c4:	12011113          	0x12011113
 2c8:	97184007          	flq	ft0,-1679(a6)
 2cc:	1942                	slli	s2,s2,0x30
 2ce:	0000                	unimp
 2d0:	0100                	addi	s0,sp,128
 2d2:	0111                	addi	sp,sp,4
 2d4:	0e25                	addi	t3,t3,9
 2d6:	0e030b13          	addi	s6,t1,224
 2da:	01110e1b          	addiw	t3,sp,17
 2de:	0712                	slli	a4,a4,0x4
 2e0:	1710                	addi	a2,sp,928
 2e2:	0000                	unimp
 2e4:	2402                	fld	fs0,0(sp)
 2e6:	0b00                	addi	s0,sp,400
 2e8:	030b3e0b          	extu	t3,s6,0,48
 2ec:	000e                	c.slli	zero,0x3
 2ee:	0300                	addi	s0,sp,384
 2f0:	0016                	c.slli	zero,0x5
 2f2:	0b3a0e03          	lb	t3,179(s4)
 2f6:	0b390b3b          	0xb390b3b
 2fa:	1349                	addi	t1,t1,-14
 2fc:	0000                	unimp
 2fe:	2404                	fld	fs1,8(s0)
 300:	0b00                	addi	s0,sp,400
 302:	030b3e0b          	extu	t3,s6,0,48
 306:	0008                	0x8
 308:	0500                	addi	s0,sp,640
 30a:	0b0b000f          	0xb0b000f
 30e:	00000e03          	lb	t3,0(zero) # 0 <_start-0x22000>
 312:	2e06                	fld	ft8,64(sp)
 314:	3f01                	addiw	t5,t5,-32
 316:	0319                	addi	t1,t1,6
 318:	3a0e                	fld	fs4,224(sp)
 31a:	390b3b0b          	extu	s6,s6,14,16
 31e:	1119270b          	ext	a4,s2,4,17
 322:	1201                	addi	tp,tp,-32
 324:	96184007          	flq	ft0,-1695(a6)
 328:	1942                	slli	s2,s2,0x30
 32a:	1301                	addi	t1,t1,-32
 32c:	0000                	unimp
 32e:	03000507          	vle8ff.v	v10,(zero)
 332:	3a08                	fld	fa0,48(a2)
 334:	390b3b0b          	extu	s6,s6,14,16
 338:	0213490b          	lrb	s2,t1,ra,1
 33c:	0018                	0x18
 33e:	0800                	addi	s0,sp,16
 340:	0034                	addi	a3,sp,8
 342:	0b3a0803          	lb	a6,179(s4)
 346:	0b390b3b          	0xb390b3b
 34a:	1349                	addi	t1,t1,-14
 34c:	1802                	slli	a6,a6,0x20
 34e:	0000                	unimp
 350:	3409                	addiw	s0,s0,-30
 352:	0300                	addi	s0,sp,384
 354:	3a0e                	fld	fs4,224(sp)
 356:	390b3b0b          	extu	s6,s6,14,16
 35a:	0213490b          	lrb	s2,t1,ra,1
 35e:	0018                	0x18
 360:	0a00                	addi	s0,sp,272
 362:	012e                	slli	sp,sp,0xb
 364:	0e03193f 0b3b0b3a 	0xb3b0b3a0e03193f
 36c:	0b39                	addi	s6,s6,14
 36e:	13491927          	fsh	fs4,306(s2)
 372:	0111                	addi	sp,sp,4
 374:	0712                	slli	a4,a4,0x4
 376:	1840                	addi	s0,sp,52
 378:	4296                	lw	t0,68(sp)
 37a:	0119                	addi	sp,sp,6
 37c:	0b000013          	li	zero,176
 380:	0018                	0x18
 382:	0000                	unimp
 384:	0f0c                	addi	a1,sp,912
 386:	0b00                	addi	s0,sp,400
 388:	0013490b          	lrb	s2,t1,ra,0
 38c:	0d00                	addi	s0,sp,656
 38e:	0026                	c.slli	zero,0x9
 390:	1349                	addi	t1,t1,-14
 392:	0000                	unimp
 394:	2e0e                	fld	ft8,192(sp)
 396:	0301                	addi	t1,t1,0
 398:	3a08                	fld	fa0,48(a2)
 39a:	390b3b0b          	extu	s6,s6,14,16
 39e:	4919270b          	ext	a4,s2,18,17
 3a2:	12011113          	0x12011113
 3a6:	96184007          	flq	ft0,-1695(a6)
 3aa:	1942                	slli	s2,s2,0x30
 3ac:	1301                	addi	t1,t1,-32
 3ae:	0000                	unimp
 3b0:	03012e0f          	0x3012e0f
 3b4:	3a0e                	fld	fs4,224(sp)
 3b6:	390b3b0b          	extu	s6,s6,14,16
 3ba:	1119270b          	ext	a4,s2,4,17
 3be:	1201                	addi	tp,tp,-32
 3c0:	96184007          	flq	ft0,-1695(a6)
 3c4:	1942                	slli	s2,s2,0x30
 3c6:	1301                	addi	t1,t1,-32
 3c8:	0000                	unimp
 3ca:	0110                	addi	a2,sp,128
 3cc:	4901                	li	s2,0
 3ce:	00130113          	addi	sp,t1,1
 3d2:	1100                	addi	s0,sp,160
 3d4:	0021                	c.nop	8
 3d6:	1349                	addi	t1,t1,-14
 3d8:	00000b2f          	vamoaddei8.v	zero,(zero),v0,v22,v0.t
 3dc:	2e12                	fld	ft8,256(sp)
 3de:	0301                	addi	t1,t1,0
 3e0:	3a0e                	fld	fs4,224(sp)
 3e2:	390b3b0b          	extu	s6,s6,14,16
 3e6:	4919270b          	ext	a4,s2,18,17
 3ea:	12011113          	0x12011113
 3ee:	97184007          	flq	ft0,-1679(a6)
 3f2:	1942                	slli	s2,s2,0x30
 3f4:	1301                	addi	t1,t1,-32
 3f6:	0000                	unimp
 3f8:	03012e13          	slti	t3,sp,48
 3fc:	3a0e                	fld	fs4,224(sp)
 3fe:	390b3b0b          	extu	s6,s6,14,16
 402:	1119270b          	ext	a4,s2,4,17
 406:	1201                	addi	tp,tp,-32
 408:	97184007          	flq	ft0,-1679(a6)
 40c:	1942                	slli	s2,s2,0x30
 40e:	1301                	addi	t1,t1,-32
 410:	0000                	unimp
 412:	0514                	addi	a3,sp,640
 414:	0300                	addi	s0,sp,384
 416:	3a0e                	fld	fs4,224(sp)
 418:	390b3b0b          	extu	s6,s6,14,16
 41c:	0213490b          	lrb	s2,t1,ra,1
 420:	0018                	0x18
 422:	1500                	addi	s0,sp,672
 424:	012e                	slli	sp,sp,0xb
 426:	0b3a0e03          	lb	t3,179(s4)
 42a:	0b390b3b          	0xb390b3b
 42e:	13491927          	fsh	fs4,306(s2)
 432:	0111                	addi	sp,sp,4
 434:	0712                	slli	a4,a4,0x4
 436:	1840                	addi	s0,sp,52
 438:	00194297          	auipc	t0,0x194
 43c:	0000                	unimp
 43e:	1101                	addi	sp,sp,-32
 440:	1000                	addi	s0,sp,32
 442:	1106                	slli	sp,sp,0x21
 444:	1201                	addi	tp,tp,-32
 446:	0301                	addi	t1,t1,0
 448:	1b0e                	slli	s6,s6,0x23
 44a:	250e                	fld	fa0,192(sp)
 44c:	130e                	slli	t1,t1,0x23
 44e:	0005                	c.nop	1
 450:	0000                	unimp
 452:	1101                	addi	sp,sp,-32
 454:	1000                	addi	s0,sp,32
 456:	1106                	slli	sp,sp,0x21
 458:	1201                	addi	tp,tp,-32
 45a:	0301                	addi	t1,t1,0
 45c:	1b0e                	slli	s6,s6,0x23
 45e:	250e                	fld	fa0,192(sp)
 460:	130e                	slli	t1,t1,0x23
 462:	0005                	c.nop	1
 464:	0000                	unimp
 466:	1101                	addi	sp,sp,-32
 468:	1000                	addi	s0,sp,32
 46a:	1106                	slli	sp,sp,0x21
 46c:	1201                	addi	tp,tp,-32
 46e:	0301                	addi	t1,t1,0
 470:	1b0e                	slli	s6,s6,0x23
 472:	250e                	fld	fa0,192(sp)
 474:	130e                	slli	t1,t1,0x23
 476:	0005                	c.nop	1
 478:	0000                	unimp
 47a:	1101                	addi	sp,sp,-32
 47c:	1000                	addi	s0,sp,32
 47e:	1106                	slli	sp,sp,0x21
 480:	1201                	addi	tp,tp,-32
 482:	0301                	addi	t1,t1,0
 484:	1b0e                	slli	s6,s6,0x23
 486:	250e                	fld	fa0,192(sp)
 488:	130e                	slli	t1,t1,0x23
 48a:	0005                	c.nop	1
	...

Disassembly of section .debug_aranges:

0000000000000000 <.debug_aranges>:
   0:	002c                	addi	a1,sp,8
   2:	0000                	unimp
   4:	0002                	c.slli64	zero
   6:	0000                	unimp
   8:	0000                	unimp
   a:	0008                	0x8
   c:	0000                	unimp
   e:	0000                	unimp
  10:	2040                	fld	fs0,128(s0)
  12:	0002                	c.slli64	zero
  14:	0000                	unimp
  16:	0000                	unimp
  18:	0258                	addi	a4,sp,260
	...
  2e:	0000                	unimp
  30:	002c                	addi	a1,sp,8
  32:	0000                	unimp
  34:	0002                	c.slli64	zero
  36:	0182                	c.slli64	gp
  38:	0000                	unimp
  3a:	0008                	0x8
  3c:	0000                	unimp
  3e:	0000                	unimp
  40:	2298                	fld	fa4,0(a3)
  42:	0002                	c.slli64	zero
  44:	0000                	unimp
  46:	0000                	unimp
  48:	023c                	addi	a5,sp,264
	...
  5e:	0000                	unimp
  60:	002c                	addi	a1,sp,8
  62:	0000                	unimp
  64:	0002                	c.slli64	zero
  66:	0376                	slli	t1,t1,0x1d
  68:	0000                	unimp
  6a:	0008                	0x8
  6c:	0000                	unimp
  6e:	0000                	unimp
  70:	24d4                	fld	fa3,136(s1)
  72:	0002                	c.slli64	zero
  74:	0000                	unimp
  76:	0000                	unimp
  78:	07b0                	addi	a2,sp,968
	...
  8e:	0000                	unimp
  90:	002c                	addi	a1,sp,8
  92:	0000                	unimp
  94:	0002                	c.slli64	zero
  96:	05d5                	addi	a1,a1,21
  98:	0000                	unimp
  9a:	0008                	0x8
  9c:	0000                	unimp
  9e:	0000                	unimp
  a0:	2c84                	fld	fs1,24(s1)
  a2:	0002                	c.slli64	zero
  a4:	0000                	unimp
  a6:	0000                	unimp
  a8:	0a40                	addi	s0,sp,276
	...
  be:	0000                	unimp
  c0:	002c                	addi	a1,sp,8
  c2:	0000                	unimp
  c4:	0002                	c.slli64	zero
  c6:	0ace                	slli	s5,s5,0x13
  c8:	0000                	unimp
  ca:	0008                	0x8
  cc:	0000                	unimp
  ce:	0000                	unimp
  d0:	36c8                	fld	fa0,168(a3)
  d2:	0002                	c.slli64	zero
  d4:	0000                	unimp
  d6:	0000                	unimp
  d8:	0200                	addi	s0,sp,256
	...
  ee:	0000                	unimp
  f0:	002c                	addi	a1,sp,8
  f2:	0000                	unimp
  f4:	0002                	c.slli64	zero
  f6:	0afc                	addi	a5,sp,348
  f8:	0000                	unimp
  fa:	0008                	0x8
  fc:	0000                	unimp
  fe:	0000                	unimp
 100:	2000                	fld	fs0,0(s0)
 102:	0002                	c.slli64	zero
 104:	0000                	unimp
 106:	0000                	unimp
 108:	003c                	addi	a5,sp,8
	...
 11e:	0000                	unimp
 120:	002c                	addi	a1,sp,8
 122:	0000                	unimp
 124:	0002                	c.slli64	zero
 126:	0b2a                	slli	s6,s6,0xa
 128:	0000                	unimp
 12a:	0008                	0x8
 12c:	0000                	unimp
 12e:	0000                	unimp
 130:	38d0                	fld	fa2,176(s1)
 132:	0002                	c.slli64	zero
 134:	0000                	unimp
 136:	0000                	unimp
 138:	00e4                	addi	s1,sp,76
	...
 14e:	0000                	unimp
 150:	002c                	addi	a1,sp,8
 152:	0000                	unimp
 154:	0002                	c.slli64	zero
 156:	0b58                	addi	a4,sp,404
 158:	0000                	unimp
 15a:	0008                	0x8
 15c:	0000                	unimp
 15e:	0000                	unimp
 160:	39b4                	fld	fa3,112(a1)
 162:	0002                	c.slli64	zero
 164:	0000                	unimp
 166:	0000                	unimp
 168:	0018                	0x18
	...

Disassembly of section .debug_line:

0000000000000000 <.debug_line>:
       0:	01f1                	addi	gp,gp,28
       2:	0000                	unimp
       4:	00230003          	lb	zero,2(t1)
       8:	0000                	unimp
       a:	0101                	addi	sp,sp,0
       c:	000d0efb          	0xd0efb
      10:	0101                	addi	sp,sp,0
      12:	0101                	addi	sp,sp,0
      14:	0000                	unimp
      16:	0100                	addi	s0,sp,128
      18:	0000                	unimp
      1a:	7301                	lui	t1,0xfffe0
      1c:	6372                	ld	t1,280(sp)
      1e:	0000                	unimp
      20:	6e72656b          	0x6e72656b
      24:	6c65                	lui	s8,0x19
      26:	632e                	ld	t1,200(sp)
      28:	0100                	addi	s0,sp,128
      2a:	0000                	unimp
      2c:	0500                	addi	s0,sp,640
      2e:	0001                	nop
      30:	0209                	addi	tp,tp,2
      32:	2040                	fld	fs0,128(s0)
      34:	0002                	c.slli64	zero
      36:	0000                	unimp
      38:	0000                	unimp
      3a:	05011503          	lh	a0,80(sp)
      3e:	0309                	addi	t1,t1,2
      40:	0904                	addi	s1,sp,144
      42:	0014                	0x14
      44:	0501                	addi	a0,a0,0
      46:	0302                	c.slli64	t1
      48:	0900                	addi	s0,sp,144
      4a:	0004                	0x4
      4c:	0501                	addi	a0,a0,0
      4e:	0318                	addi	a4,sp,384
      50:	0901                	addi	s2,s2,0
      52:	0004                	0x4
      54:	0501                	addi	a0,a0,0
      56:	0306                	slli	t1,t1,0x1
      58:	0900                	addi	s0,sp,144
      5a:	0018                	0x18
      5c:	0501                	addi	a0,a0,0
      5e:	0022                	c.slli	zero,0x8
      60:	0402                	c.slli64	s0
      62:	0302                	c.slli64	t1
      64:	0008097f          	0x8097f
      68:	0501                	addi	a0,a0,0
      6a:	0010                	0x10
      6c:	0402                	c.slli64	s0
      6e:	0301                	addi	t1,t1,0
      70:	0900                	addi	s0,sp,144
      72:	000c                	0xc
      74:	0501                	addi	a0,a0,0
      76:	0002                	c.slli64	zero
      78:	0402                	c.slli64	s0
      7a:	0301                	addi	t1,t1,0
      7c:	0900                	addi	s0,sp,144
      7e:	0010                	0x10
      80:	0501                	addi	a0,a0,0
      82:	0309                	addi	t1,t1,2
      84:	0905                	addi	s2,s2,1
      86:	0004                	0x4
      88:	0501                	addi	a0,a0,0
      8a:	0304                	addi	s1,sp,384
      8c:	097d                	addi	s2,s2,31
      8e:	0008                	0x8
      90:	0501                	addi	a0,a0,0
      92:	09060307          	vlse8.v	v6,(a2),a6,v0.t
      96:	0004                	0x4
      98:	0501                	addi	a0,a0,0
      9a:	0308                	addi	a0,sp,384
      9c:	0902                	c.slli64	s2
      9e:	000c                	0xc
      a0:	0501                	addi	a0,a0,0
      a2:	030d                	addi	t1,t1,3
      a4:	0901                	addi	s2,s2,0
      a6:	000c                	0xc
      a8:	0501                	addi	a0,a0,0
      aa:	0306                	slli	t1,t1,0x1
      ac:	0901                	addi	s2,s2,0
      ae:	0008                	0x8
      b0:	0501                	addi	a0,a0,0
      b2:	09040307          	vlse8.v	v6,(s0),a6,v0.t
      b6:	0004                	0x4
      b8:	0501                	addi	a0,a0,0
      ba:	030a                	slli	t1,t1,0x2
      bc:	0902                	c.slli64	s2
      be:	000c                	0xc
      c0:	0501                	addi	a0,a0,0
      c2:	0309                	addi	t1,t1,2
      c4:	0900                	addi	s0,sp,144
      c6:	0008                	0x8
      c8:	0501                	addi	a0,a0,0
      ca:	0308                	addi	a0,sp,384
      cc:	0901                	addi	s2,s2,0
      ce:	0004                	0x4
      d0:	0501                	addi	a0,a0,0
      d2:	0309                	addi	t1,t1,2
      d4:	0902                	c.slli64	s2
      d6:	000c                	0xc
      d8:	0501                	addi	a0,a0,0
      da:	0308                	addi	a0,sp,384
      dc:	0901                	addi	s2,s2,0
      de:	000c                	0xc
      e0:	0501                	addi	a0,a0,0
      e2:	030e                	slli	t1,t1,0x3
      e4:	0901                	addi	s2,s2,0
      e6:	000c                	0xc
      e8:	0501                	addi	a0,a0,0
      ea:	0305                	addi	t1,t1,1
      ec:	0906                	slli	s2,s2,0x1
      ee:	0008                	0x8
      f0:	0301                	addi	t1,t1,0
      f2:	0901                	addi	s2,s2,0
      f4:	0008                	0x8
      f6:	0501                	addi	a0,a0,0
      f8:	030c                	addi	a1,sp,384
      fa:	0902                	c.slli64	s2
      fc:	000c                	0xc
      fe:	0501                	addi	a0,a0,0
     100:	0301                	addi	t1,t1,0
     102:	0901                	addi	s2,s2,0
     104:	0004                	0x4
     106:	0301                	addi	t1,t1,0
     108:	00140903          	lb	s2,1(s0)
     10c:	0501                	addi	a0,a0,0
     10e:	0302                	c.slli64	t1
     110:	00100903          	lb	s2,1(zero) # 1 <_start-0x21fff>
     114:	0301                	addi	t1,t1,0
     116:	0901                	addi	s2,s2,0
     118:	0004                	0x4
     11a:	0301                	addi	t1,t1,0
     11c:	0901                	addi	s2,s2,0
     11e:	0004                	0x4
     120:	0301                	addi	t1,t1,0
     122:	0901                	addi	s2,s2,0
     124:	0004                	0x4
     126:	0301                	addi	t1,t1,0
     128:	0902                	c.slli64	s2
     12a:	0004                	0x4
     12c:	0301                	addi	t1,t1,0
     12e:	00040903          	lb	s2,0(s0)
     132:	0501                	addi	a0,a0,0
     134:	0309                	addi	t1,t1,2
     136:	00100903          	lb	s2,1(zero) # 1 <_start-0x21fff>
     13a:	0501                	addi	a0,a0,0
     13c:	0305                	addi	t1,t1,1
     13e:	0901                	addi	s2,s2,0
     140:	0010                	0x10
     142:	0501                	addi	a0,a0,0
     144:	09010303          	lb	t1,144(sp)
     148:	0008                	0x8
     14a:	0501                	addi	a0,a0,0
     14c:	0309                	addi	t1,t1,2
     14e:	0902                	c.slli64	s2
     150:	000c                	0xc
     152:	0501                	addi	a0,a0,0
     154:	0305                	addi	t1,t1,1
     156:	0901                	addi	s2,s2,0
     158:	0010                	0x10
     15a:	0501                	addi	a0,a0,0
     15c:	09010303          	lb	t1,144(sp)
     160:	000c                	0xc
     162:	0501                	addi	a0,a0,0
     164:	0309                	addi	t1,t1,2
     166:	0902                	c.slli64	s2
     168:	000c                	0xc
     16a:	0301                	addi	t1,t1,0
     16c:	0901                	addi	s2,s2,0
     16e:	0010                	0x10
     170:	0501                	addi	a0,a0,0
     172:	0302                	c.slli64	t1
     174:	0902                	c.slli64	s2
     176:	0010                	0x10
     178:	0301                	addi	t1,t1,0
     17a:	0901                	addi	s2,s2,0
     17c:	0004                	0x4
     17e:	0501                	addi	a0,a0,0
     180:	0309                	addi	t1,t1,2
     182:	0902                	c.slli64	s2
     184:	000c                	0xc
     186:	0501                	addi	a0,a0,0
     188:	0305                	addi	t1,t1,1
     18a:	0901                	addi	s2,s2,0
     18c:	0010                	0x10
     18e:	0501                	addi	a0,a0,0
     190:	09010303          	lb	t1,144(sp)
     194:	000c                	0xc
     196:	0501                	addi	a0,a0,0
     198:	0309                	addi	t1,t1,2
     19a:	0902                	c.slli64	s2
     19c:	000c                	0xc
     19e:	0501                	addi	a0,a0,0
     1a0:	0305                	addi	t1,t1,1
     1a2:	0901                	addi	s2,s2,0
     1a4:	0010                	0x10
     1a6:	0501                	addi	a0,a0,0
     1a8:	09010303          	lb	t1,144(sp)
     1ac:	0008                	0x8
     1ae:	0501                	addi	a0,a0,0
     1b0:	0301                	addi	t1,t1,0
     1b2:	0901                	addi	s2,s2,0
     1b4:	000c                	0xc
     1b6:	0301                	addi	t1,t1,0
     1b8:	00140903          	lb	s2,1(s0)
     1bc:	0501                	addi	a0,a0,0
     1be:	0302                	c.slli64	t1
     1c0:	0902                	c.slli64	s2
     1c2:	0010                	0x10
     1c4:	0301                	addi	t1,t1,0
     1c6:	0901                	addi	s2,s2,0
     1c8:	0004                	0x4
     1ca:	0301                	addi	t1,t1,0
     1cc:	0902                	c.slli64	s2
     1ce:	000c                	0xc
     1d0:	0301                	addi	t1,t1,0
     1d2:	00040903          	lb	s2,0(s0)
     1d6:	0301                	addi	t1,t1,0
     1d8:	0901                	addi	s2,s2,0
     1da:	000c                	0xc
     1dc:	0301                	addi	t1,t1,0
     1de:	0901                	addi	s2,s2,0
     1e0:	000c                	0xc
     1e2:	0501                	addi	a0,a0,0
     1e4:	0008                	0x8
     1e6:	0402                	c.slli64	s0
     1e8:	0301                	addi	t1,t1,0
     1ea:	0902                	c.slli64	s2
     1ec:	000c                	0xc
     1ee:	0901                	addi	s2,s2,0
     1f0:	0004                	0x4
     1f2:	0100                	addi	s0,sp,128
     1f4:	ce01                	beqz	a2,20c <_start-0x21df4>
     1f6:	0001                	nop
     1f8:	0300                	addi	s0,sp,384
     1fa:	3600                	fld	fs0,40(a2)
     1fc:	0000                	unimp
     1fe:	0100                	addi	s0,sp,128
     200:	fb01                	bnez	a4,110 <_start-0x21ef0>
     202:	0d0e                	slli	s10,s10,0x3
     204:	0100                	addi	s0,sp,128
     206:	0101                	addi	sp,sp,0
     208:	0001                	nop
     20a:	0000                	unimp
     20c:	0001                	nop
     20e:	0100                	addi	s0,sp,128
     210:	00637273          	csrrci	tp,0x6,6
     214:	6e69                	lui	t3,0x1a
     216:	64756c63          	bltu	a0,t2,86e <_start-0x21792>
     21a:	0065                	c.nop	25
     21c:	6d00                	ld	s0,24(a0)
     21e:	6d65                	lui	s10,0x19
     220:	2e746573          	csrrsi	a0,0x2e7,8
     224:	00010063          	beqz	sp,224 <_start-0x21ddc>
     228:	7400                	ld	s0,40(s0)
     22a:	7079                	c.lui	zero,0xffffe
     22c:	7365                	lui	t1,0xffff9
     22e:	682e                	ld	a6,200(sp)
     230:	0200                	addi	s0,sp,256
     232:	0000                	unimp
     234:	0500                	addi	s0,sp,640
     236:	0001                	nop
     238:	0209                	addi	tp,tp,2
     23a:	2298                	fld	fa4,0(a3)
     23c:	0002                	c.slli64	zero
     23e:	0000                	unimp
     240:	0000                	unimp
     242:	03080517          	auipc	a0,0x3080
     246:	0901                	addi	s2,s2,0
     248:	001c                	0x1c
     24a:	0301                	addi	t1,t1,0
     24c:	0902                	c.slli64	s2
     24e:	0008                	0x8
     250:	0501                	addi	a0,a0,0
     252:	0306                	slli	t1,t1,0x1
     254:	0901                	addi	s2,s2,0
     256:	0004                	0x4
     258:	0501                	addi	a0,a0,0
     25a:	0309                	addi	t1,t1,2
     25c:	0900                	addi	s0,sp,144
     25e:	000c                	0xc
     260:	0501                	addi	a0,a0,0
     262:	030e                	slli	t1,t1,0x3
     264:	000c097f          	0xc097f
     268:	0501                	addi	a0,a0,0
     26a:	0308                	addi	a0,sp,384
     26c:	0900                	addi	s0,sp,144
     26e:	000c                	0xc
     270:	0501                	addi	a0,a0,0
     272:	0309                	addi	t1,t1,2
     274:	0902                	c.slli64	s2
     276:	0004                	0x4
     278:	0501                	addi	a0,a0,0
     27a:	0301                	addi	t1,t1,0
     27c:	0901                	addi	s2,s2,0
     27e:	0004                	0x4
     280:	0301                	addi	t1,t1,0
     282:	00100903          	lb	s2,1(zero) # 1 <_start-0x21fff>
     286:	0501                	addi	a0,a0,0
     288:	0308                	addi	a0,sp,384
     28a:	0901                	addi	s2,s2,0
     28c:	0020                	addi	s0,sp,8
     28e:	0501                	addi	a0,a0,0
     290:	0310                	addi	a2,sp,384
     292:	0901                	addi	s2,s2,0
     294:	0008                	0x8
     296:	0501                	addi	a0,a0,0
     298:	0901030f          	0x901030f
     29c:	0008                	0x8
     29e:	0501                	addi	a0,a0,0
     2a0:	0310                	addi	a2,sp,384
     2a2:	0902                	c.slli64	s2
     2a4:	0008                	0x8
     2a6:	0301                	addi	t1,t1,0
     2a8:	0901                	addi	s2,s2,0
     2aa:	0008                	0x8
     2ac:	0501                	addi	a0,a0,0
     2ae:	0309                	addi	t1,t1,2
     2b0:	0905                	addi	s2,s2,1
     2b2:	0004                	0x4
     2b4:	0501                	addi	a0,a0,0
     2b6:	0302                	c.slli64	t1
     2b8:	0900                	addi	s0,sp,144
     2ba:	0004                	0x4
     2bc:	0501                	addi	a0,a0,0
     2be:	001f 0402 0303      	0x3030402001f
     2c4:	0901                	addi	s2,s2,0
     2c6:	0004                	0x4
     2c8:	0501                	addi	a0,a0,0
     2ca:	002d                	c.nop	11
     2cc:	0402                	c.slli64	s0
     2ce:	09000303          	lb	t1,144(zero) # 90 <_start-0x21f70>
     2d2:	0008                	0x8
     2d4:	0501                	addi	a0,a0,0
     2d6:	04020027          	vsuxei8.v	v0,(tp),v0,v0.t
     2da:	09000303          	lb	t1,144(zero) # 90 <_start-0x21f70>
     2de:	000c                	0xc
     2e0:	0501                	addi	a0,a0,0
     2e2:	0008                	0x8
     2e4:	0402                	c.slli64	s0
     2e6:	09000303          	lb	t1,144(zero) # 90 <_start-0x21f70>
     2ea:	0004                	0x4
     2ec:	0501                	addi	a0,a0,0
     2ee:	0016                	c.slli	zero,0x5
     2f0:	0402                	c.slli64	s0
     2f2:	097f0303          	lb	t1,151(t5)
     2f6:	000c                	0xc
     2f8:	0501                	addi	a0,a0,0
     2fa:	0002                	c.slli64	zero
     2fc:	0402                	c.slli64	s0
     2fe:	0301                	addi	t1,t1,0
     300:	0900                	addi	s0,sp,144
     302:	000c                	0xc
     304:	0501                	addi	a0,a0,0
     306:	09040317          	auipc	t1,0x9040
     30a:	0010                	0x10
     30c:	0501                	addi	a0,a0,0
     30e:	030e                	slli	t1,t1,0x3
     310:	0900                	addi	s0,sp,144
     312:	0008                	0x8
     314:	0501                	addi	a0,a0,0
     316:	0305                	addi	t1,t1,1
     318:	0900                	addi	s0,sp,144
     31a:	0008                	0x8
     31c:	0501                	addi	a0,a0,0
     31e:	0901031b          	addiw	t1,sp,144
     322:	0004                	0x4
     324:	0501                	addi	a0,a0,0
     326:	0308                	addi	a0,sp,384
     328:	0900                	addi	s0,sp,144
     32a:	0008                	0x8
     32c:	0301                	addi	t1,t1,0
     32e:	0901                	addi	s2,s2,0
     330:	000c                	0xc
     332:	0501                	addi	a0,a0,0
     334:	09010303          	lb	t1,144(sp)
     338:	0010                	0x10
     33a:	0501                	addi	a0,a0,0
     33c:	0305                	addi	t1,t1,1
     33e:	0901                	addi	s2,s2,0
     340:	0014                	0x14
     342:	0501                	addi	a0,a0,0
     344:	0308                	addi	a0,sp,384
     346:	0901                	addi	s2,s2,0
     348:	0010                	0x10
     34a:	0501                	addi	a0,a0,0
     34c:	0305                	addi	t1,t1,1
     34e:	0904                	addi	s1,sp,144
     350:	0010                	0x10
     352:	0501                	addi	a0,a0,0
     354:	030c                	addi	a1,sp,384
     356:	0901                	addi	s2,s2,0
     358:	000c                	0xc
     35a:	0501                	addi	a0,a0,0
     35c:	0305                	addi	t1,t1,1
     35e:	0900                	addi	s0,sp,144
     360:	000c                	0xc
     362:	0501                	addi	a0,a0,0
     364:	0308                	addi	a0,sp,384
     366:	0901                	addi	s2,s2,0
     368:	0004                	0x4
     36a:	0501                	addi	a0,a0,0
     36c:	09020323          	sb	a6,134(tp) # 86 <_start-0x21f7a>
     370:	0010                	0x10
     372:	0501                	addi	a0,a0,0
     374:	09000303          	lb	t1,144(zero) # 90 <_start-0x21f70>
     378:	000c                	0xc
     37a:	0501                	addi	a0,a0,0
     37c:	0306                	slli	t1,t1,0x1
     37e:	0902                	c.slli64	s2
     380:	0010                	0x10
     382:	0501                	addi	a0,a0,0
     384:	031a                	slli	t1,t1,0x6
     386:	0901                	addi	s2,s2,0
     388:	0008                	0x8
     38a:	0501                	addi	a0,a0,0
     38c:	0316                	slli	t1,t1,0x5
     38e:	0900                	addi	s0,sp,144
     390:	0010                	0x10
     392:	0501                	addi	a0,a0,0
     394:	0304                	addi	s1,sp,384
     396:	0900                	addi	s0,sp,144
     398:	0008                	0x8
     39a:	0501                	addi	a0,a0,0
     39c:	0309                	addi	t1,t1,2
     39e:	00140903          	lb	s2,1(s0)
     3a2:	0501                	addi	a0,a0,0
     3a4:	0301                	addi	t1,t1,0
     3a6:	0901                	addi	s2,s2,0
     3a8:	0004                	0x4
     3aa:	0301                	addi	t1,t1,0
     3ac:	00140903          	lb	s2,1(s0)
     3b0:	0501                	addi	a0,a0,0
     3b2:	0309                	addi	t1,t1,2
     3b4:	0901                	addi	s2,s2,0
     3b6:	0020                	addi	s0,sp,8
     3b8:	0501                	addi	a0,a0,0
     3ba:	0301                	addi	t1,t1,0
     3bc:	0901                	addi	s2,s2,0
     3be:	0018                	0x18
     3c0:	0901                	addi	s2,s2,0
     3c2:	0014                	0x14
     3c4:	0100                	addi	s0,sp,128
     3c6:	6f01                	0x6f01
     3c8:	0004                	0x4
     3ca:	0300                	addi	s0,sp,384
     3cc:	4d00                	lw	s0,24(a0)
     3ce:	0000                	unimp
     3d0:	0100                	addi	s0,sp,128
     3d2:	fb01                	bnez	a4,2e2 <_start-0x21d1e>
     3d4:	0d0e                	slli	s10,s10,0x3
     3d6:	0100                	addi	s0,sp,128
     3d8:	0101                	addi	sp,sp,0
     3da:	0001                	nop
     3dc:	0000                	unimp
     3de:	0001                	nop
     3e0:	0100                	addi	s0,sp,128
     3e2:	6e69                	lui	t3,0x1a
     3e4:	64756c63          	bltu	a0,t2,a3c <_start-0x215c4>
     3e8:	0065                	c.nop	25
     3ea:	00637273          	csrrci	tp,0x6,6
     3ee:	6900                	ld	s0,16(a0)
     3f0:	00682e6f          	jal	t3,823f6 <bss_begin+0x5d3f6>
     3f4:	0001                	nop
     3f6:	7300                	ld	s0,32(a4)
     3f8:	7379                	lui	t1,0xffffe
     3fa:	632d                	lui	t1,0xb
     3fc:	6f6c                	ld	a1,216(a4)
     3fe:	632e6b63          	bltu	t3,s2,a34 <_start-0x215cc>
     402:	0200                	addi	s0,sp,256
     404:	0000                	unimp
     406:	7974                	ld	a3,240(a0)
     408:	6570                	ld	a2,200(a0)
     40a:	00682e73          	csrrs	t3,0x6,a6
     40e:	0001                	nop
     410:	7300                	ld	s0,32(a4)
     412:	6474                	ld	a3,200(s0)
     414:	6e69                	lui	t3,0x1a
     416:	2e74                	fld	fa3,216(a2)
     418:	0068                	addi	a0,sp,12
     41a:	0001                	nop
     41c:	0000                	unimp
     41e:	0105                	addi	sp,sp,1
     420:	0900                	addi	s0,sp,144
     422:	d402                	sw	zero,40(sp)
     424:	0224                	addi	s1,sp,264
     426:	0000                	unimp
     428:	0000                	unimp
     42a:	0300                	addi	s0,sp,384
     42c:	0114                	addi	a3,sp,128
     42e:	0c05                	addi	s8,s8,1
     430:	10090103          	lb	sp,256(s2)
     434:	0100                	addi	s0,sp,128
     436:	0a05                	addi	s4,s4,1
     438:	04090003          	lb	zero,64(s2)
     43c:	0100                	addi	s0,sp,128
     43e:	0105                	addi	sp,sp,1
     440:	08090103          	lb	sp,128(s2)
     444:	0100                	addi	s0,sp,128
     446:	10091203          	lh	tp,256(s2)
     44a:	0100                	addi	s0,sp,128
     44c:	0405                	addi	s0,s0,1
     44e:	18090103          	lb	sp,384(s2)
     452:	0100                	addi	s0,sp,128
     454:	1e05                	addi	t3,t3,-31
     456:	04090003          	lb	zero,64(s2)
     45a:	0100                	addi	s0,sp,128
     45c:	0105                	addi	sp,sp,1
     45e:	08090103          	lb	sp,128(s2)
     462:	0100                	addi	s0,sp,128
     464:	0204                	addi	s1,sp,256
     466:	10097d03          	0x10097d03
     46a:	0100                	addi	s0,sp,128
     46c:	0505                	addi	a0,a0,1
     46e:	10090803          	lb	a6,256(s2)
     472:	0100                	addi	s0,sp,128
     474:	0705                	addi	a4,a4,1
     476:	0c090103          	lb	sp,192(s2)
     47a:	0100                	addi	s0,sp,128
     47c:	0a05                	addi	s4,s4,1
     47e:	0200                	addi	s0,sp,256
     480:	0104                	addi	s1,sp,128
     482:	04090003          	lb	zero,64(s2)
     486:	0100                	addi	s0,sp,128
     488:	0705                	addi	a4,a4,1
     48a:	0200                	addi	s0,sp,256
     48c:	0104                	addi	s1,sp,128
     48e:	0c090003          	lb	zero,192(s2)
     492:	0100                	addi	s0,sp,128
     494:	0105                	addi	sp,sp,1
     496:	04090403          	lb	s0,64(s2)
     49a:	0100                	addi	s0,sp,128
     49c:	14090303          	lb	t1,320(s2)
     4a0:	0100                	addi	s0,sp,128
     4a2:	0205                	addi	tp,tp,1
     4a4:	10090403          	lb	s0,256(s2)
     4a8:	0100                	addi	s0,sp,128
     4aa:	10090103          	lb	sp,256(s2)
     4ae:	0100                	addi	s0,sp,128
     4b0:	0805                	addi	a6,a6,1
     4b2:	08090303          	lb	t1,128(s2)
     4b6:	0100                	addi	s0,sp,128
     4b8:	0605                	addi	a2,a2,1
     4ba:	10090103          	lb	sp,256(s2)
     4be:	0100                	addi	s0,sp,128
     4c0:	0205                	addi	tp,tp,1
     4c2:	14090103          	lb	sp,320(s2)
     4c6:	0100                	addi	s0,sp,128
     4c8:	0805                	addi	a6,a6,1
     4ca:	10090303          	lb	t1,256(s2)
     4ce:	0100                	addi	s0,sp,128
     4d0:	0605                	addi	a2,a2,1
     4d2:	10090103          	lb	sp,256(s2)
     4d6:	0100                	addi	s0,sp,128
     4d8:	0205                	addi	tp,tp,1
     4da:	10090103          	lb	sp,256(s2)
     4de:	0100                	addi	s0,sp,128
     4e0:	10090103          	lb	sp,256(s2)
     4e4:	0100                	addi	s0,sp,128
     4e6:	0805                	addi	a6,a6,1
     4e8:	08090303          	lb	t1,128(s2)
     4ec:	0100                	addi	s0,sp,128
     4ee:	0605                	addi	a2,a2,1
     4f0:	10090103          	lb	sp,256(s2)
     4f4:	0100                	addi	s0,sp,128
     4f6:	14090103          	lb	sp,320(s2)
     4fa:	0100                	addi	s0,sp,128
     4fc:	0205                	addi	tp,tp,1
     4fe:	14090103          	lb	sp,320(s2)
     502:	0100                	addi	s0,sp,128
     504:	0805                	addi	a6,a6,1
     506:	10090303          	lb	t1,256(s2)
     50a:	0100                	addi	s0,sp,128
     50c:	0605                	addi	a2,a2,1
     50e:	10090103          	lb	sp,256(s2)
     512:	0100                	addi	s0,sp,128
     514:	0205                	addi	tp,tp,1
     516:	10090103          	lb	sp,256(s2)
     51a:	0100                	addi	s0,sp,128
     51c:	0805                	addi	a6,a6,1
     51e:	10090303          	lb	t1,256(s2)
     522:	0100                	addi	s0,sp,128
     524:	0605                	addi	a2,a2,1
     526:	10090103          	lb	sp,256(s2)
     52a:	0100                	addi	s0,sp,128
     52c:	0205                	addi	tp,tp,1
     52e:	10090103          	lb	sp,256(s2)
     532:	0100                	addi	s0,sp,128
     534:	0705                	addi	a4,a4,1
     536:	10090303          	lb	t1,256(s2)
     53a:	0100                	addi	s0,sp,128
     53c:	0a05                	addi	s4,s4,1
     53e:	0200                	addi	s0,sp,256
     540:	0104                	addi	s1,sp,128
     542:	04090003          	lb	zero,64(s2)
     546:	0100                	addi	s0,sp,128
     548:	2905                	addiw	s2,s2,1
     54a:	0200                	addi	s0,sp,256
     54c:	0104                	addi	s1,sp,128
     54e:	10090003          	lb	zero,256(s2)
     552:	0100                	addi	s0,sp,128
     554:	0705                	addi	a4,a4,1
     556:	0200                	addi	s0,sp,256
     558:	0104                	addi	s1,sp,128
     55a:	10090003          	lb	zero,256(s2)
     55e:	0100                	addi	s0,sp,128
     560:	0205                	addi	tp,tp,1
     562:	04090103          	lb	sp,64(s2)
     566:	0100                	addi	s0,sp,128
     568:	0805                	addi	a6,a6,1
     56a:	08090303          	lb	t1,128(s2)
     56e:	0100                	addi	s0,sp,128
     570:	0605                	addi	a2,a2,1
     572:	10090103          	lb	sp,256(s2)
     576:	0100                	addi	s0,sp,128
     578:	0205                	addi	tp,tp,1
     57a:	10090103          	lb	sp,256(s2)
     57e:	0100                	addi	s0,sp,128
     580:	0805                	addi	a6,a6,1
     582:	10090303          	lb	t1,256(s2)
     586:	0100                	addi	s0,sp,128
     588:	0605                	addi	a2,a2,1
     58a:	10090103          	lb	sp,256(s2)
     58e:	0100                	addi	s0,sp,128
     590:	0205                	addi	tp,tp,1
     592:	14090103          	lb	sp,320(s2)
     596:	0100                	addi	s0,sp,128
     598:	10090103          	lb	sp,256(s2)
     59c:	0100                	addi	s0,sp,128
     59e:	0805                	addi	a6,a6,1
     5a0:	08090303          	lb	t1,128(s2)
     5a4:	0100                	addi	s0,sp,128
     5a6:	0605                	addi	a2,a2,1
     5a8:	14090103          	lb	sp,320(s2)
     5ac:	0100                	addi	s0,sp,128
     5ae:	14090103          	lb	sp,320(s2)
     5b2:	0100                	addi	s0,sp,128
     5b4:	0205                	addi	tp,tp,1
     5b6:	14090103          	lb	sp,320(s2)
     5ba:	0100                	addi	s0,sp,128
     5bc:	14090103          	lb	sp,320(s2)
     5c0:	0100                	addi	s0,sp,128
     5c2:	0105                	addi	sp,sp,1
     5c4:	08090103          	lb	sp,128(s2)
     5c8:	0100                	addi	s0,sp,128
     5ca:	14090303          	lb	t1,320(s2)
     5ce:	0100                	addi	s0,sp,128
     5d0:	0505                	addi	a0,a0,1
     5d2:	10090403          	lb	s0,256(s2)
     5d6:	0100                	addi	s0,sp,128
     5d8:	0405                	addi	s0,s0,1
     5da:	18090003          	lb	zero,384(s2)
     5de:	0100                	addi	s0,sp,128
     5e0:	0805                	addi	a6,a6,1
     5e2:	04090403          	lb	s0,64(s2)
     5e6:	0100                	addi	s0,sp,128
     5e8:	0605                	addi	a2,a2,1
     5ea:	14090103          	lb	sp,320(s2)
     5ee:	0100                	addi	s0,sp,128
     5f0:	0205                	addi	tp,tp,1
     5f2:	14090103          	lb	sp,320(s2)
     5f6:	0100                	addi	s0,sp,128
     5f8:	14090303          	lb	t1,320(s2)
     5fc:	0100                	addi	s0,sp,128
     5fe:	0805                	addi	a6,a6,1
     600:	14090303          	lb	t1,320(s2)
     604:	0100                	addi	s0,sp,128
     606:	0605                	addi	a2,a2,1
     608:	14090103          	lb	sp,320(s2)
     60c:	0100                	addi	s0,sp,128
     60e:	0205                	addi	tp,tp,1
     610:	10090103          	lb	sp,256(s2)
     614:	0100                	addi	s0,sp,128
     616:	0805                	addi	a6,a6,1
     618:	14090303          	lb	t1,320(s2)
     61c:	0100                	addi	s0,sp,128
     61e:	0605                	addi	a2,a2,1
     620:	14090103          	lb	sp,320(s2)
     624:	0100                	addi	s0,sp,128
     626:	0205                	addi	tp,tp,1
     628:	10090103          	lb	sp,256(s2)
     62c:	0100                	addi	s0,sp,128
     62e:	0705                	addi	a4,a4,1
     630:	14090303          	lb	t1,320(s2)
     634:	0100                	addi	s0,sp,128
     636:	0a05                	addi	s4,s4,1
     638:	0200                	addi	s0,sp,256
     63a:	0104                	addi	s1,sp,128
     63c:	04090003          	lb	zero,64(s2)
     640:	0100                	addi	s0,sp,128
     642:	2905                	addiw	s2,s2,1
     644:	0200                	addi	s0,sp,256
     646:	0104                	addi	s1,sp,128
     648:	14090003          	lb	zero,320(s2)
     64c:	0100                	addi	s0,sp,128
     64e:	0705                	addi	a4,a4,1
     650:	0200                	addi	s0,sp,256
     652:	0104                	addi	s1,sp,128
     654:	10090003          	lb	zero,256(s2)
     658:	0100                	addi	s0,sp,128
     65a:	0205                	addi	tp,tp,1
     65c:	04090103          	lb	sp,64(s2)
     660:	0100                	addi	s0,sp,128
     662:	0805                	addi	a6,a6,1
     664:	08090303          	lb	t1,128(s2)
     668:	0100                	addi	s0,sp,128
     66a:	0605                	addi	a2,a2,1
     66c:	14090103          	lb	sp,320(s2)
     670:	0100                	addi	s0,sp,128
     672:	0205                	addi	tp,tp,1
     674:	14090103          	lb	sp,320(s2)
     678:	0100                	addi	s0,sp,128
     67a:	0305                	addi	t1,t1,1
     67c:	18096503          	lwu	a0,384(s2)
     680:	0100                	addi	s0,sp,128
     682:	0105                	addi	sp,sp,1
     684:	04091c03          	lh	s8,64(s2)
     688:	0100                	addi	s0,sp,128
     68a:	10090303          	lb	t1,256(s2)
     68e:	0100                	addi	s0,sp,128
     690:	0205                	addi	tp,tp,1
     692:	10090103          	lb	sp,256(s2)
     696:	0100                	addi	s0,sp,128
     698:	2205                	addiw	tp,tp,1
     69a:	10090103          	lb	sp,256(s2)
     69e:	0100                	addi	s0,sp,128
     6a0:	0205                	addi	tp,tp,1
     6a2:	14090003          	lb	zero,320(s2)
     6a6:	0100                	addi	s0,sp,128
     6a8:	20090103          	lb	sp,512(s2)
     6ac:	0100                	addi	s0,sp,128
     6ae:	0105                	addi	sp,sp,1
     6b0:	08090103          	lb	sp,128(s2)
     6b4:	0100                	addi	s0,sp,128
     6b6:	14090303          	lb	t1,320(s2)
     6ba:	0100                	addi	s0,sp,128
     6bc:	0205                	addi	tp,tp,1
     6be:	10090103          	lb	sp,256(s2)
     6c2:	0100                	addi	s0,sp,128
     6c4:	3105                	addiw	sp,sp,-31
     6c6:	10090103          	lb	sp,256(s2)
     6ca:	0100                	addi	s0,sp,128
     6cc:	0205                	addi	tp,tp,1
     6ce:	14090003          	lb	zero,320(s2)
     6d2:	0100                	addi	s0,sp,128
     6d4:	20090103          	lb	sp,512(s2)
     6d8:	0100                	addi	s0,sp,128
     6da:	0105                	addi	sp,sp,1
     6dc:	08090103          	lb	sp,128(s2)
     6e0:	0100                	addi	s0,sp,128
     6e2:	14090303          	lb	t1,320(s2)
     6e6:	0100                	addi	s0,sp,128
     6e8:	2205                	addiw	tp,tp,1
     6ea:	10090203          	lb	tp,256(s2)
     6ee:	0100                	addi	s0,sp,128
     6f0:	0205                	addi	tp,tp,1
     6f2:	14090003          	lb	zero,320(s2)
     6f6:	0100                	addi	s0,sp,128
     6f8:	20090103          	lb	sp,512(s2)
     6fc:	0100                	addi	s0,sp,128
     6fe:	2205                	addiw	tp,tp,1
     700:	08090203          	lb	tp,128(s2)
     704:	0100                	addi	s0,sp,128
     706:	0205                	addi	tp,tp,1
     708:	14090003          	lb	zero,320(s2)
     70c:	0100                	addi	s0,sp,128
     70e:	0105                	addi	sp,sp,1
     710:	18090103          	lb	sp,384(s2)
     714:	0100                	addi	s0,sp,128
     716:	14090303          	lb	t1,320(s2)
     71a:	0100                	addi	s0,sp,128
     71c:	0805                	addi	a6,a6,1
     71e:	10090403          	lb	s0,256(s2)
     722:	0100                	addi	s0,sp,128
     724:	0605                	addi	a2,a2,1
     726:	14090103          	lb	sp,320(s2)
     72a:	0100                	addi	s0,sp,128
     72c:	0205                	addi	tp,tp,1
     72e:	10090103          	lb	sp,256(s2)
     732:	0100                	addi	s0,sp,128
     734:	14090103          	lb	sp,320(s2)
     738:	0100                	addi	s0,sp,128
     73a:	0105                	addi	sp,sp,1
     73c:	08090103          	lb	sp,128(s2)
     740:	0100                	addi	s0,sp,128
     742:	14090303          	lb	t1,320(s2)
     746:	0100                	addi	s0,sp,128
     748:	0705                	addi	a4,a4,1
     74a:	14090303          	lb	t1,320(s2)
     74e:	0100                	addi	s0,sp,128
     750:	0505                	addi	a0,a0,1
     752:	10090003          	lb	zero,256(s2)
     756:	0100                	addi	s0,sp,128
     758:	0405                	addi	s0,s0,1
     75a:	04090003          	lb	zero,64(s2)
     75e:	0100                	addi	s0,sp,128
     760:	0905                	addi	s2,s2,1
     762:	04090203          	lb	tp,64(s2)
     766:	0100                	addi	s0,sp,128
     768:	0305                	addi	t1,t1,1
     76a:	10090103          	lb	sp,256(s2)
     76e:	0100                	addi	s0,sp,128
     770:	0905                	addi	s2,s2,1
     772:	1c090303          	lb	t1,448(s2)
     776:	0100                	addi	s0,sp,128
     778:	0705                	addi	a4,a4,1
     77a:	10090103          	lb	sp,256(s2)
     77e:	0100                	addi	s0,sp,128
     780:	0305                	addi	t1,t1,1
     782:	10090103          	lb	sp,256(s2)
     786:	0100                	addi	s0,sp,128
     788:	0805                	addi	a6,a6,1
     78a:	10090303          	lb	t1,256(s2)
     78e:	0100                	addi	s0,sp,128
     790:	0b05                	addi	s6,s6,1
     792:	0200                	addi	s0,sp,256
     794:	0104                	addi	s1,sp,128
     796:	04090003          	lb	zero,64(s2)
     79a:	0100                	addi	s0,sp,128
     79c:	1805                	addi	a6,a6,-31
     79e:	0200                	addi	s0,sp,256
     7a0:	0104                	addi	s1,sp,128
     7a2:	10090003          	lb	zero,256(s2)
     7a6:	0100                	addi	s0,sp,128
     7a8:	0805                	addi	a6,a6,1
     7aa:	0200                	addi	s0,sp,256
     7ac:	0104                	addi	s1,sp,128
     7ae:	10090003          	lb	zero,256(s2)
     7b2:	0100                	addi	s0,sp,128
     7b4:	0305                	addi	t1,t1,1
     7b6:	04090103          	lb	sp,64(s2)
     7ba:	0100                	addi	s0,sp,128
     7bc:	0905                	addi	s2,s2,1
     7be:	08090303          	lb	t1,128(s2)
     7c2:	0100                	addi	s0,sp,128
     7c4:	0705                	addi	a4,a4,1
     7c6:	10090103          	lb	sp,256(s2)
     7ca:	0100                	addi	s0,sp,128
     7cc:	0305                	addi	t1,t1,1
     7ce:	14090103          	lb	sp,320(s2)
     7d2:	0100                	addi	s0,sp,128
     7d4:	0105                	addi	sp,sp,1
     7d6:	10090203          	lb	tp,256(s2)
     7da:	0100                	addi	s0,sp,128
     7dc:	14090303          	lb	t1,320(s2)
     7e0:	0100                	addi	s0,sp,128
     7e2:	0205                	addi	tp,tp,1
     7e4:	10090103          	lb	sp,256(s2)
     7e8:	0100                	addi	s0,sp,128
     7ea:	04090103          	lb	sp,64(s2)
     7ee:	0100                	addi	s0,sp,128
     7f0:	04090103          	lb	sp,64(s2)
     7f4:	0100                	addi	s0,sp,128
     7f6:	04090103          	lb	sp,64(s2)
     7fa:	0100                	addi	s0,sp,128
     7fc:	04090103          	lb	sp,64(s2)
     800:	0100                	addi	s0,sp,128
     802:	04090103          	lb	sp,64(s2)
     806:	0100                	addi	s0,sp,128
     808:	04090103          	lb	sp,64(s2)
     80c:	0100                	addi	s0,sp,128
     80e:	0c090103          	lb	sp,192(s2)
     812:	0100                	addi	s0,sp,128
     814:	0c090103          	lb	sp,192(s2)
     818:	0100                	addi	s0,sp,128
     81a:	0c090103          	lb	sp,192(s2)
     81e:	0100                	addi	s0,sp,128
     820:	0c090103          	lb	sp,192(s2)
     824:	0100                	addi	s0,sp,128
     826:	0c090103          	lb	sp,192(s2)
     82a:	0100                	addi	s0,sp,128
     82c:	0105                	addi	sp,sp,1
     82e:	0c090103          	lb	sp,192(s2)
     832:	0100                	addi	s0,sp,128
     834:	1409                	addi	s0,s0,-30
     836:	0000                	unimp
     838:	0101                	addi	sp,sp,0
     83a:	073c                	addi	a5,sp,904
     83c:	0000                	unimp
     83e:	00580003          	lb	zero,5(a6)
     842:	0000                	unimp
     844:	0101                	addi	sp,sp,0
     846:	000d0efb          	0xd0efb
     84a:	0101                	addi	sp,sp,0
     84c:	0101                	addi	sp,sp,0
     84e:	0000                	unimp
     850:	0100                	addi	s0,sp,128
     852:	0000                	unimp
     854:	6901                	0x6901
     856:	636e                	ld	t1,216(sp)
     858:	756c                	ld	a1,232(a0)
     85a:	6564                	ld	s1,200(a0)
     85c:	7300                	ld	s0,32(a4)
     85e:	6372                	ld	t1,280(sp)
     860:	0000                	unimp
     862:	6f69                	lui	t5,0x1a
     864:	682e                	ld	a6,200(sp)
     866:	0100                	addi	s0,sp,128
     868:	0000                	unimp
     86a:	2d737973          	csrrci	s2,0x2d7,6
     86e:	6175                	addi	sp,sp,368
     870:	7472                	ld	s0,312(sp)
     872:	632e                	ld	t1,200(sp)
     874:	0200                	addi	s0,sp,256
     876:	0000                	unimp
     878:	7974                	ld	a3,240(a0)
     87a:	6570                	ld	a2,200(a0)
     87c:	00682e73          	csrrs	t3,0x6,a6
     880:	0001                	nop
     882:	7300                	ld	s0,32(a4)
     884:	6474                	ld	a3,200(s0)
     886:	7261                	lui	tp,0xffff8
     888:	00682e67          	0x682e67
     88c:	0001                	nop
     88e:	7300                	ld	s0,32(a4)
     890:	6474                	ld	a3,200(s0)
     892:	6e69                	lui	t3,0x1a
     894:	2e74                	fld	fa3,216(a2)
     896:	0068                	addi	a0,sp,12
     898:	0001                	nop
     89a:	0000                	unimp
     89c:	0105                	addi	sp,sp,1
     89e:	0900                	addi	s0,sp,144
     8a0:	8402                	jr	s0
     8a2:	022c                	addi	a1,sp,264
     8a4:	0000                	unimp
     8a6:	0000                	unimp
     8a8:	0300                	addi	s0,sp,384
     8aa:	010a                	slli	sp,sp,0x2
     8ac:	0c05                	addi	s8,s8,1
     8ae:	10090103          	lb	sp,256(s2)
     8b2:	0100                	addi	s0,sp,128
     8b4:	0a05                	addi	s4,s4,1
     8b6:	04090003          	lb	zero,64(s2)
     8ba:	0100                	addi	s0,sp,128
     8bc:	0105                	addi	sp,sp,1
     8be:	08090103          	lb	sp,128(s2)
     8c2:	0100                	addi	s0,sp,128
     8c4:	10090803          	lb	a6,256(s2)
     8c8:	0100                	addi	s0,sp,128
     8ca:	0c05                	addi	s8,s8,1
     8cc:	10090103          	lb	sp,256(s2)
     8d0:	0100                	addi	s0,sp,128
     8d2:	0a05                	addi	s4,s4,1
     8d4:	04090003          	lb	zero,64(s2)
     8d8:	0100                	addi	s0,sp,128
     8da:	0105                	addi	sp,sp,1
     8dc:	08090103          	lb	sp,128(s2)
     8e0:	0100                	addi	s0,sp,128
     8e2:	10091203          	lh	tp,256(s2)
     8e6:	0100                	addi	s0,sp,128
     8e8:	0405                	addi	s0,s0,1
     8ea:	18090103          	lb	sp,384(s2)
     8ee:	0100                	addi	s0,sp,128
     8f0:	1e05                	addi	t3,t3,-31
     8f2:	04090003          	lb	zero,64(s2)
     8f6:	0100                	addi	s0,sp,128
     8f8:	0105                	addi	sp,sp,1
     8fa:	08090103          	lb	sp,128(s2)
     8fe:	0100                	addi	s0,sp,128
     900:	0204                	addi	s1,sp,256
     902:	10097503          	0x10097503
     906:	0100                	addi	s0,sp,128
     908:	0e05                	addi	t3,t3,1
     90a:	10091103          	lh	sp,256(s2)
     90e:	0100                	addi	s0,sp,128
     910:	0f05                	addi	t5,t5,1
     912:	0c090103          	lb	sp,192(s2)
     916:	0100                	addi	s0,sp,128
     918:	0d05                	addi	s10,s10,1
     91a:	10090103          	lb	sp,256(s2)
     91e:	0100                	addi	s0,sp,128
     920:	14090103          	lb	sp,320(s2)
     924:	0100                	addi	s0,sp,128
     926:	0905                	addi	s2,s2,1
     928:	0c090103          	lb	sp,192(s2)
     92c:	0100                	addi	s0,sp,128
     92e:	0f05                	addi	t5,t5,1
     930:	10090203          	lb	tp,256(s2)
     934:	0100                	addi	s0,sp,128
     936:	0d05                	addi	s10,s10,1
     938:	10090103          	lb	sp,256(s2)
     93c:	0100                	addi	s0,sp,128
     93e:	14090103          	lb	sp,320(s2)
     942:	0100                	addi	s0,sp,128
     944:	0905                	addi	s2,s2,1
     946:	10090103          	lb	sp,256(s2)
     94a:	0100                	addi	s0,sp,128
     94c:	0705                	addi	a4,a4,1
     94e:	10090303          	lb	t1,256(s2)
     952:	0100                	addi	s0,sp,128
     954:	0805                	addi	a6,a6,1
     956:	0c090103          	lb	sp,192(s2)
     95a:	0100                	addi	s0,sp,128
     95c:	0605                	addi	a2,a2,1
     95e:	10090103          	lb	sp,256(s2)
     962:	0100                	addi	s0,sp,128
     964:	0205                	addi	tp,tp,1
     966:	0c090103          	lb	sp,192(s2)
     96a:	0100                	addi	s0,sp,128
     96c:	0705                	addi	a4,a4,1
     96e:	10090303          	lb	t1,256(s2)
     972:	0100                	addi	s0,sp,128
     974:	0805                	addi	a6,a6,1
     976:	0c090103          	lb	sp,192(s2)
     97a:	0100                	addi	s0,sp,128
     97c:	0605                	addi	a2,a2,1
     97e:	10090103          	lb	sp,256(s2)
     982:	0100                	addi	s0,sp,128
     984:	0205                	addi	tp,tp,1
     986:	10090103          	lb	sp,256(s2)
     98a:	0100                	addi	s0,sp,128
     98c:	0705                	addi	a4,a4,1
     98e:	10090303          	lb	t1,256(s2)
     992:	0100                	addi	s0,sp,128
     994:	0205                	addi	tp,tp,1
     996:	08090103          	lb	sp,128(s2)
     99a:	0100                	addi	s0,sp,128
     99c:	14090103          	lb	sp,320(s2)
     9a0:	0100                	addi	s0,sp,128
     9a2:	14090203          	lb	tp,320(s2)
     9a6:	0100                	addi	s0,sp,128
     9a8:	0805                	addi	a6,a6,1
     9aa:	14090103          	lb	sp,320(s2)
     9ae:	0100                	addi	s0,sp,128
     9b0:	0605                	addi	a2,a2,1
     9b2:	18090103          	lb	sp,384(s2)
     9b6:	0100                	addi	s0,sp,128
     9b8:	0205                	addi	tp,tp,1
     9ba:	0c090103          	lb	sp,192(s2)
     9be:	0100                	addi	s0,sp,128
     9c0:	18090103          	lb	sp,384(s2)
     9c4:	0100                	addi	s0,sp,128
     9c6:	0c090103          	lb	sp,192(s2)
     9ca:	0100                	addi	s0,sp,128
     9cc:	0805                	addi	a6,a6,1
     9ce:	14090103          	lb	sp,320(s2)
     9d2:	0100                	addi	s0,sp,128
     9d4:	0605                	addi	a2,a2,1
     9d6:	18090103          	lb	sp,384(s2)
     9da:	0100                	addi	s0,sp,128
     9dc:	0205                	addi	tp,tp,1
     9de:	0c090103          	lb	sp,192(s2)
     9e2:	0100                	addi	s0,sp,128
     9e4:	0805                	addi	a6,a6,1
     9e6:	18090103          	lb	sp,384(s2)
     9ea:	0100                	addi	s0,sp,128
     9ec:	0605                	addi	a2,a2,1
     9ee:	18090103          	lb	sp,384(s2)
     9f2:	0100                	addi	s0,sp,128
     9f4:	0c090103          	lb	sp,192(s2)
     9f8:	0100                	addi	s0,sp,128
     9fa:	0205                	addi	tp,tp,1
     9fc:	0c090103          	lb	sp,192(s2)
     a00:	0100                	addi	s0,sp,128
     a02:	0105                	addi	sp,sp,1
     a04:	18090103          	lb	sp,384(s2)
     a08:	0100                	addi	s0,sp,128
     a0a:	14090303          	lb	t1,320(s2)
     a0e:	0100                	addi	s0,sp,128
     a10:	1105                	addi	sp,sp,-31
     a12:	18090103          	lb	sp,384(s2)
     a16:	0100                	addi	s0,sp,128
     a18:	0705                	addi	a4,a4,1
     a1a:	08090203          	lb	tp,128(s2)
     a1e:	0100                	addi	s0,sp,128
     a20:	0905                	addi	s2,s2,1
     a22:	0200                	addi	s0,sp,256
     a24:	0104                	addi	s1,sp,128
     a26:	04090003          	lb	zero,64(s2)
     a2a:	0100                	addi	s0,sp,128
     a2c:	1d05                	addi	s10,s10,-31
     a2e:	0200                	addi	s0,sp,256
     a30:	0104                	addi	s1,sp,128
     a32:	18090003          	lb	zero,384(s2)
     a36:	0100                	addi	s0,sp,128
     a38:	0705                	addi	a4,a4,1
     a3a:	0200                	addi	s0,sp,256
     a3c:	0104                	addi	s1,sp,128
     a3e:	08090003          	lb	zero,128(s2)
     a42:	0100                	addi	s0,sp,128
     a44:	0205                	addi	tp,tp,1
     a46:	04090103          	lb	sp,64(s2)
     a4a:	0100                	addi	s0,sp,128
     a4c:	0105                	addi	sp,sp,1
     a4e:	14090103          	lb	sp,320(s2)
     a52:	0100                	addi	s0,sp,128
     a54:	14090303          	lb	t1,320(s2)
     a58:	0100                	addi	s0,sp,128
     a5a:	0205                	addi	tp,tp,1
     a5c:	18090103          	lb	sp,384(s2)
     a60:	0100                	addi	s0,sp,128
     a62:	0905                	addi	s2,s2,1
     a64:	10090103          	lb	sp,256(s2)
     a68:	0100                	addi	s0,sp,128
     a6a:	0105                	addi	sp,sp,1
     a6c:	04090103          	lb	sp,64(s2)
     a70:	0100                	addi	s0,sp,128
     a72:	14090303          	lb	t1,320(s2)
     a76:	0100                	addi	s0,sp,128
     a78:	1105                	addi	sp,sp,-31
     a7a:	10090103          	lb	sp,256(s2)
     a7e:	0100                	addi	s0,sp,128
     a80:	0705                	addi	a4,a4,1
     a82:	08090203          	lb	tp,128(s2)
     a86:	0100                	addi	s0,sp,128
     a88:	0905                	addi	s2,s2,1
     a8a:	0200                	addi	s0,sp,256
     a8c:	0104                	addi	s1,sp,128
     a8e:	04090003          	lb	zero,64(s2)
     a92:	0100                	addi	s0,sp,128
     a94:	1d05                	addi	s10,s10,-31
     a96:	0200                	addi	s0,sp,256
     a98:	0104                	addi	s1,sp,128
     a9a:	18090003          	lb	zero,384(s2)
     a9e:	0100                	addi	s0,sp,128
     aa0:	0705                	addi	a4,a4,1
     aa2:	0200                	addi	s0,sp,256
     aa4:	0104                	addi	s1,sp,128
     aa6:	08090003          	lb	zero,128(s2)
     aaa:	0100                	addi	s0,sp,128
     aac:	0905                	addi	s2,s2,1
     aae:	04090103          	lb	sp,64(s2)
     ab2:	0100                	addi	s0,sp,128
     ab4:	0105                	addi	sp,sp,1
     ab6:	0c090103          	lb	sp,192(s2)
     aba:	0100                	addi	s0,sp,128
     abc:	14090303          	lb	t1,320(s2)
     ac0:	0100                	addi	s0,sp,128
     ac2:	0c05                	addi	s8,s8,1
     ac4:	14090303          	lb	t1,320(s2)
     ac8:	0100                	addi	s0,sp,128
     aca:	0505                	addi	a0,a0,1
     acc:	04090003          	lb	zero,64(s2)
     ad0:	0100                	addi	s0,sp,128
     ad2:	1005                	c.nop	-31
     ad4:	04090203          	lb	tp,64(s2)
     ad8:	0100                	addi	s0,sp,128
     ada:	0c05                	addi	s8,s8,1
     adc:	10090003          	lb	zero,256(s2)
     ae0:	0100                	addi	s0,sp,128
     ae2:	0d05                	addi	s10,s10,1
     ae4:	0c090103          	lb	sp,192(s2)
     ae8:	0100                	addi	s0,sp,128
     aea:	1d05                	addi	s10,s10,-31
     aec:	0200                	addi	s0,sp,256
     aee:	0204                	addi	s1,sp,256
     af0:	08090103          	lb	sp,128(s2)
     af4:	0100                	addi	s0,sp,128
     af6:	0905                	addi	s2,s2,1
     af8:	0200                	addi	s0,sp,256
     afa:	0204                	addi	s1,sp,256
     afc:	0c090003          	lb	zero,192(s2)
     b00:	0100                	addi	s0,sp,128
     b02:	2205                	addiw	tp,tp,1
     b04:	0200                	addi	s0,sp,256
     b06:	0204                	addi	s1,sp,256
     b08:	0c097c03          	0xc097c03
     b0c:	0100                	addi	s0,sp,128
     b0e:	1405                	addi	s0,s0,-31
     b10:	0200                	addi	s0,sp,256
     b12:	0104                	addi	s1,sp,128
     b14:	0c090003          	lb	zero,192(s2)
     b18:	0100                	addi	s0,sp,128
     b1a:	0505                	addi	a0,a0,1
     b1c:	0200                	addi	s0,sp,256
     b1e:	0104                	addi	s1,sp,128
     b20:	10090003          	lb	zero,256(s2)
     b24:	0100                	addi	s0,sp,128
     b26:	0105                	addi	sp,sp,1
     b28:	04090603          	lb	a2,64(s2)
     b2c:	0100                	addi	s0,sp,128
     b2e:	18090303          	lb	t1,384(s2)
     b32:	0100                	addi	s0,sp,128
     b34:	0605                	addi	a2,a2,1
     b36:	14090403          	lb	s0,320(s2)
     b3a:	0100                	addi	s0,sp,128
     b3c:	0805                	addi	a6,a6,1
     b3e:	04090103          	lb	sp,64(s2)
     b42:	0100                	addi	s0,sp,128
     b44:	0205                	addi	tp,tp,1
     b46:	08090003          	lb	zero,128(s2)
     b4a:	0100                	addi	s0,sp,128
     b4c:	0a05                	addi	s4,s4,1
     b4e:	04090203          	lb	tp,64(s2)
     b52:	0100                	addi	s0,sp,128
     b54:	1405                	addi	s0,s0,-31
     b56:	08090003          	lb	zero,128(s2)
     b5a:	0100                	addi	s0,sp,128
     b5c:	1705                	addi	a4,a4,-31
     b5e:	0200                	addi	s0,sp,256
     b60:	0104                	addi	s1,sp,128
     b62:	0c090003          	lb	zero,192(s2)
     b66:	0100                	addi	s0,sp,128
     b68:	1405                	addi	s0,s0,-31
     b6a:	0200                	addi	s0,sp,256
     b6c:	0104                	addi	s1,sp,128
     b6e:	08090003          	lb	zero,128(s2)
     b72:	0100                	addi	s0,sp,128
     b74:	0200                	addi	s0,sp,256
     b76:	0304                	addi	s1,sp,384
     b78:	0306                	slli	t1,t1,0x1
     b7a:	0900                	addi	s0,sp,144
     b7c:	000c                	0xc
     b7e:	0001                	nop
     b80:	0402                	c.slli64	s0
     b82:	0304                	addi	s1,sp,384
     b84:	0900                	addi	s0,sp,144
     b86:	0008                	0x8
     b88:	0501                	addi	a0,a0,0
     b8a:	04020007          	vluxei8.v	v0,(tp),v0,v0.t
     b8e:	0606                	slli	a2,a2,0x1
     b90:	04090003          	lb	zero,64(s2)
     b94:	0100                	addi	s0,sp,128
     b96:	0505                	addi	a0,a0,1
     b98:	0200                	addi	s0,sp,256
     b9a:	0604                	addi	s1,sp,768
     b9c:	04090103          	lb	sp,64(s2)
     ba0:	0100                	addi	s0,sp,128
     ba2:	0705                	addi	a4,a4,1
     ba4:	0200                	addi	s0,sp,256
     ba6:	0204                	addi	s1,sp,256
     ba8:	0c090203          	lb	tp,192(s2)
     bac:	0100                	addi	s0,sp,128
     bae:	0505                	addi	a0,a0,1
     bb0:	0200                	addi	s0,sp,256
     bb2:	0204                	addi	s1,sp,256
     bb4:	0c090003          	lb	zero,192(s2)
     bb8:	0100                	addi	s0,sp,128
     bba:	0705                	addi	a4,a4,1
     bbc:	0200                	addi	s0,sp,256
     bbe:	0204                	addi	s1,sp,256
     bc0:	08090103          	lb	sp,128(s2)
     bc4:	0100                	addi	s0,sp,128
     bc6:	0200                	addi	s0,sp,256
     bc8:	0204                	addi	s1,sp,256
     bca:	18090103          	lb	sp,384(s2)
     bce:	0100                	addi	s0,sp,128
     bd0:	1e05                	addi	t3,t3,-31
     bd2:	0200                	addi	s0,sp,256
     bd4:	0204                	addi	s1,sp,256
     bd6:	10097903          	0x10097903
     bda:	0100                	addi	s0,sp,128
     bdc:	0f05                	addi	t5,t5,1
     bde:	0200                	addi	s0,sp,256
     be0:	0104                	addi	s1,sp,128
     be2:	0c090003          	lb	zero,192(s2)
     be6:	0100                	addi	s0,sp,128
     be8:	0205                	addi	tp,tp,1
     bea:	0200                	addi	s0,sp,256
     bec:	0104                	addi	s1,sp,128
     bee:	08090003          	lb	zero,128(s2)
     bf2:	0100                	addi	s0,sp,128
     bf4:	0405                	addi	s0,s0,1
     bf6:	08090403          	lb	s0,128(s2)
     bfa:	0100                	addi	s0,sp,128
     bfc:	0705                	addi	a4,a4,1
     bfe:	04090503          	lb	a0,64(s2)
     c02:	0100                	addi	s0,sp,128
     c04:	1205                	addi	tp,tp,-31
     c06:	0c090103          	lb	sp,192(s2)
     c0a:	0100                	addi	s0,sp,128
     c0c:	0a05                	addi	s4,s4,1
     c0e:	0c090003          	lb	zero,192(s2)
     c12:	0100                	addi	s0,sp,128
     c14:	0105                	addi	sp,sp,1
     c16:	04090103          	lb	sp,64(s2)
     c1a:	0100                	addi	s0,sp,128
     c1c:	10090303          	lb	t1,256(s2)
     c20:	0100                	addi	s0,sp,128
     c22:	0805                	addi	a6,a6,1
     c24:	34090503          	lb	a0,832(s2)
     c28:	0100                	addi	s0,sp,128
     c2a:	0205                	addi	tp,tp,1
     c2c:	04090003          	lb	zero,64(s2)
     c30:	0100                	addi	s0,sp,128
     c32:	0a05                	addi	s4,s4,1
     c34:	0200                	addi	s0,sp,256
     c36:	0304                	addi	s1,sp,384
     c38:	04090103          	lb	sp,64(s2)
     c3c:	0100                	addi	s0,sp,128
     c3e:	1f05                	addi	t5,t5,-31
     c40:	0200                	addi	s0,sp,256
     c42:	0304                	addi	s1,sp,384
     c44:	18097f03          	0x18097f03
     c48:	0100                	addi	s0,sp,128
     c4a:	0f05                	addi	t5,t5,1
     c4c:	0200                	addi	s0,sp,256
     c4e:	0104                	addi	s1,sp,128
     c50:	0c090003          	lb	zero,192(s2)
     c54:	0100                	addi	s0,sp,128
     c56:	0205                	addi	tp,tp,1
     c58:	0200                	addi	s0,sp,256
     c5a:	0104                	addi	s1,sp,128
     c5c:	04090003          	lb	zero,64(s2)
     c60:	0100                	addi	s0,sp,128
     c62:	0705                	addi	a4,a4,1
     c64:	0c090203          	lb	tp,192(s2)
     c68:	0100                	addi	s0,sp,128
     c6a:	0405                	addi	s0,s0,1
     c6c:	08090103          	lb	sp,128(s2)
     c70:	0100                	addi	s0,sp,128
     c72:	0805                	addi	a6,a6,1
     c74:	0c090103          	lb	sp,192(s2)
     c78:	0100                	addi	s0,sp,128
     c7a:	0605                	addi	a2,a2,1
     c7c:	08090203          	lb	tp,128(s2)
     c80:	0100                	addi	s0,sp,128
     c82:	0905                	addi	s2,s2,1
     c84:	04090203          	lb	tp,64(s2)
     c88:	0100                	addi	s0,sp,128
     c8a:	0505                	addi	a0,a0,1
     c8c:	10090003          	lb	zero,256(s2)
     c90:	0100                	addi	s0,sp,128
     c92:	04090103          	lb	sp,64(s2)
     c96:	0100                	addi	s0,sp,128
     c98:	1605                	addi	a2,a2,-31
     c9a:	10090103          	lb	sp,256(s2)
     c9e:	0100                	addi	s0,sp,128
     ca0:	0d05                	addi	s10,s10,1
     ca2:	10090003          	lb	zero,256(s2)
     ca6:	0100                	addi	s0,sp,128
     ca8:	1105                	addi	sp,sp,-31
     caa:	14090203          	lb	tp,320(s2)
     cae:	0100                	addi	s0,sp,128
     cb0:	0d05                	addi	s10,s10,1
     cb2:	10090003          	lb	zero,256(s2)
     cb6:	0100                	addi	s0,sp,128
     cb8:	0505                	addi	a0,a0,1
     cba:	10090103          	lb	sp,256(s2)
     cbe:	0100                	addi	s0,sp,128
     cc0:	0605                	addi	a2,a2,1
     cc2:	10090103          	lb	sp,256(s2)
     cc6:	0100                	addi	s0,sp,128
     cc8:	0205                	addi	tp,tp,1
     cca:	0c090103          	lb	sp,192(s2)
     cce:	0100                	addi	s0,sp,128
     cd0:	0405                	addi	s0,s0,1
     cd2:	0c090203          	lb	tp,192(s2)
     cd6:	0100                	addi	s0,sp,128
     cd8:	0905                	addi	s2,s2,1
     cda:	0c090203          	lb	tp,192(s2)
     cde:	0100                	addi	s0,sp,128
     ce0:	0505                	addi	a0,a0,1
     ce2:	04090003          	lb	zero,64(s2)
     ce6:	0100                	addi	s0,sp,128
     ce8:	0705                	addi	a4,a4,1
     cea:	0c090103          	lb	sp,192(s2)
     cee:	0100                	addi	s0,sp,128
     cf0:	0505                	addi	a0,a0,1
     cf2:	08090103          	lb	sp,128(s2)
     cf6:	0100                	addi	s0,sp,128
     cf8:	0805                	addi	a6,a6,1
     cfa:	14090103          	lb	sp,320(s2)
     cfe:	0100                	addi	s0,sp,128
     d00:	0b05                	addi	s6,s6,1
     d02:	08090203          	lb	tp,128(s2)
     d06:	0100                	addi	s0,sp,128
     d08:	0805                	addi	a6,a6,1
     d0a:	10090203          	lb	tp,256(s2)
     d0e:	0100                	addi	s0,sp,128
     d10:	0205                	addi	tp,tp,1
     d12:	0c090003          	lb	zero,192(s2)
     d16:	0100                	addi	s0,sp,128
     d18:	0305                	addi	t1,t1,1
     d1a:	0200                	addi	s0,sp,256
     d1c:	0304                	addi	s1,sp,384
     d1e:	04090103          	lb	sp,64(s2)
     d22:	0100                	addi	s0,sp,128
     d24:	1c05                	addi	s8,s8,-31
     d26:	0200                	addi	s0,sp,256
     d28:	0304                	addi	s1,sp,384
     d2a:	18097f03          	0x18097f03
     d2e:	0100                	addi	s0,sp,128
     d30:	0205                	addi	tp,tp,1
     d32:	0200                	addi	s0,sp,256
     d34:	0104                	addi	s1,sp,128
     d36:	0c090003          	lb	zero,192(s2)
     d3a:	0100                	addi	s0,sp,128
     d3c:	0105                	addi	sp,sp,1
     d3e:	0c090203          	lb	tp,192(s2)
     d42:	0100                	addi	s0,sp,128
     d44:	18090303          	lb	t1,384(s2)
     d48:	0100                	addi	s0,sp,128
     d4a:	0505                	addi	a0,a0,1
     d4c:	18090503          	lb	a0,384(s2)
     d50:	0100                	addi	s0,sp,128
     d52:	0805                	addi	a6,a6,1
     d54:	08090103          	lb	sp,128(s2)
     d58:	0100                	addi	s0,sp,128
     d5a:	0205                	addi	tp,tp,1
     d5c:	08090003          	lb	zero,128(s2)
     d60:	0100                	addi	s0,sp,128
     d62:	0505                	addi	a0,a0,1
     d64:	04090203          	lb	tp,64(s2)
     d68:	0100                	addi	s0,sp,128
     d6a:	0605                	addi	a2,a2,1
     d6c:	04090103          	lb	sp,64(s2)
     d70:	0100                	addi	s0,sp,128
     d72:	0705                	addi	a4,a4,1
     d74:	04090103          	lb	sp,64(s2)
     d78:	0100                	addi	s0,sp,128
     d7a:	0505                	addi	a0,a0,1
     d7c:	08090003          	lb	zero,128(s2)
     d80:	0100                	addi	s0,sp,128
     d82:	04090103          	lb	sp,64(s2)
     d86:	0100                	addi	s0,sp,128
     d88:	0605                	addi	a2,a2,1
     d8a:	08090103          	lb	sp,128(s2)
     d8e:	0100                	addi	s0,sp,128
     d90:	0505                	addi	a0,a0,1
     d92:	08090003          	lb	zero,128(s2)
     d96:	0100                	addi	s0,sp,128
     d98:	0605                	addi	a2,a2,1
     d9a:	0c090203          	lb	tp,192(s2)
     d9e:	0100                	addi	s0,sp,128
     da0:	0505                	addi	a0,a0,1
     da2:	08090103          	lb	sp,128(s2)
     da6:	0100                	addi	s0,sp,128
     da8:	0705                	addi	a4,a4,1
     daa:	0c090103          	lb	sp,192(s2)
     dae:	0100                	addi	s0,sp,128
     db0:	0605                	addi	a2,a2,1
     db2:	08090003          	lb	zero,128(s2)
     db6:	0100                	addi	s0,sp,128
     db8:	1405                	addi	s0,s0,-31
     dba:	0200                	addi	s0,sp,256
     dbc:	0104                	addi	s1,sp,128
     dbe:	0c090003          	lb	zero,192(s2)
     dc2:	0100                	addi	s0,sp,128
     dc4:	1105                	addi	sp,sp,-31
     dc6:	0200                	addi	s0,sp,256
     dc8:	0104                	addi	s1,sp,128
     dca:	08090003          	lb	zero,128(s2)
     dce:	0100                	addi	s0,sp,128
     dd0:	0a05                	addi	s4,s4,1
     dd2:	0c090103          	lb	sp,192(s2)
     dd6:	0100                	addi	s0,sp,128
     dd8:	0705                	addi	a4,a4,1
     dda:	18090003          	lb	zero,384(s2)
     dde:	0100                	addi	s0,sp,128
     de0:	0805                	addi	a6,a6,1
     de2:	0c090103          	lb	sp,192(s2)
     de6:	0100                	addi	s0,sp,128
     de8:	0605                	addi	a2,a2,1
     dea:	08090003          	lb	zero,128(s2)
     dee:	0100                	addi	s0,sp,128
     df0:	0505                	addi	a0,a0,1
     df2:	04090203          	lb	tp,64(s2)
     df6:	0100                	addi	s0,sp,128
     df8:	1105                	addi	sp,sp,-31
     dfa:	0200                	addi	s0,sp,256
     dfc:	0104                	addi	s1,sp,128
     dfe:	10090003          	lb	zero,256(s2)
     e02:	0100                	addi	s0,sp,128
     e04:	0805                	addi	a6,a6,1
     e06:	10090203          	lb	tp,256(s2)
     e0a:	0100                	addi	s0,sp,128
     e0c:	0405                	addi	s0,s0,1
     e0e:	14090103          	lb	sp,320(s2)
     e12:	0100                	addi	s0,sp,128
     e14:	0a05                	addi	s4,s4,1
     e16:	38090403          	lb	s0,896(s2)
     e1a:	0100                	addi	s0,sp,128
     e1c:	0405                	addi	s0,s0,1
     e1e:	04090003          	lb	zero,64(s2)
     e22:	0100                	addi	s0,sp,128
     e24:	1005                	c.nop	-31
     e26:	0200                	addi	s0,sp,256
     e28:	0304                	addi	s1,sp,384
     e2a:	04090103          	lb	sp,64(s2)
     e2e:	0100                	addi	s0,sp,128
     e30:	0505                	addi	a0,a0,1
     e32:	0200                	addi	s0,sp,256
     e34:	0304                	addi	s1,sp,384
     e36:	0c090003          	lb	zero,192(s2)
     e3a:	0100                	addi	s0,sp,128
     e3c:	1d05                	addi	s10,s10,-31
     e3e:	0200                	addi	s0,sp,256
     e40:	0304                	addi	s1,sp,384
     e42:	0c097f03          	0xc097f03
     e46:	0100                	addi	s0,sp,128
     e48:	1105                	addi	sp,sp,-31
     e4a:	0200                	addi	s0,sp,256
     e4c:	0104                	addi	s1,sp,128
     e4e:	0c090003          	lb	zero,192(s2)
     e52:	0100                	addi	s0,sp,128
     e54:	1605                	addi	a2,a2,-31
     e56:	0200                	addi	s0,sp,256
     e58:	0104                	addi	s1,sp,128
     e5a:	04090003          	lb	zero,64(s2)
     e5e:	0100                	addi	s0,sp,128
     e60:	0405                	addi	s0,s0,1
     e62:	0200                	addi	s0,sp,256
     e64:	0104                	addi	s1,sp,128
     e66:	0c090003          	lb	zero,192(s2)
     e6a:	0100                	addi	s0,sp,128
     e6c:	0805                	addi	a6,a6,1
     e6e:	04090203          	lb	tp,64(s2)
     e72:	0100                	addi	s0,sp,128
     e74:	0200                	addi	s0,sp,256
     e76:	0104                	addi	s1,sp,128
     e78:	0306                	slli	t1,t1,0x1
     e7a:	0900                	addi	s0,sp,144
     e7c:	000c                	0xc
     e7e:	0001                	nop
     e80:	0402                	c.slli64	s0
     e82:	0302                	c.slli64	t1
     e84:	0900                	addi	s0,sp,144
     e86:	000c                	0xc
     e88:	0501                	addi	a0,a0,0
     e8a:	0006                	c.slli	zero,0x1
     e8c:	0402                	c.slli64	s0
     e8e:	0604                	addi	s1,sp,768
     e90:	08090003          	lb	zero,128(s2)
     e94:	0100                	addi	s0,sp,128
     e96:	0405                	addi	s0,s0,1
     e98:	0200                	addi	s0,sp,256
     e9a:	0404                	addi	s1,sp,512
     e9c:	04090103          	lb	sp,64(s2)
     ea0:	0100                	addi	s0,sp,128
     ea2:	1c05                	addi	s8,s8,-31
     ea4:	0200                	addi	s0,sp,256
     ea6:	0204                	addi	s1,sp,256
     ea8:	0c096803          	lwu	a6,192(s2)
     eac:	0100                	addi	s0,sp,128
     eae:	0f05                	addi	t5,t5,1
     eb0:	0200                	addi	s0,sp,256
     eb2:	0104                	addi	s1,sp,128
     eb4:	0c090003          	lb	zero,192(s2)
     eb8:	0100                	addi	s0,sp,128
     eba:	0205                	addi	tp,tp,1
     ebc:	0200                	addi	s0,sp,256
     ebe:	0104                	addi	s1,sp,128
     ec0:	08090003          	lb	zero,128(s2)
     ec4:	0100                	addi	s0,sp,128
     ec6:	0905                	addi	s2,s2,1
     ec8:	04091b03          	lh	s6,64(s2)
     ecc:	0100                	addi	s0,sp,128
     ece:	0105                	addi	sp,sp,1
     ed0:	04090103          	lb	sp,64(s2)
     ed4:	0100                	addi	s0,sp,128
     ed6:	14090303          	lb	t1,320(s2)
     eda:	0100                	addi	s0,sp,128
     edc:	0205                	addi	tp,tp,1
     ede:	30090403          	lb	s0,768(s2)
     ee2:	0100                	addi	s0,sp,128
     ee4:	14090103          	lb	sp,320(s2)
     ee8:	0100                	addi	s0,sp,128
     eea:	0905                	addi	s2,s2,1
     eec:	10090303          	lb	t1,256(s2)
     ef0:	0100                	addi	s0,sp,128
     ef2:	0105                	addi	sp,sp,1
     ef4:	04090103          	lb	sp,64(s2)
     ef8:	0100                	addi	s0,sp,128
     efa:	14090403          	lb	s0,320(s2)
     efe:	0100                	addi	s0,sp,128
     f00:	0505                	addi	a0,a0,1
     f02:	18090403          	lb	s0,384(s2)
     f06:	0100                	addi	s0,sp,128
     f08:	08090103          	lb	sp,128(s2)
     f0c:	0100                	addi	s0,sp,128
     f0e:	0c05                	addi	s8,s8,1
     f10:	08090203          	lb	tp,128(s2)
     f14:	0100                	addi	s0,sp,128
     f16:	0505                	addi	a0,a0,1
     f18:	08090003          	lb	zero,128(s2)
     f1c:	0100                	addi	s0,sp,128
     f1e:	1705                	addi	a4,a4,-31
     f20:	04090203          	lb	tp,64(s2)
     f24:	0100                	addi	s0,sp,128
     f26:	1305                	addi	t1,t1,-31
     f28:	0c090003          	lb	zero,192(s2)
     f2c:	0100                	addi	s0,sp,128
     f2e:	1c05                	addi	s8,s8,-31
     f30:	10090003          	lb	zero,256(s2)
     f34:	0100                	addi	s0,sp,128
     f36:	0e05                	addi	t3,t3,1
     f38:	04090003          	lb	zero,64(s2)
     f3c:	0100                	addi	s0,sp,128
     f3e:	0c05                	addi	s8,s8,1
     f40:	08090103          	lb	sp,128(s2)
     f44:	0100                	addi	s0,sp,128
     f46:	0d05                	addi	s10,s10,1
     f48:	10090103          	lb	sp,256(s2)
     f4c:	0100                	addi	s0,sp,128
     f4e:	1c090203          	lb	tp,448(s2)
     f52:	0100                	addi	s0,sp,128
     f54:	1a05                	addi	s4,s4,-31
     f56:	0200                	addi	s0,sp,256
     f58:	0204                	addi	s1,sp,256
     f5a:	18097a03          	0x18097a03
     f5e:	0100                	addi	s0,sp,128
     f60:	0505                	addi	a0,a0,1
     f62:	0200                	addi	s0,sp,256
     f64:	0104                	addi	s1,sp,128
     f66:	0c090003          	lb	zero,192(s2)
     f6a:	0100                	addi	s0,sp,128
     f6c:	0105                	addi	sp,sp,1
     f6e:	0c090803          	lb	a6,192(s2)
     f72:	0100                	addi	s0,sp,128
     f74:	1809                	addi	a6,a6,-30
     f76:	0000                	unimp
     f78:	0101                	addi	sp,sp,0
     f7a:	0271                	addi	tp,tp,28
     f7c:	0000                	unimp
     f7e:	00250003          	lb	zero,2(a0) # 3080244 <bss_begin+0x305b244>
     f82:	0000                	unimp
     f84:	0101                	addi	sp,sp,0
     f86:	000d0efb          	0xd0efb
     f8a:	0101                	addi	sp,sp,0
     f8c:	0101                	addi	sp,sp,0
     f8e:	0000                	unimp
     f90:	0100                	addi	s0,sp,128
     f92:	0000                	unimp
     f94:	7301                	lui	t1,0xfffe0
     f96:	6372                	ld	t1,280(sp)
     f98:	0000                	unimp
     f9a:	7361                	lui	t1,0xffff8
     f9c:	5f6d                	li	t5,-5
     f9e:	6574                	ld	a3,200(a0)
     fa0:	532e7473          	csrrci	s0,0x532,28
     fa4:	0100                	addi	s0,sp,128
     fa6:	0000                	unimp
     fa8:	0000                	unimp
     faa:	0209                	addi	tp,tp,2
     fac:	36d0                	fld	fa2,168(a3)
     fae:	0002                	c.slli64	zero
     fb0:	0000                	unimp
     fb2:	0000                	unimp
     fb4:	0319                	addi	t1,t1,6
     fb6:	0902                	c.slli64	s2
     fb8:	0004                	0x4
     fba:	0301                	addi	t1,t1,0
     fbc:	0901                	addi	s2,s2,0
     fbe:	0004                	0x4
     fc0:	0301                	addi	t1,t1,0
     fc2:	0901                	addi	s2,s2,0
     fc4:	0004                	0x4
     fc6:	0301                	addi	t1,t1,0
     fc8:	0901                	addi	s2,s2,0
     fca:	0004                	0x4
     fcc:	0301                	addi	t1,t1,0
     fce:	0901                	addi	s2,s2,0
     fd0:	0004                	0x4
     fd2:	0301                	addi	t1,t1,0
     fd4:	0902                	c.slli64	s2
     fd6:	0004                	0x4
     fd8:	0301                	addi	t1,t1,0
     fda:	0901                	addi	s2,s2,0
     fdc:	0008                	0x8
     fde:	0301                	addi	t1,t1,0
     fe0:	0902                	c.slli64	s2
     fe2:	0008                	0x8
     fe4:	0301                	addi	t1,t1,0
     fe6:	0901                	addi	s2,s2,0
     fe8:	0004                	0x4
     fea:	0301                	addi	t1,t1,0
     fec:	0901                	addi	s2,s2,0
     fee:	0004                	0x4
     ff0:	0301                	addi	t1,t1,0
     ff2:	0904                	addi	s1,sp,144
     ff4:	0004                	0x4
     ff6:	0301                	addi	t1,t1,0
     ff8:	0901                	addi	s2,s2,0
     ffa:	000c                	0xc
     ffc:	0301                	addi	t1,t1,0
     ffe:	0901                	addi	s2,s2,0
    1000:	0004                	0x4
    1002:	0301                	addi	t1,t1,0
    1004:	0902                	c.slli64	s2
    1006:	0004                	0x4
    1008:	0301                	addi	t1,t1,0
    100a:	0901                	addi	s2,s2,0
    100c:	000c                	0xc
    100e:	0301                	addi	t1,t1,0
    1010:	0901                	addi	s2,s2,0
    1012:	0004                	0x4
    1014:	0301                	addi	t1,t1,0
    1016:	0901                	addi	s2,s2,0
    1018:	0004                	0x4
    101a:	0301                	addi	t1,t1,0
    101c:	0902                	c.slli64	s2
    101e:	0004                	0x4
    1020:	0301                	addi	t1,t1,0
    1022:	0901                	addi	s2,s2,0
    1024:	000c                	0xc
    1026:	0301                	addi	t1,t1,0
    1028:	0901                	addi	s2,s2,0
    102a:	0004                	0x4
    102c:	0301                	addi	t1,t1,0
    102e:	0901                	addi	s2,s2,0
    1030:	0004                	0x4
    1032:	0301                	addi	t1,t1,0
    1034:	0901                	addi	s2,s2,0
    1036:	0004                	0x4
    1038:	0301                	addi	t1,t1,0
    103a:	0906                	slli	s2,s2,0x1
    103c:	0004                	0x4
    103e:	0301                	addi	t1,t1,0
    1040:	0902                	c.slli64	s2
    1042:	0004                	0x4
    1044:	0301                	addi	t1,t1,0
    1046:	0901                	addi	s2,s2,0
    1048:	000c                	0xc
    104a:	0301                	addi	t1,t1,0
    104c:	0902                	c.slli64	s2
    104e:	0004                	0x4
    1050:	0301                	addi	t1,t1,0
    1052:	0901                	addi	s2,s2,0
    1054:	0004                	0x4
    1056:	0301                	addi	t1,t1,0
    1058:	0901                	addi	s2,s2,0
    105a:	0004                	0x4
    105c:	0301                	addi	t1,t1,0
    105e:	0902                	c.slli64	s2
    1060:	0004                	0x4
    1062:	0301                	addi	t1,t1,0
    1064:	0901                	addi	s2,s2,0
    1066:	0004                	0x4
    1068:	0301                	addi	t1,t1,0
    106a:	0902                	c.slli64	s2
    106c:	0004                	0x4
    106e:	0301                	addi	t1,t1,0
    1070:	0901                	addi	s2,s2,0
    1072:	000c                	0xc
    1074:	0301                	addi	t1,t1,0
    1076:	0902                	c.slli64	s2
    1078:	0004                	0x4
    107a:	0301                	addi	t1,t1,0
    107c:	0901                	addi	s2,s2,0
    107e:	0004                	0x4
    1080:	0301                	addi	t1,t1,0
    1082:	0901                	addi	s2,s2,0
    1084:	0004                	0x4
    1086:	0301                	addi	t1,t1,0
    1088:	0904                	addi	s1,sp,144
    108a:	0004                	0x4
    108c:	0301                	addi	t1,t1,0
    108e:	0901                	addi	s2,s2,0
    1090:	0004                	0x4
    1092:	0301                	addi	t1,t1,0
    1094:	0901                	addi	s2,s2,0
    1096:	0004                	0x4
    1098:	0301                	addi	t1,t1,0
    109a:	0905                	addi	s2,s2,1
    109c:	0004                	0x4
    109e:	0301                	addi	t1,t1,0
    10a0:	0901                	addi	s2,s2,0
    10a2:	0004                	0x4
    10a4:	0301                	addi	t1,t1,0
    10a6:	0902                	c.slli64	s2
    10a8:	0004                	0x4
    10aa:	0301                	addi	t1,t1,0
    10ac:	0901                	addi	s2,s2,0
    10ae:	0004                	0x4
    10b0:	0301                	addi	t1,t1,0
    10b2:	0902                	c.slli64	s2
    10b4:	0004                	0x4
    10b6:	0301                	addi	t1,t1,0
    10b8:	0901                	addi	s2,s2,0
    10ba:	0004                	0x4
    10bc:	0301                	addi	t1,t1,0
    10be:	00040903          	lb	s2,0(s0)
    10c2:	0301                	addi	t1,t1,0
    10c4:	0901                	addi	s2,s2,0
    10c6:	0004                	0x4
    10c8:	0301                	addi	t1,t1,0
    10ca:	0901                	addi	s2,s2,0
    10cc:	0004                	0x4
    10ce:	0301                	addi	t1,t1,0
    10d0:	0905                	addi	s2,s2,1
    10d2:	0004                	0x4
    10d4:	0301                	addi	t1,t1,0
    10d6:	0901                	addi	s2,s2,0
    10d8:	0004                	0x4
    10da:	0301                	addi	t1,t1,0
    10dc:	0901                	addi	s2,s2,0
    10de:	0004                	0x4
    10e0:	0301                	addi	t1,t1,0
    10e2:	00040903          	lb	s2,0(s0)
    10e6:	0301                	addi	t1,t1,0
    10e8:	0901                	addi	s2,s2,0
    10ea:	0004                	0x4
    10ec:	0301                	addi	t1,t1,0
    10ee:	0901                	addi	s2,s2,0
    10f0:	0004                	0x4
    10f2:	0301                	addi	t1,t1,0
    10f4:	0901                	addi	s2,s2,0
    10f6:	0004                	0x4
    10f8:	0301                	addi	t1,t1,0
    10fa:	0901                	addi	s2,s2,0
    10fc:	0004                	0x4
    10fe:	0301                	addi	t1,t1,0
    1100:	0902                	c.slli64	s2
    1102:	0004                	0x4
    1104:	0301                	addi	t1,t1,0
    1106:	0904                	addi	s1,sp,144
    1108:	0004                	0x4
    110a:	0301                	addi	t1,t1,0
    110c:	0901                	addi	s2,s2,0
    110e:	0004                	0x4
    1110:	0301                	addi	t1,t1,0
    1112:	0901                	addi	s2,s2,0
    1114:	0004                	0x4
    1116:	0301                	addi	t1,t1,0
    1118:	0902                	c.slli64	s2
    111a:	0004                	0x4
    111c:	0301                	addi	t1,t1,0
    111e:	0902                	c.slli64	s2
    1120:	0004                	0x4
    1122:	0301                	addi	t1,t1,0
    1124:	0901                	addi	s2,s2,0
    1126:	0004                	0x4
    1128:	0301                	addi	t1,t1,0
    112a:	0905                	addi	s2,s2,1
    112c:	0004                	0x4
    112e:	0301                	addi	t1,t1,0
    1130:	0901                	addi	s2,s2,0
    1132:	0004                	0x4
    1134:	0301                	addi	t1,t1,0
    1136:	0901                	addi	s2,s2,0
    1138:	0004                	0x4
    113a:	0301                	addi	t1,t1,0
    113c:	0902                	c.slli64	s2
    113e:	0004                	0x4
    1140:	0301                	addi	t1,t1,0
    1142:	0902                	c.slli64	s2
    1144:	0004                	0x4
    1146:	0301                	addi	t1,t1,0
    1148:	0901                	addi	s2,s2,0
    114a:	0004                	0x4
    114c:	0301                	addi	t1,t1,0
    114e:	0904                	addi	s1,sp,144
    1150:	0004                	0x4
    1152:	0301                	addi	t1,t1,0
    1154:	0901                	addi	s2,s2,0
    1156:	0004                	0x4
    1158:	0301                	addi	t1,t1,0
    115a:	0902                	c.slli64	s2
    115c:	0004                	0x4
    115e:	0301                	addi	t1,t1,0
    1160:	0902                	c.slli64	s2
    1162:	0004                	0x4
    1164:	0301                	addi	t1,t1,0
    1166:	0901                	addi	s2,s2,0
    1168:	0004                	0x4
    116a:	0301                	addi	t1,t1,0
    116c:	0901                	addi	s2,s2,0
    116e:	0004                	0x4
    1170:	0301                	addi	t1,t1,0
    1172:	0926                	slli	s2,s2,0x9
    1174:	0040                	addi	s0,sp,4
    1176:	0301                	addi	t1,t1,0
    1178:	0901                	addi	s2,s2,0
    117a:	0004                	0x4
    117c:	0301                	addi	t1,t1,0
    117e:	0904                	addi	s1,sp,144
    1180:	0004                	0x4
    1182:	0301                	addi	t1,t1,0
    1184:	0901                	addi	s2,s2,0
    1186:	0004                	0x4
    1188:	0301                	addi	t1,t1,0
    118a:	0904                	addi	s1,sp,144
    118c:	0004                	0x4
    118e:	0301                	addi	t1,t1,0
    1190:	0901                	addi	s2,s2,0
    1192:	0004                	0x4
    1194:	0301                	addi	t1,t1,0
    1196:	0902                	c.slli64	s2
    1198:	0004                	0x4
    119a:	0301                	addi	t1,t1,0
    119c:	0901                	addi	s2,s2,0
    119e:	0004                	0x4
    11a0:	0301                	addi	t1,t1,0
    11a2:	0902                	c.slli64	s2
    11a4:	0004                	0x4
    11a6:	0301                	addi	t1,t1,0
    11a8:	0902                	c.slli64	s2
    11aa:	000c                	0xc
    11ac:	0301                	addi	t1,t1,0
    11ae:	0901                	addi	s2,s2,0
    11b0:	0004                	0x4
    11b2:	0301                	addi	t1,t1,0
    11b4:	0901                	addi	s2,s2,0
    11b6:	0004                	0x4
    11b8:	0301                	addi	t1,t1,0
    11ba:	0904                	addi	s1,sp,144
    11bc:	0004                	0x4
    11be:	0301                	addi	t1,t1,0
    11c0:	0901                	addi	s2,s2,0
    11c2:	0004                	0x4
    11c4:	0301                	addi	t1,t1,0
    11c6:	0902                	c.slli64	s2
    11c8:	0004                	0x4
    11ca:	0301                	addi	t1,t1,0
    11cc:	0901                	addi	s2,s2,0
    11ce:	0004                	0x4
    11d0:	0301                	addi	t1,t1,0
    11d2:	0902                	c.slli64	s2
    11d4:	0004                	0x4
    11d6:	0301                	addi	t1,t1,0
    11d8:	0902                	c.slli64	s2
    11da:	000c                	0xc
    11dc:	0301                	addi	t1,t1,0
    11de:	0901                	addi	s2,s2,0
    11e0:	0004                	0x4
    11e2:	0301                	addi	t1,t1,0
    11e4:	0901                	addi	s2,s2,0
    11e6:	0004                	0x4
    11e8:	0901                	addi	s2,s2,0
    11ea:	0004                	0x4
    11ec:	0100                	addi	s0,sp,128
    11ee:	7b01                	lui	s6,0xfffe0
    11f0:	0000                	unimp
    11f2:	0300                	addi	s0,sp,384
    11f4:	2100                	fld	fs0,0(a0)
    11f6:	0000                	unimp
    11f8:	0100                	addi	s0,sp,128
    11fa:	fb01                	bnez	a4,110a <_start-0x20ef6>
    11fc:	0d0e                	slli	s10,s10,0x3
    11fe:	0100                	addi	s0,sp,128
    1200:	0101                	addi	sp,sp,0
    1202:	0001                	nop
    1204:	0000                	unimp
    1206:	0001                	nop
    1208:	0100                	addi	s0,sp,128
    120a:	00637273          	csrrci	tp,0x6,6
    120e:	6200                	ld	s0,0(a2)
    1210:	2e746f6f          	jal	t5,47cf6 <bss_begin+0x22cf6>
    1214:	00010053          	fadd.s	ft0,ft2,ft0,rne
    1218:	0000                	unimp
    121a:	0900                	addi	s0,sp,144
    121c:	0002                	c.slli64	zero
    121e:	0220                	addi	s0,sp,264
    1220:	0000                	unimp
    1222:	0000                	unimp
    1224:	1700                	addi	s0,sp,928
    1226:	04090203          	lb	tp,64(s2)
    122a:	0100                	addi	s0,sp,128
    122c:	04090103          	lb	sp,64(s2)
    1230:	0100                	addi	s0,sp,128
    1232:	08090303          	lb	t1,128(s2)
    1236:	0100                	addi	s0,sp,128
    1238:	08090103          	lb	sp,128(s2)
    123c:	0100                	addi	s0,sp,128
    123e:	04090103          	lb	sp,64(s2)
    1242:	0100                	addi	s0,sp,128
    1244:	04090303          	lb	t1,64(s2)
    1248:	0100                	addi	s0,sp,128
    124a:	04090403          	lb	s0,64(s2)
    124e:	0100                	addi	s0,sp,128
    1250:	04090203          	lb	tp,64(s2)
    1254:	0100                	addi	s0,sp,128
    1256:	08090103          	lb	sp,128(s2)
    125a:	0100                	addi	s0,sp,128
    125c:	04090303          	lb	t1,64(s2)
    1260:	0100                	addi	s0,sp,128
    1262:	04090103          	lb	sp,64(s2)
    1266:	0100                	addi	s0,sp,128
    1268:	0409                	addi	s0,s0,2
    126a:	0000                	unimp
    126c:	0101                	addi	sp,sp,0
    126e:	0175                	addi	sp,sp,29
    1270:	0000                	unimp
    1272:	00290003          	lb	zero,2(s2)
    1276:	0000                	unimp
    1278:	0101                	addi	sp,sp,0
    127a:	000d0efb          	0xd0efb
    127e:	0101                	addi	sp,sp,0
    1280:	0101                	addi	sp,sp,0
    1282:	0000                	unimp
    1284:	0100                	addi	s0,sp,128
    1286:	0000                	unimp
    1288:	7301                	lui	t1,0xfffe0
    128a:	6372                	ld	t1,280(sp)
    128c:	0000                	unimp
    128e:	6165                	addi	sp,sp,112
    1290:	6c72                	ld	s8,280(sp)
    1292:	5f79                	li	t5,-2
    1294:	7270                	ld	a2,224(a2)
    1296:	6e69                	lui	t3,0x1a
    1298:	6b74                	ld	a3,208(a4)
    129a:	532e                	lw	t1,232(sp)
    129c:	0100                	addi	s0,sp,128
    129e:	0000                	unimp
    12a0:	0000                	unimp
    12a2:	0209                	addi	tp,tp,2
    12a4:	38d0                	fld	fa2,176(s1)
    12a6:	0002                	c.slli64	zero
    12a8:	0000                	unimp
    12aa:	0000                	unimp
    12ac:	03010903          	lb	s2,48(sp)
    12b0:	0901                	addi	s2,s2,0
    12b2:	0008                	0x8
    12b4:	0301                	addi	t1,t1,0
    12b6:	00040903          	lb	s2,0(s0)
    12ba:	0301                	addi	t1,t1,0
    12bc:	0901                	addi	s2,s2,0
    12be:	0008                	0x8
    12c0:	0301                	addi	t1,t1,0
    12c2:	00040903          	lb	s2,0(s0)
    12c6:	0301                	addi	t1,t1,0
    12c8:	0901                	addi	s2,s2,0
    12ca:	0008                	0x8
    12cc:	0301                	addi	t1,t1,0
    12ce:	00040903          	lb	s2,0(s0)
    12d2:	0301                	addi	t1,t1,0
    12d4:	00040907          	vle8.v	v18,(s0),v0.t
    12d8:	0301                	addi	t1,t1,0
    12da:	0901                	addi	s2,s2,0
    12dc:	0008                	0x8
    12de:	0301                	addi	t1,t1,0
    12e0:	0901                	addi	s2,s2,0
    12e2:	0004                	0x4
    12e4:	0301                	addi	t1,t1,0
    12e6:	0901                	addi	s2,s2,0
    12e8:	0004                	0x4
    12ea:	0301                	addi	t1,t1,0
    12ec:	0906                	slli	s2,s2,0x1
    12ee:	0004                	0x4
    12f0:	0301                	addi	t1,t1,0
    12f2:	0901                	addi	s2,s2,0
    12f4:	0008                	0x8
    12f6:	0301                	addi	t1,t1,0
    12f8:	0901                	addi	s2,s2,0
    12fa:	0004                	0x4
    12fc:	0301                	addi	t1,t1,0
    12fe:	0901                	addi	s2,s2,0
    1300:	0004                	0x4
    1302:	0301                	addi	t1,t1,0
    1304:	0901                	addi	s2,s2,0
    1306:	0004                	0x4
    1308:	0301                	addi	t1,t1,0
    130a:	0911                	addi	s2,s2,4
    130c:	0004                	0x4
    130e:	0301                	addi	t1,t1,0
    1310:	00040903          	lb	s2,0(s0)
    1314:	0301                	addi	t1,t1,0
    1316:	00040903          	lb	s2,0(s0)
    131a:	0301                	addi	t1,t1,0
    131c:	0901                	addi	s2,s2,0
    131e:	0004                	0x4
    1320:	0301                	addi	t1,t1,0
    1322:	00040903          	lb	s2,0(s0)
    1326:	0301                	addi	t1,t1,0
    1328:	00040903          	lb	s2,0(s0)
    132c:	0301                	addi	t1,t1,0
    132e:	0901                	addi	s2,s2,0
    1330:	0004                	0x4
    1332:	0301                	addi	t1,t1,0
    1334:	0901                	addi	s2,s2,0
    1336:	0004                	0x4
    1338:	0301                	addi	t1,t1,0
    133a:	0904                	addi	s1,sp,144
    133c:	0004                	0x4
    133e:	0301                	addi	t1,t1,0
    1340:	0901                	addi	s2,s2,0
    1342:	0004                	0x4
    1344:	0301                	addi	t1,t1,0
    1346:	0901                	addi	s2,s2,0
    1348:	0004                	0x4
    134a:	0301                	addi	t1,t1,0
    134c:	0901                	addi	s2,s2,0
    134e:	0004                	0x4
    1350:	0301                	addi	t1,t1,0
    1352:	00040903          	lb	s2,0(s0)
    1356:	0301                	addi	t1,t1,0
    1358:	0901                	addi	s2,s2,0
    135a:	0004                	0x4
    135c:	0301                	addi	t1,t1,0
    135e:	00040903          	lb	s2,0(s0)
    1362:	0301                	addi	t1,t1,0
    1364:	0901                	addi	s2,s2,0
    1366:	0004                	0x4
    1368:	0301                	addi	t1,t1,0
    136a:	0901                	addi	s2,s2,0
    136c:	0004                	0x4
    136e:	0301                	addi	t1,t1,0
    1370:	0901                	addi	s2,s2,0
    1372:	0004                	0x4
    1374:	0301                	addi	t1,t1,0
    1376:	0901                	addi	s2,s2,0
    1378:	0004                	0x4
    137a:	0301                	addi	t1,t1,0
    137c:	0901                	addi	s2,s2,0
    137e:	0004                	0x4
    1380:	0301                	addi	t1,t1,0
    1382:	0902                	c.slli64	s2
    1384:	0004                	0x4
    1386:	0301                	addi	t1,t1,0
    1388:	0904                	addi	s1,sp,144
    138a:	0004                	0x4
    138c:	0301                	addi	t1,t1,0
    138e:	00040903          	lb	s2,0(s0)
    1392:	0301                	addi	t1,t1,0
    1394:	0901                	addi	s2,s2,0
    1396:	0004                	0x4
    1398:	0301                	addi	t1,t1,0
    139a:	0901                	addi	s2,s2,0
    139c:	0004                	0x4
    139e:	0301                	addi	t1,t1,0
    13a0:	0901                	addi	s2,s2,0
    13a2:	0004                	0x4
    13a4:	0301                	addi	t1,t1,0
    13a6:	0902                	c.slli64	s2
    13a8:	0004                	0x4
    13aa:	0301                	addi	t1,t1,0
    13ac:	0905                	addi	s2,s2,1
    13ae:	0004                	0x4
    13b0:	0301                	addi	t1,t1,0
    13b2:	0901                	addi	s2,s2,0
    13b4:	0004                	0x4
    13b6:	0301                	addi	t1,t1,0
    13b8:	00040903          	lb	s2,0(s0)
    13bc:	0301                	addi	t1,t1,0
    13be:	0901                	addi	s2,s2,0
    13c0:	0004                	0x4
    13c2:	0301                	addi	t1,t1,0
    13c4:	0901                	addi	s2,s2,0
    13c6:	0004                	0x4
    13c8:	0301                	addi	t1,t1,0
    13ca:	0901                	addi	s2,s2,0
    13cc:	0004                	0x4
    13ce:	0301                	addi	t1,t1,0
    13d0:	0901                	addi	s2,s2,0
    13d2:	0004                	0x4
    13d4:	0301                	addi	t1,t1,0
    13d6:	00040903          	lb	s2,0(s0)
    13da:	0301                	addi	t1,t1,0
    13dc:	0901                	addi	s2,s2,0
    13de:	0004                	0x4
    13e0:	0901                	addi	s2,s2,0
    13e2:	0004                	0x4
    13e4:	0100                	addi	s0,sp,128
    13e6:	5901                	li	s2,-32
    13e8:	0000                	unimp
    13ea:	0300                	addi	s0,sp,384
    13ec:	2300                	fld	fs0,0(a4)
    13ee:	0000                	unimp
    13f0:	0100                	addi	s0,sp,128
    13f2:	fb01                	bnez	a4,1302 <_start-0x20cfe>
    13f4:	0d0e                	slli	s10,s10,0x3
    13f6:	0100                	addi	s0,sp,128
    13f8:	0101                	addi	sp,sp,0
    13fa:	0001                	nop
    13fc:	0000                	unimp
    13fe:	0001                	nop
    1400:	0100                	addi	s0,sp,128
    1402:	00637273          	csrrci	tp,0x6,6
    1406:	6d00                	ld	s0,24(a0)
    1408:	6d65                	lui	s10,0x19
    140a:	2e746573          	csrrsi	a0,0x2e7,8
    140e:	00010053          	fadd.s	ft0,ft2,ft0,rne
    1412:	0000                	unimp
    1414:	0900                	addi	s0,sp,144
    1416:	b402                	fsd	ft0,40(sp)
    1418:	0239                	addi	tp,tp,14
    141a:	0000                	unimp
    141c:	0000                	unimp
    141e:	1400                	addi	s0,sp,544
    1420:	04090203          	lb	tp,64(s2)
    1424:	0100                	addi	s0,sp,128
    1426:	04090103          	lb	sp,64(s2)
    142a:	0100                	addi	s0,sp,128
    142c:	04090103          	lb	sp,64(s2)
    1430:	0100                	addi	s0,sp,128
    1432:	04090103          	lb	sp,64(s2)
    1436:	0100                	addi	s0,sp,128
    1438:	04090203          	lb	tp,64(s2)
    143c:	0100                	addi	s0,sp,128
    143e:	0409                	addi	s0,s0,2
    1440:	0000                	unimp
    1442:	0101                	addi	sp,sp,0

Disassembly of section .debug_str:

0000000000000000 <.debug_str>:
   0:	6f66                	ld	t5,88(sp)
   2:	6e75                	lui	t3,0x1d
   4:	0064                	addi	s1,sp,12
   6:	7361                	lui	t1,0xffff8
   8:	5f6d                	li	t5,-5
   a:	6574                	ld	a3,200(a0)
   c:	66007473          	csrrci	s0,0x660,0
  10:	6e75                	lui	t3,0x1d
  12:	64615f63          	bge	sp,t1,670 <_start-0x21990>
  16:	7264                	ld	s1,224(a2)
  18:	7500                	ld	s0,40(a0)
  1a:	736e                	ld	t1,248(sp)
  1c:	6769                	lui	a4,0x1a
  1e:	656e                	ld	a0,216(sp)
  20:	2064                	fld	fs1,192(s0)
  22:	72616863          	bltu	sp,t1,752 <_start-0x218ae>
  26:	6600                	ld	s0,8(a2)
  28:	6e75                	lui	t3,0x1d
  2a:	756e5f63          	bge	t3,s6,788 <_start-0x21878>
  2e:	5f6d                	li	t5,-5
  30:	736d7973          	csrrci	s2,0x736,26
  34:	7300                	ld	s0,32(a4)
  36:	6f68                	ld	a0,216(a4)
  38:	7472                	ld	s0,312(sp)
  3a:	7520                	ld	s0,104(a0)
  3c:	736e                	ld	t1,248(sp)
  3e:	6769                	lui	a4,0x1a
  40:	656e                	ld	a0,216(sp)
  42:	2064                	fld	fs1,192(s0)
  44:	6e69                	lui	t3,0x1a
  46:	0074                	addi	a3,sp,12
  48:	6176                	ld	sp,344(sp)
  4a:	316c                	fld	fa1,224(a0)
  4c:	7600                	ld	s0,40(a2)
  4e:	6c61                	lui	s8,0x18
  50:	0032                	c.slli	zero,0xc
  52:	20554e47          	fmsub.s	ft8,fa0,ft5,ft4,rmm
  56:	20373143          	fmadd.s	ft2,fa4,ft3,ft4,rup
  5a:	3031                	0x3031
  5c:	322e                	fld	ft4,232(sp)
  5e:	302e                	fld	ft0,232(sp)
  60:	2d20                	fld	fs0,88(a0)
  62:	636d                	lui	t1,0x1b
  64:	6f6d                	lui	t5,0x1b
  66:	6564                	ld	s1,200(a0)
  68:	3d6c                	fld	fa1,248(a0)
  6a:	656d                	lui	a0,0x1b
  6c:	6164                	ld	s1,192(a0)
  6e:	796e                	ld	s2,248(sp)
  70:	2d20                	fld	fs0,88(a0)
  72:	616d                	addi	sp,sp,240
  74:	6962                	ld	s2,24(sp)
  76:	6c3d                	lui	s8,0xf
  78:	3670                	fld	fa2,232(a2)
  7a:	2034                	fld	fa3,64(s0)
  7c:	6d2d                	lui	s10,0xb
  7e:	7261                	lui	tp,0xffff8
  80:	723d6863          	bltu	s10,gp,7b0 <_start-0x21850>
  84:	3676                	fld	fa2,376(sp)
  86:	6934                	ld	a3,80(a0)
  88:	616d                	addi	sp,sp,240
  8a:	6466                	ld	s0,88(sp)
  8c:	2d20                	fld	fs0,88(a0)
  8e:	4f2d2067          	0x4f2d2067
  92:	2030                	fld	fa2,64(s0)
  94:	662d                	lui	a2,0xb
  96:	6f6e                	ld	t5,216(sp)
  98:	502d                	c.li	zero,-21
  9a:	4549                	li	a0,18
  9c:	2d20                	fld	fs0,88(a0)
  9e:	6e66                	ld	t3,88(sp)
  a0:	6d6f2d6f          	jal	s10,f2776 <bss_begin+0xcd776>
  a4:	7469                	lui	s0,0xffffa
  a6:	662d                	lui	a2,0xb
  a8:	6172                	ld	sp,280(sp)
  aa:	656d                	lui	a0,0x1b
  ac:	702d                	c.lui	zero,0xfffeb
  ae:	746e696f          	jal	s2,e67f4 <bss_begin+0xc17f4>
  b2:	7265                	lui	tp,0xffff9
  b4:	4500                	lw	s0,8(a0)
  b6:	5c3a                	lw	s8,172(sp)
  b8:	645c                	ld	a5,136(s0)
  ba:	7331                	lui	t1,0xfffec
  bc:	705f 6f72 656a      	0x656a6f72705f
  c2:	5c737463          	bgeu	t1,t2,68a <_start-0x21976>
  c6:	725c                	ld	a5,160(a2)
  c8:	7369                	lui	t1,0xffffa
  ca:	705f7663          	bgeu	t5,t0,7d6 <_start-0x2182a>
  ce:	6f72                	ld	t5,280(sp)
  d0:	6d617267          	0x6d617267
  d4:	696d                	lui	s2,0x1b
  d6:	676e                	ld	a4,216(sp)
  d8:	705f 6172 7463      	0x74636172705f
  de:	6369                	lui	t1,0x1a
  e0:	2d65                	addiw	s10,s10,25
  e2:	6f66                	ld	t5,88(sp)
  e4:	2d72                	fld	fs10,280(sp)
  e6:	6f64                	ld	s1,216(a4)
  e8:	676e                	ld	a4,216(sp)
  ea:	6e616873          	csrrsi	a6,0x6e6,2
  ee:	5c5c                	lw	a5,60(s0)
  f0:	70616863          	bltu	sp,t1,800 <_start-0x21800>
  f4:	6574                	ld	a3,200(a0)
  f6:	5f72                	lw	t5,60(sp)
  f8:	5c35                	li	s8,-19
  fa:	6c5c                	ld	a5,152(s0)
  fc:	6261                	lui	tp,0x18
  fe:	5f35                	li	t5,-19
 100:	5c35                	li	s8,-19
 102:	625c                	ld	a5,128(a2)
 104:	6e65                	lui	t3,0x19
 106:	7000736f          	jal	t1,7806 <_start-0x1a7fa>
 10a:	6972                	ld	s2,280(sp)
 10c:	746e                	ld	s0,248(sp)
 10e:	665f 6e75 5f63      	0x5f636e75665f
 114:	616e                	ld	sp,216(sp)
 116:	656d                	lui	a0,0x1b
 118:	6c00                	ld	s0,24(s0)
 11a:	20676e6f          	jal	t3,76320 <bss_begin+0x51320>
 11e:	6f6c                	ld	a1,216(a4)
 120:	676e                	ld	a4,216(sp)
 122:	7520                	ld	s0,104(a0)
 124:	736e                	ld	t1,248(sp)
 126:	6769                	lui	a4,0x1a
 128:	656e                	ld	a0,216(sp)
 12a:	2064                	fld	fs1,192(s0)
 12c:	6e69                	lui	t3,0x1a
 12e:	0074                	addi	a3,sp,12
 130:	6f6c                	ld	a1,216(a4)
 132:	676e                	ld	a4,216(sp)
 134:	6c20                	ld	s0,88(s0)
 136:	20676e6f          	jal	t3,7633c <bss_begin+0x5133c>
 13a:	6e69                	lui	t3,0x1a
 13c:	0074                	addi	a3,sp,12
 13e:	726f6873          	csrrsi	a6,0x726,30
 142:	2074                	fld	fa3,192(s0)
 144:	6e69                	lui	t3,0x1a
 146:	0074                	addi	a3,sp,12
 148:	7566                	ld	a0,120(sp)
 14a:	636e                	ld	t1,216(sp)
 14c:	735f 7274 6e69      	0x6e697274735f
 152:	656b0067          	jr	1622(s6) # fffffffffffe0656 <bss_begin+0xfffffffffffbb656>
 156:	6e72                	ld	t3,280(sp)
 158:	6c65                	lui	s8,0x19
 15a:	6d5f 6961 006e      	0x6e69616d5f
 160:	2f637273          	csrrci	tp,0x2f6,6
 164:	6e72656b          	0x6e72656b
 168:	6c65                	lui	s8,0x19
 16a:	632e                	ld	t1,200(sp)
 16c:	6400                	ld	s0,8(s0)
 16e:	00656e6f          	jal	t3,56174 <bss_begin+0x31174>
 172:	657a6973          	csrrsi	s2,0x657,20
 176:	745f 6100 696c      	0x696c6100745f
 17c:	73006e67          	0x73006e67
 180:	6372                	ld	t1,280(sp)
 182:	6d656d2f          	0x6d656d2f
 186:	2e746573          	csrrsi	a0,0x2e7,8
 18a:	656c0063          	beq	s8,s6,7ca <_start-0x21836>
 18e:	7466                	ld	s0,120(sp)
 190:	6400                	ld	s0,8(s0)
 192:	7461                	lui	s0,0xffff8
 194:	0061                	c.nop	24
 196:	5f5f 656d 736d      	0x736d656d5f5f
 19c:	7465                	lui	s0,0xffff9
 19e:	5f00                	lw	s0,56(a4)
 1a0:	6d5f 6d65 6573      	0x65736d656d5f
 1a6:	5f74                	lw	a3,124(a4)
 1a8:	6231                	lui	tp,0xc
 1aa:	7479                	lui	s0,0xffffe
 1ac:	7365                	lui	t1,0xffff9
 1ae:	6100                	ld	s0,0(a0)
 1b0:	6464                	ld	s1,200(s0)
 1b2:	6572                	ld	a0,280(sp)
 1b4:	63007373          	csrrci	t1,0x630,0
 1b8:	746e756f          	jal	a0,e78fe <bss_begin+0xc28fe>
 1bc:	7300                	ld	s0,32(a4)
 1be:	7a69                	lui	s4,0xffffa
 1c0:	0065                	c.nop	25
 1c2:	6176                	ld	sp,344(sp)
 1c4:	756c                	ld	a1,232(a0)
 1c6:	0065                	c.nop	25
 1c8:	5f746573          	csrrsi	a0,shpmcounter23,8
 1cc:	6c70                	ld	a2,216(s0)
 1ce:	5f6c                	lw	a1,124(a4)
 1d0:	78757063          	bgeu	a0,t2,950 <_start-0x216b0>
 1d4:	615f 6978 7300      	0x73006978615f
 1da:	7465                	lui	s0,0xffff9
 1dc:	615f 6270 7300      	0x73006270615f
 1e2:	7465                	lui	s0,0xffff9
 1e4:	705f 6c6c 705f      	0x705f6c6c705f
 1ea:	7265                	lui	tp,0xffff9
 1ec:	7069                	c.lui	zero,0xffffa
 1ee:	3068                	fld	fa0,224(s0)
 1f0:	7300                	ld	s0,32(a4)
 1f2:	7465                	lui	s0,0xffff9
 1f4:	6d5f 646f 6c75      	0x6c75646f6d5f
 1fa:	0065                	c.nop	25
 1fc:	74697277          	0x74697277
 200:	3365                	addiw	t1,t1,-7
 202:	0032                	c.slli	zero,0xc
 204:	5f746573          	csrrsi	a0,shpmcounter23,8
 208:	626d                	lui	tp,0x1b
 20a:	7375                	lui	t1,0xffffd
 20c:	7200                	ld	s0,32(a2)
 20e:	6165                	addi	sp,sp,112
 210:	3364                	fld	fs1,224(a4)
 212:	0032                	c.slli	zero,0xc
 214:	3375                	addiw	t1,t1,-3
 216:	5f32                	lw	t5,44(sp)
 218:	0074                	addi	a3,sp,12
 21a:	6976                	ld	s2,344(sp)
 21c:	7472                	ld	s0,312(sp)
 21e:	6175                	addi	sp,sp,368
 220:	5f6c                	lw	a1,124(a4)
 222:	6461                	lui	s0,0x18
 224:	7264                	ld	s1,224(a2)
 226:	745f 7300 7465      	0x74657300745f
 22c:	645f 616d 7300      	0x7300616d645f
 232:	6564                	ld	s1,200(a0)
 234:	616c                	ld	a1,192(a0)
 236:	0079                	c.nop	30
 238:	6975                	lui	s2,0x1d
 23a:	746e                	ld	s0,248(sp)
 23c:	745f3233          	0x745f3233
 240:	7300                	ld	s0,32(a4)
 242:	6372                	ld	t1,280(sp)
 244:	7379732f          	0x7379732f
 248:	632d                	lui	t1,0xb
 24a:	6f6c                	ld	a1,216(a4)
 24c:	632e6b63          	bltu	t3,s2,882 <_start-0x2177e>
 250:	7300                	ld	s0,32(a4)
 252:	7465                	lui	s0,0xffff9
 254:	615f 6268 7300      	0x73006268615f
 25a:	7379                	lui	t1,0xffffe
 25c:	635f 6f6c 6b63      	0x6b636f6c635f
 262:	695f 696e 0074      	0x74696e695f
 268:	5f5f 7562 6c69      	0x6c6975625f5f
 26e:	6974                	ld	a3,208(a0)
 270:	5f6e                	lw	t5,248(sp)
 272:	6176                	ld	sp,344(sp)
 274:	6c5f 7369 0074      	0x7473696c5f
 27a:	6175                	addi	sp,sp,368
 27c:	7472                	ld	s0,312(sp)
 27e:	695f 696e 0074      	0x74696e695f
 284:	7270                	ld	a2,224(a2)
 286:	6e69                	lui	t3,0x1a
 288:	5f74                	lw	a3,124(a4)
 28a:	6568                	ld	a0,200(a0)
 28c:	0078                	addi	a4,sp,12
 28e:	6175                	addi	sp,sp,368
 290:	7472                	ld	s0,312(sp)
 292:	735f 6e65 5f64      	0x5f646e65735f
 298:	69727473          	csrrci	s0,0x697,4
 29c:	676e                	ld	a4,216(sp)
 29e:	7600                	ld	s0,40(a2)
 2a0:	6670                	ld	a2,200(a2)
 2a2:	735f 7274 745f      	0x745f7274735f
 2a8:	756e5f6f          	jal	t5,e59fe <bss_begin+0xc09fe>
 2ac:	006d                	c.nop	27
 2ae:	2f637273          	csrrci	tp,0x2f6,6
 2b2:	2d737973          	csrrci	s2,0x2d7,6
 2b6:	6175                	addi	sp,sp,368
 2b8:	7472                	ld	s0,312(sp)
 2ba:	632e                	ld	t1,200(sp)
 2bc:	6200                	ld	s0,0(a2)
 2be:	7361                	lui	t1,0xffff8
 2c0:	0065                	c.nop	25
 2c2:	7570                	ld	a2,232(a0)
 2c4:	6374                	ld	a3,192(a4)
 2c6:	6168                	ld	a0,192(a0)
 2c8:	0072                	c.slli	zero,0x1c
 2ca:	3875                	addiw	a6,a6,-3
 2cc:	745f 7500 7261      	0x72617500745f
 2d2:	5f74                	lw	a3,124(a4)
 2d4:	6572                	ld	a0,280(sp)
 2d6:	73007663          	bgeu	zero,a6,a02 <_start-0x215fe>
 2da:	7379                	lui	t1,0xffffe
 2dc:	755f 7261 5f74      	0x5f747261755f
 2e2:	7270                	ld	a2,224(a2)
 2e4:	6e69                	lui	t3,0x1a
 2e6:	6674                	ld	a3,200(a2)
 2e8:	6200                	ld	s0,0(a2)
 2ea:	7469                	lui	s0,0xffffa
 2ec:	61750073          	0x61750073
 2f0:	7472                	ld	s0,312(sp)
 2f2:	735f 6e65 0064      	0x646e65735f
 2f8:	7076                	0x7076
 2fa:	5f66                	lw	t5,120(sp)
 2fc:	756e                	ld	a0,248(sp)
 2fe:	5f6d                	li	t5,-5
 300:	6f74                	ld	a3,216(a4)
 302:	735f 7274 7200      	0x72007274735f
 308:	6165                	addi	sp,sp,112
 30a:	3864                	fld	fs1,240(s0)
 30c:	7300                	ld	s0,32(a4)
 30e:	6372                	ld	t1,280(sp)
 310:	6d73612f          	0x6d73612f
 314:	745f 7365 2e74      	0x2e747365745f
 31a:	3a450053          	0x3a450053
 31e:	645c                	ld	a5,136(s0)
 320:	7331                	lui	t1,0xfffec
 322:	705f 6f72 656a      	0x656a6f72705f
 328:	5c737463          	bgeu	t1,t2,8f0 <_start-0x21710>
 32c:	6972                	ld	s2,280(sp)
 32e:	5f766373          	csrrsi	t1,shpmcounter23,12
 332:	7270                	ld	a2,224(a2)
 334:	6172676f          	jal	a4,2714a <bss_begin+0x214a>
 338:	6d6d                	lui	s10,0x1b
 33a:	6e69                	lui	t3,0x1a
 33c:	72705f67          	0x72705f67
 340:	6361                	lui	t1,0x18
 342:	6974                	ld	a3,208(a0)
 344:	662d6563          	bltu	s10,sp,9ae <_start-0x21652>
 348:	642d726f          	jal	tp,d798a <bss_begin+0xb298a>
 34c:	73676e6f          	jal	t3,76a82 <bss_begin+0x51a82>
 350:	6168                	ld	a0,192(a0)
 352:	5c6e                	lw	s8,248(sp)
 354:	70616863          	bltu	sp,t1,a64 <_start-0x2159c>
 358:	6574                	ld	a3,200(a0)
 35a:	5f72                	lw	t5,60(sp)
 35c:	5c35                	li	s8,-19
 35e:	616c                	ld	a1,192(a0)
 360:	3562                	fld	fa0,56(sp)
 362:	355f 625c 6e65      	0x6e65625c355f
 368:	4700736f          	jal	t1,77d8 <_start-0x1a828>
 36c:	554e                	lw	a0,240(sp)
 36e:	4120                	lw	s0,64(a0)
 370:	2e322053          	0x2e322053
 374:	73003533          	0x73003533
 378:	6372                	ld	t1,280(sp)
 37a:	6f6f622f          	0x6f6f622f
 37e:	2e74                	fld	fa3,216(a2)
 380:	72730053          	0x72730053
 384:	61652f63          	0x61652f63
 388:	6c72                	ld	s8,280(sp)
 38a:	5f79                	li	t5,-2
 38c:	7270                	ld	a2,224(a2)
 38e:	6e69                	lui	t3,0x1a
 390:	6b74                	ld	a3,208(a4)
 392:	532e                	lw	t1,232(sp)
 394:	7300                	ld	s0,32(a4)
 396:	6372                	ld	t1,280(sp)
 398:	6d656d2f          	0x6d656d2f
 39c:	2e746573          	csrrsi	a0,0x2e7,8
 3a0:	          	fadd.s	ft0,ft0,ft0,rne

Disassembly of section .comment:

0000000000000000 <.comment>:
   0:	3a434347          	fmsub.d	ft6,ft6,ft4,ft7,rmm
   4:	2820                	fld	fs0,80(s0)
   6:	7558                	ld	a4,168(a0)
   8:	6e61                	lui	t3,0x18
   a:	6974                	ld	a3,208(a0)
   c:	2d65                	addiw	s10,s10,25
   e:	3039                	0x3039
  10:	2030                	fld	fa2,64(s0)
  12:	6c65                	lui	s8,0x19
  14:	2066                	fld	ft0,88(sp)
  16:	656e                	ld	a0,216(sp)
  18:	62696c77          	0x62696c77
  1c:	6720                	ld	s0,72(a4)
  1e:	54206363          	bltu	zero,sp,564 <_start-0x21a9c>
  22:	636c6f6f          	jal	t5,c6658 <bss_begin+0xa1658>
  26:	6168                	ld	a0,192(a0)
  28:	6e69                	lui	t3,0x1a
  2a:	5620                	lw	s0,104(a2)
  2c:	2e32                	fld	ft8,264(sp)
  2e:	2e36                	fld	ft8,328(sp)
  30:	2031                	0x2031
  32:	2d42                	fld	fs10,16(sp)
  34:	3032                	fld	ft0,296(sp)
  36:	3232                	fld	ft4,296(sp)
  38:	3930                	fld	fa2,112(a0)
  3a:	3630                	fld	fa2,104(a2)
  3c:	2029                	0x2029
  3e:	3031                	0x3031
  40:	322e                	fld	ft4,232(sp)
  42:	302e                	fld	ft0,232(sp)
	...

Disassembly of section .riscv.attributes:

0000000000000000 <.riscv.attributes>:
   0:	3341                	addiw	t1,t1,-16
   2:	0000                	unimp
   4:	7200                	ld	s0,32(a2)
   6:	7369                	lui	t1,0xffffa
   8:	01007663          	bgeu	zero,a6,14 <_start-0x21fec>
   c:	0029                	c.nop	10
   e:	0000                	unimp
  10:	1004                	addi	s1,sp,32
  12:	7205                	lui	tp,0xfffe1
  14:	3676                	fld	fa2,376(sp)
  16:	6934                	ld	a3,80(a0)
  18:	7032                	0x7032
  1a:	5f30                	lw	a2,120(a4)
  1c:	326d                	addiw	tp,tp,-5
  1e:	3070                	fld	fa2,224(s0)
  20:	615f 7032 5f30      	0x5f307032615f
  26:	3266                	fld	ft4,120(sp)
  28:	3070                	fld	fa2,224(s0)
  2a:	645f 7032 0030      	0x307032645f
  30:	0108                	addi	a0,sp,128
  32:	0b0a                	slli	s6,s6,0x2

Disassembly of section .debug_frame:

0000000000000000 <.debug_frame>:
   0:	000c                	0xc
   2:	0000                	unimp
   4:	ffffffff          	0xffffffff
   8:	7c010003          	lb	zero,1984(sp)
   c:	0d01                	addi	s10,s10,0
   e:	0002                	c.slli64	zero
  10:	002c                	addi	a1,sp,8
  12:	0000                	unimp
  14:	0000                	unimp
  16:	0000                	unimp
  18:	2040                	fld	fs0,128(s0)
  1a:	0002                	c.slli64	zero
  1c:	0000                	unimp
  1e:	0000                	unimp
  20:	00fc                	addi	a5,sp,76
  22:	0000                	unimp
  24:	0000                	unimp
  26:	0000                	unimp
  28:	0e44                	addi	s1,sp,788
  2a:	4840                	lw	s0,20(s0)
  2c:	0281                	addi	t0,t0,0
  2e:	0488                	addi	a0,sp,576
  30:	0c44                	addi	s1,sp,532
  32:	0008                	0x8
  34:	e002                	sd	zero,0(sp)
  36:	44c1                	li	s1,16
  38:	0cc8                	addi	a0,sp,596
  3a:	4002                	0x4002
  3c:	0e44                	addi	s1,sp,788
  3e:	0000                	unimp
  40:	002c                	addi	a1,sp,8
  42:	0000                	unimp
  44:	0000                	unimp
  46:	0000                	unimp
  48:	213c                	fld	fa5,64(a0)
  4a:	0002                	c.slli64	zero
  4c:	0000                	unimp
  4e:	0000                	unimp
  50:	0110                	addi	a2,sp,128
  52:	0000                	unimp
  54:	0000                	unimp
  56:	0000                	unimp
  58:	0e44                	addi	s1,sp,788
  5a:	4820                	lw	s0,80(s0)
  5c:	0281                	addi	t0,t0,0
  5e:	0488                	addi	a0,sp,576
  60:	0c44                	addi	s1,sp,532
  62:	0008                	0x8
  64:	c100f403          	0xc100f403
  68:	c844                	sw	s1,20(s0)
  6a:	020c                	addi	a1,sp,256
  6c:	4420                	lw	s0,72(s0)
  6e:	000e                	c.slli	zero,0x3
  70:	0024                	addi	s1,sp,8
  72:	0000                	unimp
  74:	0000                	unimp
  76:	0000                	unimp
  78:	224c                	fld	fa1,128(a2)
  7a:	0002                	c.slli64	zero
  7c:	0000                	unimp
  7e:	0000                	unimp
  80:	004c                	addi	a1,sp,4
  82:	0000                	unimp
  84:	0000                	unimp
  86:	0000                	unimp
  88:	0e44                	addi	s1,sp,788
  8a:	4810                	lw	a2,16(s0)
  8c:	0281                	addi	t0,t0,0
  8e:	0488                	addi	a0,sp,576
  90:	0c44                	addi	s1,sp,532
  92:	0008                	0x8
  94:	0000                	unimp
  96:	0000                	unimp
  98:	000c                	0xc
  9a:	0000                	unimp
  9c:	ffffffff          	0xffffffff
  a0:	7c010003          	lb	zero,1984(sp)
  a4:	0d01                	addi	s10,s10,0
  a6:	0002                	c.slli64	zero
  a8:	002c                	addi	a1,sp,8
  aa:	0000                	unimp
  ac:	0098                	addi	a4,sp,64
  ae:	0000                	unimp
  b0:	2298                	fld	fa4,0(a3)
  b2:	0002                	c.slli64	zero
  b4:	0000                	unimp
  b6:	0000                	unimp
  b8:	0064                	addi	s1,sp,12
  ba:	0000                	unimp
  bc:	0000                	unimp
  be:	0000                	unimp
  c0:	0e44                	addi	s1,sp,788
  c2:	4440                	lw	s0,12(s0)
  c4:	0288                	addi	a0,sp,320
  c6:	0c44                	addi	s1,sp,532
  c8:	0008                	0x8
  ca:	5002                	0x5002
  cc:	0cc8                	addi	a0,sp,596
  ce:	4002                	0x4002
  d0:	0e44                	addi	s1,sp,788
  d2:	0000                	unimp
  d4:	0000                	unimp
  d6:	0000                	unimp
  d8:	002c                	addi	a1,sp,8
  da:	0000                	unimp
  dc:	0098                	addi	a4,sp,64
  de:	0000                	unimp
  e0:	22fc                	fld	fa5,192(a3)
  e2:	0002                	c.slli64	zero
  e4:	0000                	unimp
  e6:	0000                	unimp
  e8:	018c                	addi	a1,sp,192
  ea:	0000                	unimp
  ec:	0000                	unimp
  ee:	0000                	unimp
  f0:	0e44                	addi	s1,sp,788
  f2:	4870                	lw	a2,84(s0)
  f4:	0281                	addi	t0,t0,0
  f6:	0488                	addi	a0,sp,576
  f8:	0c44                	addi	s1,sp,532
  fa:	0008                	0x8
  fc:	c1017003          	0xc1017003
 100:	c844                	sw	s1,20(s0)
 102:	020c                	addi	a1,sp,256
 104:	4470                	lw	a2,76(s0)
 106:	000e                	c.slli	zero,0x3
 108:	002c                	addi	a1,sp,8
 10a:	0000                	unimp
 10c:	0098                	addi	a4,sp,64
 10e:	0000                	unimp
 110:	2488                	fld	fa0,8(s1)
 112:	0002                	c.slli64	zero
 114:	0000                	unimp
 116:	0000                	unimp
 118:	004c                	addi	a1,sp,4
 11a:	0000                	unimp
 11c:	0000                	unimp
 11e:	0000                	unimp
 120:	0e44                	addi	s1,sp,788
 122:	4830                	lw	a2,80(s0)
 124:	0281                	addi	t0,t0,0
 126:	0488                	addi	a0,sp,576
 128:	0c44                	addi	s1,sp,532
 12a:	0008                	0x8
 12c:	c170                	sw	a2,68(a0)
 12e:	c844                	sw	s1,20(s0)
 130:	020c                	addi	a1,sp,256
 132:	4430                	lw	a2,72(s0)
 134:	000e                	c.slli	zero,0x3
 136:	0000                	unimp
 138:	000c                	0xc
 13a:	0000                	unimp
 13c:	ffffffff          	0xffffffff
 140:	7c010003          	lb	zero,1984(sp)
 144:	0d01                	addi	s10,s10,0
 146:	0002                	c.slli64	zero
 148:	002c                	addi	a1,sp,8
 14a:	0000                	unimp
 14c:	0138                	addi	a4,sp,136
 14e:	0000                	unimp
 150:	24d4                	fld	fa3,136(s1)
 152:	0002                	c.slli64	zero
 154:	0000                	unimp
 156:	0000                	unimp
 158:	002c                	addi	a1,sp,8
 15a:	0000                	unimp
 15c:	0000                	unimp
 15e:	0000                	unimp
 160:	0e44                	addi	s1,sp,788
 162:	4420                	lw	s0,72(s0)
 164:	0288                	addi	a0,sp,320
 166:	0c44                	addi	s1,sp,532
 168:	0008                	0x8
 16a:	c858                	sw	a4,20(s0)
 16c:	020c                	addi	a1,sp,256
 16e:	4420                	lw	s0,72(s0)
 170:	000e                	c.slli	zero,0x3
 172:	0000                	unimp
 174:	0000                	unimp
 176:	0000                	unimp
 178:	002c                	addi	a1,sp,8
 17a:	0000                	unimp
 17c:	0138                	addi	a4,sp,136
 17e:	0000                	unimp
 180:	2500                	fld	fs0,8(a0)
 182:	0002                	c.slli64	zero
 184:	0000                	unimp
 186:	0000                	unimp
 188:	0034                	addi	a3,sp,8
 18a:	0000                	unimp
 18c:	0000                	unimp
 18e:	0000                	unimp
 190:	0e44                	addi	s1,sp,788
 192:	4420                	lw	s0,72(s0)
 194:	0288                	addi	a0,sp,320
 196:	0c44                	addi	s1,sp,532
 198:	0008                	0x8
 19a:	c860                	sw	s0,84(s0)
 19c:	020c                	addi	a1,sp,256
 19e:	4420                	lw	s0,72(s0)
 1a0:	000e                	c.slli	zero,0x3
 1a2:	0000                	unimp
 1a4:	0000                	unimp
 1a6:	0000                	unimp
 1a8:	002c                	addi	a1,sp,8
 1aa:	0000                	unimp
 1ac:	0138                	addi	a4,sp,136
 1ae:	0000                	unimp
 1b0:	2534                	fld	fa3,72(a0)
 1b2:	0002                	c.slli64	zero
 1b4:	0000                	unimp
 1b6:	0000                	unimp
 1b8:	0044                	addi	s1,sp,4
 1ba:	0000                	unimp
 1bc:	0000                	unimp
 1be:	0000                	unimp
 1c0:	0e44                	addi	s1,sp,788
 1c2:	4420                	lw	s0,72(s0)
 1c4:	0288                	addi	a0,sp,320
 1c6:	0c44                	addi	s1,sp,532
 1c8:	0008                	0x8
 1ca:	c870                	sw	a2,84(s0)
 1cc:	020c                	addi	a1,sp,256
 1ce:	4420                	lw	s0,72(s0)
 1d0:	000e                	c.slli	zero,0x3
 1d2:	0000                	unimp
 1d4:	0000                	unimp
 1d6:	0000                	unimp
 1d8:	002c                	addi	a1,sp,8
 1da:	0000                	unimp
 1dc:	0138                	addi	a4,sp,136
 1de:	0000                	unimp
 1e0:	2578                	fld	fa4,200(a0)
 1e2:	0002                	c.slli64	zero
 1e4:	0000                	unimp
 1e6:	0000                	unimp
 1e8:	0244                	addi	s1,sp,260
 1ea:	0000                	unimp
 1ec:	0000                	unimp
 1ee:	0000                	unimp
 1f0:	0e44                	addi	s1,sp,788
 1f2:	4820                	lw	s0,80(s0)
 1f4:	0281                	addi	t0,t0,0
 1f6:	0488                	addi	a0,sp,576
 1f8:	0c44                	addi	s1,sp,532
 1fa:	0008                	0x8
 1fc:	c1022803          	lw	a6,-1008(tp) # fffffffffffe0c10 <bss_begin+0xfffffffffffbbc10>
 200:	c844                	sw	s1,20(s0)
 202:	020c                	addi	a1,sp,256
 204:	4420                	lw	s0,72(s0)
 206:	000e                	c.slli	zero,0x3
 208:	002c                	addi	a1,sp,8
 20a:	0000                	unimp
 20c:	0138                	addi	a4,sp,136
 20e:	0000                	unimp
 210:	27bc                	fld	fa5,72(a5)
 212:	0002                	c.slli64	zero
 214:	0000                	unimp
 216:	0000                	unimp
 218:	0174                	addi	a3,sp,140
 21a:	0000                	unimp
 21c:	0000                	unimp
 21e:	0000                	unimp
 220:	0e44                	addi	s1,sp,788
 222:	4820                	lw	s0,80(s0)
 224:	0281                	addi	t0,t0,0
 226:	0488                	addi	a0,sp,576
 228:	0c44                	addi	s1,sp,532
 22a:	0008                	0x8
 22c:	c1015803          	lhu	a6,-1008(sp)
 230:	c844                	sw	s1,20(s0)
 232:	020c                	addi	a1,sp,256
 234:	4420                	lw	s0,72(s0)
 236:	000e                	c.slli	zero,0x3
 238:	002c                	addi	a1,sp,8
 23a:	0000                	unimp
 23c:	0138                	addi	a4,sp,136
 23e:	0000                	unimp
 240:	2930                	fld	fa2,80(a0)
 242:	0002                	c.slli64	zero
 244:	0000                	unimp
 246:	0000                	unimp
 248:	0070                	addi	a2,sp,12
 24a:	0000                	unimp
 24c:	0000                	unimp
 24e:	0000                	unimp
 250:	0e44                	addi	s1,sp,788
 252:	4810                	lw	a2,16(s0)
 254:	0281                	addi	t0,t0,0
 256:	0488                	addi	a0,sp,576
 258:	0c44                	addi	s1,sp,532
 25a:	0008                	0x8
 25c:	5402                	lw	s0,32(sp)
 25e:	44c1                	li	s1,16
 260:	0cc8                	addi	a0,sp,596
 262:	1002                	c.slli	zero,0x20
 264:	0e44                	addi	s1,sp,788
 266:	0000                	unimp
 268:	002c                	addi	a1,sp,8
 26a:	0000                	unimp
 26c:	0138                	addi	a4,sp,136
 26e:	0000                	unimp
 270:	29a0                	fld	fs0,80(a1)
 272:	0002                	c.slli64	zero
 274:	0000                	unimp
 276:	0000                	unimp
 278:	0070                	addi	a2,sp,12
 27a:	0000                	unimp
 27c:	0000                	unimp
 27e:	0000                	unimp
 280:	0e44                	addi	s1,sp,788
 282:	4810                	lw	a2,16(s0)
 284:	0281                	addi	t0,t0,0
 286:	0488                	addi	a0,sp,576
 288:	0c44                	addi	s1,sp,532
 28a:	0008                	0x8
 28c:	5402                	lw	s0,32(sp)
 28e:	44c1                	li	s1,16
 290:	0cc8                	addi	a0,sp,596
 292:	1002                	c.slli	zero,0x20
 294:	0e44                	addi	s1,sp,788
 296:	0000                	unimp
 298:	002c                	addi	a1,sp,8
 29a:	0000                	unimp
 29c:	0138                	addi	a4,sp,136
 29e:	0000                	unimp
 2a0:	2a10                	fld	fa2,16(a2)
 2a2:	0002                	c.slli64	zero
 2a4:	0000                	unimp
 2a6:	0000                	unimp
 2a8:	008c                	addi	a1,sp,64
 2aa:	0000                	unimp
 2ac:	0000                	unimp
 2ae:	0000                	unimp
 2b0:	0e44                	addi	s1,sp,788
 2b2:	4810                	lw	a2,16(s0)
 2b4:	0281                	addi	t0,t0,0
 2b6:	0488                	addi	a0,sp,576
 2b8:	0c44                	addi	s1,sp,532
 2ba:	0008                	0x8
 2bc:	7002                	0x7002
 2be:	44c1                	li	s1,16
 2c0:	0cc8                	addi	a0,sp,596
 2c2:	1002                	c.slli	zero,0x20
 2c4:	0e44                	addi	s1,sp,788
 2c6:	0000                	unimp
 2c8:	002c                	addi	a1,sp,8
 2ca:	0000                	unimp
 2cc:	0138                	addi	a4,sp,136
 2ce:	0000                	unimp
 2d0:	2a9c                	fld	fa5,16(a3)
 2d2:	0002                	c.slli64	zero
 2d4:	0000                	unimp
 2d6:	0000                	unimp
 2d8:	0064                	addi	s1,sp,12
 2da:	0000                	unimp
 2dc:	0000                	unimp
 2de:	0000                	unimp
 2e0:	0e44                	addi	s1,sp,788
 2e2:	4820                	lw	s0,80(s0)
 2e4:	0281                	addi	t0,t0,0
 2e6:	0488                	addi	a0,sp,576
 2e8:	0c44                	addi	s1,sp,532
 2ea:	0008                	0x8
 2ec:	4802                	lw	a6,0(sp)
 2ee:	44c1                	li	s1,16
 2f0:	0cc8                	addi	a0,sp,596
 2f2:	2002                	fld	ft0,0(sp)
 2f4:	0e44                	addi	s1,sp,788
 2f6:	0000                	unimp
 2f8:	002c                	addi	a1,sp,8
 2fa:	0000                	unimp
 2fc:	0138                	addi	a4,sp,136
 2fe:	0000                	unimp
 300:	2b00                	fld	fs0,16(a4)
 302:	0002                	c.slli64	zero
 304:	0000                	unimp
 306:	0000                	unimp
 308:	0100                	addi	s0,sp,128
 30a:	0000                	unimp
 30c:	0000                	unimp
 30e:	0000                	unimp
 310:	0e44                	addi	s1,sp,788
 312:	4830                	lw	a2,80(s0)
 314:	0281                	addi	t0,t0,0
 316:	0488                	addi	a0,sp,576
 318:	0c44                	addi	s1,sp,532
 31a:	0008                	0x8
 31c:	c100e403          	lwu	s0,-1008(ra) # 3c10 <_start-0x1e3f0>
 320:	c844                	sw	s1,20(s0)
 322:	020c                	addi	a1,sp,256
 324:	4430                	lw	a2,72(s0)
 326:	000e                	c.slli	zero,0x3
 328:	002c                	addi	a1,sp,8
 32a:	0000                	unimp
 32c:	0138                	addi	a4,sp,136
 32e:	0000                	unimp
 330:	2c00                	fld	fs0,24(s0)
 332:	0002                	c.slli64	zero
 334:	0000                	unimp
 336:	0000                	unimp
 338:	0084                	addi	s1,sp,64
 33a:	0000                	unimp
 33c:	0000                	unimp
 33e:	0000                	unimp
 340:	0e44                	addi	s1,sp,788
 342:	4810                	lw	a2,16(s0)
 344:	0281                	addi	t0,t0,0
 346:	0488                	addi	a0,sp,576
 348:	0c44                	addi	s1,sp,532
 34a:	0008                	0x8
 34c:	6802                	ld	a6,0(sp)
 34e:	44c1                	li	s1,16
 350:	0cc8                	addi	a0,sp,596
 352:	1002                	c.slli	zero,0x20
 354:	0e44                	addi	s1,sp,788
 356:	0000                	unimp
 358:	000c                	0xc
 35a:	0000                	unimp
 35c:	ffffffff          	0xffffffff
 360:	7c010003          	lb	zero,1984(sp)
 364:	0d01                	addi	s10,s10,0
 366:	0002                	c.slli64	zero
 368:	002c                	addi	a1,sp,8
 36a:	0000                	unimp
 36c:	0358                	addi	a4,sp,388
 36e:	0000                	unimp
 370:	2c84                	fld	fs1,24(s1)
 372:	0002                	c.slli64	zero
 374:	0000                	unimp
 376:	0000                	unimp
 378:	002c                	addi	a1,sp,8
 37a:	0000                	unimp
 37c:	0000                	unimp
 37e:	0000                	unimp
 380:	0e44                	addi	s1,sp,788
 382:	4420                	lw	s0,72(s0)
 384:	0288                	addi	a0,sp,320
 386:	0c44                	addi	s1,sp,532
 388:	0008                	0x8
 38a:	c858                	sw	a4,20(s0)
 38c:	020c                	addi	a1,sp,256
 38e:	4420                	lw	s0,72(s0)
 390:	000e                	c.slli	zero,0x3
 392:	0000                	unimp
 394:	0000                	unimp
 396:	0000                	unimp
 398:	002c                	addi	a1,sp,8
 39a:	0000                	unimp
 39c:	0358                	addi	a4,sp,388
 39e:	0000                	unimp
 3a0:	2cb0                	fld	fa2,88(s1)
 3a2:	0002                	c.slli64	zero
 3a4:	0000                	unimp
 3a6:	0000                	unimp
 3a8:	002c                	addi	a1,sp,8
 3aa:	0000                	unimp
 3ac:	0000                	unimp
 3ae:	0000                	unimp
 3b0:	0e44                	addi	s1,sp,788
 3b2:	4420                	lw	s0,72(s0)
 3b4:	0288                	addi	a0,sp,320
 3b6:	0c44                	addi	s1,sp,532
 3b8:	0008                	0x8
 3ba:	c858                	sw	a4,20(s0)
 3bc:	020c                	addi	a1,sp,256
 3be:	4420                	lw	s0,72(s0)
 3c0:	000e                	c.slli	zero,0x3
 3c2:	0000                	unimp
 3c4:	0000                	unimp
 3c6:	0000                	unimp
 3c8:	002c                	addi	a1,sp,8
 3ca:	0000                	unimp
 3cc:	0358                	addi	a4,sp,388
 3ce:	0000                	unimp
 3d0:	2cdc                	fld	fa5,152(s1)
 3d2:	0002                	c.slli64	zero
 3d4:	0000                	unimp
 3d6:	0000                	unimp
 3d8:	0034                	addi	a3,sp,8
 3da:	0000                	unimp
 3dc:	0000                	unimp
 3de:	0000                	unimp
 3e0:	0e44                	addi	s1,sp,788
 3e2:	4420                	lw	s0,72(s0)
 3e4:	0288                	addi	a0,sp,320
 3e6:	0c44                	addi	s1,sp,532
 3e8:	0008                	0x8
 3ea:	c860                	sw	s0,84(s0)
 3ec:	020c                	addi	a1,sp,256
 3ee:	4420                	lw	s0,72(s0)
 3f0:	000e                	c.slli	zero,0x3
 3f2:	0000                	unimp
 3f4:	0000                	unimp
 3f6:	0000                	unimp
 3f8:	002c                	addi	a1,sp,8
 3fa:	0000                	unimp
 3fc:	0358                	addi	a4,sp,388
 3fe:	0000                	unimp
 400:	2d10                	fld	fa2,24(a0)
 402:	0002                	c.slli64	zero
 404:	0000                	unimp
 406:	0000                	unimp
 408:	024c                	addi	a1,sp,260
 40a:	0000                	unimp
 40c:	0000                	unimp
 40e:	0000                	unimp
 410:	0e44                	addi	s1,sp,788
 412:	4820                	lw	s0,80(s0)
 414:	0281                	addi	t0,t0,0
 416:	0488                	addi	a0,sp,576
 418:	0c44                	addi	s1,sp,532
 41a:	0008                	0x8
 41c:	c1023003          	ld	zero,-1008(tp) # fffffffffffffc10 <bss_begin+0xfffffffffffdac10>
 420:	c844                	sw	s1,20(s0)
 422:	020c                	addi	a1,sp,256
 424:	4420                	lw	s0,72(s0)
 426:	000e                	c.slli	zero,0x3
 428:	002c                	addi	a1,sp,8
 42a:	0000                	unimp
 42c:	0358                	addi	a4,sp,388
 42e:	0000                	unimp
 430:	2f5c                	fld	fa5,152(a4)
 432:	0002                	c.slli64	zero
 434:	0000                	unimp
 436:	0000                	unimp
 438:	0070                	addi	a2,sp,12
 43a:	0000                	unimp
 43c:	0000                	unimp
 43e:	0000                	unimp
 440:	0e44                	addi	s1,sp,788
 442:	4830                	lw	a2,80(s0)
 444:	0281                	addi	t0,t0,0
 446:	0488                	addi	a0,sp,576
 448:	0c44                	addi	s1,sp,532
 44a:	0008                	0x8
 44c:	5402                	lw	s0,32(sp)
 44e:	44c1                	li	s1,16
 450:	0cc8                	addi	a0,sp,596
 452:	3002                	fld	ft0,32(sp)
 454:	0e44                	addi	s1,sp,788
 456:	0000                	unimp
 458:	002c                	addi	a1,sp,8
 45a:	0000                	unimp
 45c:	0358                	addi	a4,sp,388
 45e:	0000                	unimp
 460:	2fcc                	fld	fa1,152(a5)
 462:	0002                	c.slli64	zero
 464:	0000                	unimp
 466:	0000                	unimp
 468:	0040                	addi	s0,sp,4
 46a:	0000                	unimp
 46c:	0000                	unimp
 46e:	0000                	unimp
 470:	0e44                	addi	s1,sp,788
 472:	4820                	lw	s0,80(s0)
 474:	0281                	addi	t0,t0,0
 476:	0488                	addi	a0,sp,576
 478:	0c44                	addi	s1,sp,532
 47a:	0008                	0x8
 47c:	c164                	sw	s1,68(a0)
 47e:	c844                	sw	s1,20(s0)
 480:	020c                	addi	a1,sp,256
 482:	4420                	lw	s0,72(s0)
 484:	000e                	c.slli	zero,0x3
 486:	0000                	unimp
 488:	002c                	addi	a1,sp,8
 48a:	0000                	unimp
 48c:	0358                	addi	a4,sp,388
 48e:	0000                	unimp
 490:	300c                	fld	fa1,32(s0)
 492:	0002                	c.slli64	zero
 494:	0000                	unimp
 496:	0000                	unimp
 498:	0060                	addi	s0,sp,12
 49a:	0000                	unimp
 49c:	0000                	unimp
 49e:	0000                	unimp
 4a0:	0e44                	addi	s1,sp,788
 4a2:	4820                	lw	s0,80(s0)
 4a4:	0281                	addi	t0,t0,0
 4a6:	0488                	addi	a0,sp,576
 4a8:	0c44                	addi	s1,sp,532
 4aa:	0008                	0x8
 4ac:	4402                	lw	s0,0(sp)
 4ae:	44c1                	li	s1,16
 4b0:	0cc8                	addi	a0,sp,596
 4b2:	2002                	fld	ft0,0(sp)
 4b4:	0e44                	addi	s1,sp,788
 4b6:	0000                	unimp
 4b8:	002c                	addi	a1,sp,8
 4ba:	0000                	unimp
 4bc:	0358                	addi	a4,sp,388
 4be:	0000                	unimp
 4c0:	306c                	fld	fa1,224(s0)
 4c2:	0002                	c.slli64	zero
 4c4:	0000                	unimp
 4c6:	0000                	unimp
 4c8:	0090                	addi	a2,sp,64
 4ca:	0000                	unimp
 4cc:	0000                	unimp
 4ce:	0000                	unimp
 4d0:	0e44                	addi	s1,sp,788
 4d2:	4830                	lw	a2,80(s0)
 4d4:	0281                	addi	t0,t0,0
 4d6:	0488                	addi	a0,sp,576
 4d8:	0c44                	addi	s1,sp,532
 4da:	0008                	0x8
 4dc:	7402                	ld	s0,32(sp)
 4de:	44c1                	li	s1,16
 4e0:	0cc8                	addi	a0,sp,596
 4e2:	3002                	fld	ft0,32(sp)
 4e4:	0e44                	addi	s1,sp,788
 4e6:	0000                	unimp
 4e8:	002c                	addi	a1,sp,8
 4ea:	0000                	unimp
 4ec:	0358                	addi	a4,sp,388
 4ee:	0000                	unimp
 4f0:	30fc                	fld	fa5,224(s1)
 4f2:	0002                	c.slli64	zero
 4f4:	0000                	unimp
 4f6:	0000                	unimp
 4f8:	00f0                	addi	a2,sp,76
 4fa:	0000                	unimp
 4fc:	0000                	unimp
 4fe:	0000                	unimp
 500:	0e44                	addi	s1,sp,788
 502:	4440                	lw	s0,12(s0)
 504:	0288                	addi	a0,sp,320
 506:	0c44                	addi	s1,sp,532
 508:	0008                	0x8
 50a:	dc02                	sw	zero,56(sp)
 50c:	0cc8                	addi	a0,sp,596
 50e:	4002                	0x4002
 510:	0e44                	addi	s1,sp,788
 512:	0000                	unimp
 514:	0000                	unimp
 516:	0000                	unimp
 518:	002c                	addi	a1,sp,8
 51a:	0000                	unimp
 51c:	0358                	addi	a4,sp,388
 51e:	0000                	unimp
 520:	31ec                	fld	fa1,224(a1)
 522:	0002                	c.slli64	zero
 524:	0000                	unimp
 526:	0000                	unimp
 528:	01c8                	addi	a0,sp,196
 52a:	0000                	unimp
 52c:	0000                	unimp
 52e:	0000                	unimp
 530:	0e44                	addi	s1,sp,788
 532:	4850                	lw	a2,20(s0)
 534:	0281                	addi	t0,t0,0
 536:	0488                	addi	a0,sp,576
 538:	0c44                	addi	s1,sp,532
 53a:	0008                	0x8
 53c:	c101ac03          	lw	s8,-1008(gp)
 540:	c844                	sw	s1,20(s0)
 542:	020c                	addi	a1,sp,256
 544:	4450                	lw	a2,12(s0)
 546:	000e                	c.slli	zero,0x3
 548:	002c                	addi	a1,sp,8
 54a:	0000                	unimp
 54c:	0358                	addi	a4,sp,388
 54e:	0000                	unimp
 550:	33b4                	fld	fa3,96(a5)
 552:	0002                	c.slli64	zero
 554:	0000                	unimp
 556:	0000                	unimp
 558:	01d4                	addi	a3,sp,196
 55a:	0000                	unimp
 55c:	0000                	unimp
 55e:	0000                	unimp
 560:	0e44                	addi	s1,sp,788
 562:	4850                	lw	a2,20(s0)
 564:	0281                	addi	t0,t0,0
 566:	0488                	addi	a0,sp,576
 568:	0c44                	addi	s1,sp,532
 56a:	0008                	0x8
 56c:	c101b803          	ld	a6,-1008(gp)
 570:	c844                	sw	s1,20(s0)
 572:	020c                	addi	a1,sp,256
 574:	4450                	lw	a2,12(s0)
 576:	000e                	c.slli	zero,0x3
 578:	002c                	addi	a1,sp,8
 57a:	0000                	unimp
 57c:	0358                	addi	a4,sp,388
 57e:	0000                	unimp
 580:	3588                	fld	fa0,40(a1)
 582:	0002                	c.slli64	zero
 584:	0000                	unimp
 586:	0000                	unimp
 588:	006c                	addi	a1,sp,12
 58a:	0000                	unimp
 58c:	0000                	unimp
 58e:	0000                	unimp
 590:	0e44                	addi	s1,sp,788
 592:	4870                	lw	a2,84(s0)
 594:	1281                	addi	t0,t0,-32
 596:	1488                	addi	a0,sp,608
 598:	0c44                	addi	s1,sp,532
 59a:	4008                	lw	a0,0(s0)
 59c:	5002                	0x5002
 59e:	44c1                	li	s1,16
 5a0:	0cc8                	addi	a0,sp,596
 5a2:	7002                	0x7002
 5a4:	0e44                	addi	s1,sp,788
 5a6:	0000                	unimp
 5a8:	002c                	addi	a1,sp,8
 5aa:	0000                	unimp
 5ac:	0358                	addi	a4,sp,388
 5ae:	0000                	unimp
 5b0:	35f4                	fld	fa3,232(a1)
 5b2:	0002                	c.slli64	zero
 5b4:	0000                	unimp
 5b6:	0000                	unimp
 5b8:	00d0                	addi	a2,sp,68
 5ba:	0000                	unimp
 5bc:	0000                	unimp
 5be:	0000                	unimp
 5c0:	0e44                	addi	s1,sp,788
 5c2:	4830                	lw	a2,80(s0)
 5c4:	0281                	addi	t0,t0,0
 5c6:	0488                	addi	a0,sp,576
 5c8:	0c44                	addi	s1,sp,532
 5ca:	0008                	0x8
 5cc:	b402                	fsd	ft0,40(sp)
 5ce:	44c1                	li	s1,16
 5d0:	0cc8                	addi	a0,sp,596
 5d2:	3002                	fld	ft0,32(sp)
 5d4:	0e44                	addi	s1,sp,788
	...
