	.file	"string.c"
	.option nopic
	.attribute arch, "rv64i2p0_m2p0_a2p0_f2p0_d2p0"
	.attribute unaligned_access, 0
	.attribute stack_align, 16
	.text
.Ltext0:
	.cfi_sections	.debug_frame
	.align	2
	.globl	strlen
	.type	strlen, @function
strlen:
.LFB0:
	.file 1 "src/string.c"
	.loc 1 5 1
	.cfi_startproc
	addi	sp,sp,-48
	.cfi_def_cfa_offset 48
	sd	s0,40(sp)
	.cfi_offset 8, -8
	addi	s0,sp,48
	.cfi_def_cfa 8, 0
	sd	a0,-40(s0)
	.loc 1 8 10
	ld	a5,-40(s0)
	sd	a5,-24(s0)
	.loc 1 8 2
	j	.L2
.L3:
	.loc 1 8 28 discriminator 3
	ld	a5,-24(s0)
	addi	a5,a5,1
	sd	a5,-24(s0)
.L2:
	.loc 1 8 15 discriminator 1
	ld	a5,-24(s0)
	lbu	a5,0(a5)
	.loc 1 8 2 discriminator 1
	bne	a5,zero,.L3
	.loc 1 11 12
	ld	a4,-24(s0)
	ld	a5,-40(s0)
	sub	a5,a4,a5
	.loc 1 12 1
	mv	a0,a5
	ld	s0,40(sp)
	.cfi_restore 8
	.cfi_def_cfa 2, 48
	addi	sp,sp,48
	.cfi_def_cfa_offset 0
	jr	ra
	.cfi_endproc
.LFE0:
	.size	strlen, .-strlen
	.align	2
	.globl	memcpy
	.type	memcpy, @function
memcpy:
.LFB1:
	.loc 1 15 1
	.cfi_startproc
	addi	sp,sp,-64
	.cfi_def_cfa_offset 64
	sd	s0,56(sp)
	.cfi_offset 8, -8
	addi	s0,sp,64
	.cfi_def_cfa 8, 0
	sd	a0,-40(s0)
	sd	a1,-48(s0)
	sd	a2,-56(s0)
	.loc 1 16 8
	ld	a5,-40(s0)
	sd	a5,-24(s0)
	.loc 1 17 14
	ld	a5,-48(s0)
	sd	a5,-32(s0)
	.loc 1 19 8
	j	.L6
.L7:
	.loc 1 20 14
	ld	a4,-32(s0)
	addi	a5,a4,1
	sd	a5,-32(s0)
	.loc 1 20 7
	ld	a5,-24(s0)
	addi	a3,a5,1
	sd	a3,-24(s0)
	.loc 1 20 12
	lbu	a4,0(a4)
	.loc 1 20 10
	sb	a4,0(a5)
.L6:
	.loc 1 19 14
	ld	a5,-56(s0)
	addi	a4,a5,-1
	sd	a4,-56(s0)
	.loc 1 19 8
	bne	a5,zero,.L7
	.loc 1 21 9
	ld	a5,-40(s0)
	.loc 1 22 1
	mv	a0,a5
	ld	s0,56(sp)
	.cfi_restore 8
	.cfi_def_cfa 2, 64
	addi	sp,sp,64
	.cfi_def_cfa_offset 0
	jr	ra
	.cfi_endproc
.LFE1:
	.size	memcpy, .-memcpy
.Letext0: